   1              		.cpu cortex-m4
   2              		.arch armv7e-m
   3              		.fpu fpv4-sp-d16
   4              		.eabi_attribute 27, 1
   5              		.eabi_attribute 28, 1
   6              		.eabi_attribute 20, 1
   7              		.eabi_attribute 21, 1
   8              		.eabi_attribute 23, 3
   9              		.eabi_attribute 24, 1
  10              		.eabi_attribute 25, 1
  11              		.eabi_attribute 26, 1
  12              		.eabi_attribute 30, 4
  13              		.eabi_attribute 34, 1
  14              		.eabi_attribute 18, 2
  15              		.file	"hal_gpt_lld.c"
  16              		.text
  17              	.Ltext0:
  18              		.cfi_sections	.debug_frame
  19              		.file 1 "lib/chibios/os/hal/ports/STM32/LLD/TIMv1/hal_gpt_lld.c"
  20              		.section	.text.gpt_lld_init,"ax",%progbits
  21              		.align	1
  22              		.global	gpt_lld_init
  23              		.syntax unified
  24              		.thumb
  25              		.thumb_func
  27              	gpt_lld_init:
  28              	.LFB285:
   1:lib/chibios/os/hal/ports/STM32/LLD/TIMv1/hal_gpt_lld.c **** /*
   2:lib/chibios/os/hal/ports/STM32/LLD/TIMv1/hal_gpt_lld.c ****     ChibiOS - Copyright (C) 2006..2018 Giovanni Di Sirio
   3:lib/chibios/os/hal/ports/STM32/LLD/TIMv1/hal_gpt_lld.c **** 
   4:lib/chibios/os/hal/ports/STM32/LLD/TIMv1/hal_gpt_lld.c ****     Licensed under the Apache License, Version 2.0 (the "License");
   5:lib/chibios/os/hal/ports/STM32/LLD/TIMv1/hal_gpt_lld.c ****     you may not use this file except in compliance with the License.
   6:lib/chibios/os/hal/ports/STM32/LLD/TIMv1/hal_gpt_lld.c ****     You may obtain a copy of the License at
   7:lib/chibios/os/hal/ports/STM32/LLD/TIMv1/hal_gpt_lld.c **** 
   8:lib/chibios/os/hal/ports/STM32/LLD/TIMv1/hal_gpt_lld.c ****         http://www.apache.org/licenses/LICENSE-2.0
   9:lib/chibios/os/hal/ports/STM32/LLD/TIMv1/hal_gpt_lld.c **** 
  10:lib/chibios/os/hal/ports/STM32/LLD/TIMv1/hal_gpt_lld.c ****     Unless required by applicable law or agreed to in writing, software
  11:lib/chibios/os/hal/ports/STM32/LLD/TIMv1/hal_gpt_lld.c ****     distributed under the License is distributed on an "AS IS" BASIS,
  12:lib/chibios/os/hal/ports/STM32/LLD/TIMv1/hal_gpt_lld.c ****     WITHOUT WARRANTIES OR CONDITIONS OF ANY KIND, either express or implied.
  13:lib/chibios/os/hal/ports/STM32/LLD/TIMv1/hal_gpt_lld.c ****     See the License for the specific language governing permissions and
  14:lib/chibios/os/hal/ports/STM32/LLD/TIMv1/hal_gpt_lld.c ****     limitations under the License.
  15:lib/chibios/os/hal/ports/STM32/LLD/TIMv1/hal_gpt_lld.c **** */
  16:lib/chibios/os/hal/ports/STM32/LLD/TIMv1/hal_gpt_lld.c **** 
  17:lib/chibios/os/hal/ports/STM32/LLD/TIMv1/hal_gpt_lld.c **** /**
  18:lib/chibios/os/hal/ports/STM32/LLD/TIMv1/hal_gpt_lld.c ****  * @file    TIMv1/hal_gpt_lld.c
  19:lib/chibios/os/hal/ports/STM32/LLD/TIMv1/hal_gpt_lld.c ****  * @brief   STM32 GPT subsystem low level driver source.
  20:lib/chibios/os/hal/ports/STM32/LLD/TIMv1/hal_gpt_lld.c ****  *
  21:lib/chibios/os/hal/ports/STM32/LLD/TIMv1/hal_gpt_lld.c ****  * @addtogroup GPT
  22:lib/chibios/os/hal/ports/STM32/LLD/TIMv1/hal_gpt_lld.c ****  * @{
  23:lib/chibios/os/hal/ports/STM32/LLD/TIMv1/hal_gpt_lld.c ****  */
  24:lib/chibios/os/hal/ports/STM32/LLD/TIMv1/hal_gpt_lld.c **** 
  25:lib/chibios/os/hal/ports/STM32/LLD/TIMv1/hal_gpt_lld.c **** #include "hal.h"
  26:lib/chibios/os/hal/ports/STM32/LLD/TIMv1/hal_gpt_lld.c **** 
  27:lib/chibios/os/hal/ports/STM32/LLD/TIMv1/hal_gpt_lld.c **** #if HAL_USE_GPT || defined(__DOXYGEN__)
  28:lib/chibios/os/hal/ports/STM32/LLD/TIMv1/hal_gpt_lld.c **** 
  29:lib/chibios/os/hal/ports/STM32/LLD/TIMv1/hal_gpt_lld.c **** /*===========================================================================*/
  30:lib/chibios/os/hal/ports/STM32/LLD/TIMv1/hal_gpt_lld.c **** /* Driver local definitions.                                                 */
  31:lib/chibios/os/hal/ports/STM32/LLD/TIMv1/hal_gpt_lld.c **** /*===========================================================================*/
  32:lib/chibios/os/hal/ports/STM32/LLD/TIMv1/hal_gpt_lld.c **** 
  33:lib/chibios/os/hal/ports/STM32/LLD/TIMv1/hal_gpt_lld.c **** /*===========================================================================*/
  34:lib/chibios/os/hal/ports/STM32/LLD/TIMv1/hal_gpt_lld.c **** /* Driver exported variables.                                                */
  35:lib/chibios/os/hal/ports/STM32/LLD/TIMv1/hal_gpt_lld.c **** /*===========================================================================*/
  36:lib/chibios/os/hal/ports/STM32/LLD/TIMv1/hal_gpt_lld.c **** 
  37:lib/chibios/os/hal/ports/STM32/LLD/TIMv1/hal_gpt_lld.c **** /**
  38:lib/chibios/os/hal/ports/STM32/LLD/TIMv1/hal_gpt_lld.c ****  * @brief   GPTD1 driver identifier.
  39:lib/chibios/os/hal/ports/STM32/LLD/TIMv1/hal_gpt_lld.c ****  * @note    The driver GPTD1 allocates the complex timer TIM1 when enabled.
  40:lib/chibios/os/hal/ports/STM32/LLD/TIMv1/hal_gpt_lld.c ****  */
  41:lib/chibios/os/hal/ports/STM32/LLD/TIMv1/hal_gpt_lld.c **** #if STM32_GPT_USE_TIM1 || defined(__DOXYGEN__)
  42:lib/chibios/os/hal/ports/STM32/LLD/TIMv1/hal_gpt_lld.c **** GPTDriver GPTD1;
  43:lib/chibios/os/hal/ports/STM32/LLD/TIMv1/hal_gpt_lld.c **** #endif
  44:lib/chibios/os/hal/ports/STM32/LLD/TIMv1/hal_gpt_lld.c **** 
  45:lib/chibios/os/hal/ports/STM32/LLD/TIMv1/hal_gpt_lld.c **** /**
  46:lib/chibios/os/hal/ports/STM32/LLD/TIMv1/hal_gpt_lld.c ****  * @brief   GPTD2 driver identifier.
  47:lib/chibios/os/hal/ports/STM32/LLD/TIMv1/hal_gpt_lld.c ****  * @note    The driver GPTD2 allocates the timer TIM2 when enabled.
  48:lib/chibios/os/hal/ports/STM32/LLD/TIMv1/hal_gpt_lld.c ****  */
  49:lib/chibios/os/hal/ports/STM32/LLD/TIMv1/hal_gpt_lld.c **** #if STM32_GPT_USE_TIM2 || defined(__DOXYGEN__)
  50:lib/chibios/os/hal/ports/STM32/LLD/TIMv1/hal_gpt_lld.c **** GPTDriver GPTD2;
  51:lib/chibios/os/hal/ports/STM32/LLD/TIMv1/hal_gpt_lld.c **** #endif
  52:lib/chibios/os/hal/ports/STM32/LLD/TIMv1/hal_gpt_lld.c **** 
  53:lib/chibios/os/hal/ports/STM32/LLD/TIMv1/hal_gpt_lld.c **** /**
  54:lib/chibios/os/hal/ports/STM32/LLD/TIMv1/hal_gpt_lld.c ****  * @brief   GPTD3 driver identifier.
  55:lib/chibios/os/hal/ports/STM32/LLD/TIMv1/hal_gpt_lld.c ****  * @note    The driver GPTD3 allocates the timer TIM3 when enabled.
  56:lib/chibios/os/hal/ports/STM32/LLD/TIMv1/hal_gpt_lld.c ****  */
  57:lib/chibios/os/hal/ports/STM32/LLD/TIMv1/hal_gpt_lld.c **** #if STM32_GPT_USE_TIM3 || defined(__DOXYGEN__)
  58:lib/chibios/os/hal/ports/STM32/LLD/TIMv1/hal_gpt_lld.c **** GPTDriver GPTD3;
  59:lib/chibios/os/hal/ports/STM32/LLD/TIMv1/hal_gpt_lld.c **** #endif
  60:lib/chibios/os/hal/ports/STM32/LLD/TIMv1/hal_gpt_lld.c **** 
  61:lib/chibios/os/hal/ports/STM32/LLD/TIMv1/hal_gpt_lld.c **** /**
  62:lib/chibios/os/hal/ports/STM32/LLD/TIMv1/hal_gpt_lld.c ****  * @brief   GPTD4 driver identifier.
  63:lib/chibios/os/hal/ports/STM32/LLD/TIMv1/hal_gpt_lld.c ****  * @note    The driver GPTD4 allocates the timer TIM4 when enabled.
  64:lib/chibios/os/hal/ports/STM32/LLD/TIMv1/hal_gpt_lld.c ****  */
  65:lib/chibios/os/hal/ports/STM32/LLD/TIMv1/hal_gpt_lld.c **** #if STM32_GPT_USE_TIM4 || defined(__DOXYGEN__)
  66:lib/chibios/os/hal/ports/STM32/LLD/TIMv1/hal_gpt_lld.c **** GPTDriver GPTD4;
  67:lib/chibios/os/hal/ports/STM32/LLD/TIMv1/hal_gpt_lld.c **** #endif
  68:lib/chibios/os/hal/ports/STM32/LLD/TIMv1/hal_gpt_lld.c **** 
  69:lib/chibios/os/hal/ports/STM32/LLD/TIMv1/hal_gpt_lld.c **** /**
  70:lib/chibios/os/hal/ports/STM32/LLD/TIMv1/hal_gpt_lld.c ****  * @brief   GPTD5 driver identifier.
  71:lib/chibios/os/hal/ports/STM32/LLD/TIMv1/hal_gpt_lld.c ****  * @note    The driver GPTD5 allocates the timer TIM5 when enabled.
  72:lib/chibios/os/hal/ports/STM32/LLD/TIMv1/hal_gpt_lld.c ****  */
  73:lib/chibios/os/hal/ports/STM32/LLD/TIMv1/hal_gpt_lld.c **** #if STM32_GPT_USE_TIM5 || defined(__DOXYGEN__)
  74:lib/chibios/os/hal/ports/STM32/LLD/TIMv1/hal_gpt_lld.c **** GPTDriver GPTD5;
  75:lib/chibios/os/hal/ports/STM32/LLD/TIMv1/hal_gpt_lld.c **** #endif
  76:lib/chibios/os/hal/ports/STM32/LLD/TIMv1/hal_gpt_lld.c **** 
  77:lib/chibios/os/hal/ports/STM32/LLD/TIMv1/hal_gpt_lld.c **** /**
  78:lib/chibios/os/hal/ports/STM32/LLD/TIMv1/hal_gpt_lld.c ****  * @brief   GPTD6 driver identifier.
  79:lib/chibios/os/hal/ports/STM32/LLD/TIMv1/hal_gpt_lld.c ****  * @note    The driver GPTD6 allocates the timer TIM6 when enabled.
  80:lib/chibios/os/hal/ports/STM32/LLD/TIMv1/hal_gpt_lld.c ****  */
  81:lib/chibios/os/hal/ports/STM32/LLD/TIMv1/hal_gpt_lld.c **** #if STM32_GPT_USE_TIM6 || defined(__DOXYGEN__)
  82:lib/chibios/os/hal/ports/STM32/LLD/TIMv1/hal_gpt_lld.c **** GPTDriver GPTD6;
  83:lib/chibios/os/hal/ports/STM32/LLD/TIMv1/hal_gpt_lld.c **** #endif
  84:lib/chibios/os/hal/ports/STM32/LLD/TIMv1/hal_gpt_lld.c **** 
  85:lib/chibios/os/hal/ports/STM32/LLD/TIMv1/hal_gpt_lld.c **** /**
  86:lib/chibios/os/hal/ports/STM32/LLD/TIMv1/hal_gpt_lld.c ****  * @brief   GPTD7 driver identifier.
  87:lib/chibios/os/hal/ports/STM32/LLD/TIMv1/hal_gpt_lld.c ****  * @note    The driver GPTD7 allocates the timer TIM7 when enabled.
  88:lib/chibios/os/hal/ports/STM32/LLD/TIMv1/hal_gpt_lld.c ****  */
  89:lib/chibios/os/hal/ports/STM32/LLD/TIMv1/hal_gpt_lld.c **** #if STM32_GPT_USE_TIM7 || defined(__DOXYGEN__)
  90:lib/chibios/os/hal/ports/STM32/LLD/TIMv1/hal_gpt_lld.c **** GPTDriver GPTD7;
  91:lib/chibios/os/hal/ports/STM32/LLD/TIMv1/hal_gpt_lld.c **** #endif
  92:lib/chibios/os/hal/ports/STM32/LLD/TIMv1/hal_gpt_lld.c **** 
  93:lib/chibios/os/hal/ports/STM32/LLD/TIMv1/hal_gpt_lld.c **** /**
  94:lib/chibios/os/hal/ports/STM32/LLD/TIMv1/hal_gpt_lld.c ****  * @brief   GPTD8 driver identifier.
  95:lib/chibios/os/hal/ports/STM32/LLD/TIMv1/hal_gpt_lld.c ****  * @note    The driver GPTD8 allocates the timer TIM8 when enabled.
  96:lib/chibios/os/hal/ports/STM32/LLD/TIMv1/hal_gpt_lld.c ****  */
  97:lib/chibios/os/hal/ports/STM32/LLD/TIMv1/hal_gpt_lld.c **** #if STM32_GPT_USE_TIM8 || defined(__DOXYGEN__)
  98:lib/chibios/os/hal/ports/STM32/LLD/TIMv1/hal_gpt_lld.c **** GPTDriver GPTD8;
  99:lib/chibios/os/hal/ports/STM32/LLD/TIMv1/hal_gpt_lld.c **** #endif
 100:lib/chibios/os/hal/ports/STM32/LLD/TIMv1/hal_gpt_lld.c **** 
 101:lib/chibios/os/hal/ports/STM32/LLD/TIMv1/hal_gpt_lld.c **** /**
 102:lib/chibios/os/hal/ports/STM32/LLD/TIMv1/hal_gpt_lld.c ****  * @brief   GPTD9 driver identifier.
 103:lib/chibios/os/hal/ports/STM32/LLD/TIMv1/hal_gpt_lld.c ****  * @note    The driver GPTD9 allocates the timer TIM9 when enabled.
 104:lib/chibios/os/hal/ports/STM32/LLD/TIMv1/hal_gpt_lld.c ****  */
 105:lib/chibios/os/hal/ports/STM32/LLD/TIMv1/hal_gpt_lld.c **** #if STM32_GPT_USE_TIM9 || defined(__DOXYGEN__)
 106:lib/chibios/os/hal/ports/STM32/LLD/TIMv1/hal_gpt_lld.c **** GPTDriver GPTD9;
 107:lib/chibios/os/hal/ports/STM32/LLD/TIMv1/hal_gpt_lld.c **** #endif
 108:lib/chibios/os/hal/ports/STM32/LLD/TIMv1/hal_gpt_lld.c **** 
 109:lib/chibios/os/hal/ports/STM32/LLD/TIMv1/hal_gpt_lld.c **** /**
 110:lib/chibios/os/hal/ports/STM32/LLD/TIMv1/hal_gpt_lld.c ****  * @brief   GPTD10 driver identifier.
 111:lib/chibios/os/hal/ports/STM32/LLD/TIMv1/hal_gpt_lld.c ****  * @note    The driver GPTD10 allocates the timer TIM10 when enabled.
 112:lib/chibios/os/hal/ports/STM32/LLD/TIMv1/hal_gpt_lld.c ****  */
 113:lib/chibios/os/hal/ports/STM32/LLD/TIMv1/hal_gpt_lld.c **** #if STM32_GPT_USE_TIM10 || defined(__DOXYGEN__)
 114:lib/chibios/os/hal/ports/STM32/LLD/TIMv1/hal_gpt_lld.c **** GPTDriver GPTD10;
 115:lib/chibios/os/hal/ports/STM32/LLD/TIMv1/hal_gpt_lld.c **** #endif
 116:lib/chibios/os/hal/ports/STM32/LLD/TIMv1/hal_gpt_lld.c **** 
 117:lib/chibios/os/hal/ports/STM32/LLD/TIMv1/hal_gpt_lld.c **** /**
 118:lib/chibios/os/hal/ports/STM32/LLD/TIMv1/hal_gpt_lld.c ****  * @brief   GPTD11 driver identifier.
 119:lib/chibios/os/hal/ports/STM32/LLD/TIMv1/hal_gpt_lld.c ****  * @note    The driver GPTD11 allocates the timer TIM11 when enabled.
 120:lib/chibios/os/hal/ports/STM32/LLD/TIMv1/hal_gpt_lld.c ****  */
 121:lib/chibios/os/hal/ports/STM32/LLD/TIMv1/hal_gpt_lld.c **** #if STM32_GPT_USE_TIM11 || defined(__DOXYGEN__)
 122:lib/chibios/os/hal/ports/STM32/LLD/TIMv1/hal_gpt_lld.c **** GPTDriver GPTD11;
 123:lib/chibios/os/hal/ports/STM32/LLD/TIMv1/hal_gpt_lld.c **** #endif
 124:lib/chibios/os/hal/ports/STM32/LLD/TIMv1/hal_gpt_lld.c **** 
 125:lib/chibios/os/hal/ports/STM32/LLD/TIMv1/hal_gpt_lld.c **** /**
 126:lib/chibios/os/hal/ports/STM32/LLD/TIMv1/hal_gpt_lld.c ****  * @brief   GPTD12 driver identifier.
 127:lib/chibios/os/hal/ports/STM32/LLD/TIMv1/hal_gpt_lld.c ****  * @note    The driver GPTD12 allocates the timer TIM12 when enabled.
 128:lib/chibios/os/hal/ports/STM32/LLD/TIMv1/hal_gpt_lld.c ****  */
 129:lib/chibios/os/hal/ports/STM32/LLD/TIMv1/hal_gpt_lld.c **** #if STM32_GPT_USE_TIM12 || defined(__DOXYGEN__)
 130:lib/chibios/os/hal/ports/STM32/LLD/TIMv1/hal_gpt_lld.c **** GPTDriver GPTD12;
 131:lib/chibios/os/hal/ports/STM32/LLD/TIMv1/hal_gpt_lld.c **** #endif
 132:lib/chibios/os/hal/ports/STM32/LLD/TIMv1/hal_gpt_lld.c **** 
 133:lib/chibios/os/hal/ports/STM32/LLD/TIMv1/hal_gpt_lld.c **** /**
 134:lib/chibios/os/hal/ports/STM32/LLD/TIMv1/hal_gpt_lld.c ****  * @brief   GPTD13 driver identifier.
 135:lib/chibios/os/hal/ports/STM32/LLD/TIMv1/hal_gpt_lld.c ****  * @note    The driver GPTD13 allocates the timer TIM13 when enabled.
 136:lib/chibios/os/hal/ports/STM32/LLD/TIMv1/hal_gpt_lld.c ****  */
 137:lib/chibios/os/hal/ports/STM32/LLD/TIMv1/hal_gpt_lld.c **** #if STM32_GPT_USE_TIM13 || defined(__DOXYGEN__)
 138:lib/chibios/os/hal/ports/STM32/LLD/TIMv1/hal_gpt_lld.c **** GPTDriver GPTD13;
 139:lib/chibios/os/hal/ports/STM32/LLD/TIMv1/hal_gpt_lld.c **** #endif
 140:lib/chibios/os/hal/ports/STM32/LLD/TIMv1/hal_gpt_lld.c **** 
 141:lib/chibios/os/hal/ports/STM32/LLD/TIMv1/hal_gpt_lld.c **** /**
 142:lib/chibios/os/hal/ports/STM32/LLD/TIMv1/hal_gpt_lld.c ****  * @brief   GPTD14 driver identifier.
 143:lib/chibios/os/hal/ports/STM32/LLD/TIMv1/hal_gpt_lld.c ****  * @note    The driver GPTD14 allocates the timer TIM14 when enabled.
 144:lib/chibios/os/hal/ports/STM32/LLD/TIMv1/hal_gpt_lld.c ****  */
 145:lib/chibios/os/hal/ports/STM32/LLD/TIMv1/hal_gpt_lld.c **** #if STM32_GPT_USE_TIM14 || defined(__DOXYGEN__)
 146:lib/chibios/os/hal/ports/STM32/LLD/TIMv1/hal_gpt_lld.c **** GPTDriver GPTD14;
 147:lib/chibios/os/hal/ports/STM32/LLD/TIMv1/hal_gpt_lld.c **** #endif
 148:lib/chibios/os/hal/ports/STM32/LLD/TIMv1/hal_gpt_lld.c **** 
 149:lib/chibios/os/hal/ports/STM32/LLD/TIMv1/hal_gpt_lld.c **** /**
 150:lib/chibios/os/hal/ports/STM32/LLD/TIMv1/hal_gpt_lld.c ****  * @brief   GPTD15 driver identifier.
 151:lib/chibios/os/hal/ports/STM32/LLD/TIMv1/hal_gpt_lld.c ****  * @note    The driver GPTD14 allocates the timer TIM14 when enabled.
 152:lib/chibios/os/hal/ports/STM32/LLD/TIMv1/hal_gpt_lld.c ****  */
 153:lib/chibios/os/hal/ports/STM32/LLD/TIMv1/hal_gpt_lld.c **** #if STM32_GPT_USE_TIM15 || defined(__DOXYGEN__)
 154:lib/chibios/os/hal/ports/STM32/LLD/TIMv1/hal_gpt_lld.c **** GPTDriver GPTD15;
 155:lib/chibios/os/hal/ports/STM32/LLD/TIMv1/hal_gpt_lld.c **** #endif
 156:lib/chibios/os/hal/ports/STM32/LLD/TIMv1/hal_gpt_lld.c **** 
 157:lib/chibios/os/hal/ports/STM32/LLD/TIMv1/hal_gpt_lld.c **** /**
 158:lib/chibios/os/hal/ports/STM32/LLD/TIMv1/hal_gpt_lld.c ****  * @brief   GPTD16 driver identifier.
 159:lib/chibios/os/hal/ports/STM32/LLD/TIMv1/hal_gpt_lld.c ****  * @note    The driver GPTD14 allocates the timer TIM14 when enabled.
 160:lib/chibios/os/hal/ports/STM32/LLD/TIMv1/hal_gpt_lld.c ****  */
 161:lib/chibios/os/hal/ports/STM32/LLD/TIMv1/hal_gpt_lld.c **** #if STM32_GPT_USE_TIM16 || defined(__DOXYGEN__)
 162:lib/chibios/os/hal/ports/STM32/LLD/TIMv1/hal_gpt_lld.c **** GPTDriver GPTD16;
 163:lib/chibios/os/hal/ports/STM32/LLD/TIMv1/hal_gpt_lld.c **** #endif
 164:lib/chibios/os/hal/ports/STM32/LLD/TIMv1/hal_gpt_lld.c **** 
 165:lib/chibios/os/hal/ports/STM32/LLD/TIMv1/hal_gpt_lld.c **** /**
 166:lib/chibios/os/hal/ports/STM32/LLD/TIMv1/hal_gpt_lld.c ****  * @brief   GPTD17 driver identifier.
 167:lib/chibios/os/hal/ports/STM32/LLD/TIMv1/hal_gpt_lld.c ****  * @note    The driver GPTD14 allocates the timer TIM14 when enabled.
 168:lib/chibios/os/hal/ports/STM32/LLD/TIMv1/hal_gpt_lld.c ****  */
 169:lib/chibios/os/hal/ports/STM32/LLD/TIMv1/hal_gpt_lld.c **** #if STM32_GPT_USE_TIM17 || defined(__DOXYGEN__)
 170:lib/chibios/os/hal/ports/STM32/LLD/TIMv1/hal_gpt_lld.c **** GPTDriver GPTD17;
 171:lib/chibios/os/hal/ports/STM32/LLD/TIMv1/hal_gpt_lld.c **** #endif
 172:lib/chibios/os/hal/ports/STM32/LLD/TIMv1/hal_gpt_lld.c **** 
 173:lib/chibios/os/hal/ports/STM32/LLD/TIMv1/hal_gpt_lld.c **** /**
 174:lib/chibios/os/hal/ports/STM32/LLD/TIMv1/hal_gpt_lld.c ****  * @brief   GPTD21 driver identifier.
 175:lib/chibios/os/hal/ports/STM32/LLD/TIMv1/hal_gpt_lld.c ****  * @note    The driver GPTD21 allocates the timer TIM21 when enabled.
 176:lib/chibios/os/hal/ports/STM32/LLD/TIMv1/hal_gpt_lld.c ****  */
 177:lib/chibios/os/hal/ports/STM32/LLD/TIMv1/hal_gpt_lld.c **** #if STM32_GPT_USE_TIM21 || defined(__DOXYGEN__)
 178:lib/chibios/os/hal/ports/STM32/LLD/TIMv1/hal_gpt_lld.c **** GPTDriver GPTD21;
 179:lib/chibios/os/hal/ports/STM32/LLD/TIMv1/hal_gpt_lld.c **** #endif
 180:lib/chibios/os/hal/ports/STM32/LLD/TIMv1/hal_gpt_lld.c **** 
 181:lib/chibios/os/hal/ports/STM32/LLD/TIMv1/hal_gpt_lld.c **** /**
 182:lib/chibios/os/hal/ports/STM32/LLD/TIMv1/hal_gpt_lld.c ****  * @brief   GPTD22 driver identifier.
 183:lib/chibios/os/hal/ports/STM32/LLD/TIMv1/hal_gpt_lld.c ****  * @note    The driver GPTD22 allocates the timer TIM22 when enabled.
 184:lib/chibios/os/hal/ports/STM32/LLD/TIMv1/hal_gpt_lld.c ****  */
 185:lib/chibios/os/hal/ports/STM32/LLD/TIMv1/hal_gpt_lld.c **** #if STM32_GPT_USE_TIM22 || defined(__DOXYGEN__)
 186:lib/chibios/os/hal/ports/STM32/LLD/TIMv1/hal_gpt_lld.c **** GPTDriver GPTD22;
 187:lib/chibios/os/hal/ports/STM32/LLD/TIMv1/hal_gpt_lld.c **** #endif
 188:lib/chibios/os/hal/ports/STM32/LLD/TIMv1/hal_gpt_lld.c **** 
 189:lib/chibios/os/hal/ports/STM32/LLD/TIMv1/hal_gpt_lld.c **** /*===========================================================================*/
 190:lib/chibios/os/hal/ports/STM32/LLD/TIMv1/hal_gpt_lld.c **** /* Driver local variables and types.                                         */
 191:lib/chibios/os/hal/ports/STM32/LLD/TIMv1/hal_gpt_lld.c **** /*===========================================================================*/
 192:lib/chibios/os/hal/ports/STM32/LLD/TIMv1/hal_gpt_lld.c **** 
 193:lib/chibios/os/hal/ports/STM32/LLD/TIMv1/hal_gpt_lld.c **** /*===========================================================================*/
 194:lib/chibios/os/hal/ports/STM32/LLD/TIMv1/hal_gpt_lld.c **** /* Driver local functions.                                                   */
 195:lib/chibios/os/hal/ports/STM32/LLD/TIMv1/hal_gpt_lld.c **** /*===========================================================================*/
 196:lib/chibios/os/hal/ports/STM32/LLD/TIMv1/hal_gpt_lld.c **** 
 197:lib/chibios/os/hal/ports/STM32/LLD/TIMv1/hal_gpt_lld.c **** /*===========================================================================*/
 198:lib/chibios/os/hal/ports/STM32/LLD/TIMv1/hal_gpt_lld.c **** /* Driver interrupt handlers.                                                */
 199:lib/chibios/os/hal/ports/STM32/LLD/TIMv1/hal_gpt_lld.c **** /*===========================================================================*/
 200:lib/chibios/os/hal/ports/STM32/LLD/TIMv1/hal_gpt_lld.c **** 
 201:lib/chibios/os/hal/ports/STM32/LLD/TIMv1/hal_gpt_lld.c **** #if STM32_GPT_USE_TIM1 || defined(__DOXYGEN__)
 202:lib/chibios/os/hal/ports/STM32/LLD/TIMv1/hal_gpt_lld.c **** #if !defined(STM32_TIM1_SUPPRESS_ISR)
 203:lib/chibios/os/hal/ports/STM32/LLD/TIMv1/hal_gpt_lld.c **** #if !defined(STM32_TIM1_UP_HANDLER)
 204:lib/chibios/os/hal/ports/STM32/LLD/TIMv1/hal_gpt_lld.c **** #error "STM32_TIM1_UP_HANDLER not defined"
 205:lib/chibios/os/hal/ports/STM32/LLD/TIMv1/hal_gpt_lld.c **** #endif
 206:lib/chibios/os/hal/ports/STM32/LLD/TIMv1/hal_gpt_lld.c **** /**
 207:lib/chibios/os/hal/ports/STM32/LLD/TIMv1/hal_gpt_lld.c ****  * @brief   TIM1 interrupt handler.
 208:lib/chibios/os/hal/ports/STM32/LLD/TIMv1/hal_gpt_lld.c ****  *
 209:lib/chibios/os/hal/ports/STM32/LLD/TIMv1/hal_gpt_lld.c ****  * @isr
 210:lib/chibios/os/hal/ports/STM32/LLD/TIMv1/hal_gpt_lld.c ****  */
 211:lib/chibios/os/hal/ports/STM32/LLD/TIMv1/hal_gpt_lld.c **** OSAL_IRQ_HANDLER(STM32_TIM1_UP_HANDLER) {
 212:lib/chibios/os/hal/ports/STM32/LLD/TIMv1/hal_gpt_lld.c **** 
 213:lib/chibios/os/hal/ports/STM32/LLD/TIMv1/hal_gpt_lld.c ****   OSAL_IRQ_PROLOGUE();
 214:lib/chibios/os/hal/ports/STM32/LLD/TIMv1/hal_gpt_lld.c **** 
 215:lib/chibios/os/hal/ports/STM32/LLD/TIMv1/hal_gpt_lld.c ****   gpt_lld_serve_interrupt(&GPTD1);
 216:lib/chibios/os/hal/ports/STM32/LLD/TIMv1/hal_gpt_lld.c **** 
 217:lib/chibios/os/hal/ports/STM32/LLD/TIMv1/hal_gpt_lld.c ****   OSAL_IRQ_EPILOGUE();
 218:lib/chibios/os/hal/ports/STM32/LLD/TIMv1/hal_gpt_lld.c **** }
 219:lib/chibios/os/hal/ports/STM32/LLD/TIMv1/hal_gpt_lld.c **** #endif /* !defined(STM32_TIM1_SUPPRESS_ISR) */
 220:lib/chibios/os/hal/ports/STM32/LLD/TIMv1/hal_gpt_lld.c **** #endif /* STM32_GPT_USE_TIM1 */
 221:lib/chibios/os/hal/ports/STM32/LLD/TIMv1/hal_gpt_lld.c **** 
 222:lib/chibios/os/hal/ports/STM32/LLD/TIMv1/hal_gpt_lld.c **** #if STM32_GPT_USE_TIM2 || defined(__DOXYGEN__)
 223:lib/chibios/os/hal/ports/STM32/LLD/TIMv1/hal_gpt_lld.c **** #if !defined(STM32_TIM2_SUPPRESS_ISR)
 224:lib/chibios/os/hal/ports/STM32/LLD/TIMv1/hal_gpt_lld.c **** #if !defined(STM32_TIM2_HANDLER)
 225:lib/chibios/os/hal/ports/STM32/LLD/TIMv1/hal_gpt_lld.c **** #error "STM32_TIM2_HANDLER not defined"
 226:lib/chibios/os/hal/ports/STM32/LLD/TIMv1/hal_gpt_lld.c **** #endif
 227:lib/chibios/os/hal/ports/STM32/LLD/TIMv1/hal_gpt_lld.c **** /**
 228:lib/chibios/os/hal/ports/STM32/LLD/TIMv1/hal_gpt_lld.c ****  * @brief   TIM2 interrupt handler.
 229:lib/chibios/os/hal/ports/STM32/LLD/TIMv1/hal_gpt_lld.c ****  *
 230:lib/chibios/os/hal/ports/STM32/LLD/TIMv1/hal_gpt_lld.c ****  * @isr
 231:lib/chibios/os/hal/ports/STM32/LLD/TIMv1/hal_gpt_lld.c ****  */
 232:lib/chibios/os/hal/ports/STM32/LLD/TIMv1/hal_gpt_lld.c **** OSAL_IRQ_HANDLER(STM32_TIM2_HANDLER) {
 233:lib/chibios/os/hal/ports/STM32/LLD/TIMv1/hal_gpt_lld.c **** 
 234:lib/chibios/os/hal/ports/STM32/LLD/TIMv1/hal_gpt_lld.c ****   OSAL_IRQ_PROLOGUE();
 235:lib/chibios/os/hal/ports/STM32/LLD/TIMv1/hal_gpt_lld.c **** 
 236:lib/chibios/os/hal/ports/STM32/LLD/TIMv1/hal_gpt_lld.c ****   gpt_lld_serve_interrupt(&GPTD2);
 237:lib/chibios/os/hal/ports/STM32/LLD/TIMv1/hal_gpt_lld.c **** 
 238:lib/chibios/os/hal/ports/STM32/LLD/TIMv1/hal_gpt_lld.c ****   OSAL_IRQ_EPILOGUE();
 239:lib/chibios/os/hal/ports/STM32/LLD/TIMv1/hal_gpt_lld.c **** }
 240:lib/chibios/os/hal/ports/STM32/LLD/TIMv1/hal_gpt_lld.c **** #endif /* !defined(STM32_TIM2_SUPPRESS_ISR) */
 241:lib/chibios/os/hal/ports/STM32/LLD/TIMv1/hal_gpt_lld.c **** #endif /* STM32_GPT_USE_TIM2 */
 242:lib/chibios/os/hal/ports/STM32/LLD/TIMv1/hal_gpt_lld.c **** 
 243:lib/chibios/os/hal/ports/STM32/LLD/TIMv1/hal_gpt_lld.c **** #if STM32_GPT_USE_TIM3 || defined(__DOXYGEN__)
 244:lib/chibios/os/hal/ports/STM32/LLD/TIMv1/hal_gpt_lld.c **** #if !defined(STM32_TIM3_SUPPRESS_ISR)
 245:lib/chibios/os/hal/ports/STM32/LLD/TIMv1/hal_gpt_lld.c **** #if !defined(STM32_TIM3_HANDLER)
 246:lib/chibios/os/hal/ports/STM32/LLD/TIMv1/hal_gpt_lld.c **** #error "STM32_TIM3_HANDLER not defined"
 247:lib/chibios/os/hal/ports/STM32/LLD/TIMv1/hal_gpt_lld.c **** #endif
 248:lib/chibios/os/hal/ports/STM32/LLD/TIMv1/hal_gpt_lld.c **** /**
 249:lib/chibios/os/hal/ports/STM32/LLD/TIMv1/hal_gpt_lld.c ****  * @brief   TIM3 interrupt handler.
 250:lib/chibios/os/hal/ports/STM32/LLD/TIMv1/hal_gpt_lld.c ****  *
 251:lib/chibios/os/hal/ports/STM32/LLD/TIMv1/hal_gpt_lld.c ****  * @isr
 252:lib/chibios/os/hal/ports/STM32/LLD/TIMv1/hal_gpt_lld.c ****  */
 253:lib/chibios/os/hal/ports/STM32/LLD/TIMv1/hal_gpt_lld.c **** OSAL_IRQ_HANDLER(STM32_TIM3_HANDLER) {
 254:lib/chibios/os/hal/ports/STM32/LLD/TIMv1/hal_gpt_lld.c **** 
 255:lib/chibios/os/hal/ports/STM32/LLD/TIMv1/hal_gpt_lld.c ****   OSAL_IRQ_PROLOGUE();
 256:lib/chibios/os/hal/ports/STM32/LLD/TIMv1/hal_gpt_lld.c **** 
 257:lib/chibios/os/hal/ports/STM32/LLD/TIMv1/hal_gpt_lld.c ****   gpt_lld_serve_interrupt(&GPTD3);
 258:lib/chibios/os/hal/ports/STM32/LLD/TIMv1/hal_gpt_lld.c **** 
 259:lib/chibios/os/hal/ports/STM32/LLD/TIMv1/hal_gpt_lld.c ****   OSAL_IRQ_EPILOGUE();
 260:lib/chibios/os/hal/ports/STM32/LLD/TIMv1/hal_gpt_lld.c **** }
 261:lib/chibios/os/hal/ports/STM32/LLD/TIMv1/hal_gpt_lld.c **** #endif /* !defined(STM32_TIM3_SUPPRESS_ISR) */
 262:lib/chibios/os/hal/ports/STM32/LLD/TIMv1/hal_gpt_lld.c **** #endif /* STM32_GPT_USE_TIM3 */
 263:lib/chibios/os/hal/ports/STM32/LLD/TIMv1/hal_gpt_lld.c **** 
 264:lib/chibios/os/hal/ports/STM32/LLD/TIMv1/hal_gpt_lld.c **** #if STM32_GPT_USE_TIM4 || defined(__DOXYGEN__)
 265:lib/chibios/os/hal/ports/STM32/LLD/TIMv1/hal_gpt_lld.c **** #if !defined(STM32_TIM4_SUPPRESS_ISR)
 266:lib/chibios/os/hal/ports/STM32/LLD/TIMv1/hal_gpt_lld.c **** #if !defined(STM32_TIM4_HANDLER)
 267:lib/chibios/os/hal/ports/STM32/LLD/TIMv1/hal_gpt_lld.c **** #error "STM32_TIM4_HANDLER not defined"
 268:lib/chibios/os/hal/ports/STM32/LLD/TIMv1/hal_gpt_lld.c **** #endif
 269:lib/chibios/os/hal/ports/STM32/LLD/TIMv1/hal_gpt_lld.c **** /**
 270:lib/chibios/os/hal/ports/STM32/LLD/TIMv1/hal_gpt_lld.c ****  * @brief   TIM4 interrupt handler.
 271:lib/chibios/os/hal/ports/STM32/LLD/TIMv1/hal_gpt_lld.c ****  *
 272:lib/chibios/os/hal/ports/STM32/LLD/TIMv1/hal_gpt_lld.c ****  * @isr
 273:lib/chibios/os/hal/ports/STM32/LLD/TIMv1/hal_gpt_lld.c ****  */
 274:lib/chibios/os/hal/ports/STM32/LLD/TIMv1/hal_gpt_lld.c **** OSAL_IRQ_HANDLER(STM32_TIM4_HANDLER) {
 275:lib/chibios/os/hal/ports/STM32/LLD/TIMv1/hal_gpt_lld.c **** 
 276:lib/chibios/os/hal/ports/STM32/LLD/TIMv1/hal_gpt_lld.c ****   OSAL_IRQ_PROLOGUE();
 277:lib/chibios/os/hal/ports/STM32/LLD/TIMv1/hal_gpt_lld.c **** 
 278:lib/chibios/os/hal/ports/STM32/LLD/TIMv1/hal_gpt_lld.c ****   gpt_lld_serve_interrupt(&GPTD4);
 279:lib/chibios/os/hal/ports/STM32/LLD/TIMv1/hal_gpt_lld.c **** 
 280:lib/chibios/os/hal/ports/STM32/LLD/TIMv1/hal_gpt_lld.c ****   OSAL_IRQ_EPILOGUE();
 281:lib/chibios/os/hal/ports/STM32/LLD/TIMv1/hal_gpt_lld.c **** }
 282:lib/chibios/os/hal/ports/STM32/LLD/TIMv1/hal_gpt_lld.c **** #endif /* !defined(STM32_TIM4_SUPPRESS_ISR) */
 283:lib/chibios/os/hal/ports/STM32/LLD/TIMv1/hal_gpt_lld.c **** #endif /* STM32_GPT_USE_TIM4 */
 284:lib/chibios/os/hal/ports/STM32/LLD/TIMv1/hal_gpt_lld.c **** 
 285:lib/chibios/os/hal/ports/STM32/LLD/TIMv1/hal_gpt_lld.c **** #if STM32_GPT_USE_TIM5 || defined(__DOXYGEN__)
 286:lib/chibios/os/hal/ports/STM32/LLD/TIMv1/hal_gpt_lld.c **** #if !defined(STM32_TIM5_SUPPRESS_ISR)
 287:lib/chibios/os/hal/ports/STM32/LLD/TIMv1/hal_gpt_lld.c **** #if !defined(STM32_TIM5_HANDLER)
 288:lib/chibios/os/hal/ports/STM32/LLD/TIMv1/hal_gpt_lld.c **** #error "STM32_TIM5_HANDLER not defined"
 289:lib/chibios/os/hal/ports/STM32/LLD/TIMv1/hal_gpt_lld.c **** #endif
 290:lib/chibios/os/hal/ports/STM32/LLD/TIMv1/hal_gpt_lld.c **** /**
 291:lib/chibios/os/hal/ports/STM32/LLD/TIMv1/hal_gpt_lld.c ****  * @brief   TIM5 interrupt handler.
 292:lib/chibios/os/hal/ports/STM32/LLD/TIMv1/hal_gpt_lld.c ****  *
 293:lib/chibios/os/hal/ports/STM32/LLD/TIMv1/hal_gpt_lld.c ****  * @isr
 294:lib/chibios/os/hal/ports/STM32/LLD/TIMv1/hal_gpt_lld.c ****  */
 295:lib/chibios/os/hal/ports/STM32/LLD/TIMv1/hal_gpt_lld.c **** OSAL_IRQ_HANDLER(STM32_TIM5_HANDLER) {
 296:lib/chibios/os/hal/ports/STM32/LLD/TIMv1/hal_gpt_lld.c **** 
 297:lib/chibios/os/hal/ports/STM32/LLD/TIMv1/hal_gpt_lld.c ****   OSAL_IRQ_PROLOGUE();
 298:lib/chibios/os/hal/ports/STM32/LLD/TIMv1/hal_gpt_lld.c **** 
 299:lib/chibios/os/hal/ports/STM32/LLD/TIMv1/hal_gpt_lld.c ****   gpt_lld_serve_interrupt(&GPTD5);
 300:lib/chibios/os/hal/ports/STM32/LLD/TIMv1/hal_gpt_lld.c **** 
 301:lib/chibios/os/hal/ports/STM32/LLD/TIMv1/hal_gpt_lld.c ****   OSAL_IRQ_EPILOGUE();
 302:lib/chibios/os/hal/ports/STM32/LLD/TIMv1/hal_gpt_lld.c **** }
 303:lib/chibios/os/hal/ports/STM32/LLD/TIMv1/hal_gpt_lld.c **** #endif /* !defined(STM32_TIM5_SUPPRESS_ISR) */
 304:lib/chibios/os/hal/ports/STM32/LLD/TIMv1/hal_gpt_lld.c **** #endif /* STM32_GPT_USE_TIM5 */
 305:lib/chibios/os/hal/ports/STM32/LLD/TIMv1/hal_gpt_lld.c **** 
 306:lib/chibios/os/hal/ports/STM32/LLD/TIMv1/hal_gpt_lld.c **** #if STM32_GPT_USE_TIM6 || defined(__DOXYGEN__)
 307:lib/chibios/os/hal/ports/STM32/LLD/TIMv1/hal_gpt_lld.c **** #if !defined(STM32_TIM6_SUPPRESS_ISR)
 308:lib/chibios/os/hal/ports/STM32/LLD/TIMv1/hal_gpt_lld.c **** #if !defined(STM32_TIM6_HANDLER)
 309:lib/chibios/os/hal/ports/STM32/LLD/TIMv1/hal_gpt_lld.c **** #error "STM32_TIM6_HANDLER not defined"
 310:lib/chibios/os/hal/ports/STM32/LLD/TIMv1/hal_gpt_lld.c **** #endif
 311:lib/chibios/os/hal/ports/STM32/LLD/TIMv1/hal_gpt_lld.c **** /**
 312:lib/chibios/os/hal/ports/STM32/LLD/TIMv1/hal_gpt_lld.c ****  * @brief   TIM6 interrupt handler.
 313:lib/chibios/os/hal/ports/STM32/LLD/TIMv1/hal_gpt_lld.c ****  *
 314:lib/chibios/os/hal/ports/STM32/LLD/TIMv1/hal_gpt_lld.c ****  * @isr
 315:lib/chibios/os/hal/ports/STM32/LLD/TIMv1/hal_gpt_lld.c ****  */
 316:lib/chibios/os/hal/ports/STM32/LLD/TIMv1/hal_gpt_lld.c **** OSAL_IRQ_HANDLER(STM32_TIM6_HANDLER) {
 317:lib/chibios/os/hal/ports/STM32/LLD/TIMv1/hal_gpt_lld.c **** 
 318:lib/chibios/os/hal/ports/STM32/LLD/TIMv1/hal_gpt_lld.c ****   OSAL_IRQ_PROLOGUE();
 319:lib/chibios/os/hal/ports/STM32/LLD/TIMv1/hal_gpt_lld.c **** 
 320:lib/chibios/os/hal/ports/STM32/LLD/TIMv1/hal_gpt_lld.c ****   gpt_lld_serve_interrupt(&GPTD6);
 321:lib/chibios/os/hal/ports/STM32/LLD/TIMv1/hal_gpt_lld.c **** 
 322:lib/chibios/os/hal/ports/STM32/LLD/TIMv1/hal_gpt_lld.c ****   OSAL_IRQ_EPILOGUE();
 323:lib/chibios/os/hal/ports/STM32/LLD/TIMv1/hal_gpt_lld.c **** }
 324:lib/chibios/os/hal/ports/STM32/LLD/TIMv1/hal_gpt_lld.c **** #endif /* !defined(STM32_TIM6_SUPPRESS_ISR) */
 325:lib/chibios/os/hal/ports/STM32/LLD/TIMv1/hal_gpt_lld.c **** #endif /* STM32_GPT_USE_TIM6 */
 326:lib/chibios/os/hal/ports/STM32/LLD/TIMv1/hal_gpt_lld.c **** 
 327:lib/chibios/os/hal/ports/STM32/LLD/TIMv1/hal_gpt_lld.c **** #if STM32_GPT_USE_TIM7 || defined(__DOXYGEN__)
 328:lib/chibios/os/hal/ports/STM32/LLD/TIMv1/hal_gpt_lld.c **** #if !defined(STM32_TIM7_SUPPRESS_ISR)
 329:lib/chibios/os/hal/ports/STM32/LLD/TIMv1/hal_gpt_lld.c **** #if !defined(STM32_TIM7_HANDLER)
 330:lib/chibios/os/hal/ports/STM32/LLD/TIMv1/hal_gpt_lld.c **** #error "STM32_TIM7_HANDLER not defined"
 331:lib/chibios/os/hal/ports/STM32/LLD/TIMv1/hal_gpt_lld.c **** #endif
 332:lib/chibios/os/hal/ports/STM32/LLD/TIMv1/hal_gpt_lld.c **** /**
 333:lib/chibios/os/hal/ports/STM32/LLD/TIMv1/hal_gpt_lld.c ****  * @brief   TIM7 interrupt handler.
 334:lib/chibios/os/hal/ports/STM32/LLD/TIMv1/hal_gpt_lld.c ****  *
 335:lib/chibios/os/hal/ports/STM32/LLD/TIMv1/hal_gpt_lld.c ****  * @isr
 336:lib/chibios/os/hal/ports/STM32/LLD/TIMv1/hal_gpt_lld.c ****  */
 337:lib/chibios/os/hal/ports/STM32/LLD/TIMv1/hal_gpt_lld.c **** OSAL_IRQ_HANDLER(STM32_TIM7_HANDLER) {
 338:lib/chibios/os/hal/ports/STM32/LLD/TIMv1/hal_gpt_lld.c **** 
 339:lib/chibios/os/hal/ports/STM32/LLD/TIMv1/hal_gpt_lld.c ****   OSAL_IRQ_PROLOGUE();
 340:lib/chibios/os/hal/ports/STM32/LLD/TIMv1/hal_gpt_lld.c **** 
 341:lib/chibios/os/hal/ports/STM32/LLD/TIMv1/hal_gpt_lld.c ****   gpt_lld_serve_interrupt(&GPTD7);
 342:lib/chibios/os/hal/ports/STM32/LLD/TIMv1/hal_gpt_lld.c **** 
 343:lib/chibios/os/hal/ports/STM32/LLD/TIMv1/hal_gpt_lld.c ****   OSAL_IRQ_EPILOGUE();
 344:lib/chibios/os/hal/ports/STM32/LLD/TIMv1/hal_gpt_lld.c **** }
 345:lib/chibios/os/hal/ports/STM32/LLD/TIMv1/hal_gpt_lld.c **** #endif /* !defined(STM32_TIM7_SUPPRESS_ISR) */
 346:lib/chibios/os/hal/ports/STM32/LLD/TIMv1/hal_gpt_lld.c **** #endif /* STM32_GPT_USE_TIM7 */
 347:lib/chibios/os/hal/ports/STM32/LLD/TIMv1/hal_gpt_lld.c **** 
 348:lib/chibios/os/hal/ports/STM32/LLD/TIMv1/hal_gpt_lld.c **** #if STM32_GPT_USE_TIM8 || defined(__DOXYGEN__)
 349:lib/chibios/os/hal/ports/STM32/LLD/TIMv1/hal_gpt_lld.c **** #if !defined(STM32_TIM8_SUPPRESS_ISR)
 350:lib/chibios/os/hal/ports/STM32/LLD/TIMv1/hal_gpt_lld.c **** #if !defined(STM32_TIM8_UP_HANDLER)
 351:lib/chibios/os/hal/ports/STM32/LLD/TIMv1/hal_gpt_lld.c **** #error "STM32_TIM8_UP_HANDLER not defined"
 352:lib/chibios/os/hal/ports/STM32/LLD/TIMv1/hal_gpt_lld.c **** #endif
 353:lib/chibios/os/hal/ports/STM32/LLD/TIMv1/hal_gpt_lld.c **** /**
 354:lib/chibios/os/hal/ports/STM32/LLD/TIMv1/hal_gpt_lld.c ****  * @brief   TIM8 interrupt handler.
 355:lib/chibios/os/hal/ports/STM32/LLD/TIMv1/hal_gpt_lld.c ****  *
 356:lib/chibios/os/hal/ports/STM32/LLD/TIMv1/hal_gpt_lld.c ****  * @isr
 357:lib/chibios/os/hal/ports/STM32/LLD/TIMv1/hal_gpt_lld.c ****  */
 358:lib/chibios/os/hal/ports/STM32/LLD/TIMv1/hal_gpt_lld.c **** OSAL_IRQ_HANDLER(STM32_TIM8_UP_HANDLER) {
 359:lib/chibios/os/hal/ports/STM32/LLD/TIMv1/hal_gpt_lld.c **** 
 360:lib/chibios/os/hal/ports/STM32/LLD/TIMv1/hal_gpt_lld.c ****   OSAL_IRQ_PROLOGUE();
 361:lib/chibios/os/hal/ports/STM32/LLD/TIMv1/hal_gpt_lld.c **** 
 362:lib/chibios/os/hal/ports/STM32/LLD/TIMv1/hal_gpt_lld.c ****   gpt_lld_serve_interrupt(&GPTD8);
 363:lib/chibios/os/hal/ports/STM32/LLD/TIMv1/hal_gpt_lld.c **** 
 364:lib/chibios/os/hal/ports/STM32/LLD/TIMv1/hal_gpt_lld.c ****   OSAL_IRQ_EPILOGUE();
 365:lib/chibios/os/hal/ports/STM32/LLD/TIMv1/hal_gpt_lld.c **** }
 366:lib/chibios/os/hal/ports/STM32/LLD/TIMv1/hal_gpt_lld.c **** #endif /* !defined(STM32_TIM8_SUPPRESS_ISR) */
 367:lib/chibios/os/hal/ports/STM32/LLD/TIMv1/hal_gpt_lld.c **** #endif /* STM32_GPT_USE_TIM8 */
 368:lib/chibios/os/hal/ports/STM32/LLD/TIMv1/hal_gpt_lld.c **** 
 369:lib/chibios/os/hal/ports/STM32/LLD/TIMv1/hal_gpt_lld.c **** #if STM32_GPT_USE_TIM9 || defined(__DOXYGEN__)
 370:lib/chibios/os/hal/ports/STM32/LLD/TIMv1/hal_gpt_lld.c **** #if !defined(STM32_TIM9_SUPPRESS_ISR)
 371:lib/chibios/os/hal/ports/STM32/LLD/TIMv1/hal_gpt_lld.c **** #error "TIM9 ISR not defined by platform"
 372:lib/chibios/os/hal/ports/STM32/LLD/TIMv1/hal_gpt_lld.c **** #endif /* !defined(STM32_TIM9_SUPPRESS_ISR) */
 373:lib/chibios/os/hal/ports/STM32/LLD/TIMv1/hal_gpt_lld.c **** #endif /* STM32_GPT_USE_TIM9 */
 374:lib/chibios/os/hal/ports/STM32/LLD/TIMv1/hal_gpt_lld.c **** 
 375:lib/chibios/os/hal/ports/STM32/LLD/TIMv1/hal_gpt_lld.c **** #if STM32_GPT_USE_TIM10 || defined(__DOXYGEN__)
 376:lib/chibios/os/hal/ports/STM32/LLD/TIMv1/hal_gpt_lld.c **** #if !defined(STM32_TIM10_SUPPRESS_ISR)
 377:lib/chibios/os/hal/ports/STM32/LLD/TIMv1/hal_gpt_lld.c **** #error "TIM10 ISR not defined by platform"
 378:lib/chibios/os/hal/ports/STM32/LLD/TIMv1/hal_gpt_lld.c **** #endif /* !defined(STM32_TIM10_SUPPRESS_ISR) */
 379:lib/chibios/os/hal/ports/STM32/LLD/TIMv1/hal_gpt_lld.c **** #endif /* STM32_GPT_USE_TIM10 */
 380:lib/chibios/os/hal/ports/STM32/LLD/TIMv1/hal_gpt_lld.c **** 
 381:lib/chibios/os/hal/ports/STM32/LLD/TIMv1/hal_gpt_lld.c **** #if STM32_GPT_USE_TIM11 || defined(__DOXYGEN__)
 382:lib/chibios/os/hal/ports/STM32/LLD/TIMv1/hal_gpt_lld.c **** #if !defined(STM32_TIM11_SUPPRESS_ISR)
 383:lib/chibios/os/hal/ports/STM32/LLD/TIMv1/hal_gpt_lld.c **** #error "TIM11 ISR not defined by platform"
 384:lib/chibios/os/hal/ports/STM32/LLD/TIMv1/hal_gpt_lld.c **** #endif /* !defined(STM32_TIM11_SUPPRESS_ISR) */
 385:lib/chibios/os/hal/ports/STM32/LLD/TIMv1/hal_gpt_lld.c **** #endif /* STM32_GPT_USE_TIM11 */
 386:lib/chibios/os/hal/ports/STM32/LLD/TIMv1/hal_gpt_lld.c **** 
 387:lib/chibios/os/hal/ports/STM32/LLD/TIMv1/hal_gpt_lld.c **** #if STM32_GPT_USE_TIM12 || defined(__DOXYGEN__)
 388:lib/chibios/os/hal/ports/STM32/LLD/TIMv1/hal_gpt_lld.c **** #if !defined(STM32_TIM12_SUPPRESS_ISR)
 389:lib/chibios/os/hal/ports/STM32/LLD/TIMv1/hal_gpt_lld.c **** #error "TIM12 ISR not defined by platform"
 390:lib/chibios/os/hal/ports/STM32/LLD/TIMv1/hal_gpt_lld.c **** #endif /* !defined(STM32_TIM12_SUPPRESS_ISR) */
 391:lib/chibios/os/hal/ports/STM32/LLD/TIMv1/hal_gpt_lld.c **** #endif /* STM32_GPT_USE_TIM12 */
 392:lib/chibios/os/hal/ports/STM32/LLD/TIMv1/hal_gpt_lld.c **** 
 393:lib/chibios/os/hal/ports/STM32/LLD/TIMv1/hal_gpt_lld.c **** #if STM32_GPT_USE_TIM13 || defined(__DOXYGEN__)
 394:lib/chibios/os/hal/ports/STM32/LLD/TIMv1/hal_gpt_lld.c **** #if !defined(STM32_TIM13_SUPPRESS_ISR)
 395:lib/chibios/os/hal/ports/STM32/LLD/TIMv1/hal_gpt_lld.c **** #error "TIM13 ISR not defined by platform"
 396:lib/chibios/os/hal/ports/STM32/LLD/TIMv1/hal_gpt_lld.c **** #endif /* !defined(STM32_TIM13_SUPPRESS_ISR) */
 397:lib/chibios/os/hal/ports/STM32/LLD/TIMv1/hal_gpt_lld.c **** #endif /* STM32_GPT_USE_TIM13 */
 398:lib/chibios/os/hal/ports/STM32/LLD/TIMv1/hal_gpt_lld.c **** 
 399:lib/chibios/os/hal/ports/STM32/LLD/TIMv1/hal_gpt_lld.c **** #if STM32_GPT_USE_TIM14 || defined(__DOXYGEN__)
 400:lib/chibios/os/hal/ports/STM32/LLD/TIMv1/hal_gpt_lld.c **** #if !defined(STM32_TIM14_SUPPRESS_ISR)
 401:lib/chibios/os/hal/ports/STM32/LLD/TIMv1/hal_gpt_lld.c **** #error "TIM14 ISR not defined by platform"
 402:lib/chibios/os/hal/ports/STM32/LLD/TIMv1/hal_gpt_lld.c **** #endif /* !defined(STM32_TIM14_SUPPRESS_ISR) */
 403:lib/chibios/os/hal/ports/STM32/LLD/TIMv1/hal_gpt_lld.c **** #endif /* STM32_GPT_USE_TIM14 */
 404:lib/chibios/os/hal/ports/STM32/LLD/TIMv1/hal_gpt_lld.c **** 
 405:lib/chibios/os/hal/ports/STM32/LLD/TIMv1/hal_gpt_lld.c **** #if STM32_GPT_USE_TIM15 || defined(__DOXYGEN__)
 406:lib/chibios/os/hal/ports/STM32/LLD/TIMv1/hal_gpt_lld.c **** #if !defined(STM32_TIM15_SUPPRESS_ISR)
 407:lib/chibios/os/hal/ports/STM32/LLD/TIMv1/hal_gpt_lld.c **** #error "TIM15 ISR not defined by platform"
 408:lib/chibios/os/hal/ports/STM32/LLD/TIMv1/hal_gpt_lld.c **** #endif /* !defined(STM32_TIM15_SUPPRESS_ISR) */
 409:lib/chibios/os/hal/ports/STM32/LLD/TIMv1/hal_gpt_lld.c **** #endif /* STM32_GPT_USE_TIM15 */
 410:lib/chibios/os/hal/ports/STM32/LLD/TIMv1/hal_gpt_lld.c **** 
 411:lib/chibios/os/hal/ports/STM32/LLD/TIMv1/hal_gpt_lld.c **** #if STM32_GPT_USE_TIM16 || defined(__DOXYGEN__)
 412:lib/chibios/os/hal/ports/STM32/LLD/TIMv1/hal_gpt_lld.c **** #if !defined(STM32_TIM16_SUPPRESS_ISR)
 413:lib/chibios/os/hal/ports/STM32/LLD/TIMv1/hal_gpt_lld.c **** #error "TIM16 ISR not defined by platform"
 414:lib/chibios/os/hal/ports/STM32/LLD/TIMv1/hal_gpt_lld.c **** #endif /* !defined(STM32_TIM16_SUPPRESS_ISR) */
 415:lib/chibios/os/hal/ports/STM32/LLD/TIMv1/hal_gpt_lld.c **** #endif /* STM32_GPT_USE_TIM16 */
 416:lib/chibios/os/hal/ports/STM32/LLD/TIMv1/hal_gpt_lld.c **** 
 417:lib/chibios/os/hal/ports/STM32/LLD/TIMv1/hal_gpt_lld.c **** #if STM32_GPT_USE_TIM17 || defined(__DOXYGEN__)
 418:lib/chibios/os/hal/ports/STM32/LLD/TIMv1/hal_gpt_lld.c **** #if !defined(STM32_TIM17_SUPPRESS_ISR)
 419:lib/chibios/os/hal/ports/STM32/LLD/TIMv1/hal_gpt_lld.c **** #error "TIM17 ISR not defined by platform"
 420:lib/chibios/os/hal/ports/STM32/LLD/TIMv1/hal_gpt_lld.c **** #endif /* !defined(STM32_TIM17_SUPPRESS_ISR) */
 421:lib/chibios/os/hal/ports/STM32/LLD/TIMv1/hal_gpt_lld.c **** #endif /* STM32_GPT_USE_TIM17 */
 422:lib/chibios/os/hal/ports/STM32/LLD/TIMv1/hal_gpt_lld.c **** 
 423:lib/chibios/os/hal/ports/STM32/LLD/TIMv1/hal_gpt_lld.c **** #if STM32_GPT_USE_TIM21 || defined(__DOXYGEN__)
 424:lib/chibios/os/hal/ports/STM32/LLD/TIMv1/hal_gpt_lld.c **** #if !defined(STM32_TIM21_SUPPRESS_ISR)
 425:lib/chibios/os/hal/ports/STM32/LLD/TIMv1/hal_gpt_lld.c **** #if !defined(STM32_TIM21_HANDLER)
 426:lib/chibios/os/hal/ports/STM32/LLD/TIMv1/hal_gpt_lld.c **** #error "STM32_TIM21_HANDLER not defined"
 427:lib/chibios/os/hal/ports/STM32/LLD/TIMv1/hal_gpt_lld.c **** #endif
 428:lib/chibios/os/hal/ports/STM32/LLD/TIMv1/hal_gpt_lld.c **** /**
 429:lib/chibios/os/hal/ports/STM32/LLD/TIMv1/hal_gpt_lld.c ****  * @brief   TIM21 interrupt handler.
 430:lib/chibios/os/hal/ports/STM32/LLD/TIMv1/hal_gpt_lld.c ****  *
 431:lib/chibios/os/hal/ports/STM32/LLD/TIMv1/hal_gpt_lld.c ****  * @isr
 432:lib/chibios/os/hal/ports/STM32/LLD/TIMv1/hal_gpt_lld.c ****  */
 433:lib/chibios/os/hal/ports/STM32/LLD/TIMv1/hal_gpt_lld.c **** OSAL_IRQ_HANDLER(STM32_TIM21_HANDLER) {
 434:lib/chibios/os/hal/ports/STM32/LLD/TIMv1/hal_gpt_lld.c **** 
 435:lib/chibios/os/hal/ports/STM32/LLD/TIMv1/hal_gpt_lld.c ****   OSAL_IRQ_PROLOGUE();
 436:lib/chibios/os/hal/ports/STM32/LLD/TIMv1/hal_gpt_lld.c **** 
 437:lib/chibios/os/hal/ports/STM32/LLD/TIMv1/hal_gpt_lld.c ****   gpt_lld_serve_interrupt(&GPTD21);
 438:lib/chibios/os/hal/ports/STM32/LLD/TIMv1/hal_gpt_lld.c **** 
 439:lib/chibios/os/hal/ports/STM32/LLD/TIMv1/hal_gpt_lld.c ****   OSAL_IRQ_EPILOGUE();
 440:lib/chibios/os/hal/ports/STM32/LLD/TIMv1/hal_gpt_lld.c **** }
 441:lib/chibios/os/hal/ports/STM32/LLD/TIMv1/hal_gpt_lld.c **** #endif /* !defined(STM32_TIM21_SUPPRESS_ISR) */
 442:lib/chibios/os/hal/ports/STM32/LLD/TIMv1/hal_gpt_lld.c **** #endif /* STM32_GPT_USE_TIM21 */
 443:lib/chibios/os/hal/ports/STM32/LLD/TIMv1/hal_gpt_lld.c **** 
 444:lib/chibios/os/hal/ports/STM32/LLD/TIMv1/hal_gpt_lld.c **** #if STM32_GPT_USE_TIM22 || defined(__DOXYGEN__)
 445:lib/chibios/os/hal/ports/STM32/LLD/TIMv1/hal_gpt_lld.c **** #if !defined(STM32_TIM22_SUPPRESS_ISR)
 446:lib/chibios/os/hal/ports/STM32/LLD/TIMv1/hal_gpt_lld.c **** #if !defined(STM32_TIM22_HANDLER)
 447:lib/chibios/os/hal/ports/STM32/LLD/TIMv1/hal_gpt_lld.c **** #error "STM32_TIM22_HANDLER not defined"
 448:lib/chibios/os/hal/ports/STM32/LLD/TIMv1/hal_gpt_lld.c **** #endif
 449:lib/chibios/os/hal/ports/STM32/LLD/TIMv1/hal_gpt_lld.c **** /**
 450:lib/chibios/os/hal/ports/STM32/LLD/TIMv1/hal_gpt_lld.c ****  * @brief   TIM22 interrupt handler.
 451:lib/chibios/os/hal/ports/STM32/LLD/TIMv1/hal_gpt_lld.c ****  *
 452:lib/chibios/os/hal/ports/STM32/LLD/TIMv1/hal_gpt_lld.c ****  * @isr
 453:lib/chibios/os/hal/ports/STM32/LLD/TIMv1/hal_gpt_lld.c ****  */
 454:lib/chibios/os/hal/ports/STM32/LLD/TIMv1/hal_gpt_lld.c **** OSAL_IRQ_HANDLER(STM32_TIM22_HANDLER) {
 455:lib/chibios/os/hal/ports/STM32/LLD/TIMv1/hal_gpt_lld.c **** 
 456:lib/chibios/os/hal/ports/STM32/LLD/TIMv1/hal_gpt_lld.c ****   OSAL_IRQ_PROLOGUE();
 457:lib/chibios/os/hal/ports/STM32/LLD/TIMv1/hal_gpt_lld.c **** 
 458:lib/chibios/os/hal/ports/STM32/LLD/TIMv1/hal_gpt_lld.c ****   gpt_lld_serve_interrupt(&GPTD22);
 459:lib/chibios/os/hal/ports/STM32/LLD/TIMv1/hal_gpt_lld.c **** 
 460:lib/chibios/os/hal/ports/STM32/LLD/TIMv1/hal_gpt_lld.c ****   OSAL_IRQ_EPILOGUE();
 461:lib/chibios/os/hal/ports/STM32/LLD/TIMv1/hal_gpt_lld.c **** }
 462:lib/chibios/os/hal/ports/STM32/LLD/TIMv1/hal_gpt_lld.c **** #endif /* !defined(STM32_TIM22_SUPPRESS_ISR) */
 463:lib/chibios/os/hal/ports/STM32/LLD/TIMv1/hal_gpt_lld.c **** #endif /* STM32_GPT_USE_TIM22 */
 464:lib/chibios/os/hal/ports/STM32/LLD/TIMv1/hal_gpt_lld.c **** 
 465:lib/chibios/os/hal/ports/STM32/LLD/TIMv1/hal_gpt_lld.c **** /*===========================================================================*/
 466:lib/chibios/os/hal/ports/STM32/LLD/TIMv1/hal_gpt_lld.c **** /* Driver exported functions.                                                */
 467:lib/chibios/os/hal/ports/STM32/LLD/TIMv1/hal_gpt_lld.c **** /*===========================================================================*/
 468:lib/chibios/os/hal/ports/STM32/LLD/TIMv1/hal_gpt_lld.c **** 
 469:lib/chibios/os/hal/ports/STM32/LLD/TIMv1/hal_gpt_lld.c **** /**
 470:lib/chibios/os/hal/ports/STM32/LLD/TIMv1/hal_gpt_lld.c ****  * @brief   Low level GPT driver initialization.
 471:lib/chibios/os/hal/ports/STM32/LLD/TIMv1/hal_gpt_lld.c ****  *
 472:lib/chibios/os/hal/ports/STM32/LLD/TIMv1/hal_gpt_lld.c ****  * @notapi
 473:lib/chibios/os/hal/ports/STM32/LLD/TIMv1/hal_gpt_lld.c ****  */
 474:lib/chibios/os/hal/ports/STM32/LLD/TIMv1/hal_gpt_lld.c **** void gpt_lld_init(void) {
  29              		.loc 1 474 25 view -0
  30              		.cfi_startproc
  31              		@ args = 0, pretend = 0, frame = 0
  32              		@ frame_needed = 0, uses_anonymous_args = 0
 475:lib/chibios/os/hal/ports/STM32/LLD/TIMv1/hal_gpt_lld.c **** 
 476:lib/chibios/os/hal/ports/STM32/LLD/TIMv1/hal_gpt_lld.c **** #if STM32_GPT_USE_TIM1
 477:lib/chibios/os/hal/ports/STM32/LLD/TIMv1/hal_gpt_lld.c ****   /* Driver initialization.*/
 478:lib/chibios/os/hal/ports/STM32/LLD/TIMv1/hal_gpt_lld.c ****   GPTD1.tim = STM32_TIM1;
 479:lib/chibios/os/hal/ports/STM32/LLD/TIMv1/hal_gpt_lld.c ****   gptObjectInit(&GPTD1);
 480:lib/chibios/os/hal/ports/STM32/LLD/TIMv1/hal_gpt_lld.c **** #endif
 481:lib/chibios/os/hal/ports/STM32/LLD/TIMv1/hal_gpt_lld.c **** 
 482:lib/chibios/os/hal/ports/STM32/LLD/TIMv1/hal_gpt_lld.c **** #if STM32_GPT_USE_TIM2
 483:lib/chibios/os/hal/ports/STM32/LLD/TIMv1/hal_gpt_lld.c ****   /* Driver initialization.*/
 484:lib/chibios/os/hal/ports/STM32/LLD/TIMv1/hal_gpt_lld.c ****   GPTD2.tim = STM32_TIM2;
 485:lib/chibios/os/hal/ports/STM32/LLD/TIMv1/hal_gpt_lld.c ****   gptObjectInit(&GPTD2);
 486:lib/chibios/os/hal/ports/STM32/LLD/TIMv1/hal_gpt_lld.c **** #endif
 487:lib/chibios/os/hal/ports/STM32/LLD/TIMv1/hal_gpt_lld.c **** 
 488:lib/chibios/os/hal/ports/STM32/LLD/TIMv1/hal_gpt_lld.c **** #if STM32_GPT_USE_TIM3
 489:lib/chibios/os/hal/ports/STM32/LLD/TIMv1/hal_gpt_lld.c ****   /* Driver initialization.*/
 490:lib/chibios/os/hal/ports/STM32/LLD/TIMv1/hal_gpt_lld.c ****   GPTD3.tim = STM32_TIM3;
 491:lib/chibios/os/hal/ports/STM32/LLD/TIMv1/hal_gpt_lld.c ****   gptObjectInit(&GPTD3);
 492:lib/chibios/os/hal/ports/STM32/LLD/TIMv1/hal_gpt_lld.c **** #endif
 493:lib/chibios/os/hal/ports/STM32/LLD/TIMv1/hal_gpt_lld.c **** 
 494:lib/chibios/os/hal/ports/STM32/LLD/TIMv1/hal_gpt_lld.c **** #if STM32_GPT_USE_TIM4
 495:lib/chibios/os/hal/ports/STM32/LLD/TIMv1/hal_gpt_lld.c ****   /* Driver initialization.*/
 496:lib/chibios/os/hal/ports/STM32/LLD/TIMv1/hal_gpt_lld.c ****   GPTD4.tim = STM32_TIM4;
 497:lib/chibios/os/hal/ports/STM32/LLD/TIMv1/hal_gpt_lld.c ****   gptObjectInit(&GPTD4);
 498:lib/chibios/os/hal/ports/STM32/LLD/TIMv1/hal_gpt_lld.c **** #endif
 499:lib/chibios/os/hal/ports/STM32/LLD/TIMv1/hal_gpt_lld.c **** 
 500:lib/chibios/os/hal/ports/STM32/LLD/TIMv1/hal_gpt_lld.c **** #if STM32_GPT_USE_TIM5
 501:lib/chibios/os/hal/ports/STM32/LLD/TIMv1/hal_gpt_lld.c ****   /* Driver initialization.*/
 502:lib/chibios/os/hal/ports/STM32/LLD/TIMv1/hal_gpt_lld.c ****   GPTD5.tim = STM32_TIM5;
 503:lib/chibios/os/hal/ports/STM32/LLD/TIMv1/hal_gpt_lld.c ****   gptObjectInit(&GPTD5);
 504:lib/chibios/os/hal/ports/STM32/LLD/TIMv1/hal_gpt_lld.c **** #endif
 505:lib/chibios/os/hal/ports/STM32/LLD/TIMv1/hal_gpt_lld.c **** 
 506:lib/chibios/os/hal/ports/STM32/LLD/TIMv1/hal_gpt_lld.c **** #if STM32_GPT_USE_TIM6
 507:lib/chibios/os/hal/ports/STM32/LLD/TIMv1/hal_gpt_lld.c ****   /* Driver initialization.*/
 508:lib/chibios/os/hal/ports/STM32/LLD/TIMv1/hal_gpt_lld.c ****   GPTD6.tim = STM32_TIM6;
  33              		.loc 1 508 3 view .LVU1
  34              		.loc 1 508 13 is_stmt 0 view .LVU2
  35 0000 0848     		ldr	r0, .L2
 474:lib/chibios/os/hal/ports/STM32/LLD/TIMv1/hal_gpt_lld.c **** 
  36              		.loc 1 474 25 view .LVU3
  37 0002 08B5     		push	{r3, lr}
  38              		.cfi_def_cfa_offset 8
  39              		.cfi_offset 3, -8
  40              		.cfi_offset 14, -4
  41              		.loc 1 508 13 view .LVU4
  42 0004 084B     		ldr	r3, .L2+4
  43 0006 C360     		str	r3, [r0, #12]
 509:lib/chibios/os/hal/ports/STM32/LLD/TIMv1/hal_gpt_lld.c ****   gptObjectInit(&GPTD6);
  44              		.loc 1 509 3 is_stmt 1 view .LVU5
  45 0008 FFF7FEFF 		bl	gptObjectInit
  46              	.LVL0:
 510:lib/chibios/os/hal/ports/STM32/LLD/TIMv1/hal_gpt_lld.c **** #endif
 511:lib/chibios/os/hal/ports/STM32/LLD/TIMv1/hal_gpt_lld.c **** 
 512:lib/chibios/os/hal/ports/STM32/LLD/TIMv1/hal_gpt_lld.c **** #if STM32_GPT_USE_TIM7
 513:lib/chibios/os/hal/ports/STM32/LLD/TIMv1/hal_gpt_lld.c ****   /* Driver initialization.*/
 514:lib/chibios/os/hal/ports/STM32/LLD/TIMv1/hal_gpt_lld.c ****   GPTD7.tim = STM32_TIM7;
  47              		.loc 1 514 3 view .LVU6
  48              		.loc 1 514 13 is_stmt 0 view .LVU7
  49 000c 0748     		ldr	r0, .L2+8
  50 000e 084B     		ldr	r3, .L2+12
  51 0010 C360     		str	r3, [r0, #12]
 515:lib/chibios/os/hal/ports/STM32/LLD/TIMv1/hal_gpt_lld.c ****   gptObjectInit(&GPTD7);
  52              		.loc 1 515 3 is_stmt 1 view .LVU8
  53 0012 FFF7FEFF 		bl	gptObjectInit
  54              	.LVL1:
 516:lib/chibios/os/hal/ports/STM32/LLD/TIMv1/hal_gpt_lld.c **** #endif
 517:lib/chibios/os/hal/ports/STM32/LLD/TIMv1/hal_gpt_lld.c **** 
 518:lib/chibios/os/hal/ports/STM32/LLD/TIMv1/hal_gpt_lld.c **** #if STM32_GPT_USE_TIM8
 519:lib/chibios/os/hal/ports/STM32/LLD/TIMv1/hal_gpt_lld.c ****   /* Driver initialization.*/
 520:lib/chibios/os/hal/ports/STM32/LLD/TIMv1/hal_gpt_lld.c ****   GPTD8.tim = STM32_TIM8;
  55              		.loc 1 520 3 view .LVU9
  56              		.loc 1 520 13 is_stmt 0 view .LVU10
  57 0016 0748     		ldr	r0, .L2+16
  58 0018 074B     		ldr	r3, .L2+20
  59 001a C360     		str	r3, [r0, #12]
 521:lib/chibios/os/hal/ports/STM32/LLD/TIMv1/hal_gpt_lld.c ****   gptObjectInit(&GPTD8);
  60              		.loc 1 521 3 is_stmt 1 view .LVU11
 522:lib/chibios/os/hal/ports/STM32/LLD/TIMv1/hal_gpt_lld.c **** #endif
 523:lib/chibios/os/hal/ports/STM32/LLD/TIMv1/hal_gpt_lld.c **** 
 524:lib/chibios/os/hal/ports/STM32/LLD/TIMv1/hal_gpt_lld.c **** #if STM32_GPT_USE_TIM9
 525:lib/chibios/os/hal/ports/STM32/LLD/TIMv1/hal_gpt_lld.c ****   /* Driver initialization.*/
 526:lib/chibios/os/hal/ports/STM32/LLD/TIMv1/hal_gpt_lld.c ****   GPTD9.tim = STM32_TIM9;
 527:lib/chibios/os/hal/ports/STM32/LLD/TIMv1/hal_gpt_lld.c ****   gptObjectInit(&GPTD9);
 528:lib/chibios/os/hal/ports/STM32/LLD/TIMv1/hal_gpt_lld.c **** #endif
 529:lib/chibios/os/hal/ports/STM32/LLD/TIMv1/hal_gpt_lld.c **** 
 530:lib/chibios/os/hal/ports/STM32/LLD/TIMv1/hal_gpt_lld.c **** #if STM32_GPT_USE_TIM10
 531:lib/chibios/os/hal/ports/STM32/LLD/TIMv1/hal_gpt_lld.c ****   /* Driver initialization.*/
 532:lib/chibios/os/hal/ports/STM32/LLD/TIMv1/hal_gpt_lld.c ****   GPTD10.tim = STM32_TIM10;
 533:lib/chibios/os/hal/ports/STM32/LLD/TIMv1/hal_gpt_lld.c ****   gptObjectInit(&GPTD10);
 534:lib/chibios/os/hal/ports/STM32/LLD/TIMv1/hal_gpt_lld.c **** #endif
 535:lib/chibios/os/hal/ports/STM32/LLD/TIMv1/hal_gpt_lld.c **** 
 536:lib/chibios/os/hal/ports/STM32/LLD/TIMv1/hal_gpt_lld.c **** #if STM32_GPT_USE_TIM11
 537:lib/chibios/os/hal/ports/STM32/LLD/TIMv1/hal_gpt_lld.c ****   /* Driver initialization.*/
 538:lib/chibios/os/hal/ports/STM32/LLD/TIMv1/hal_gpt_lld.c ****   GPTD11.tim = STM32_TIM11;
 539:lib/chibios/os/hal/ports/STM32/LLD/TIMv1/hal_gpt_lld.c ****   gptObjectInit(&GPTD11);
 540:lib/chibios/os/hal/ports/STM32/LLD/TIMv1/hal_gpt_lld.c **** #endif
 541:lib/chibios/os/hal/ports/STM32/LLD/TIMv1/hal_gpt_lld.c **** 
 542:lib/chibios/os/hal/ports/STM32/LLD/TIMv1/hal_gpt_lld.c **** #if STM32_GPT_USE_TIM12
 543:lib/chibios/os/hal/ports/STM32/LLD/TIMv1/hal_gpt_lld.c ****   /* Driver initialization.*/
 544:lib/chibios/os/hal/ports/STM32/LLD/TIMv1/hal_gpt_lld.c ****   GPTD12.tim = STM32_TIM12;
 545:lib/chibios/os/hal/ports/STM32/LLD/TIMv1/hal_gpt_lld.c ****   gptObjectInit(&GPTD12);
 546:lib/chibios/os/hal/ports/STM32/LLD/TIMv1/hal_gpt_lld.c **** #endif
 547:lib/chibios/os/hal/ports/STM32/LLD/TIMv1/hal_gpt_lld.c **** 
 548:lib/chibios/os/hal/ports/STM32/LLD/TIMv1/hal_gpt_lld.c **** #if STM32_GPT_USE_TIM13
 549:lib/chibios/os/hal/ports/STM32/LLD/TIMv1/hal_gpt_lld.c ****   /* Driver initialization.*/
 550:lib/chibios/os/hal/ports/STM32/LLD/TIMv1/hal_gpt_lld.c ****   GPTD13.tim = STM32_TIM13;
 551:lib/chibios/os/hal/ports/STM32/LLD/TIMv1/hal_gpt_lld.c ****   gptObjectInit(&GPTD13);
 552:lib/chibios/os/hal/ports/STM32/LLD/TIMv1/hal_gpt_lld.c **** #endif
 553:lib/chibios/os/hal/ports/STM32/LLD/TIMv1/hal_gpt_lld.c **** 
 554:lib/chibios/os/hal/ports/STM32/LLD/TIMv1/hal_gpt_lld.c **** #if STM32_GPT_USE_TIM14
 555:lib/chibios/os/hal/ports/STM32/LLD/TIMv1/hal_gpt_lld.c ****   /* Driver initialization.*/
 556:lib/chibios/os/hal/ports/STM32/LLD/TIMv1/hal_gpt_lld.c ****   GPTD14.tim = STM32_TIM14;
 557:lib/chibios/os/hal/ports/STM32/LLD/TIMv1/hal_gpt_lld.c ****   gptObjectInit(&GPTD14);
 558:lib/chibios/os/hal/ports/STM32/LLD/TIMv1/hal_gpt_lld.c **** #endif
 559:lib/chibios/os/hal/ports/STM32/LLD/TIMv1/hal_gpt_lld.c **** 
 560:lib/chibios/os/hal/ports/STM32/LLD/TIMv1/hal_gpt_lld.c **** #if STM32_GPT_USE_TIM15
 561:lib/chibios/os/hal/ports/STM32/LLD/TIMv1/hal_gpt_lld.c ****   /* Driver initialization.*/
 562:lib/chibios/os/hal/ports/STM32/LLD/TIMv1/hal_gpt_lld.c ****   GPTD15.tim = STM32_TIM15;
 563:lib/chibios/os/hal/ports/STM32/LLD/TIMv1/hal_gpt_lld.c ****   gptObjectInit(&GPTD15);
 564:lib/chibios/os/hal/ports/STM32/LLD/TIMv1/hal_gpt_lld.c **** #endif
 565:lib/chibios/os/hal/ports/STM32/LLD/TIMv1/hal_gpt_lld.c **** 
 566:lib/chibios/os/hal/ports/STM32/LLD/TIMv1/hal_gpt_lld.c **** #if STM32_GPT_USE_TIM16
 567:lib/chibios/os/hal/ports/STM32/LLD/TIMv1/hal_gpt_lld.c ****   /* Driver initialization.*/
 568:lib/chibios/os/hal/ports/STM32/LLD/TIMv1/hal_gpt_lld.c ****   GPTD16.tim = STM32_TIM16;
 569:lib/chibios/os/hal/ports/STM32/LLD/TIMv1/hal_gpt_lld.c ****   gptObjectInit(&GPTD16);
 570:lib/chibios/os/hal/ports/STM32/LLD/TIMv1/hal_gpt_lld.c **** #endif
 571:lib/chibios/os/hal/ports/STM32/LLD/TIMv1/hal_gpt_lld.c **** 
 572:lib/chibios/os/hal/ports/STM32/LLD/TIMv1/hal_gpt_lld.c **** #if STM32_GPT_USE_TIM17
 573:lib/chibios/os/hal/ports/STM32/LLD/TIMv1/hal_gpt_lld.c ****   /* Driver initialization.*/
 574:lib/chibios/os/hal/ports/STM32/LLD/TIMv1/hal_gpt_lld.c ****   GPTD17.tim = STM32_TIM17;
 575:lib/chibios/os/hal/ports/STM32/LLD/TIMv1/hal_gpt_lld.c ****   gptObjectInit(&GPTD17);
 576:lib/chibios/os/hal/ports/STM32/LLD/TIMv1/hal_gpt_lld.c **** #endif
 577:lib/chibios/os/hal/ports/STM32/LLD/TIMv1/hal_gpt_lld.c **** 
 578:lib/chibios/os/hal/ports/STM32/LLD/TIMv1/hal_gpt_lld.c **** #if STM32_GPT_USE_TIM21
 579:lib/chibios/os/hal/ports/STM32/LLD/TIMv1/hal_gpt_lld.c ****   /* Driver initialization.*/
 580:lib/chibios/os/hal/ports/STM32/LLD/TIMv1/hal_gpt_lld.c ****   GPTD21.tim = STM32_TIM21;
 581:lib/chibios/os/hal/ports/STM32/LLD/TIMv1/hal_gpt_lld.c ****   gptObjectInit(&GPTD21);
 582:lib/chibios/os/hal/ports/STM32/LLD/TIMv1/hal_gpt_lld.c **** #endif
 583:lib/chibios/os/hal/ports/STM32/LLD/TIMv1/hal_gpt_lld.c **** 
 584:lib/chibios/os/hal/ports/STM32/LLD/TIMv1/hal_gpt_lld.c **** #if STM32_GPT_USE_TIM22
 585:lib/chibios/os/hal/ports/STM32/LLD/TIMv1/hal_gpt_lld.c ****   /* Driver initialization.*/
 586:lib/chibios/os/hal/ports/STM32/LLD/TIMv1/hal_gpt_lld.c ****   GPTD22.tim = STM32_TIM22;
 587:lib/chibios/os/hal/ports/STM32/LLD/TIMv1/hal_gpt_lld.c ****   gptObjectInit(&GPTD22);
 588:lib/chibios/os/hal/ports/STM32/LLD/TIMv1/hal_gpt_lld.c **** #endif
 589:lib/chibios/os/hal/ports/STM32/LLD/TIMv1/hal_gpt_lld.c **** }
  61              		.loc 1 589 1 is_stmt 0 view .LVU12
  62 001c BDE80840 		pop	{r3, lr}
  63              		.cfi_restore 14
  64              		.cfi_restore 3
  65              		.cfi_def_cfa_offset 0
 521:lib/chibios/os/hal/ports/STM32/LLD/TIMv1/hal_gpt_lld.c ****   gptObjectInit(&GPTD8);
  66              		.loc 1 521 3 view .LVU13
  67 0020 FFF7FEBF 		b	gptObjectInit
  68              	.LVL2:
  69              	.L3:
  70              		.align	2
  71              	.L2:
  72 0024 00000000 		.word	GPTD6
  73 0028 00100040 		.word	1073745920
  74 002c 00000000 		.word	GPTD7
  75 0030 00140040 		.word	1073746944
  76 0034 00000000 		.word	GPTD8
  77 0038 00340140 		.word	1073820672
  78              		.cfi_endproc
  79              	.LFE285:
  81              		.section	.text.gpt_lld_start,"ax",%progbits
  82              		.align	1
  83              		.global	gpt_lld_start
  84              		.syntax unified
  85              		.thumb
  86              		.thumb_func
  88              	gpt_lld_start:
  89              	.LVL3:
  90              	.LFB286:
 590:lib/chibios/os/hal/ports/STM32/LLD/TIMv1/hal_gpt_lld.c **** 
 591:lib/chibios/os/hal/ports/STM32/LLD/TIMv1/hal_gpt_lld.c **** /**
 592:lib/chibios/os/hal/ports/STM32/LLD/TIMv1/hal_gpt_lld.c ****  * @brief   Configures and activates the GPT peripheral.
 593:lib/chibios/os/hal/ports/STM32/LLD/TIMv1/hal_gpt_lld.c ****  *
 594:lib/chibios/os/hal/ports/STM32/LLD/TIMv1/hal_gpt_lld.c ****  * @param[in] gptp      pointer to the @p GPTDriver object
 595:lib/chibios/os/hal/ports/STM32/LLD/TIMv1/hal_gpt_lld.c ****  *
 596:lib/chibios/os/hal/ports/STM32/LLD/TIMv1/hal_gpt_lld.c ****  * @notapi
 597:lib/chibios/os/hal/ports/STM32/LLD/TIMv1/hal_gpt_lld.c ****  */
 598:lib/chibios/os/hal/ports/STM32/LLD/TIMv1/hal_gpt_lld.c **** void gpt_lld_start(GPTDriver *gptp) {
  91              		.loc 1 598 37 is_stmt 1 view -0
  92              		.cfi_startproc
  93              		@ args = 0, pretend = 0, frame = 0
  94              		@ frame_needed = 0, uses_anonymous_args = 0
 599:lib/chibios/os/hal/ports/STM32/LLD/TIMv1/hal_gpt_lld.c ****   uint16_t psc;
  95              		.loc 1 599 3 view .LVU15
 600:lib/chibios/os/hal/ports/STM32/LLD/TIMv1/hal_gpt_lld.c **** 
 601:lib/chibios/os/hal/ports/STM32/LLD/TIMv1/hal_gpt_lld.c ****   if (gptp->state == GPT_STOP) {
  96              		.loc 1 601 3 view .LVU16
 598:lib/chibios/os/hal/ports/STM32/LLD/TIMv1/hal_gpt_lld.c ****   uint16_t psc;
  97              		.loc 1 598 37 is_stmt 0 view .LVU17
  98 0000 10B5     		push	{r4, lr}
  99              		.cfi_def_cfa_offset 8
 100              		.cfi_offset 4, -8
 101              		.cfi_offset 14, -4
 102              		.loc 1 601 6 view .LVU18
 103 0002 0378     		ldrb	r3, [r0]	@ zero_extendqisi2
 104 0004 012B     		cmp	r3, #1
 598:lib/chibios/os/hal/ports/STM32/LLD/TIMv1/hal_gpt_lld.c ****   uint16_t psc;
 105              		.loc 1 598 37 view .LVU19
 106 0006 0446     		mov	r4, r0
 107              		.loc 1 601 6 view .LVU20
 108 0008 47D1     		bne	.L6
 602:lib/chibios/os/hal/ports/STM32/LLD/TIMv1/hal_gpt_lld.c ****     /* Clock activation.*/
 603:lib/chibios/os/hal/ports/STM32/LLD/TIMv1/hal_gpt_lld.c **** #if STM32_GPT_USE_TIM1
 604:lib/chibios/os/hal/ports/STM32/LLD/TIMv1/hal_gpt_lld.c ****     if (&GPTD1 == gptp) {
 605:lib/chibios/os/hal/ports/STM32/LLD/TIMv1/hal_gpt_lld.c ****       rccEnableTIM1(true);
 606:lib/chibios/os/hal/ports/STM32/LLD/TIMv1/hal_gpt_lld.c ****       rccResetTIM1();
 607:lib/chibios/os/hal/ports/STM32/LLD/TIMv1/hal_gpt_lld.c **** #if !defined(STM32_TIM1_SUPPRESS_ISR)
 608:lib/chibios/os/hal/ports/STM32/LLD/TIMv1/hal_gpt_lld.c ****       nvicEnableVector(STM32_TIM1_UP_NUMBER, STM32_GPT_TIM1_IRQ_PRIORITY);
 609:lib/chibios/os/hal/ports/STM32/LLD/TIMv1/hal_gpt_lld.c **** #endif
 610:lib/chibios/os/hal/ports/STM32/LLD/TIMv1/hal_gpt_lld.c **** #if defined(STM32_TIM1CLK)
 611:lib/chibios/os/hal/ports/STM32/LLD/TIMv1/hal_gpt_lld.c ****       gptp->clock = STM32_TIM1CLK;
 612:lib/chibios/os/hal/ports/STM32/LLD/TIMv1/hal_gpt_lld.c **** #else
 613:lib/chibios/os/hal/ports/STM32/LLD/TIMv1/hal_gpt_lld.c ****       gptp->clock = STM32_TIMCLK2;
 614:lib/chibios/os/hal/ports/STM32/LLD/TIMv1/hal_gpt_lld.c **** #endif
 615:lib/chibios/os/hal/ports/STM32/LLD/TIMv1/hal_gpt_lld.c ****     }
 616:lib/chibios/os/hal/ports/STM32/LLD/TIMv1/hal_gpt_lld.c **** #endif
 617:lib/chibios/os/hal/ports/STM32/LLD/TIMv1/hal_gpt_lld.c **** 
 618:lib/chibios/os/hal/ports/STM32/LLD/TIMv1/hal_gpt_lld.c **** #if STM32_GPT_USE_TIM2
 619:lib/chibios/os/hal/ports/STM32/LLD/TIMv1/hal_gpt_lld.c ****     if (&GPTD2 == gptp) {
 620:lib/chibios/os/hal/ports/STM32/LLD/TIMv1/hal_gpt_lld.c ****       rccEnableTIM2(true);
 621:lib/chibios/os/hal/ports/STM32/LLD/TIMv1/hal_gpt_lld.c ****       rccResetTIM2();
 622:lib/chibios/os/hal/ports/STM32/LLD/TIMv1/hal_gpt_lld.c **** #if !defined(STM32_TIM2_SUPPRESS_ISR)
 623:lib/chibios/os/hal/ports/STM32/LLD/TIMv1/hal_gpt_lld.c ****       nvicEnableVector(STM32_TIM2_NUMBER, STM32_GPT_TIM2_IRQ_PRIORITY);
 624:lib/chibios/os/hal/ports/STM32/LLD/TIMv1/hal_gpt_lld.c **** #endif
 625:lib/chibios/os/hal/ports/STM32/LLD/TIMv1/hal_gpt_lld.c **** #if defined(STM32_TIM2CLK)
 626:lib/chibios/os/hal/ports/STM32/LLD/TIMv1/hal_gpt_lld.c ****       gptp->clock = STM32_TIM2CLK;
 627:lib/chibios/os/hal/ports/STM32/LLD/TIMv1/hal_gpt_lld.c **** #else
 628:lib/chibios/os/hal/ports/STM32/LLD/TIMv1/hal_gpt_lld.c ****       gptp->clock = STM32_TIMCLK1;
 629:lib/chibios/os/hal/ports/STM32/LLD/TIMv1/hal_gpt_lld.c **** #endif
 630:lib/chibios/os/hal/ports/STM32/LLD/TIMv1/hal_gpt_lld.c ****     }
 631:lib/chibios/os/hal/ports/STM32/LLD/TIMv1/hal_gpt_lld.c **** #endif
 632:lib/chibios/os/hal/ports/STM32/LLD/TIMv1/hal_gpt_lld.c **** 
 633:lib/chibios/os/hal/ports/STM32/LLD/TIMv1/hal_gpt_lld.c **** #if STM32_GPT_USE_TIM3
 634:lib/chibios/os/hal/ports/STM32/LLD/TIMv1/hal_gpt_lld.c ****     if (&GPTD3 == gptp) {
 635:lib/chibios/os/hal/ports/STM32/LLD/TIMv1/hal_gpt_lld.c ****       rccEnableTIM3(true);
 636:lib/chibios/os/hal/ports/STM32/LLD/TIMv1/hal_gpt_lld.c ****       rccResetTIM3();
 637:lib/chibios/os/hal/ports/STM32/LLD/TIMv1/hal_gpt_lld.c **** #if !defined(STM32_TIM3_SUPPRESS_ISR)
 638:lib/chibios/os/hal/ports/STM32/LLD/TIMv1/hal_gpt_lld.c ****       nvicEnableVector(STM32_TIM3_NUMBER, STM32_GPT_TIM3_IRQ_PRIORITY);
 639:lib/chibios/os/hal/ports/STM32/LLD/TIMv1/hal_gpt_lld.c **** #endif
 640:lib/chibios/os/hal/ports/STM32/LLD/TIMv1/hal_gpt_lld.c **** #if defined(STM32_TIM3CLK)
 641:lib/chibios/os/hal/ports/STM32/LLD/TIMv1/hal_gpt_lld.c ****       gptp->clock = STM32_TIM3CLK;
 642:lib/chibios/os/hal/ports/STM32/LLD/TIMv1/hal_gpt_lld.c **** #else
 643:lib/chibios/os/hal/ports/STM32/LLD/TIMv1/hal_gpt_lld.c ****       gptp->clock = STM32_TIMCLK1;
 644:lib/chibios/os/hal/ports/STM32/LLD/TIMv1/hal_gpt_lld.c **** #endif
 645:lib/chibios/os/hal/ports/STM32/LLD/TIMv1/hal_gpt_lld.c ****     }
 646:lib/chibios/os/hal/ports/STM32/LLD/TIMv1/hal_gpt_lld.c **** #endif
 647:lib/chibios/os/hal/ports/STM32/LLD/TIMv1/hal_gpt_lld.c **** 
 648:lib/chibios/os/hal/ports/STM32/LLD/TIMv1/hal_gpt_lld.c **** #if STM32_GPT_USE_TIM4
 649:lib/chibios/os/hal/ports/STM32/LLD/TIMv1/hal_gpt_lld.c ****     if (&GPTD4 == gptp) {
 650:lib/chibios/os/hal/ports/STM32/LLD/TIMv1/hal_gpt_lld.c ****       rccEnableTIM4(true);
 651:lib/chibios/os/hal/ports/STM32/LLD/TIMv1/hal_gpt_lld.c ****       rccResetTIM4();
 652:lib/chibios/os/hal/ports/STM32/LLD/TIMv1/hal_gpt_lld.c **** #if !defined(STM32_TIM4_SUPPRESS_ISR)
 653:lib/chibios/os/hal/ports/STM32/LLD/TIMv1/hal_gpt_lld.c ****       nvicEnableVector(STM32_TIM4_NUMBER, STM32_GPT_TIM4_IRQ_PRIORITY);
 654:lib/chibios/os/hal/ports/STM32/LLD/TIMv1/hal_gpt_lld.c **** #endif
 655:lib/chibios/os/hal/ports/STM32/LLD/TIMv1/hal_gpt_lld.c **** #if defined(STM32_TIM4CLK)
 656:lib/chibios/os/hal/ports/STM32/LLD/TIMv1/hal_gpt_lld.c ****       gptp->clock = STM32_TIM4CLK;
 657:lib/chibios/os/hal/ports/STM32/LLD/TIMv1/hal_gpt_lld.c **** #else
 658:lib/chibios/os/hal/ports/STM32/LLD/TIMv1/hal_gpt_lld.c ****       gptp->clock = STM32_TIMCLK1;
 659:lib/chibios/os/hal/ports/STM32/LLD/TIMv1/hal_gpt_lld.c **** #endif
 660:lib/chibios/os/hal/ports/STM32/LLD/TIMv1/hal_gpt_lld.c ****     }
 661:lib/chibios/os/hal/ports/STM32/LLD/TIMv1/hal_gpt_lld.c **** #endif
 662:lib/chibios/os/hal/ports/STM32/LLD/TIMv1/hal_gpt_lld.c **** 
 663:lib/chibios/os/hal/ports/STM32/LLD/TIMv1/hal_gpt_lld.c **** #if STM32_GPT_USE_TIM5
 664:lib/chibios/os/hal/ports/STM32/LLD/TIMv1/hal_gpt_lld.c ****     if (&GPTD5 == gptp) {
 665:lib/chibios/os/hal/ports/STM32/LLD/TIMv1/hal_gpt_lld.c ****       rccEnableTIM5(true);
 666:lib/chibios/os/hal/ports/STM32/LLD/TIMv1/hal_gpt_lld.c ****       rccResetTIM5();
 667:lib/chibios/os/hal/ports/STM32/LLD/TIMv1/hal_gpt_lld.c **** #if !defined(STM32_TIM5_SUPPRESS_ISR)
 668:lib/chibios/os/hal/ports/STM32/LLD/TIMv1/hal_gpt_lld.c ****       nvicEnableVector(STM32_TIM5_NUMBER, STM32_GPT_TIM5_IRQ_PRIORITY);
 669:lib/chibios/os/hal/ports/STM32/LLD/TIMv1/hal_gpt_lld.c **** #endif
 670:lib/chibios/os/hal/ports/STM32/LLD/TIMv1/hal_gpt_lld.c **** #if defined(STM32_TIM5CLK)
 671:lib/chibios/os/hal/ports/STM32/LLD/TIMv1/hal_gpt_lld.c ****       gptp->clock = STM32_TIM5CLK;
 672:lib/chibios/os/hal/ports/STM32/LLD/TIMv1/hal_gpt_lld.c **** #else
 673:lib/chibios/os/hal/ports/STM32/LLD/TIMv1/hal_gpt_lld.c ****       gptp->clock = STM32_TIMCLK1;
 674:lib/chibios/os/hal/ports/STM32/LLD/TIMv1/hal_gpt_lld.c **** #endif
 675:lib/chibios/os/hal/ports/STM32/LLD/TIMv1/hal_gpt_lld.c ****     }
 676:lib/chibios/os/hal/ports/STM32/LLD/TIMv1/hal_gpt_lld.c **** #endif
 677:lib/chibios/os/hal/ports/STM32/LLD/TIMv1/hal_gpt_lld.c **** 
 678:lib/chibios/os/hal/ports/STM32/LLD/TIMv1/hal_gpt_lld.c **** #if STM32_GPT_USE_TIM6
 679:lib/chibios/os/hal/ports/STM32/LLD/TIMv1/hal_gpt_lld.c ****     if (&GPTD6 == gptp) {
 109              		.loc 1 679 5 is_stmt 1 view .LVU21
 110              		.loc 1 679 8 is_stmt 0 view .LVU22
 111 000a 2D4B     		ldr	r3, .L10
 112 000c 9842     		cmp	r0, r3
 113 000e 14D1     		bne	.L7
 680:lib/chibios/os/hal/ports/STM32/LLD/TIMv1/hal_gpt_lld.c ****       rccEnableTIM6(true);
 114              		.loc 1 680 7 is_stmt 1 view .LVU23
 115 0010 2C4B     		ldr	r3, .L10+4
 116 0012 DA69     		ldr	r2, [r3, #28]
 117 0014 42F01002 		orr	r2, r2, #16
 118 0018 DA61     		str	r2, [r3, #28]
 119              		.loc 1 680 7 view .LVU24
 120 001a DA69     		ldr	r2, [r3, #28]
 121              		.loc 1 680 26 view .LVU25
 681:lib/chibios/os/hal/ports/STM32/LLD/TIMv1/hal_gpt_lld.c ****       rccResetTIM6();
 122              		.loc 1 681 7 view .LVU26
 123 001c 1A69     		ldr	r2, [r3, #16]
 124 001e 42F01002 		orr	r2, r2, #16
 125 0022 1A61     		str	r2, [r3, #16]
 126              		.loc 1 681 7 view .LVU27
 127 0024 1A69     		ldr	r2, [r3, #16]
 128 0026 22F01002 		bic	r2, r2, #16
 129 002a 1A61     		str	r2, [r3, #16]
 130              		.loc 1 681 7 view .LVU28
 682:lib/chibios/os/hal/ports/STM32/LLD/TIMv1/hal_gpt_lld.c **** #if !defined(STM32_TIM6_SUPPRESS_ISR)
 683:lib/chibios/os/hal/ports/STM32/LLD/TIMv1/hal_gpt_lld.c ****       nvicEnableVector(STM32_TIM6_NUMBER, STM32_GPT_TIM6_IRQ_PRIORITY);
 131              		.loc 1 683 7 is_stmt 0 view .LVU29
 132 002c 0721     		movs	r1, #7
 133 002e 3620     		movs	r0, #54
 134              	.LVL4:
 681:lib/chibios/os/hal/ports/STM32/LLD/TIMv1/hal_gpt_lld.c ****       rccResetTIM6();
 135              		.loc 1 681 7 view .LVU30
 136 0030 1B69     		ldr	r3, [r3, #16]
 681:lib/chibios/os/hal/ports/STM32/LLD/TIMv1/hal_gpt_lld.c ****       rccResetTIM6();
 137              		.loc 1 681 21 is_stmt 1 view .LVU31
 138              		.loc 1 683 7 view .LVU32
 139 0032 FFF7FEFF 		bl	nvicEnableVector
 140              	.LVL5:
 684:lib/chibios/os/hal/ports/STM32/LLD/TIMv1/hal_gpt_lld.c **** #endif
 685:lib/chibios/os/hal/ports/STM32/LLD/TIMv1/hal_gpt_lld.c **** #if defined(STM32_TIM6CLK)
 686:lib/chibios/os/hal/ports/STM32/LLD/TIMv1/hal_gpt_lld.c ****       gptp->clock = STM32_TIM6CLK;
 687:lib/chibios/os/hal/ports/STM32/LLD/TIMv1/hal_gpt_lld.c **** #else
 688:lib/chibios/os/hal/ports/STM32/LLD/TIMv1/hal_gpt_lld.c ****       gptp->clock = STM32_TIMCLK1;
 141              		.loc 1 688 7 view .LVU33
 142              		.loc 1 688 19 is_stmt 0 view .LVU34
 143 0036 244B     		ldr	r3, .L10+8
 144 0038 A360     		str	r3, [r4, #8]
 145              	.L7:
 689:lib/chibios/os/hal/ports/STM32/LLD/TIMv1/hal_gpt_lld.c **** #endif
 690:lib/chibios/os/hal/ports/STM32/LLD/TIMv1/hal_gpt_lld.c ****     }
 691:lib/chibios/os/hal/ports/STM32/LLD/TIMv1/hal_gpt_lld.c **** #endif
 692:lib/chibios/os/hal/ports/STM32/LLD/TIMv1/hal_gpt_lld.c **** 
 693:lib/chibios/os/hal/ports/STM32/LLD/TIMv1/hal_gpt_lld.c **** #if STM32_GPT_USE_TIM7
 694:lib/chibios/os/hal/ports/STM32/LLD/TIMv1/hal_gpt_lld.c ****     if (&GPTD7 == gptp) {
 146              		.loc 1 694 5 is_stmt 1 view .LVU35
 147              		.loc 1 694 8 is_stmt 0 view .LVU36
 148 003a 244B     		ldr	r3, .L10+12
 149 003c 9C42     		cmp	r4, r3
 150 003e 14D1     		bne	.L8
 695:lib/chibios/os/hal/ports/STM32/LLD/TIMv1/hal_gpt_lld.c ****       rccEnableTIM7(true);
 151              		.loc 1 695 7 is_stmt 1 view .LVU37
 152 0040 204B     		ldr	r3, .L10+4
 153 0042 DA69     		ldr	r2, [r3, #28]
 154 0044 42F02002 		orr	r2, r2, #32
 155 0048 DA61     		str	r2, [r3, #28]
 156              		.loc 1 695 7 view .LVU38
 157 004a DA69     		ldr	r2, [r3, #28]
 158              		.loc 1 695 26 view .LVU39
 696:lib/chibios/os/hal/ports/STM32/LLD/TIMv1/hal_gpt_lld.c ****       rccResetTIM7();
 159              		.loc 1 696 7 view .LVU40
 160 004c 1A69     		ldr	r2, [r3, #16]
 161 004e 42F02002 		orr	r2, r2, #32
 162 0052 1A61     		str	r2, [r3, #16]
 163              		.loc 1 696 7 view .LVU41
 164 0054 1A69     		ldr	r2, [r3, #16]
 165 0056 22F02002 		bic	r2, r2, #32
 166 005a 1A61     		str	r2, [r3, #16]
 167              		.loc 1 696 7 view .LVU42
 697:lib/chibios/os/hal/ports/STM32/LLD/TIMv1/hal_gpt_lld.c **** #if !defined(STM32_TIM7_SUPPRESS_ISR)
 698:lib/chibios/os/hal/ports/STM32/LLD/TIMv1/hal_gpt_lld.c ****       nvicEnableVector(STM32_TIM7_NUMBER, STM32_GPT_TIM7_IRQ_PRIORITY);
 168              		.loc 1 698 7 is_stmt 0 view .LVU43
 169 005c 0721     		movs	r1, #7
 170 005e 3720     		movs	r0, #55
 696:lib/chibios/os/hal/ports/STM32/LLD/TIMv1/hal_gpt_lld.c ****       rccResetTIM7();
 171              		.loc 1 696 7 view .LVU44
 172 0060 1B69     		ldr	r3, [r3, #16]
 696:lib/chibios/os/hal/ports/STM32/LLD/TIMv1/hal_gpt_lld.c ****       rccResetTIM7();
 173              		.loc 1 696 21 is_stmt 1 view .LVU45
 174              		.loc 1 698 7 view .LVU46
 175 0062 FFF7FEFF 		bl	nvicEnableVector
 176              	.LVL6:
 699:lib/chibios/os/hal/ports/STM32/LLD/TIMv1/hal_gpt_lld.c **** #endif
 700:lib/chibios/os/hal/ports/STM32/LLD/TIMv1/hal_gpt_lld.c **** #if defined(STM32_TIM7CLK)
 701:lib/chibios/os/hal/ports/STM32/LLD/TIMv1/hal_gpt_lld.c ****       gptp->clock = STM32_TIM7CLK;
 702:lib/chibios/os/hal/ports/STM32/LLD/TIMv1/hal_gpt_lld.c **** #else
 703:lib/chibios/os/hal/ports/STM32/LLD/TIMv1/hal_gpt_lld.c ****       gptp->clock = STM32_TIMCLK1;
 177              		.loc 1 703 7 view .LVU47
 178              		.loc 1 703 19 is_stmt 0 view .LVU48
 179 0066 184B     		ldr	r3, .L10+8
 180 0068 A360     		str	r3, [r4, #8]
 181              	.L8:
 704:lib/chibios/os/hal/ports/STM32/LLD/TIMv1/hal_gpt_lld.c **** #endif
 705:lib/chibios/os/hal/ports/STM32/LLD/TIMv1/hal_gpt_lld.c ****     }
 706:lib/chibios/os/hal/ports/STM32/LLD/TIMv1/hal_gpt_lld.c **** #endif
 707:lib/chibios/os/hal/ports/STM32/LLD/TIMv1/hal_gpt_lld.c **** 
 708:lib/chibios/os/hal/ports/STM32/LLD/TIMv1/hal_gpt_lld.c **** #if STM32_GPT_USE_TIM8
 709:lib/chibios/os/hal/ports/STM32/LLD/TIMv1/hal_gpt_lld.c ****     if (&GPTD8 == gptp) {
 182              		.loc 1 709 5 is_stmt 1 view .LVU49
 183              		.loc 1 709 8 is_stmt 0 view .LVU50
 184 006a 194B     		ldr	r3, .L10+16
 185 006c 9C42     		cmp	r4, r3
 186 006e 14D1     		bne	.L6
 710:lib/chibios/os/hal/ports/STM32/LLD/TIMv1/hal_gpt_lld.c ****       rccEnableTIM8(true);
 187              		.loc 1 710 7 is_stmt 1 view .LVU51
 188 0070 144B     		ldr	r3, .L10+4
 189 0072 9A69     		ldr	r2, [r3, #24]
 190 0074 42F40052 		orr	r2, r2, #8192
 191 0078 9A61     		str	r2, [r3, #24]
 192              		.loc 1 710 7 view .LVU52
 193 007a 9A69     		ldr	r2, [r3, #24]
 194              		.loc 1 710 26 view .LVU53
 711:lib/chibios/os/hal/ports/STM32/LLD/TIMv1/hal_gpt_lld.c ****       rccResetTIM8();
 195              		.loc 1 711 7 view .LVU54
 196 007c DA68     		ldr	r2, [r3, #12]
 197 007e 42F40052 		orr	r2, r2, #8192
 198 0082 DA60     		str	r2, [r3, #12]
 199              		.loc 1 711 7 view .LVU55
 200 0084 DA68     		ldr	r2, [r3, #12]
 201 0086 22F40052 		bic	r2, r2, #8192
 202 008a DA60     		str	r2, [r3, #12]
 203              		.loc 1 711 7 view .LVU56
 712:lib/chibios/os/hal/ports/STM32/LLD/TIMv1/hal_gpt_lld.c **** #if !defined(STM32_TIM8_SUPPRESS_ISR)
 713:lib/chibios/os/hal/ports/STM32/LLD/TIMv1/hal_gpt_lld.c ****       nvicEnableVector(STM32_TIM8_UP_NUMBER, STM32_GPT_TIM8_IRQ_PRIORITY);
 204              		.loc 1 713 7 is_stmt 0 view .LVU57
 205 008c 0721     		movs	r1, #7
 206 008e 2C20     		movs	r0, #44
 711:lib/chibios/os/hal/ports/STM32/LLD/TIMv1/hal_gpt_lld.c ****       rccResetTIM8();
 207              		.loc 1 711 7 view .LVU58
 208 0090 DB68     		ldr	r3, [r3, #12]
 711:lib/chibios/os/hal/ports/STM32/LLD/TIMv1/hal_gpt_lld.c ****       rccResetTIM8();
 209              		.loc 1 711 21 is_stmt 1 view .LVU59
 210              		.loc 1 713 7 view .LVU60
 211 0092 FFF7FEFF 		bl	nvicEnableVector
 212              	.LVL7:
 714:lib/chibios/os/hal/ports/STM32/LLD/TIMv1/hal_gpt_lld.c **** #endif
 715:lib/chibios/os/hal/ports/STM32/LLD/TIMv1/hal_gpt_lld.c **** #if defined(STM32_TIM8CLK)
 716:lib/chibios/os/hal/ports/STM32/LLD/TIMv1/hal_gpt_lld.c ****       gptp->clock = STM32_TIM8CLK;
 213              		.loc 1 716 7 view .LVU61
 214              		.loc 1 716 19 is_stmt 0 view .LVU62
 215 0096 0C4B     		ldr	r3, .L10+8
 216 0098 A360     		str	r3, [r4, #8]
 217              	.L6:
 717:lib/chibios/os/hal/ports/STM32/LLD/TIMv1/hal_gpt_lld.c **** #else
 718:lib/chibios/os/hal/ports/STM32/LLD/TIMv1/hal_gpt_lld.c ****       gptp->clock = STM32_TIMCLK2;
 719:lib/chibios/os/hal/ports/STM32/LLD/TIMv1/hal_gpt_lld.c **** #endif
 720:lib/chibios/os/hal/ports/STM32/LLD/TIMv1/hal_gpt_lld.c ****     }
 721:lib/chibios/os/hal/ports/STM32/LLD/TIMv1/hal_gpt_lld.c **** #endif
 722:lib/chibios/os/hal/ports/STM32/LLD/TIMv1/hal_gpt_lld.c **** 
 723:lib/chibios/os/hal/ports/STM32/LLD/TIMv1/hal_gpt_lld.c **** #if STM32_GPT_USE_TIM9
 724:lib/chibios/os/hal/ports/STM32/LLD/TIMv1/hal_gpt_lld.c ****     if (&GPTD9 == gptp) {
 725:lib/chibios/os/hal/ports/STM32/LLD/TIMv1/hal_gpt_lld.c ****       rccEnableTIM9(true);
 726:lib/chibios/os/hal/ports/STM32/LLD/TIMv1/hal_gpt_lld.c ****       rccResetTIM9();
 727:lib/chibios/os/hal/ports/STM32/LLD/TIMv1/hal_gpt_lld.c **** #if !defined(STM32_TIM9_SUPPRESS_ISR)
 728:lib/chibios/os/hal/ports/STM32/LLD/TIMv1/hal_gpt_lld.c ****       nvicEnableVector(STM32_TIM9_NUMBER, STM32_GPT_TIM9_IRQ_PRIORITY);
 729:lib/chibios/os/hal/ports/STM32/LLD/TIMv1/hal_gpt_lld.c **** #endif
 730:lib/chibios/os/hal/ports/STM32/LLD/TIMv1/hal_gpt_lld.c **** #if defined(STM32_TIM9CLK)
 731:lib/chibios/os/hal/ports/STM32/LLD/TIMv1/hal_gpt_lld.c ****       gptp->clock = STM32_TIM9CLK;
 732:lib/chibios/os/hal/ports/STM32/LLD/TIMv1/hal_gpt_lld.c **** #else
 733:lib/chibios/os/hal/ports/STM32/LLD/TIMv1/hal_gpt_lld.c ****       gptp->clock = STM32_TIMCLK2;
 734:lib/chibios/os/hal/ports/STM32/LLD/TIMv1/hal_gpt_lld.c **** #endif
 735:lib/chibios/os/hal/ports/STM32/LLD/TIMv1/hal_gpt_lld.c ****     }
 736:lib/chibios/os/hal/ports/STM32/LLD/TIMv1/hal_gpt_lld.c **** #endif
 737:lib/chibios/os/hal/ports/STM32/LLD/TIMv1/hal_gpt_lld.c **** 
 738:lib/chibios/os/hal/ports/STM32/LLD/TIMv1/hal_gpt_lld.c **** #if STM32_GPT_USE_TIM10
 739:lib/chibios/os/hal/ports/STM32/LLD/TIMv1/hal_gpt_lld.c ****     if (&GPTD10 == gptp) {
 740:lib/chibios/os/hal/ports/STM32/LLD/TIMv1/hal_gpt_lld.c ****       rccEnableTIM10(true);
 741:lib/chibios/os/hal/ports/STM32/LLD/TIMv1/hal_gpt_lld.c ****       rccResetTIM10();
 742:lib/chibios/os/hal/ports/STM32/LLD/TIMv1/hal_gpt_lld.c **** #if !defined(STM32_TIM10_SUPPRESS_ISR)
 743:lib/chibios/os/hal/ports/STM32/LLD/TIMv1/hal_gpt_lld.c ****       nvicEnableVector(STM32_TIM10_NUMBER, STM32_GPT_TIM10_IRQ_PRIORITY);
 744:lib/chibios/os/hal/ports/STM32/LLD/TIMv1/hal_gpt_lld.c **** #endif
 745:lib/chibios/os/hal/ports/STM32/LLD/TIMv1/hal_gpt_lld.c **** #if defined(STM32_TIM10CLK)
 746:lib/chibios/os/hal/ports/STM32/LLD/TIMv1/hal_gpt_lld.c ****       gptp->clock = STM32_TIM10CLK;
 747:lib/chibios/os/hal/ports/STM32/LLD/TIMv1/hal_gpt_lld.c **** #else
 748:lib/chibios/os/hal/ports/STM32/LLD/TIMv1/hal_gpt_lld.c ****       gptp->clock = STM32_TIMCLK2;
 749:lib/chibios/os/hal/ports/STM32/LLD/TIMv1/hal_gpt_lld.c **** #endif
 750:lib/chibios/os/hal/ports/STM32/LLD/TIMv1/hal_gpt_lld.c ****     }
 751:lib/chibios/os/hal/ports/STM32/LLD/TIMv1/hal_gpt_lld.c **** #endif
 752:lib/chibios/os/hal/ports/STM32/LLD/TIMv1/hal_gpt_lld.c **** 
 753:lib/chibios/os/hal/ports/STM32/LLD/TIMv1/hal_gpt_lld.c **** #if STM32_GPT_USE_TIM11
 754:lib/chibios/os/hal/ports/STM32/LLD/TIMv1/hal_gpt_lld.c ****     if (&GPTD11 == gptp) {
 755:lib/chibios/os/hal/ports/STM32/LLD/TIMv1/hal_gpt_lld.c ****       rccEnableTIM11(true);
 756:lib/chibios/os/hal/ports/STM32/LLD/TIMv1/hal_gpt_lld.c ****       rccResetTIM11();
 757:lib/chibios/os/hal/ports/STM32/LLD/TIMv1/hal_gpt_lld.c **** #if !defined(STM32_TIM11_SUPPRESS_ISR)
 758:lib/chibios/os/hal/ports/STM32/LLD/TIMv1/hal_gpt_lld.c ****       nvicEnableVector(STM32_TIM11_NUMBER, STM32_GPT_TIM11_IRQ_PRIORITY);
 759:lib/chibios/os/hal/ports/STM32/LLD/TIMv1/hal_gpt_lld.c **** #endif
 760:lib/chibios/os/hal/ports/STM32/LLD/TIMv1/hal_gpt_lld.c **** #if defined(STM32_TIM11CLK)
 761:lib/chibios/os/hal/ports/STM32/LLD/TIMv1/hal_gpt_lld.c ****       gptp->clock = STM32_TIM11CLK;
 762:lib/chibios/os/hal/ports/STM32/LLD/TIMv1/hal_gpt_lld.c **** #else
 763:lib/chibios/os/hal/ports/STM32/LLD/TIMv1/hal_gpt_lld.c ****       gptp->clock = STM32_TIMCLK2;
 764:lib/chibios/os/hal/ports/STM32/LLD/TIMv1/hal_gpt_lld.c **** #endif
 765:lib/chibios/os/hal/ports/STM32/LLD/TIMv1/hal_gpt_lld.c ****     }
 766:lib/chibios/os/hal/ports/STM32/LLD/TIMv1/hal_gpt_lld.c **** #endif
 767:lib/chibios/os/hal/ports/STM32/LLD/TIMv1/hal_gpt_lld.c **** 
 768:lib/chibios/os/hal/ports/STM32/LLD/TIMv1/hal_gpt_lld.c **** #if STM32_GPT_USE_TIM12
 769:lib/chibios/os/hal/ports/STM32/LLD/TIMv1/hal_gpt_lld.c ****     if (&GPTD12 == gptp) {
 770:lib/chibios/os/hal/ports/STM32/LLD/TIMv1/hal_gpt_lld.c ****       rccEnableTIM12(true);
 771:lib/chibios/os/hal/ports/STM32/LLD/TIMv1/hal_gpt_lld.c ****       rccResetTIM12();
 772:lib/chibios/os/hal/ports/STM32/LLD/TIMv1/hal_gpt_lld.c **** #if !defined(STM32_TIM12_SUPPRESS_ISR)
 773:lib/chibios/os/hal/ports/STM32/LLD/TIMv1/hal_gpt_lld.c ****       nvicEnableVector(STM32_TIM12_NUMBER, STM32_GPT_TIM12_IRQ_PRIORITY);
 774:lib/chibios/os/hal/ports/STM32/LLD/TIMv1/hal_gpt_lld.c **** #endif
 775:lib/chibios/os/hal/ports/STM32/LLD/TIMv1/hal_gpt_lld.c **** #if defined(STM32_TIM12CLK)
 776:lib/chibios/os/hal/ports/STM32/LLD/TIMv1/hal_gpt_lld.c ****       gptp->clock = STM32_TIM12CLK;
 777:lib/chibios/os/hal/ports/STM32/LLD/TIMv1/hal_gpt_lld.c **** #else
 778:lib/chibios/os/hal/ports/STM32/LLD/TIMv1/hal_gpt_lld.c ****       gptp->clock = STM32_TIMCLK1;
 779:lib/chibios/os/hal/ports/STM32/LLD/TIMv1/hal_gpt_lld.c **** #endif
 780:lib/chibios/os/hal/ports/STM32/LLD/TIMv1/hal_gpt_lld.c ****     }
 781:lib/chibios/os/hal/ports/STM32/LLD/TIMv1/hal_gpt_lld.c **** #endif
 782:lib/chibios/os/hal/ports/STM32/LLD/TIMv1/hal_gpt_lld.c **** 
 783:lib/chibios/os/hal/ports/STM32/LLD/TIMv1/hal_gpt_lld.c **** #if STM32_GPT_USE_TIM13
 784:lib/chibios/os/hal/ports/STM32/LLD/TIMv1/hal_gpt_lld.c ****     if (&GPTD13 == gptp) {
 785:lib/chibios/os/hal/ports/STM32/LLD/TIMv1/hal_gpt_lld.c ****       rccEnableTIM13(true);
 786:lib/chibios/os/hal/ports/STM32/LLD/TIMv1/hal_gpt_lld.c ****       rccResetTIM13();
 787:lib/chibios/os/hal/ports/STM32/LLD/TIMv1/hal_gpt_lld.c **** #if !defined(STM32_TIM13_SUPPRESS_ISR)
 788:lib/chibios/os/hal/ports/STM32/LLD/TIMv1/hal_gpt_lld.c ****       nvicEnableVector(STM32_TIM13_NUMBER, STM32_GPT_TIM13_IRQ_PRIORITY);
 789:lib/chibios/os/hal/ports/STM32/LLD/TIMv1/hal_gpt_lld.c **** #endif
 790:lib/chibios/os/hal/ports/STM32/LLD/TIMv1/hal_gpt_lld.c **** #if defined(STM32_TIM13CLK)
 791:lib/chibios/os/hal/ports/STM32/LLD/TIMv1/hal_gpt_lld.c ****       gptp->clock = STM32_TIM13CLK;
 792:lib/chibios/os/hal/ports/STM32/LLD/TIMv1/hal_gpt_lld.c **** #else
 793:lib/chibios/os/hal/ports/STM32/LLD/TIMv1/hal_gpt_lld.c ****       gptp->clock = STM32_TIMCLK1;
 794:lib/chibios/os/hal/ports/STM32/LLD/TIMv1/hal_gpt_lld.c **** #endif
 795:lib/chibios/os/hal/ports/STM32/LLD/TIMv1/hal_gpt_lld.c ****     }
 796:lib/chibios/os/hal/ports/STM32/LLD/TIMv1/hal_gpt_lld.c **** #endif
 797:lib/chibios/os/hal/ports/STM32/LLD/TIMv1/hal_gpt_lld.c **** 
 798:lib/chibios/os/hal/ports/STM32/LLD/TIMv1/hal_gpt_lld.c **** #if STM32_GPT_USE_TIM14
 799:lib/chibios/os/hal/ports/STM32/LLD/TIMv1/hal_gpt_lld.c ****     if (&GPTD14 == gptp) {
 800:lib/chibios/os/hal/ports/STM32/LLD/TIMv1/hal_gpt_lld.c ****       rccEnableTIM14(true);
 801:lib/chibios/os/hal/ports/STM32/LLD/TIMv1/hal_gpt_lld.c ****       rccResetTIM14();
 802:lib/chibios/os/hal/ports/STM32/LLD/TIMv1/hal_gpt_lld.c **** #if !defined(STM32_TIM14_SUPPRESS_ISR)
 803:lib/chibios/os/hal/ports/STM32/LLD/TIMv1/hal_gpt_lld.c ****       nvicEnableVector(STM32_TIM14_NUMBER, STM32_GPT_TIM14_IRQ_PRIORITY);
 804:lib/chibios/os/hal/ports/STM32/LLD/TIMv1/hal_gpt_lld.c **** #endif
 805:lib/chibios/os/hal/ports/STM32/LLD/TIMv1/hal_gpt_lld.c **** #if defined(STM32_TIM14CLK)
 806:lib/chibios/os/hal/ports/STM32/LLD/TIMv1/hal_gpt_lld.c ****       gptp->clock = STM32_TIM14CLK;
 807:lib/chibios/os/hal/ports/STM32/LLD/TIMv1/hal_gpt_lld.c **** #else
 808:lib/chibios/os/hal/ports/STM32/LLD/TIMv1/hal_gpt_lld.c ****       gptp->clock = STM32_TIMCLK1;
 809:lib/chibios/os/hal/ports/STM32/LLD/TIMv1/hal_gpt_lld.c **** #endif
 810:lib/chibios/os/hal/ports/STM32/LLD/TIMv1/hal_gpt_lld.c ****     }
 811:lib/chibios/os/hal/ports/STM32/LLD/TIMv1/hal_gpt_lld.c **** #endif
 812:lib/chibios/os/hal/ports/STM32/LLD/TIMv1/hal_gpt_lld.c **** 
 813:lib/chibios/os/hal/ports/STM32/LLD/TIMv1/hal_gpt_lld.c **** #if STM32_GPT_USE_TIM15
 814:lib/chibios/os/hal/ports/STM32/LLD/TIMv1/hal_gpt_lld.c ****     if (&GPTD15 == gptp) {
 815:lib/chibios/os/hal/ports/STM32/LLD/TIMv1/hal_gpt_lld.c ****       rccEnableTIM15(true);
 816:lib/chibios/os/hal/ports/STM32/LLD/TIMv1/hal_gpt_lld.c ****       rccResetTIM15();
 817:lib/chibios/os/hal/ports/STM32/LLD/TIMv1/hal_gpt_lld.c **** #if defined(STM32_TIM15CLK)
 818:lib/chibios/os/hal/ports/STM32/LLD/TIMv1/hal_gpt_lld.c ****       gptp->clock = STM32_TIM15CLK;
 819:lib/chibios/os/hal/ports/STM32/LLD/TIMv1/hal_gpt_lld.c **** #else
 820:lib/chibios/os/hal/ports/STM32/LLD/TIMv1/hal_gpt_lld.c ****       gptp->clock = STM32_TIMCLK2;
 821:lib/chibios/os/hal/ports/STM32/LLD/TIMv1/hal_gpt_lld.c **** #endif
 822:lib/chibios/os/hal/ports/STM32/LLD/TIMv1/hal_gpt_lld.c ****     }
 823:lib/chibios/os/hal/ports/STM32/LLD/TIMv1/hal_gpt_lld.c **** #endif
 824:lib/chibios/os/hal/ports/STM32/LLD/TIMv1/hal_gpt_lld.c **** 
 825:lib/chibios/os/hal/ports/STM32/LLD/TIMv1/hal_gpt_lld.c **** #if STM32_GPT_USE_TIM16
 826:lib/chibios/os/hal/ports/STM32/LLD/TIMv1/hal_gpt_lld.c ****     if (&GPTD16 == gptp) {
 827:lib/chibios/os/hal/ports/STM32/LLD/TIMv1/hal_gpt_lld.c ****       rccEnableTIM16(true);
 828:lib/chibios/os/hal/ports/STM32/LLD/TIMv1/hal_gpt_lld.c ****       rccResetTIM16();
 829:lib/chibios/os/hal/ports/STM32/LLD/TIMv1/hal_gpt_lld.c **** #if defined(STM32_TIM16CLK)
 830:lib/chibios/os/hal/ports/STM32/LLD/TIMv1/hal_gpt_lld.c ****       gptp->clock = STM32_TIM16CLK;
 831:lib/chibios/os/hal/ports/STM32/LLD/TIMv1/hal_gpt_lld.c **** #else
 832:lib/chibios/os/hal/ports/STM32/LLD/TIMv1/hal_gpt_lld.c ****       gptp->clock = STM32_TIMCLK2;
 833:lib/chibios/os/hal/ports/STM32/LLD/TIMv1/hal_gpt_lld.c **** #endif
 834:lib/chibios/os/hal/ports/STM32/LLD/TIMv1/hal_gpt_lld.c ****     }
 835:lib/chibios/os/hal/ports/STM32/LLD/TIMv1/hal_gpt_lld.c **** #endif
 836:lib/chibios/os/hal/ports/STM32/LLD/TIMv1/hal_gpt_lld.c **** 
 837:lib/chibios/os/hal/ports/STM32/LLD/TIMv1/hal_gpt_lld.c **** #if STM32_GPT_USE_TIM17
 838:lib/chibios/os/hal/ports/STM32/LLD/TIMv1/hal_gpt_lld.c ****     if (&GPTD17 == gptp) {
 839:lib/chibios/os/hal/ports/STM32/LLD/TIMv1/hal_gpt_lld.c ****       rccEnableTIM17(true);
 840:lib/chibios/os/hal/ports/STM32/LLD/TIMv1/hal_gpt_lld.c ****       rccResetTIM17();
 841:lib/chibios/os/hal/ports/STM32/LLD/TIMv1/hal_gpt_lld.c **** #if defined(STM32_TIM17CLK)
 842:lib/chibios/os/hal/ports/STM32/LLD/TIMv1/hal_gpt_lld.c ****       gptp->clock = STM32_TIM17CLK;
 843:lib/chibios/os/hal/ports/STM32/LLD/TIMv1/hal_gpt_lld.c **** #else
 844:lib/chibios/os/hal/ports/STM32/LLD/TIMv1/hal_gpt_lld.c ****       gptp->clock = STM32_TIMCLK2;
 845:lib/chibios/os/hal/ports/STM32/LLD/TIMv1/hal_gpt_lld.c **** #endif
 846:lib/chibios/os/hal/ports/STM32/LLD/TIMv1/hal_gpt_lld.c ****     }
 847:lib/chibios/os/hal/ports/STM32/LLD/TIMv1/hal_gpt_lld.c **** #endif
 848:lib/chibios/os/hal/ports/STM32/LLD/TIMv1/hal_gpt_lld.c **** 
 849:lib/chibios/os/hal/ports/STM32/LLD/TIMv1/hal_gpt_lld.c **** #if STM32_GPT_USE_TIM21
 850:lib/chibios/os/hal/ports/STM32/LLD/TIMv1/hal_gpt_lld.c ****     if (&GPTD21 == gptp) {
 851:lib/chibios/os/hal/ports/STM32/LLD/TIMv1/hal_gpt_lld.c ****       rccEnableTIM21(true);
 852:lib/chibios/os/hal/ports/STM32/LLD/TIMv1/hal_gpt_lld.c ****       rccResetTIM21();
 853:lib/chibios/os/hal/ports/STM32/LLD/TIMv1/hal_gpt_lld.c **** #if !defined(STM32_TIM21_SUPPRESS_ISR)
 854:lib/chibios/os/hal/ports/STM32/LLD/TIMv1/hal_gpt_lld.c ****       nvicEnableVector(STM32_TIM21_NUMBER, STM32_GPT_TIM21_IRQ_PRIORITY);
 855:lib/chibios/os/hal/ports/STM32/LLD/TIMv1/hal_gpt_lld.c **** #endif
 856:lib/chibios/os/hal/ports/STM32/LLD/TIMv1/hal_gpt_lld.c **** #if defined(STM32_TIM21CLK)
 857:lib/chibios/os/hal/ports/STM32/LLD/TIMv1/hal_gpt_lld.c ****       gptp->clock = STM32_TIM21CLK;
 858:lib/chibios/os/hal/ports/STM32/LLD/TIMv1/hal_gpt_lld.c **** #else
 859:lib/chibios/os/hal/ports/STM32/LLD/TIMv1/hal_gpt_lld.c ****       gptp->clock = STM32_TIMCLK1;
 860:lib/chibios/os/hal/ports/STM32/LLD/TIMv1/hal_gpt_lld.c **** #endif
 861:lib/chibios/os/hal/ports/STM32/LLD/TIMv1/hal_gpt_lld.c ****     }
 862:lib/chibios/os/hal/ports/STM32/LLD/TIMv1/hal_gpt_lld.c **** #endif
 863:lib/chibios/os/hal/ports/STM32/LLD/TIMv1/hal_gpt_lld.c **** 
 864:lib/chibios/os/hal/ports/STM32/LLD/TIMv1/hal_gpt_lld.c **** #if STM32_GPT_USE_TIM22
 865:lib/chibios/os/hal/ports/STM32/LLD/TIMv1/hal_gpt_lld.c ****     if (&GPTD22 == gptp) {
 866:lib/chibios/os/hal/ports/STM32/LLD/TIMv1/hal_gpt_lld.c ****       rccEnableTIM22(true);
 867:lib/chibios/os/hal/ports/STM32/LLD/TIMv1/hal_gpt_lld.c ****       rccResetTIM22();
 868:lib/chibios/os/hal/ports/STM32/LLD/TIMv1/hal_gpt_lld.c **** #if !defined(STM32_TIM22_SUPPRESS_ISR)
 869:lib/chibios/os/hal/ports/STM32/LLD/TIMv1/hal_gpt_lld.c ****       nvicEnableVector(STM32_TIM22_NUMBER, STM32_GPT_TIM22_IRQ_PRIORITY);
 870:lib/chibios/os/hal/ports/STM32/LLD/TIMv1/hal_gpt_lld.c **** #endif
 871:lib/chibios/os/hal/ports/STM32/LLD/TIMv1/hal_gpt_lld.c **** #if defined(STM32_TIM22CLK)
 872:lib/chibios/os/hal/ports/STM32/LLD/TIMv1/hal_gpt_lld.c ****       gptp->clock = STM32_TIM22CLK;
 873:lib/chibios/os/hal/ports/STM32/LLD/TIMv1/hal_gpt_lld.c **** #else
 874:lib/chibios/os/hal/ports/STM32/LLD/TIMv1/hal_gpt_lld.c ****       gptp->clock = STM32_TIMCLK1;
 875:lib/chibios/os/hal/ports/STM32/LLD/TIMv1/hal_gpt_lld.c **** #endif
 876:lib/chibios/os/hal/ports/STM32/LLD/TIMv1/hal_gpt_lld.c ****     }
 877:lib/chibios/os/hal/ports/STM32/LLD/TIMv1/hal_gpt_lld.c **** #endif
 878:lib/chibios/os/hal/ports/STM32/LLD/TIMv1/hal_gpt_lld.c ****   }
 879:lib/chibios/os/hal/ports/STM32/LLD/TIMv1/hal_gpt_lld.c **** 
 880:lib/chibios/os/hal/ports/STM32/LLD/TIMv1/hal_gpt_lld.c ****   /* Prescaler value calculation.*/
 881:lib/chibios/os/hal/ports/STM32/LLD/TIMv1/hal_gpt_lld.c ****   psc = (uint16_t)((gptp->clock / gptp->config->frequency) - 1);
 218              		.loc 1 881 3 is_stmt 1 view .LVU63
 219              		.loc 1 881 33 is_stmt 0 view .LVU64
 220 009a D4E90113 		ldrd	r1, r3, [r4, #4]
 221 009e 0A68     		ldr	r2, [r1]
 222 00a0 B3FBF2F3 		udiv	r3, r3, r2
 882:lib/chibios/os/hal/ports/STM32/LLD/TIMv1/hal_gpt_lld.c ****   osalDbgAssert(((uint32_t)(psc + 1) * gptp->config->frequency) == gptp->clock,
 883:lib/chibios/os/hal/ports/STM32/LLD/TIMv1/hal_gpt_lld.c ****                 "invalid frequency");
 884:lib/chibios/os/hal/ports/STM32/LLD/TIMv1/hal_gpt_lld.c **** 
 885:lib/chibios/os/hal/ports/STM32/LLD/TIMv1/hal_gpt_lld.c ****   /* Timer configuration.*/
 886:lib/chibios/os/hal/ports/STM32/LLD/TIMv1/hal_gpt_lld.c ****   gptp->tim->CR1  = 0;                          /* Initially stopped.       */
 223              		.loc 1 886 7 view .LVU65
 224 00a4 E268     		ldr	r2, [r4, #12]
 887:lib/chibios/os/hal/ports/STM32/LLD/TIMv1/hal_gpt_lld.c ****   gptp->tim->CR2  = gptp->config->cr2;
 225              		.loc 1 887 33 view .LVU66
 226 00a6 8C68     		ldr	r4, [r1, #8]
 227              	.LVL8:
 881:lib/chibios/os/hal/ports/STM32/LLD/TIMv1/hal_gpt_lld.c ****   osalDbgAssert(((uint32_t)(psc + 1) * gptp->config->frequency) == gptp->clock,
 228              		.loc 1 881 7 view .LVU67
 229 00a8 013B     		subs	r3, r3, #1
 230 00aa 9BB2     		uxth	r3, r3
 231              	.LVL9:
 882:lib/chibios/os/hal/ports/STM32/LLD/TIMv1/hal_gpt_lld.c ****   osalDbgAssert(((uint32_t)(psc + 1) * gptp->config->frequency) == gptp->clock,
 232              		.loc 1 882 3 is_stmt 1 view .LVU68
 882:lib/chibios/os/hal/ports/STM32/LLD/TIMv1/hal_gpt_lld.c ****   osalDbgAssert(((uint32_t)(psc + 1) * gptp->config->frequency) == gptp->clock,
 233              		.loc 1 882 3 view .LVU69
 882:lib/chibios/os/hal/ports/STM32/LLD/TIMv1/hal_gpt_lld.c ****   osalDbgAssert(((uint32_t)(psc + 1) * gptp->config->frequency) == gptp->clock,
 234              		.loc 1 882 3 view .LVU70
 886:lib/chibios/os/hal/ports/STM32/LLD/TIMv1/hal_gpt_lld.c ****   gptp->tim->CR2  = gptp->config->cr2;
 235              		.loc 1 886 3 view .LVU71
 886:lib/chibios/os/hal/ports/STM32/LLD/TIMv1/hal_gpt_lld.c ****   gptp->tim->CR2  = gptp->config->cr2;
 236              		.loc 1 886 19 is_stmt 0 view .LVU72
 237 00ac 0020     		movs	r0, #0
 238 00ae 1060     		str	r0, [r2]
 239              		.loc 1 887 3 is_stmt 1 view .LVU73
 240              		.loc 1 887 19 is_stmt 0 view .LVU74
 241 00b0 5460     		str	r4, [r2, #4]
 888:lib/chibios/os/hal/ports/STM32/LLD/TIMv1/hal_gpt_lld.c ****   gptp->tim->PSC  = psc;                        /* Prescaler value.         */
 242              		.loc 1 888 3 is_stmt 1 view .LVU75
 243              		.loc 1 888 19 is_stmt 0 view .LVU76
 244 00b2 9362     		str	r3, [r2, #40]
 889:lib/chibios/os/hal/ports/STM32/LLD/TIMv1/hal_gpt_lld.c ****   gptp->tim->SR   = 0;                          /* Clear pending IRQs.      */
 245              		.loc 1 889 3 is_stmt 1 view .LVU77
 890:lib/chibios/os/hal/ports/STM32/LLD/TIMv1/hal_gpt_lld.c ****   gptp->tim->DIER = gptp->config->dier &        /* DMA-related DIER bits.   */
 246              		.loc 1 890 40 is_stmt 0 view .LVU78
 247 00b4 CB68     		ldr	r3, [r1, #12]
 248              	.LVL10:
 889:lib/chibios/os/hal/ports/STM32/LLD/TIMv1/hal_gpt_lld.c ****   gptp->tim->SR   = 0;                          /* Clear pending IRQs.      */
 249              		.loc 1 889 19 view .LVU79
 250 00b6 1061     		str	r0, [r2, #16]
 251              	.LVL11:
 252              		.loc 1 890 3 is_stmt 1 view .LVU80
 253              		.loc 1 890 40 is_stmt 0 view .LVU81
 254 00b8 23F0FF03 		bic	r3, r3, #255
 255              		.loc 1 890 19 view .LVU82
 256 00bc D360     		str	r3, [r2, #12]
 891:lib/chibios/os/hal/ports/STM32/LLD/TIMv1/hal_gpt_lld.c ****                     ~STM32_TIM_DIER_IRQ_MASK;
 892:lib/chibios/os/hal/ports/STM32/LLD/TIMv1/hal_gpt_lld.c **** }
 257              		.loc 1 892 1 view .LVU83
 258 00be 10BD     		pop	{r4, pc}
 259              	.L11:
 260              		.align	2
 261              	.L10:
 262 00c0 00000000 		.word	GPTD6
 263 00c4 00100240 		.word	1073876992
 264 00c8 00A24A04 		.word	72000000
 265 00cc 00000000 		.word	GPTD7
 266 00d0 00000000 		.word	GPTD8
 267              		.cfi_endproc
 268              	.LFE286:
 270              		.section	.text.gpt_lld_stop,"ax",%progbits
 271              		.align	1
 272              		.global	gpt_lld_stop
 273              		.syntax unified
 274              		.thumb
 275              		.thumb_func
 277              	gpt_lld_stop:
 278              	.LVL12:
 279              	.LFB287:
 893:lib/chibios/os/hal/ports/STM32/LLD/TIMv1/hal_gpt_lld.c **** 
 894:lib/chibios/os/hal/ports/STM32/LLD/TIMv1/hal_gpt_lld.c **** /**
 895:lib/chibios/os/hal/ports/STM32/LLD/TIMv1/hal_gpt_lld.c ****  * @brief   Deactivates the GPT peripheral.
 896:lib/chibios/os/hal/ports/STM32/LLD/TIMv1/hal_gpt_lld.c ****  *
 897:lib/chibios/os/hal/ports/STM32/LLD/TIMv1/hal_gpt_lld.c ****  * @param[in] gptp      pointer to the @p GPTDriver object
 898:lib/chibios/os/hal/ports/STM32/LLD/TIMv1/hal_gpt_lld.c ****  *
 899:lib/chibios/os/hal/ports/STM32/LLD/TIMv1/hal_gpt_lld.c ****  * @notapi
 900:lib/chibios/os/hal/ports/STM32/LLD/TIMv1/hal_gpt_lld.c ****  */
 901:lib/chibios/os/hal/ports/STM32/LLD/TIMv1/hal_gpt_lld.c **** void gpt_lld_stop(GPTDriver *gptp) {
 280              		.loc 1 901 36 is_stmt 1 view -0
 281              		.cfi_startproc
 282              		@ args = 0, pretend = 0, frame = 0
 283              		@ frame_needed = 0, uses_anonymous_args = 0
 902:lib/chibios/os/hal/ports/STM32/LLD/TIMv1/hal_gpt_lld.c **** 
 903:lib/chibios/os/hal/ports/STM32/LLD/TIMv1/hal_gpt_lld.c ****   if (gptp->state == GPT_READY) {
 284              		.loc 1 903 3 view .LVU85
 901:lib/chibios/os/hal/ports/STM32/LLD/TIMv1/hal_gpt_lld.c **** 
 285              		.loc 1 901 36 is_stmt 0 view .LVU86
 286 0000 10B5     		push	{r4, lr}
 287              		.cfi_def_cfa_offset 8
 288              		.cfi_offset 4, -8
 289              		.cfi_offset 14, -4
 290              		.loc 1 903 6 view .LVU87
 291 0002 0378     		ldrb	r3, [r0]	@ zero_extendqisi2
 292 0004 022B     		cmp	r3, #2
 901:lib/chibios/os/hal/ports/STM32/LLD/TIMv1/hal_gpt_lld.c **** 
 293              		.loc 1 901 36 view .LVU88
 294 0006 0446     		mov	r4, r0
 295              		.loc 1 903 6 view .LVU89
 296 0008 28D1     		bne	.L12
 904:lib/chibios/os/hal/ports/STM32/LLD/TIMv1/hal_gpt_lld.c ****     gptp->tim->CR1  = 0;                        /* Timer disabled.          */
 297              		.loc 1 904 5 is_stmt 1 view .LVU90
 298              		.loc 1 904 9 is_stmt 0 view .LVU91
 299 000a C368     		ldr	r3, [r0, #12]
 300              		.loc 1 904 21 view .LVU92
 301 000c 0022     		movs	r2, #0
 302 000e 1A60     		str	r2, [r3]
 905:lib/chibios/os/hal/ports/STM32/LLD/TIMv1/hal_gpt_lld.c ****     gptp->tim->DIER = 0;                        /* All IRQs disabled.       */
 303              		.loc 1 905 5 is_stmt 1 view .LVU93
 304              		.loc 1 905 21 is_stmt 0 view .LVU94
 305 0010 DA60     		str	r2, [r3, #12]
 906:lib/chibios/os/hal/ports/STM32/LLD/TIMv1/hal_gpt_lld.c ****     gptp->tim->SR   = 0;                        /* Clear pending IRQs.      */
 306              		.loc 1 906 5 is_stmt 1 view .LVU95
 307              		.loc 1 906 21 is_stmt 0 view .LVU96
 308 0012 1A61     		str	r2, [r3, #16]
 907:lib/chibios/os/hal/ports/STM32/LLD/TIMv1/hal_gpt_lld.c **** 
 908:lib/chibios/os/hal/ports/STM32/LLD/TIMv1/hal_gpt_lld.c **** #if STM32_GPT_USE_TIM1
 909:lib/chibios/os/hal/ports/STM32/LLD/TIMv1/hal_gpt_lld.c ****     if (&GPTD1 == gptp) {
 910:lib/chibios/os/hal/ports/STM32/LLD/TIMv1/hal_gpt_lld.c **** #if !defined(STM32_TIM1_SUPPRESS_ISR)
 911:lib/chibios/os/hal/ports/STM32/LLD/TIMv1/hal_gpt_lld.c ****       nvicDisableVector(STM32_TIM1_UP_NUMBER);
 912:lib/chibios/os/hal/ports/STM32/LLD/TIMv1/hal_gpt_lld.c **** #endif
 913:lib/chibios/os/hal/ports/STM32/LLD/TIMv1/hal_gpt_lld.c ****       rccDisableTIM1();
 914:lib/chibios/os/hal/ports/STM32/LLD/TIMv1/hal_gpt_lld.c ****     }
 915:lib/chibios/os/hal/ports/STM32/LLD/TIMv1/hal_gpt_lld.c **** #endif
 916:lib/chibios/os/hal/ports/STM32/LLD/TIMv1/hal_gpt_lld.c **** 
 917:lib/chibios/os/hal/ports/STM32/LLD/TIMv1/hal_gpt_lld.c **** #if STM32_GPT_USE_TIM2
 918:lib/chibios/os/hal/ports/STM32/LLD/TIMv1/hal_gpt_lld.c ****     if (&GPTD2 == gptp) {
 919:lib/chibios/os/hal/ports/STM32/LLD/TIMv1/hal_gpt_lld.c **** #if !defined(STM32_TIM2_SUPPRESS_ISR)
 920:lib/chibios/os/hal/ports/STM32/LLD/TIMv1/hal_gpt_lld.c ****       nvicDisableVector(STM32_TIM2_NUMBER);
 921:lib/chibios/os/hal/ports/STM32/LLD/TIMv1/hal_gpt_lld.c **** #endif
 922:lib/chibios/os/hal/ports/STM32/LLD/TIMv1/hal_gpt_lld.c ****       rccDisableTIM2();
 923:lib/chibios/os/hal/ports/STM32/LLD/TIMv1/hal_gpt_lld.c ****     }
 924:lib/chibios/os/hal/ports/STM32/LLD/TIMv1/hal_gpt_lld.c **** #endif
 925:lib/chibios/os/hal/ports/STM32/LLD/TIMv1/hal_gpt_lld.c **** 
 926:lib/chibios/os/hal/ports/STM32/LLD/TIMv1/hal_gpt_lld.c **** #if STM32_GPT_USE_TIM3
 927:lib/chibios/os/hal/ports/STM32/LLD/TIMv1/hal_gpt_lld.c ****     if (&GPTD3 == gptp) {
 928:lib/chibios/os/hal/ports/STM32/LLD/TIMv1/hal_gpt_lld.c **** #if !defined(STM32_TIM3_SUPPRESS_ISR)
 929:lib/chibios/os/hal/ports/STM32/LLD/TIMv1/hal_gpt_lld.c ****       nvicDisableVector(STM32_TIM3_NUMBER);
 930:lib/chibios/os/hal/ports/STM32/LLD/TIMv1/hal_gpt_lld.c **** #endif
 931:lib/chibios/os/hal/ports/STM32/LLD/TIMv1/hal_gpt_lld.c ****       rccDisableTIM3();
 932:lib/chibios/os/hal/ports/STM32/LLD/TIMv1/hal_gpt_lld.c ****     }
 933:lib/chibios/os/hal/ports/STM32/LLD/TIMv1/hal_gpt_lld.c **** #endif
 934:lib/chibios/os/hal/ports/STM32/LLD/TIMv1/hal_gpt_lld.c **** 
 935:lib/chibios/os/hal/ports/STM32/LLD/TIMv1/hal_gpt_lld.c **** #if STM32_GPT_USE_TIM4
 936:lib/chibios/os/hal/ports/STM32/LLD/TIMv1/hal_gpt_lld.c ****     if (&GPTD4 == gptp) {
 937:lib/chibios/os/hal/ports/STM32/LLD/TIMv1/hal_gpt_lld.c **** #if !defined(STM32_TIM4_SUPPRESS_ISR)
 938:lib/chibios/os/hal/ports/STM32/LLD/TIMv1/hal_gpt_lld.c ****       nvicDisableVector(STM32_TIM4_NUMBER);
 939:lib/chibios/os/hal/ports/STM32/LLD/TIMv1/hal_gpt_lld.c **** #endif
 940:lib/chibios/os/hal/ports/STM32/LLD/TIMv1/hal_gpt_lld.c ****       rccDisableTIM4();
 941:lib/chibios/os/hal/ports/STM32/LLD/TIMv1/hal_gpt_lld.c ****     }
 942:lib/chibios/os/hal/ports/STM32/LLD/TIMv1/hal_gpt_lld.c **** #endif
 943:lib/chibios/os/hal/ports/STM32/LLD/TIMv1/hal_gpt_lld.c **** 
 944:lib/chibios/os/hal/ports/STM32/LLD/TIMv1/hal_gpt_lld.c **** #if STM32_GPT_USE_TIM5
 945:lib/chibios/os/hal/ports/STM32/LLD/TIMv1/hal_gpt_lld.c ****     if (&GPTD5 == gptp) {
 946:lib/chibios/os/hal/ports/STM32/LLD/TIMv1/hal_gpt_lld.c **** #if !defined(STM32_TIM5_SUPPRESS_ISR)
 947:lib/chibios/os/hal/ports/STM32/LLD/TIMv1/hal_gpt_lld.c ****       nvicDisableVector(STM32_TIM5_NUMBER);
 948:lib/chibios/os/hal/ports/STM32/LLD/TIMv1/hal_gpt_lld.c **** #endif
 949:lib/chibios/os/hal/ports/STM32/LLD/TIMv1/hal_gpt_lld.c ****       rccDisableTIM5();
 950:lib/chibios/os/hal/ports/STM32/LLD/TIMv1/hal_gpt_lld.c ****     }
 951:lib/chibios/os/hal/ports/STM32/LLD/TIMv1/hal_gpt_lld.c **** #endif
 952:lib/chibios/os/hal/ports/STM32/LLD/TIMv1/hal_gpt_lld.c **** 
 953:lib/chibios/os/hal/ports/STM32/LLD/TIMv1/hal_gpt_lld.c **** #if STM32_GPT_USE_TIM6
 954:lib/chibios/os/hal/ports/STM32/LLD/TIMv1/hal_gpt_lld.c ****     if (&GPTD6 == gptp) {
 309              		.loc 1 954 5 is_stmt 1 view .LVU97
 310              		.loc 1 954 8 is_stmt 0 view .LVU98
 311 0014 124B     		ldr	r3, .L18
 312 0016 9842     		cmp	r0, r3
 313 0018 08D1     		bne	.L15
 955:lib/chibios/os/hal/ports/STM32/LLD/TIMv1/hal_gpt_lld.c **** #if !defined(STM32_TIM6_SUPPRESS_ISR)
 956:lib/chibios/os/hal/ports/STM32/LLD/TIMv1/hal_gpt_lld.c ****       nvicDisableVector(STM32_TIM6_NUMBER);
 314              		.loc 1 956 7 is_stmt 1 view .LVU99
 315 001a 3620     		movs	r0, #54
 316              	.LVL13:
 317              		.loc 1 956 7 is_stmt 0 view .LVU100
 318 001c FFF7FEFF 		bl	nvicDisableVector
 319              	.LVL14:
 957:lib/chibios/os/hal/ports/STM32/LLD/TIMv1/hal_gpt_lld.c **** #endif
 958:lib/chibios/os/hal/ports/STM32/LLD/TIMv1/hal_gpt_lld.c ****       rccDisableTIM6();
 320              		.loc 1 958 7 is_stmt 1 view .LVU101
 321 0020 104B     		ldr	r3, .L18+4
 322 0022 DA69     		ldr	r2, [r3, #28]
 323 0024 22F01002 		bic	r2, r2, #16
 324 0028 DA61     		str	r2, [r3, #28]
 325              		.loc 1 958 7 view .LVU102
 326 002a DB69     		ldr	r3, [r3, #28]
 327              	.L15:
 328              		.loc 1 958 23 discriminator 1 view .LVU103
 959:lib/chibios/os/hal/ports/STM32/LLD/TIMv1/hal_gpt_lld.c ****     }
 960:lib/chibios/os/hal/ports/STM32/LLD/TIMv1/hal_gpt_lld.c **** #endif
 961:lib/chibios/os/hal/ports/STM32/LLD/TIMv1/hal_gpt_lld.c **** 
 962:lib/chibios/os/hal/ports/STM32/LLD/TIMv1/hal_gpt_lld.c **** #if STM32_GPT_USE_TIM7
 963:lib/chibios/os/hal/ports/STM32/LLD/TIMv1/hal_gpt_lld.c ****     if (&GPTD7 == gptp) {
 329              		.loc 1 963 5 discriminator 1 view .LVU104
 330              		.loc 1 963 8 is_stmt 0 discriminator 1 view .LVU105
 331 002c 0E4B     		ldr	r3, .L18+8
 332 002e 9C42     		cmp	r4, r3
 333 0030 08D1     		bne	.L16
 964:lib/chibios/os/hal/ports/STM32/LLD/TIMv1/hal_gpt_lld.c **** #if !defined(STM32_TIM7_SUPPRESS_ISR)
 965:lib/chibios/os/hal/ports/STM32/LLD/TIMv1/hal_gpt_lld.c ****       nvicDisableVector(STM32_TIM7_NUMBER);
 334              		.loc 1 965 7 is_stmt 1 view .LVU106
 335 0032 3720     		movs	r0, #55
 336 0034 FFF7FEFF 		bl	nvicDisableVector
 337              	.LVL15:
 966:lib/chibios/os/hal/ports/STM32/LLD/TIMv1/hal_gpt_lld.c **** #endif
 967:lib/chibios/os/hal/ports/STM32/LLD/TIMv1/hal_gpt_lld.c ****       rccDisableTIM7();
 338              		.loc 1 967 7 view .LVU107
 339 0038 0A4B     		ldr	r3, .L18+4
 340 003a DA69     		ldr	r2, [r3, #28]
 341 003c 22F02002 		bic	r2, r2, #32
 342 0040 DA61     		str	r2, [r3, #28]
 343              		.loc 1 967 7 view .LVU108
 344 0042 DB69     		ldr	r3, [r3, #28]
 345              	.L16:
 346              		.loc 1 967 23 discriminator 1 view .LVU109
 968:lib/chibios/os/hal/ports/STM32/LLD/TIMv1/hal_gpt_lld.c ****     }
 969:lib/chibios/os/hal/ports/STM32/LLD/TIMv1/hal_gpt_lld.c **** #endif
 970:lib/chibios/os/hal/ports/STM32/LLD/TIMv1/hal_gpt_lld.c **** 
 971:lib/chibios/os/hal/ports/STM32/LLD/TIMv1/hal_gpt_lld.c **** #if STM32_GPT_USE_TIM8
 972:lib/chibios/os/hal/ports/STM32/LLD/TIMv1/hal_gpt_lld.c ****     if (&GPTD8 == gptp) {
 347              		.loc 1 972 5 discriminator 1 view .LVU110
 348              		.loc 1 972 8 is_stmt 0 discriminator 1 view .LVU111
 349 0044 094B     		ldr	r3, .L18+12
 350 0046 9C42     		cmp	r4, r3
 351 0048 08D1     		bne	.L12
 973:lib/chibios/os/hal/ports/STM32/LLD/TIMv1/hal_gpt_lld.c **** #if !defined(STM32_TIM8_SUPPRESS_ISR)
 974:lib/chibios/os/hal/ports/STM32/LLD/TIMv1/hal_gpt_lld.c ****       nvicDisableVector(STM32_TIM8_UP_NUMBER);
 352              		.loc 1 974 7 is_stmt 1 view .LVU112
 353 004a 2C20     		movs	r0, #44
 354 004c FFF7FEFF 		bl	nvicDisableVector
 355              	.LVL16:
 975:lib/chibios/os/hal/ports/STM32/LLD/TIMv1/hal_gpt_lld.c **** #endif
 976:lib/chibios/os/hal/ports/STM32/LLD/TIMv1/hal_gpt_lld.c ****       rccDisableTIM8();
 356              		.loc 1 976 7 view .LVU113
 357 0050 044B     		ldr	r3, .L18+4
 358 0052 9A69     		ldr	r2, [r3, #24]
 359 0054 22F40052 		bic	r2, r2, #8192
 360 0058 9A61     		str	r2, [r3, #24]
 361              		.loc 1 976 7 view .LVU114
 362 005a 9B69     		ldr	r3, [r3, #24]
 363              		.loc 1 976 23 view .LVU115
 364              	.L12:
 977:lib/chibios/os/hal/ports/STM32/LLD/TIMv1/hal_gpt_lld.c ****     }
 978:lib/chibios/os/hal/ports/STM32/LLD/TIMv1/hal_gpt_lld.c **** #endif
 979:lib/chibios/os/hal/ports/STM32/LLD/TIMv1/hal_gpt_lld.c **** 
 980:lib/chibios/os/hal/ports/STM32/LLD/TIMv1/hal_gpt_lld.c **** #if STM32_GPT_USE_TIM9
 981:lib/chibios/os/hal/ports/STM32/LLD/TIMv1/hal_gpt_lld.c ****     if (&GPTD9 == gptp) {
 982:lib/chibios/os/hal/ports/STM32/LLD/TIMv1/hal_gpt_lld.c **** #if !defined(STM32_TIM9_SUPPRESS_ISR)
 983:lib/chibios/os/hal/ports/STM32/LLD/TIMv1/hal_gpt_lld.c ****       nvicDisableVector(STM32_TIM9_NUMBER);
 984:lib/chibios/os/hal/ports/STM32/LLD/TIMv1/hal_gpt_lld.c **** #endif
 985:lib/chibios/os/hal/ports/STM32/LLD/TIMv1/hal_gpt_lld.c ****       rccDisableTIM9();
 986:lib/chibios/os/hal/ports/STM32/LLD/TIMv1/hal_gpt_lld.c ****     }
 987:lib/chibios/os/hal/ports/STM32/LLD/TIMv1/hal_gpt_lld.c **** #endif
 988:lib/chibios/os/hal/ports/STM32/LLD/TIMv1/hal_gpt_lld.c **** 
 989:lib/chibios/os/hal/ports/STM32/LLD/TIMv1/hal_gpt_lld.c **** #if STM32_GPT_USE_TIM10
 990:lib/chibios/os/hal/ports/STM32/LLD/TIMv1/hal_gpt_lld.c ****     if (&GPTD10 == gptp) {
 991:lib/chibios/os/hal/ports/STM32/LLD/TIMv1/hal_gpt_lld.c **** #if !defined(STM32_TIM10_SUPPRESS_ISR)
 992:lib/chibios/os/hal/ports/STM32/LLD/TIMv1/hal_gpt_lld.c ****       nvicDisableVector(STM32_TIM10_NUMBER);
 993:lib/chibios/os/hal/ports/STM32/LLD/TIMv1/hal_gpt_lld.c **** #endif
 994:lib/chibios/os/hal/ports/STM32/LLD/TIMv1/hal_gpt_lld.c ****       rccDisableTIM10();
 995:lib/chibios/os/hal/ports/STM32/LLD/TIMv1/hal_gpt_lld.c ****     }
 996:lib/chibios/os/hal/ports/STM32/LLD/TIMv1/hal_gpt_lld.c **** #endif
 997:lib/chibios/os/hal/ports/STM32/LLD/TIMv1/hal_gpt_lld.c **** 
 998:lib/chibios/os/hal/ports/STM32/LLD/TIMv1/hal_gpt_lld.c **** #if STM32_GPT_USE_TIM11
 999:lib/chibios/os/hal/ports/STM32/LLD/TIMv1/hal_gpt_lld.c ****     if (&GPTD11 == gptp) {
1000:lib/chibios/os/hal/ports/STM32/LLD/TIMv1/hal_gpt_lld.c **** #if !defined(STM32_TIM11_SUPPRESS_ISR)
1001:lib/chibios/os/hal/ports/STM32/LLD/TIMv1/hal_gpt_lld.c ****       nvicDisableVector(STM32_TIM11_NUMBER);
1002:lib/chibios/os/hal/ports/STM32/LLD/TIMv1/hal_gpt_lld.c **** #endif
1003:lib/chibios/os/hal/ports/STM32/LLD/TIMv1/hal_gpt_lld.c ****       rccDisableTIM11();
1004:lib/chibios/os/hal/ports/STM32/LLD/TIMv1/hal_gpt_lld.c ****     }
1005:lib/chibios/os/hal/ports/STM32/LLD/TIMv1/hal_gpt_lld.c **** #endif
1006:lib/chibios/os/hal/ports/STM32/LLD/TIMv1/hal_gpt_lld.c **** 
1007:lib/chibios/os/hal/ports/STM32/LLD/TIMv1/hal_gpt_lld.c **** #if STM32_GPT_USE_TIM12
1008:lib/chibios/os/hal/ports/STM32/LLD/TIMv1/hal_gpt_lld.c ****     if (&GPTD12 == gptp) {
1009:lib/chibios/os/hal/ports/STM32/LLD/TIMv1/hal_gpt_lld.c **** #if !defined(STM32_TIM12_SUPPRESS_ISR)
1010:lib/chibios/os/hal/ports/STM32/LLD/TIMv1/hal_gpt_lld.c ****       nvicDisableVector(STM32_TIM12_NUMBER);
1011:lib/chibios/os/hal/ports/STM32/LLD/TIMv1/hal_gpt_lld.c **** #endif
1012:lib/chibios/os/hal/ports/STM32/LLD/TIMv1/hal_gpt_lld.c ****       rccDisableTIM12();
1013:lib/chibios/os/hal/ports/STM32/LLD/TIMv1/hal_gpt_lld.c ****     }
1014:lib/chibios/os/hal/ports/STM32/LLD/TIMv1/hal_gpt_lld.c **** #endif
1015:lib/chibios/os/hal/ports/STM32/LLD/TIMv1/hal_gpt_lld.c **** 
1016:lib/chibios/os/hal/ports/STM32/LLD/TIMv1/hal_gpt_lld.c **** #if STM32_GPT_USE_TIM13
1017:lib/chibios/os/hal/ports/STM32/LLD/TIMv1/hal_gpt_lld.c ****     if (&GPTD13 == gptp) {
1018:lib/chibios/os/hal/ports/STM32/LLD/TIMv1/hal_gpt_lld.c **** #if !defined(STM32_TIM13_SUPPRESS_ISR)
1019:lib/chibios/os/hal/ports/STM32/LLD/TIMv1/hal_gpt_lld.c ****       nvicDisableVector(STM32_TIM13_NUMBER);
1020:lib/chibios/os/hal/ports/STM32/LLD/TIMv1/hal_gpt_lld.c **** #endif
1021:lib/chibios/os/hal/ports/STM32/LLD/TIMv1/hal_gpt_lld.c ****       rccDisableTIM13();
1022:lib/chibios/os/hal/ports/STM32/LLD/TIMv1/hal_gpt_lld.c ****     }
1023:lib/chibios/os/hal/ports/STM32/LLD/TIMv1/hal_gpt_lld.c **** #endif
1024:lib/chibios/os/hal/ports/STM32/LLD/TIMv1/hal_gpt_lld.c **** 
1025:lib/chibios/os/hal/ports/STM32/LLD/TIMv1/hal_gpt_lld.c **** #if STM32_GPT_USE_TIM14
1026:lib/chibios/os/hal/ports/STM32/LLD/TIMv1/hal_gpt_lld.c ****     if (&GPTD14 == gptp) {
1027:lib/chibios/os/hal/ports/STM32/LLD/TIMv1/hal_gpt_lld.c **** #if !defined(STM32_TIM14_SUPPRESS_ISR)
1028:lib/chibios/os/hal/ports/STM32/LLD/TIMv1/hal_gpt_lld.c ****       nvicDisableVector(STM32_TIM14_NUMBER);
1029:lib/chibios/os/hal/ports/STM32/LLD/TIMv1/hal_gpt_lld.c **** #endif
1030:lib/chibios/os/hal/ports/STM32/LLD/TIMv1/hal_gpt_lld.c ****       rccDisableTIM14();
1031:lib/chibios/os/hal/ports/STM32/LLD/TIMv1/hal_gpt_lld.c ****     }
1032:lib/chibios/os/hal/ports/STM32/LLD/TIMv1/hal_gpt_lld.c **** #endif
1033:lib/chibios/os/hal/ports/STM32/LLD/TIMv1/hal_gpt_lld.c **** 
1034:lib/chibios/os/hal/ports/STM32/LLD/TIMv1/hal_gpt_lld.c **** #if STM32_GPT_USE_TIM15
1035:lib/chibios/os/hal/ports/STM32/LLD/TIMv1/hal_gpt_lld.c ****     if (&GPTD15 == gptp) {
1036:lib/chibios/os/hal/ports/STM32/LLD/TIMv1/hal_gpt_lld.c ****       rccDisableTIM15();
1037:lib/chibios/os/hal/ports/STM32/LLD/TIMv1/hal_gpt_lld.c ****     }
1038:lib/chibios/os/hal/ports/STM32/LLD/TIMv1/hal_gpt_lld.c **** #endif
1039:lib/chibios/os/hal/ports/STM32/LLD/TIMv1/hal_gpt_lld.c **** 
1040:lib/chibios/os/hal/ports/STM32/LLD/TIMv1/hal_gpt_lld.c **** #if STM32_GPT_USE_TIM16
1041:lib/chibios/os/hal/ports/STM32/LLD/TIMv1/hal_gpt_lld.c ****     if (&GPTD16 == gptp) {
1042:lib/chibios/os/hal/ports/STM32/LLD/TIMv1/hal_gpt_lld.c ****       rccDisableTIM16();
1043:lib/chibios/os/hal/ports/STM32/LLD/TIMv1/hal_gpt_lld.c ****     }
1044:lib/chibios/os/hal/ports/STM32/LLD/TIMv1/hal_gpt_lld.c **** #endif
1045:lib/chibios/os/hal/ports/STM32/LLD/TIMv1/hal_gpt_lld.c **** 
1046:lib/chibios/os/hal/ports/STM32/LLD/TIMv1/hal_gpt_lld.c **** #if STM32_GPT_USE_TIM17
1047:lib/chibios/os/hal/ports/STM32/LLD/TIMv1/hal_gpt_lld.c ****     if (&GPTD17 == gptp) {
1048:lib/chibios/os/hal/ports/STM32/LLD/TIMv1/hal_gpt_lld.c ****       rccDisableTIM17();
1049:lib/chibios/os/hal/ports/STM32/LLD/TIMv1/hal_gpt_lld.c ****     }
1050:lib/chibios/os/hal/ports/STM32/LLD/TIMv1/hal_gpt_lld.c **** #endif
1051:lib/chibios/os/hal/ports/STM32/LLD/TIMv1/hal_gpt_lld.c **** 
1052:lib/chibios/os/hal/ports/STM32/LLD/TIMv1/hal_gpt_lld.c **** #if STM32_GPT_USE_TIM21
1053:lib/chibios/os/hal/ports/STM32/LLD/TIMv1/hal_gpt_lld.c ****     if (&GPTD21 == gptp) {
1054:lib/chibios/os/hal/ports/STM32/LLD/TIMv1/hal_gpt_lld.c **** #if !defined(STM32_TIM21_SUPPRESS_ISR)
1055:lib/chibios/os/hal/ports/STM32/LLD/TIMv1/hal_gpt_lld.c ****       nvicDisableVector(STM32_TIM21_NUMBER);
1056:lib/chibios/os/hal/ports/STM32/LLD/TIMv1/hal_gpt_lld.c **** #endif
1057:lib/chibios/os/hal/ports/STM32/LLD/TIMv1/hal_gpt_lld.c ****       rccDisableTIM21();
1058:lib/chibios/os/hal/ports/STM32/LLD/TIMv1/hal_gpt_lld.c ****     }
1059:lib/chibios/os/hal/ports/STM32/LLD/TIMv1/hal_gpt_lld.c **** #endif
1060:lib/chibios/os/hal/ports/STM32/LLD/TIMv1/hal_gpt_lld.c **** 
1061:lib/chibios/os/hal/ports/STM32/LLD/TIMv1/hal_gpt_lld.c **** #if STM32_GPT_USE_TIM22
1062:lib/chibios/os/hal/ports/STM32/LLD/TIMv1/hal_gpt_lld.c ****     if (&GPTD22 == gptp) {
1063:lib/chibios/os/hal/ports/STM32/LLD/TIMv1/hal_gpt_lld.c **** #if !defined(STM32_TIM22_SUPPRESS_ISR)
1064:lib/chibios/os/hal/ports/STM32/LLD/TIMv1/hal_gpt_lld.c ****       nvicDisableVector(STM32_TIM22_NUMBER);
1065:lib/chibios/os/hal/ports/STM32/LLD/TIMv1/hal_gpt_lld.c **** #endif
1066:lib/chibios/os/hal/ports/STM32/LLD/TIMv1/hal_gpt_lld.c ****       rccDisableTIM22();
1067:lib/chibios/os/hal/ports/STM32/LLD/TIMv1/hal_gpt_lld.c ****     }
1068:lib/chibios/os/hal/ports/STM32/LLD/TIMv1/hal_gpt_lld.c **** #endif
1069:lib/chibios/os/hal/ports/STM32/LLD/TIMv1/hal_gpt_lld.c ****   }
1070:lib/chibios/os/hal/ports/STM32/LLD/TIMv1/hal_gpt_lld.c **** }
 365              		.loc 1 1070 1 is_stmt 0 view .LVU116
 366 005c 10BD     		pop	{r4, pc}
 367              	.LVL17:
 368              	.L19:
 369              		.loc 1 1070 1 view .LVU117
 370 005e 00BF     		.align	2
 371              	.L18:
 372 0060 00000000 		.word	GPTD6
 373 0064 00100240 		.word	1073876992
 374 0068 00000000 		.word	GPTD7
 375 006c 00000000 		.word	GPTD8
 376              		.cfi_endproc
 377              	.LFE287:
 379              		.section	.text.gpt_lld_start_timer,"ax",%progbits
 380              		.align	1
 381              		.global	gpt_lld_start_timer
 382              		.syntax unified
 383              		.thumb
 384              		.thumb_func
 386              	gpt_lld_start_timer:
 387              	.LVL18:
 388              	.LFB288:
1071:lib/chibios/os/hal/ports/STM32/LLD/TIMv1/hal_gpt_lld.c **** 
1072:lib/chibios/os/hal/ports/STM32/LLD/TIMv1/hal_gpt_lld.c **** /**
1073:lib/chibios/os/hal/ports/STM32/LLD/TIMv1/hal_gpt_lld.c ****  * @brief   Starts the timer in continuous mode.
1074:lib/chibios/os/hal/ports/STM32/LLD/TIMv1/hal_gpt_lld.c ****  *
1075:lib/chibios/os/hal/ports/STM32/LLD/TIMv1/hal_gpt_lld.c ****  * @param[in] gptp      pointer to the @p GPTDriver object
1076:lib/chibios/os/hal/ports/STM32/LLD/TIMv1/hal_gpt_lld.c ****  * @param[in] interval  period in ticks
1077:lib/chibios/os/hal/ports/STM32/LLD/TIMv1/hal_gpt_lld.c ****  *
1078:lib/chibios/os/hal/ports/STM32/LLD/TIMv1/hal_gpt_lld.c ****  * @notapi
1079:lib/chibios/os/hal/ports/STM32/LLD/TIMv1/hal_gpt_lld.c ****  */
1080:lib/chibios/os/hal/ports/STM32/LLD/TIMv1/hal_gpt_lld.c **** void gpt_lld_start_timer(GPTDriver *gptp, gptcnt_t interval) {
 389              		.loc 1 1080 62 is_stmt 1 view -0
 390              		.cfi_startproc
 391              		@ args = 0, pretend = 0, frame = 0
 392              		@ frame_needed = 0, uses_anonymous_args = 0
 393              		@ link register save eliminated.
1081:lib/chibios/os/hal/ports/STM32/LLD/TIMv1/hal_gpt_lld.c **** 
1082:lib/chibios/os/hal/ports/STM32/LLD/TIMv1/hal_gpt_lld.c ****   gptp->tim->ARR = (uint32_t)(interval - 1U);   /* Time constant.           */
 394              		.loc 1 1082 3 view .LVU119
 395              		.loc 1 1082 7 is_stmt 0 view .LVU120
 396 0000 C368     		ldr	r3, [r0, #12]
1083:lib/chibios/os/hal/ports/STM32/LLD/TIMv1/hal_gpt_lld.c ****   gptp->tim->EGR = STM32_TIM_EGR_UG;            /* Update event.            */
 397              		.loc 1 1083 18 view .LVU121
 398 0002 0122     		movs	r2, #1
1082:lib/chibios/os/hal/ports/STM32/LLD/TIMv1/hal_gpt_lld.c ****   gptp->tim->EGR = STM32_TIM_EGR_UG;            /* Update event.            */
 399              		.loc 1 1082 20 view .LVU122
 400 0004 0139     		subs	r1, r1, #1
 401              	.LVL19:
1082:lib/chibios/os/hal/ports/STM32/LLD/TIMv1/hal_gpt_lld.c ****   gptp->tim->EGR = STM32_TIM_EGR_UG;            /* Update event.            */
 402              		.loc 1 1082 18 view .LVU123
 403 0006 D962     		str	r1, [r3, #44]
 404              		.loc 1 1083 3 is_stmt 1 view .LVU124
 405              		.loc 1 1083 18 is_stmt 0 view .LVU125
 406 0008 5A61     		str	r2, [r3, #20]
1084:lib/chibios/os/hal/ports/STM32/LLD/TIMv1/hal_gpt_lld.c ****   gptp->tim->CNT = 0;                           /* Reset counter.           */
 407              		.loc 1 1084 3 is_stmt 1 view .LVU126
 408              		.loc 1 1084 18 is_stmt 0 view .LVU127
 409 000a 0022     		movs	r2, #0
 410 000c 5A62     		str	r2, [r3, #36]
1085:lib/chibios/os/hal/ports/STM32/LLD/TIMv1/hal_gpt_lld.c **** 
1086:lib/chibios/os/hal/ports/STM32/LLD/TIMv1/hal_gpt_lld.c ****   /* NOTE: After generating the UG event it takes several clock cycles before
1087:lib/chibios/os/hal/ports/STM32/LLD/TIMv1/hal_gpt_lld.c ****      SR bit 0 goes to 1. This is why the clearing of CNT has been inserted
1088:lib/chibios/os/hal/ports/STM32/LLD/TIMv1/hal_gpt_lld.c ****      before the clearing of SR, to give it some time.*/
1089:lib/chibios/os/hal/ports/STM32/LLD/TIMv1/hal_gpt_lld.c ****   gptp->tim->SR = 0;                            /* Clear pending IRQs.      */
 411              		.loc 1 1089 3 is_stmt 1 view .LVU128
 412              		.loc 1 1089 17 is_stmt 0 view .LVU129
 413 000e 1A61     		str	r2, [r3, #16]
1090:lib/chibios/os/hal/ports/STM32/LLD/TIMv1/hal_gpt_lld.c ****   if (NULL != gptp->config->callback)
 414              		.loc 1 1090 3 is_stmt 1 view .LVU130
 415              		.loc 1 1090 27 is_stmt 0 view .LVU131
 416 0010 4268     		ldr	r2, [r0, #4]
 417              		.loc 1 1090 6 view .LVU132
 418 0012 5268     		ldr	r2, [r2, #4]
 419 0014 1AB1     		cbz	r2, .L21
1091:lib/chibios/os/hal/ports/STM32/LLD/TIMv1/hal_gpt_lld.c ****     gptp->tim->DIER |= STM32_TIM_DIER_UIE;      /* Update Event IRQ enabled.*/
 420              		.loc 1 1091 5 is_stmt 1 view .LVU133
 421              		.loc 1 1091 14 is_stmt 0 view .LVU134
 422 0016 DA68     		ldr	r2, [r3, #12]
 423              		.loc 1 1091 21 view .LVU135
 424 0018 42F00102 		orr	r2, r2, #1
 425 001c DA60     		str	r2, [r3, #12]
 426              	.L21:
1092:lib/chibios/os/hal/ports/STM32/LLD/TIMv1/hal_gpt_lld.c ****   gptp->tim->CR1 = STM32_TIM_CR1_ARPE | STM32_TIM_CR1_URS | STM32_TIM_CR1_CEN;
 427              		.loc 1 1092 3 is_stmt 1 view .LVU136
 428              		.loc 1 1092 18 is_stmt 0 view .LVU137
 429 001e 8522     		movs	r2, #133
 430 0020 1A60     		str	r2, [r3]
1093:lib/chibios/os/hal/ports/STM32/LLD/TIMv1/hal_gpt_lld.c **** }
 431              		.loc 1 1093 1 view .LVU138
 432 0022 7047     		bx	lr
 433              		.cfi_endproc
 434              	.LFE288:
 436              		.section	.text.gpt_lld_stop_timer,"ax",%progbits
 437              		.align	1
 438              		.global	gpt_lld_stop_timer
 439              		.syntax unified
 440              		.thumb
 441              		.thumb_func
 443              	gpt_lld_stop_timer:
 444              	.LVL20:
 445              	.LFB289:
1094:lib/chibios/os/hal/ports/STM32/LLD/TIMv1/hal_gpt_lld.c **** 
1095:lib/chibios/os/hal/ports/STM32/LLD/TIMv1/hal_gpt_lld.c **** /**
1096:lib/chibios/os/hal/ports/STM32/LLD/TIMv1/hal_gpt_lld.c ****  * @brief   Stops the timer.
1097:lib/chibios/os/hal/ports/STM32/LLD/TIMv1/hal_gpt_lld.c ****  *
1098:lib/chibios/os/hal/ports/STM32/LLD/TIMv1/hal_gpt_lld.c ****  * @param[in] gptp      pointer to the @p GPTDriver object
1099:lib/chibios/os/hal/ports/STM32/LLD/TIMv1/hal_gpt_lld.c ****  *
1100:lib/chibios/os/hal/ports/STM32/LLD/TIMv1/hal_gpt_lld.c ****  * @notapi
1101:lib/chibios/os/hal/ports/STM32/LLD/TIMv1/hal_gpt_lld.c ****  */
1102:lib/chibios/os/hal/ports/STM32/LLD/TIMv1/hal_gpt_lld.c **** void gpt_lld_stop_timer(GPTDriver *gptp) {
 446              		.loc 1 1102 42 is_stmt 1 view -0
 447              		.cfi_startproc
 448              		@ args = 0, pretend = 0, frame = 0
 449              		@ frame_needed = 0, uses_anonymous_args = 0
 450              		@ link register save eliminated.
1103:lib/chibios/os/hal/ports/STM32/LLD/TIMv1/hal_gpt_lld.c **** 
1104:lib/chibios/os/hal/ports/STM32/LLD/TIMv1/hal_gpt_lld.c ****   gptp->tim->CR1 = 0;                           /* Initially stopped.       */
 451              		.loc 1 1104 3 view .LVU140
 452              		.loc 1 1104 7 is_stmt 0 view .LVU141
 453 0000 C368     		ldr	r3, [r0, #12]
 454              		.loc 1 1104 18 view .LVU142
 455 0002 0022     		movs	r2, #0
 456 0004 1A60     		str	r2, [r3]
1105:lib/chibios/os/hal/ports/STM32/LLD/TIMv1/hal_gpt_lld.c ****   gptp->tim->SR = 0;                            /* Clear pending IRQs.      */
 457              		.loc 1 1105 3 is_stmt 1 view .LVU143
 458              		.loc 1 1105 17 is_stmt 0 view .LVU144
 459 0006 1A61     		str	r2, [r3, #16]
1106:lib/chibios/os/hal/ports/STM32/LLD/TIMv1/hal_gpt_lld.c **** 
1107:lib/chibios/os/hal/ports/STM32/LLD/TIMv1/hal_gpt_lld.c ****   /* All interrupts disabled.*/
1108:lib/chibios/os/hal/ports/STM32/LLD/TIMv1/hal_gpt_lld.c ****   gptp->tim->DIER &= ~STM32_TIM_DIER_IRQ_MASK;
 460              		.loc 1 1108 3 is_stmt 1 view .LVU145
 461              		.loc 1 1108 12 is_stmt 0 view .LVU146
 462 0008 DA68     		ldr	r2, [r3, #12]
 463              		.loc 1 1108 19 view .LVU147
 464 000a 22F0FF02 		bic	r2, r2, #255
 465 000e DA60     		str	r2, [r3, #12]
1109:lib/chibios/os/hal/ports/STM32/LLD/TIMv1/hal_gpt_lld.c **** }
 466              		.loc 1 1109 1 view .LVU148
 467 0010 7047     		bx	lr
 468              		.cfi_endproc
 469              	.LFE289:
 471              		.section	.text.gpt_lld_polled_delay,"ax",%progbits
 472              		.align	1
 473              		.global	gpt_lld_polled_delay
 474              		.syntax unified
 475              		.thumb
 476              		.thumb_func
 478              	gpt_lld_polled_delay:
 479              	.LVL21:
 480              	.LFB290:
1110:lib/chibios/os/hal/ports/STM32/LLD/TIMv1/hal_gpt_lld.c **** 
1111:lib/chibios/os/hal/ports/STM32/LLD/TIMv1/hal_gpt_lld.c **** /**
1112:lib/chibios/os/hal/ports/STM32/LLD/TIMv1/hal_gpt_lld.c ****  * @brief   Starts the timer in one shot mode and waits for completion.
1113:lib/chibios/os/hal/ports/STM32/LLD/TIMv1/hal_gpt_lld.c ****  * @details This function specifically polls the timer waiting for completion
1114:lib/chibios/os/hal/ports/STM32/LLD/TIMv1/hal_gpt_lld.c ****  *          in order to not have extra delays caused by interrupt servicing,
1115:lib/chibios/os/hal/ports/STM32/LLD/TIMv1/hal_gpt_lld.c ****  *          this function is only recommended for short delays.
1116:lib/chibios/os/hal/ports/STM32/LLD/TIMv1/hal_gpt_lld.c ****  *
1117:lib/chibios/os/hal/ports/STM32/LLD/TIMv1/hal_gpt_lld.c ****  * @param[in] gptp      pointer to the @p GPTDriver object
1118:lib/chibios/os/hal/ports/STM32/LLD/TIMv1/hal_gpt_lld.c ****  * @param[in] interval  time interval in ticks
1119:lib/chibios/os/hal/ports/STM32/LLD/TIMv1/hal_gpt_lld.c ****  *
1120:lib/chibios/os/hal/ports/STM32/LLD/TIMv1/hal_gpt_lld.c ****  * @notapi
1121:lib/chibios/os/hal/ports/STM32/LLD/TIMv1/hal_gpt_lld.c ****  */
1122:lib/chibios/os/hal/ports/STM32/LLD/TIMv1/hal_gpt_lld.c **** void gpt_lld_polled_delay(GPTDriver *gptp, gptcnt_t interval) {
 481              		.loc 1 1122 63 is_stmt 1 view -0
 482              		.cfi_startproc
 483              		@ args = 0, pretend = 0, frame = 0
 484              		@ frame_needed = 0, uses_anonymous_args = 0
 485              		@ link register save eliminated.
1123:lib/chibios/os/hal/ports/STM32/LLD/TIMv1/hal_gpt_lld.c **** 
1124:lib/chibios/os/hal/ports/STM32/LLD/TIMv1/hal_gpt_lld.c ****   gptp->tim->ARR = (uint32_t)(interval - 1U);   /* Time constant.           */
 486              		.loc 1 1124 3 view .LVU150
 487              		.loc 1 1124 7 is_stmt 0 view .LVU151
 488 0000 C368     		ldr	r3, [r0, #12]
1125:lib/chibios/os/hal/ports/STM32/LLD/TIMv1/hal_gpt_lld.c ****   gptp->tim->EGR = STM32_TIM_EGR_UG;            /* Update event.            */
 489              		.loc 1 1125 18 view .LVU152
 490 0002 0122     		movs	r2, #1
1124:lib/chibios/os/hal/ports/STM32/LLD/TIMv1/hal_gpt_lld.c ****   gptp->tim->EGR = STM32_TIM_EGR_UG;            /* Update event.            */
 491              		.loc 1 1124 20 view .LVU153
 492 0004 0139     		subs	r1, r1, #1
 493              	.LVL22:
1124:lib/chibios/os/hal/ports/STM32/LLD/TIMv1/hal_gpt_lld.c ****   gptp->tim->EGR = STM32_TIM_EGR_UG;            /* Update event.            */
 494              		.loc 1 1124 18 view .LVU154
 495 0006 D962     		str	r1, [r3, #44]
 496              		.loc 1 1125 3 is_stmt 1 view .LVU155
 497              		.loc 1 1125 18 is_stmt 0 view .LVU156
 498 0008 5A61     		str	r2, [r3, #20]
1126:lib/chibios/os/hal/ports/STM32/LLD/TIMv1/hal_gpt_lld.c ****   gptp->tim->SR  = 0;                           /* Clear pending IRQs.      */
 499              		.loc 1 1126 3 is_stmt 1 view .LVU157
 500              		.loc 1 1126 18 is_stmt 0 view .LVU158
 501 000a 0022     		movs	r2, #0
 502 000c 1A61     		str	r2, [r3, #16]
1127:lib/chibios/os/hal/ports/STM32/LLD/TIMv1/hal_gpt_lld.c ****   gptp->tim->CR1 = STM32_TIM_CR1_OPM | STM32_TIM_CR1_URS | STM32_TIM_CR1_CEN;
 503              		.loc 1 1127 3 is_stmt 1 view .LVU159
 504              		.loc 1 1127 18 is_stmt 0 view .LVU160
 505 000e 0D22     		movs	r2, #13
 506 0010 1A60     		str	r2, [r3]
1128:lib/chibios/os/hal/ports/STM32/LLD/TIMv1/hal_gpt_lld.c ****   while (!(gptp->tim->SR & STM32_TIM_SR_UIF))
 507              		.loc 1 1128 3 is_stmt 1 view .LVU161
 508              	.L27:
 509              		.loc 1 1128 10 discriminator 1 view .LVU162
 510              		.loc 1 1128 21 is_stmt 0 discriminator 1 view .LVU163
 511 0012 1A69     		ldr	r2, [r3, #16]
 512              		.loc 1 1128 10 discriminator 1 view .LVU164
 513 0014 D207     		lsls	r2, r2, #31
 514 0016 FCD5     		bpl	.L27
1129:lib/chibios/os/hal/ports/STM32/LLD/TIMv1/hal_gpt_lld.c ****     ;
1130:lib/chibios/os/hal/ports/STM32/LLD/TIMv1/hal_gpt_lld.c ****   gptp->tim->SR = 0;                            /* Clear pending IRQs.      */
 515              		.loc 1 1130 3 is_stmt 1 view .LVU165
 516              		.loc 1 1130 17 is_stmt 0 view .LVU166
 517 0018 0022     		movs	r2, #0
 518 001a 1A61     		str	r2, [r3, #16]
1131:lib/chibios/os/hal/ports/STM32/LLD/TIMv1/hal_gpt_lld.c **** }
 519              		.loc 1 1131 1 view .LVU167
 520 001c 7047     		bx	lr
 521              		.cfi_endproc
 522              	.LFE290:
 524              		.section	.text.gpt_lld_serve_interrupt,"ax",%progbits
 525              		.align	1
 526              		.global	gpt_lld_serve_interrupt
 527              		.syntax unified
 528              		.thumb
 529              		.thumb_func
 531              	gpt_lld_serve_interrupt:
 532              	.LVL23:
 533              	.LFB291:
1132:lib/chibios/os/hal/ports/STM32/LLD/TIMv1/hal_gpt_lld.c **** 
1133:lib/chibios/os/hal/ports/STM32/LLD/TIMv1/hal_gpt_lld.c **** /**
1134:lib/chibios/os/hal/ports/STM32/LLD/TIMv1/hal_gpt_lld.c ****  * @brief   Shared IRQ handler.
1135:lib/chibios/os/hal/ports/STM32/LLD/TIMv1/hal_gpt_lld.c ****  *
1136:lib/chibios/os/hal/ports/STM32/LLD/TIMv1/hal_gpt_lld.c ****  * @param[in] gptp      pointer to a @p GPTDriver object
1137:lib/chibios/os/hal/ports/STM32/LLD/TIMv1/hal_gpt_lld.c ****  *
1138:lib/chibios/os/hal/ports/STM32/LLD/TIMv1/hal_gpt_lld.c ****  * @notapi
1139:lib/chibios/os/hal/ports/STM32/LLD/TIMv1/hal_gpt_lld.c ****  */
1140:lib/chibios/os/hal/ports/STM32/LLD/TIMv1/hal_gpt_lld.c **** void gpt_lld_serve_interrupt(GPTDriver *gptp) {
 534              		.loc 1 1140 47 is_stmt 1 view -0
 535              		.cfi_startproc
 536              		@ args = 0, pretend = 0, frame = 0
 537              		@ frame_needed = 0, uses_anonymous_args = 0
1141:lib/chibios/os/hal/ports/STM32/LLD/TIMv1/hal_gpt_lld.c ****   uint32_t sr;
 538              		.loc 1 1141 3 view .LVU169
1142:lib/chibios/os/hal/ports/STM32/LLD/TIMv1/hal_gpt_lld.c **** 
1143:lib/chibios/os/hal/ports/STM32/LLD/TIMv1/hal_gpt_lld.c ****   sr  = gptp->tim->SR;
 539              		.loc 1 1143 3 view .LVU170
 540              		.loc 1 1143 13 is_stmt 0 view .LVU171
 541 0000 C268     		ldr	r2, [r0, #12]
1140:lib/chibios/os/hal/ports/STM32/LLD/TIMv1/hal_gpt_lld.c ****   uint32_t sr;
 542              		.loc 1 1140 47 view .LVU172
 543 0002 10B5     		push	{r4, lr}
 544              		.cfi_def_cfa_offset 8
 545              		.cfi_offset 4, -8
 546              		.cfi_offset 14, -4
 547              		.loc 1 1143 7 view .LVU173
 548 0004 1469     		ldr	r4, [r2, #16]
 549              	.LVL24:
1144:lib/chibios/os/hal/ports/STM32/LLD/TIMv1/hal_gpt_lld.c ****   sr &= gptp->tim->DIER & STM32_TIM_DIER_IRQ_MASK;
 550              		.loc 1 1144 3 is_stmt 1 view .LVU174
 551              		.loc 1 1144 18 is_stmt 0 view .LVU175
 552 0006 D368     		ldr	r3, [r2, #12]
 553 0008 2340     		ands	r3, r3, r4
 554              	.LVL25:
1145:lib/chibios/os/hal/ports/STM32/LLD/TIMv1/hal_gpt_lld.c ****   gptp->tim->SR = ~sr;
 555              		.loc 1 1145 3 is_stmt 1 view .LVU176
1144:lib/chibios/os/hal/ports/STM32/LLD/TIMv1/hal_gpt_lld.c ****   sr &= gptp->tim->DIER & STM32_TIM_DIER_IRQ_MASK;
 556              		.loc 1 1144 6 is_stmt 0 view .LVU177
 557 000a DCB2     		uxtb	r4, r3
 558              		.loc 1 1145 19 view .LVU178
 559 000c E443     		mvns	r4, r4
1146:lib/chibios/os/hal/ports/STM32/LLD/TIMv1/hal_gpt_lld.c ****   if ((sr & STM32_TIM_SR_UIF) != 0) {
 560              		.loc 1 1146 6 view .LVU179
 561 000e DB07     		lsls	r3, r3, #31
 562              	.LVL26:
1140:lib/chibios/os/hal/ports/STM32/LLD/TIMv1/hal_gpt_lld.c ****   uint32_t sr;
 563              		.loc 1 1140 47 view .LVU180
 564 0010 0146     		mov	r1, r0
1145:lib/chibios/os/hal/ports/STM32/LLD/TIMv1/hal_gpt_lld.c ****   gptp->tim->SR = ~sr;
 565              		.loc 1 1145 17 view .LVU181
 566 0012 1461     		str	r4, [r2, #16]
 567              		.loc 1 1146 3 is_stmt 1 view .LVU182
 568              		.loc 1 1146 6 is_stmt 0 view .LVU183
 569 0014 0DD5     		bpl	.L30
 570              	.LVL27:
 571              	.LBB4:
 572              	.LBI4:
1140:lib/chibios/os/hal/ports/STM32/LLD/TIMv1/hal_gpt_lld.c ****   uint32_t sr;
 573              		.loc 1 1140 6 is_stmt 1 view .LVU184
 574              	.LBB5:
1147:lib/chibios/os/hal/ports/STM32/LLD/TIMv1/hal_gpt_lld.c ****     _gpt_isr_invoke_cb(gptp);
 575              		.loc 1 1147 5 view .LVU185
 576              		.loc 1 1147 5 view .LVU186
 577 0016 0378     		ldrb	r3, [r0]	@ zero_extendqisi2
 578 0018 042B     		cmp	r3, #4
 579 001a 03D1     		bne	.L33
 580              		.loc 1 1147 5 view .LVU187
 581 001c 0223     		movs	r3, #2
 582 001e 0370     		strb	r3, [r0]
 583              		.loc 1 1147 5 view .LVU188
 584 0020 FFF7FEFF 		bl	gpt_lld_stop_timer
 585              	.LVL28:
 586              	.L33:
 587              		.loc 1 1147 5 view .LVU189
 588 0024 4B68     		ldr	r3, [r1, #4]
 589 0026 5B68     		ldr	r3, [r3, #4]
 590 0028 1BB1     		cbz	r3, .L30
 591              		.loc 1 1147 5 view .LVU190
 592              	.LBE5:
 593              	.LBE4:
1148:lib/chibios/os/hal/ports/STM32/LLD/TIMv1/hal_gpt_lld.c ****   }
1149:lib/chibios/os/hal/ports/STM32/LLD/TIMv1/hal_gpt_lld.c **** }
 594              		.loc 1 1149 1 is_stmt 0 view .LVU191
 595 002a BDE81040 		pop	{r4, lr}
 596              		.cfi_remember_state
 597              		.cfi_restore 14
 598              		.cfi_restore 4
 599              		.cfi_def_cfa_offset 0
 600              	.LBB7:
 601              	.LBB6:
1147:lib/chibios/os/hal/ports/STM32/LLD/TIMv1/hal_gpt_lld.c ****     _gpt_isr_invoke_cb(gptp);
 602              		.loc 1 1147 5 view .LVU192
 603 002e 0846     		mov	r0, r1
 604              	.LVL29:
1147:lib/chibios/os/hal/ports/STM32/LLD/TIMv1/hal_gpt_lld.c ****     _gpt_isr_invoke_cb(gptp);
 605              		.loc 1 1147 5 view .LVU193
 606 0030 1847     		bx	r3	@ indirect register sibling call
 607              	.LVL30:
 608              	.L30:
 609              		.cfi_restore_state
1147:lib/chibios/os/hal/ports/STM32/LLD/TIMv1/hal_gpt_lld.c ****     _gpt_isr_invoke_cb(gptp);
 610              		.loc 1 1147 5 view .LVU194
 611              	.LBE6:
 612              	.LBE7:
 613              		.loc 1 1149 1 view .LVU195
 614 0032 10BD     		pop	{r4, pc}
 615              		.cfi_endproc
 616              	.LFE291:
 618              		.section	.text.Vector118,"ax",%progbits
 619              		.align	1
 620              		.global	Vector118
 621              		.syntax unified
 622              		.thumb
 623              		.thumb_func
 625              	Vector118:
 626              	.LFB282:
 316:lib/chibios/os/hal/ports/STM32/LLD/TIMv1/hal_gpt_lld.c **** 
 627              		.loc 1 316 38 is_stmt 1 view -0
 628              		.cfi_startproc
 629              		@ args = 0, pretend = 0, frame = 0
 630              		@ frame_needed = 0, uses_anonymous_args = 0
 318:lib/chibios/os/hal/ports/STM32/LLD/TIMv1/hal_gpt_lld.c **** 
 631              		.loc 1 318 3 view .LVU197
 318:lib/chibios/os/hal/ports/STM32/LLD/TIMv1/hal_gpt_lld.c **** 
 632              		.loc 1 318 3 view .LVU198
 318:lib/chibios/os/hal/ports/STM32/LLD/TIMv1/hal_gpt_lld.c **** 
 633              		.loc 1 318 3 view .LVU199
 318:lib/chibios/os/hal/ports/STM32/LLD/TIMv1/hal_gpt_lld.c **** 
 634              		.loc 1 318 3 view .LVU200
 318:lib/chibios/os/hal/ports/STM32/LLD/TIMv1/hal_gpt_lld.c **** 
 635              		.loc 1 318 3 view .LVU201
 318:lib/chibios/os/hal/ports/STM32/LLD/TIMv1/hal_gpt_lld.c **** 
 636              		.loc 1 318 22 view .LVU202
 320:lib/chibios/os/hal/ports/STM32/LLD/TIMv1/hal_gpt_lld.c **** 
 637              		.loc 1 320 3 view .LVU203
 316:lib/chibios/os/hal/ports/STM32/LLD/TIMv1/hal_gpt_lld.c **** 
 638              		.loc 1 316 38 is_stmt 0 view .LVU204
 639 0000 08B5     		push	{r3, lr}
 640              		.cfi_def_cfa_offset 8
 641              		.cfi_offset 3, -8
 642              		.cfi_offset 14, -4
 320:lib/chibios/os/hal/ports/STM32/LLD/TIMv1/hal_gpt_lld.c **** 
 643              		.loc 1 320 3 view .LVU205
 644 0002 0348     		ldr	r0, .L39
 645 0004 FFF7FEFF 		bl	gpt_lld_serve_interrupt
 646              	.LVL31:
 322:lib/chibios/os/hal/ports/STM32/LLD/TIMv1/hal_gpt_lld.c **** }
 647              		.loc 1 322 3 is_stmt 1 view .LVU206
 322:lib/chibios/os/hal/ports/STM32/LLD/TIMv1/hal_gpt_lld.c **** }
 648              		.loc 1 322 3 view .LVU207
 322:lib/chibios/os/hal/ports/STM32/LLD/TIMv1/hal_gpt_lld.c **** }
 649              		.loc 1 322 3 view .LVU208
 322:lib/chibios/os/hal/ports/STM32/LLD/TIMv1/hal_gpt_lld.c **** }
 650              		.loc 1 322 3 view .LVU209
 322:lib/chibios/os/hal/ports/STM32/LLD/TIMv1/hal_gpt_lld.c **** }
 651              		.loc 1 322 3 view .LVU210
 323:lib/chibios/os/hal/ports/STM32/LLD/TIMv1/hal_gpt_lld.c **** #endif /* !defined(STM32_TIM6_SUPPRESS_ISR) */
 652              		.loc 1 323 1 is_stmt 0 view .LVU211
 653 0008 BDE80840 		pop	{r3, lr}
 654              		.cfi_restore 14
 655              		.cfi_restore 3
 656              		.cfi_def_cfa_offset 0
 322:lib/chibios/os/hal/ports/STM32/LLD/TIMv1/hal_gpt_lld.c **** }
 657              		.loc 1 322 3 view .LVU212
 658 000c FFF7FEBF 		b	_port_irq_epilogue
 659              	.LVL32:
 660              	.L40:
 661              		.align	2
 662              	.L39:
 663 0010 00000000 		.word	GPTD6
 664              		.cfi_endproc
 665              	.LFE282:
 667              		.section	.text.Vector11C,"ax",%progbits
 668              		.align	1
 669              		.global	Vector11C
 670              		.syntax unified
 671              		.thumb
 672              		.thumb_func
 674              	Vector11C:
 675              	.LFB283:
 337:lib/chibios/os/hal/ports/STM32/LLD/TIMv1/hal_gpt_lld.c **** 
 676              		.loc 1 337 38 is_stmt 1 view -0
 677              		.cfi_startproc
 678              		@ args = 0, pretend = 0, frame = 0
 679              		@ frame_needed = 0, uses_anonymous_args = 0
 339:lib/chibios/os/hal/ports/STM32/LLD/TIMv1/hal_gpt_lld.c **** 
 680              		.loc 1 339 3 view .LVU214
 339:lib/chibios/os/hal/ports/STM32/LLD/TIMv1/hal_gpt_lld.c **** 
 681              		.loc 1 339 3 view .LVU215
 339:lib/chibios/os/hal/ports/STM32/LLD/TIMv1/hal_gpt_lld.c **** 
 682              		.loc 1 339 3 view .LVU216
 339:lib/chibios/os/hal/ports/STM32/LLD/TIMv1/hal_gpt_lld.c **** 
 683              		.loc 1 339 3 view .LVU217
 339:lib/chibios/os/hal/ports/STM32/LLD/TIMv1/hal_gpt_lld.c **** 
 684              		.loc 1 339 3 view .LVU218
 339:lib/chibios/os/hal/ports/STM32/LLD/TIMv1/hal_gpt_lld.c **** 
 685              		.loc 1 339 22 view .LVU219
 341:lib/chibios/os/hal/ports/STM32/LLD/TIMv1/hal_gpt_lld.c **** 
 686              		.loc 1 341 3 view .LVU220
 337:lib/chibios/os/hal/ports/STM32/LLD/TIMv1/hal_gpt_lld.c **** 
 687              		.loc 1 337 38 is_stmt 0 view .LVU221
 688 0000 08B5     		push	{r3, lr}
 689              		.cfi_def_cfa_offset 8
 690              		.cfi_offset 3, -8
 691              		.cfi_offset 14, -4
 341:lib/chibios/os/hal/ports/STM32/LLD/TIMv1/hal_gpt_lld.c **** 
 692              		.loc 1 341 3 view .LVU222
 693 0002 0348     		ldr	r0, .L42
 694 0004 FFF7FEFF 		bl	gpt_lld_serve_interrupt
 695              	.LVL33:
 343:lib/chibios/os/hal/ports/STM32/LLD/TIMv1/hal_gpt_lld.c **** }
 696              		.loc 1 343 3 is_stmt 1 view .LVU223
 343:lib/chibios/os/hal/ports/STM32/LLD/TIMv1/hal_gpt_lld.c **** }
 697              		.loc 1 343 3 view .LVU224
 343:lib/chibios/os/hal/ports/STM32/LLD/TIMv1/hal_gpt_lld.c **** }
 698              		.loc 1 343 3 view .LVU225
 343:lib/chibios/os/hal/ports/STM32/LLD/TIMv1/hal_gpt_lld.c **** }
 699              		.loc 1 343 3 view .LVU226
 343:lib/chibios/os/hal/ports/STM32/LLD/TIMv1/hal_gpt_lld.c **** }
 700              		.loc 1 343 3 view .LVU227
 344:lib/chibios/os/hal/ports/STM32/LLD/TIMv1/hal_gpt_lld.c **** #endif /* !defined(STM32_TIM7_SUPPRESS_ISR) */
 701              		.loc 1 344 1 is_stmt 0 view .LVU228
 702 0008 BDE80840 		pop	{r3, lr}
 703              		.cfi_restore 14
 704              		.cfi_restore 3
 705              		.cfi_def_cfa_offset 0
 343:lib/chibios/os/hal/ports/STM32/LLD/TIMv1/hal_gpt_lld.c **** }
 706              		.loc 1 343 3 view .LVU229
 707 000c FFF7FEBF 		b	_port_irq_epilogue
 708              	.LVL34:
 709              	.L43:
 710              		.align	2
 711              	.L42:
 712 0010 00000000 		.word	GPTD7
 713              		.cfi_endproc
 714              	.LFE283:
 716              		.section	.text.VectorF0,"ax",%progbits
 717              		.align	1
 718              		.global	VectorF0
 719              		.syntax unified
 720              		.thumb
 721              		.thumb_func
 723              	VectorF0:
 724              	.LFB284:
 358:lib/chibios/os/hal/ports/STM32/LLD/TIMv1/hal_gpt_lld.c **** 
 725              		.loc 1 358 41 is_stmt 1 view -0
 726              		.cfi_startproc
 727              		@ args = 0, pretend = 0, frame = 0
 728              		@ frame_needed = 0, uses_anonymous_args = 0
 360:lib/chibios/os/hal/ports/STM32/LLD/TIMv1/hal_gpt_lld.c **** 
 729              		.loc 1 360 3 view .LVU231
 360:lib/chibios/os/hal/ports/STM32/LLD/TIMv1/hal_gpt_lld.c **** 
 730              		.loc 1 360 3 view .LVU232
 360:lib/chibios/os/hal/ports/STM32/LLD/TIMv1/hal_gpt_lld.c **** 
 731              		.loc 1 360 3 view .LVU233
 360:lib/chibios/os/hal/ports/STM32/LLD/TIMv1/hal_gpt_lld.c **** 
 732              		.loc 1 360 3 view .LVU234
 360:lib/chibios/os/hal/ports/STM32/LLD/TIMv1/hal_gpt_lld.c **** 
 733              		.loc 1 360 3 view .LVU235
 360:lib/chibios/os/hal/ports/STM32/LLD/TIMv1/hal_gpt_lld.c **** 
 734              		.loc 1 360 22 view .LVU236
 362:lib/chibios/os/hal/ports/STM32/LLD/TIMv1/hal_gpt_lld.c **** 
 735              		.loc 1 362 3 view .LVU237
 358:lib/chibios/os/hal/ports/STM32/LLD/TIMv1/hal_gpt_lld.c **** 
 736              		.loc 1 358 41 is_stmt 0 view .LVU238
 737 0000 08B5     		push	{r3, lr}
 738              		.cfi_def_cfa_offset 8
 739              		.cfi_offset 3, -8
 740              		.cfi_offset 14, -4
 362:lib/chibios/os/hal/ports/STM32/LLD/TIMv1/hal_gpt_lld.c **** 
 741              		.loc 1 362 3 view .LVU239
 742 0002 0348     		ldr	r0, .L45
 743 0004 FFF7FEFF 		bl	gpt_lld_serve_interrupt
 744              	.LVL35:
 364:lib/chibios/os/hal/ports/STM32/LLD/TIMv1/hal_gpt_lld.c **** }
 745              		.loc 1 364 3 is_stmt 1 view .LVU240
 364:lib/chibios/os/hal/ports/STM32/LLD/TIMv1/hal_gpt_lld.c **** }
 746              		.loc 1 364 3 view .LVU241
 364:lib/chibios/os/hal/ports/STM32/LLD/TIMv1/hal_gpt_lld.c **** }
 747              		.loc 1 364 3 view .LVU242
 364:lib/chibios/os/hal/ports/STM32/LLD/TIMv1/hal_gpt_lld.c **** }
 748              		.loc 1 364 3 view .LVU243
 364:lib/chibios/os/hal/ports/STM32/LLD/TIMv1/hal_gpt_lld.c **** }
 749              		.loc 1 364 3 view .LVU244
 365:lib/chibios/os/hal/ports/STM32/LLD/TIMv1/hal_gpt_lld.c **** #endif /* !defined(STM32_TIM8_SUPPRESS_ISR) */
 750              		.loc 1 365 1 is_stmt 0 view .LVU245
 751 0008 BDE80840 		pop	{r3, lr}
 752              		.cfi_restore 14
 753              		.cfi_restore 3
 754              		.cfi_def_cfa_offset 0
 364:lib/chibios/os/hal/ports/STM32/LLD/TIMv1/hal_gpt_lld.c **** }
 755              		.loc 1 364 3 view .LVU246
 756 000c FFF7FEBF 		b	_port_irq_epilogue
 757              	.LVL36:
 758              	.L46:
 759              		.align	2
 760              	.L45:
 761 0010 00000000 		.word	GPTD8
 762              		.cfi_endproc
 763              	.LFE284:
 765              		.comm	GPTD8,16,4
 766              		.comm	GPTD7,16,4
 767              		.comm	GPTD6,16,4
 768              		.text
 769              	.Letext0:
 770              		.file 2 "/usr/arm-none-eabi/include/machine/_default_types.h"
 771              		.file 3 "/usr/arm-none-eabi/include/sys/_stdint.h"
 772              		.file 4 "./lib/chibios/os/common/ext/ST/STM32F3xx/stm32f303xc.h"
 773              		.file 5 "./lib/chibios/os/hal/ports/STM32/LLD/TIMv1/stm32_tim.h"
 774              		.file 6 "./lib/chibios/os/hal/include/hal_gpt.h"
 775              		.file 7 "./lib/chibios/os/hal/ports/STM32/LLD/TIMv1/hal_gpt_lld.h"
 776              		.file 8 "./lib/chibios/os/hal/ports/common/ARMCMx/nvic.h"
 777              		.file 9 "./lib/chibios/os/common/ports/ARMCMx/chcore_v7m.h"