   1              		.cpu cortex-m4
   2              		.eabi_attribute 27, 1
   3              		.eabi_attribute 28, 1
   4              		.eabi_attribute 20, 1
   5              		.eabi_attribute 21, 1
   6              		.eabi_attribute 23, 3
   7              		.eabi_attribute 24, 1
   8              		.eabi_attribute 25, 1
   9              		.eabi_attribute 26, 1
  10              		.eabi_attribute 30, 4
  11              		.eabi_attribute 34, 1
  12              		.eabi_attribute 18, 2
  13              		.file	"syscall-fallbacks.c"
  14              		.text
  15              	.Ltext0:
  16              		.cfi_sections	.debug_frame
  17              		.section	.text._open_r,"ax",%progbits
  18              		.align	1
  19              		.weak	_open_r
  20              		.arch armv7e-m
  21              		.syntax unified
  22              		.thumb
  23              		.thumb_func
  24              		.fpu fpv4-sp-d16
  26              	_open_r:
  27              	.LVL0:
  28              	.LFB0:
  29              		.file 1 "tmk_core/common/chibios/syscall-fallbacks.c"
   1:tmk_core/common/chibios/syscall-fallbacks.c **** /* Copyright 2021 Nick Brassel, QMK
   2:tmk_core/common/chibios/syscall-fallbacks.c ****  *
   3:tmk_core/common/chibios/syscall-fallbacks.c ****  * This program is free software: you can redistribute it and/or modify
   4:tmk_core/common/chibios/syscall-fallbacks.c ****  * it under the terms of the GNU General Public License as published by
   5:tmk_core/common/chibios/syscall-fallbacks.c ****  * the Free Software Foundation, either version 2 of the License, or
   6:tmk_core/common/chibios/syscall-fallbacks.c ****  * (at your option) any later version.
   7:tmk_core/common/chibios/syscall-fallbacks.c ****  *
   8:tmk_core/common/chibios/syscall-fallbacks.c ****  * This program is distributed in the hope that it will be useful,
   9:tmk_core/common/chibios/syscall-fallbacks.c ****  * but WITHOUT ANY WARRANTY; without even the implied warranty of
  10:tmk_core/common/chibios/syscall-fallbacks.c ****  * MERCHANTABILITY or FITNESS FOR A PARTICULAR PURPOSE.  See the
  11:tmk_core/common/chibios/syscall-fallbacks.c ****  * GNU General Public License for more details.
  12:tmk_core/common/chibios/syscall-fallbacks.c ****  *
  13:tmk_core/common/chibios/syscall-fallbacks.c ****  * You should have received a copy of the GNU General Public License
  14:tmk_core/common/chibios/syscall-fallbacks.c ****  * along with this program.  If not, see <http://www.gnu.org/licenses/>.
  15:tmk_core/common/chibios/syscall-fallbacks.c ****  */
  16:tmk_core/common/chibios/syscall-fallbacks.c **** 
  17:tmk_core/common/chibios/syscall-fallbacks.c **** #include <errno.h>
  18:tmk_core/common/chibios/syscall-fallbacks.c **** #include <sys/stat.h>
  19:tmk_core/common/chibios/syscall-fallbacks.c **** #include <sys/types.h>
  20:tmk_core/common/chibios/syscall-fallbacks.c **** 
  21:tmk_core/common/chibios/syscall-fallbacks.c **** #pragma GCC diagnostic ignored "-Wmissing-prototypes"
  22:tmk_core/common/chibios/syscall-fallbacks.c **** 
  23:tmk_core/common/chibios/syscall-fallbacks.c **** __attribute__((weak, used)) int _open_r(struct _reent *r, const char *path, int flag, int m) {
  30              		.loc 1 23 94 view -0
  31              		.cfi_startproc
  32              		@ args = 0, pretend = 0, frame = 0
  33              		@ frame_needed = 0, uses_anonymous_args = 0
  34              		@ link register save eliminated.
  24:tmk_core/common/chibios/syscall-fallbacks.c ****     __errno_r(r) = ENOENT;
  35              		.loc 1 24 5 view .LVU1
  36              		.loc 1 24 18 is_stmt 0 view .LVU2
  37 0000 0223     		movs	r3, #2
  38              	.LVL1:
  39              		.loc 1 24 18 view .LVU3
  40 0002 0360     		str	r3, [r0]
  25:tmk_core/common/chibios/syscall-fallbacks.c ****     return -1;
  41              		.loc 1 25 5 is_stmt 1 view .LVU4
  26:tmk_core/common/chibios/syscall-fallbacks.c **** }
  42              		.loc 1 26 1 is_stmt 0 view .LVU5
  43 0004 4FF0FF30 		mov	r0, #-1
  44              	.LVL2:
  45              		.loc 1 26 1 view .LVU6
  46 0008 7047     		bx	lr
  47              		.cfi_endproc
  48              	.LFE0:
  50              		.section	.text._lseek_r,"ax",%progbits
  51              		.align	1
  52              		.weak	_lseek_r
  53              		.syntax unified
  54              		.thumb
  55              		.thumb_func
  56              		.fpu fpv4-sp-d16
  58              	_lseek_r:
  59              	.LVL3:
  60              	.LFB1:
  27:tmk_core/common/chibios/syscall-fallbacks.c **** 
  28:tmk_core/common/chibios/syscall-fallbacks.c **** __attribute__((weak, used)) int _lseek_r(struct _reent *r, int file, int ptr, int dir) {
  61              		.loc 1 28 88 is_stmt 1 view -0
  62              		.cfi_startproc
  63              		@ args = 0, pretend = 0, frame = 0
  64              		@ frame_needed = 0, uses_anonymous_args = 0
  65              		@ link register save eliminated.
  29:tmk_core/common/chibios/syscall-fallbacks.c ****     __errno_r(r) = EBADF;
  66              		.loc 1 29 5 view .LVU8
  67              		.loc 1 29 18 is_stmt 0 view .LVU9
  68 0000 0923     		movs	r3, #9
  69              	.LVL4:
  70              		.loc 1 29 18 view .LVU10
  71 0002 0360     		str	r3, [r0]
  30:tmk_core/common/chibios/syscall-fallbacks.c ****     return -1;
  72              		.loc 1 30 5 is_stmt 1 view .LVU11
  31:tmk_core/common/chibios/syscall-fallbacks.c **** }
  73              		.loc 1 31 1 is_stmt 0 view .LVU12
  74 0004 4FF0FF30 		mov	r0, #-1
  75              	.LVL5:
  76              		.loc 1 31 1 view .LVU13
  77 0008 7047     		bx	lr
  78              		.cfi_endproc
  79              	.LFE1:
  81              		.section	.text._read_r,"ax",%progbits
  82              		.align	1
  83              		.weak	_read_r
  84              		.syntax unified
  85              		.thumb
  86              		.thumb_func
  87              		.fpu fpv4-sp-d16
  89              	_read_r:
  90              	.LVL6:
  91              	.LFB2:
  32:tmk_core/common/chibios/syscall-fallbacks.c **** 
  33:tmk_core/common/chibios/syscall-fallbacks.c **** __attribute__((weak, used)) int _read_r(struct _reent *r, int file, char *ptr, int len) {
  92              		.loc 1 33 89 is_stmt 1 view -0
  93              		.cfi_startproc
  94              		@ args = 0, pretend = 0, frame = 0
  95              		@ frame_needed = 0, uses_anonymous_args = 0
  96              		@ link register save eliminated.
  34:tmk_core/common/chibios/syscall-fallbacks.c ****     __errno_r(r) = EBADF;
  97              		.loc 1 34 5 view .LVU15
  98              		.loc 1 34 18 is_stmt 0 view .LVU16
  99 0000 0923     		movs	r3, #9
 100              	.LVL7:
 101              		.loc 1 34 18 view .LVU17
 102 0002 0360     		str	r3, [r0]
  35:tmk_core/common/chibios/syscall-fallbacks.c ****     return -1;
 103              		.loc 1 35 5 is_stmt 1 view .LVU18
  36:tmk_core/common/chibios/syscall-fallbacks.c **** }
 104              		.loc 1 36 1 is_stmt 0 view .LVU19
 105 0004 4FF0FF30 		mov	r0, #-1
 106              	.LVL8:
 107              		.loc 1 36 1 view .LVU20
 108 0008 7047     		bx	lr
 109              		.cfi_endproc
 110              	.LFE2:
 112              		.section	.text._write_r,"ax",%progbits
 113              		.align	1
 114              		.weak	_write_r
 115              		.syntax unified
 116              		.thumb
 117              		.thumb_func
 118              		.fpu fpv4-sp-d16
 120              	_write_r:
 121              	.LFB18:
 122              		.cfi_startproc
 123              		@ args = 0, pretend = 0, frame = 0
 124              		@ frame_needed = 0, uses_anonymous_args = 0
 125              		@ link register save eliminated.
 126 0000 0923     		movs	r3, #9
 127 0002 0360     		str	r3, [r0]
 128 0004 4FF0FF30 		mov	r0, #-1
 129 0008 7047     		bx	lr
 130              		.cfi_endproc
 131              	.LFE18:
 133              		.section	.text._close_r,"ax",%progbits
 134              		.align	1
 135              		.weak	_close_r
 136              		.syntax unified
 137              		.thumb
 138              		.thumb_func
 139              		.fpu fpv4-sp-d16
 141              	_close_r:
 142              	.LVL9:
 143              	.LFB4:
  37:tmk_core/common/chibios/syscall-fallbacks.c **** 
  38:tmk_core/common/chibios/syscall-fallbacks.c **** __attribute__((weak, used)) int _write_r(struct _reent *r, int file, char *ptr, int len) {
  39:tmk_core/common/chibios/syscall-fallbacks.c ****     __errno_r(r) = EBADF;
  40:tmk_core/common/chibios/syscall-fallbacks.c ****     return -1;
  41:tmk_core/common/chibios/syscall-fallbacks.c **** }
  42:tmk_core/common/chibios/syscall-fallbacks.c **** 
  43:tmk_core/common/chibios/syscall-fallbacks.c **** __attribute__((weak, used)) int _close_r(struct _reent *r, int file) {
 144              		.loc 1 43 70 is_stmt 1 view -0
 145              		.cfi_startproc
 146              		@ args = 0, pretend = 0, frame = 0
 147              		@ frame_needed = 0, uses_anonymous_args = 0
 148              		@ link register save eliminated.
  44:tmk_core/common/chibios/syscall-fallbacks.c ****     __errno_r(r) = EBADF;
 149              		.loc 1 44 5 view .LVU22
 150              		.loc 1 44 18 is_stmt 0 view .LVU23
 151 0000 0923     		movs	r3, #9
 152 0002 0360     		str	r3, [r0]
  45:tmk_core/common/chibios/syscall-fallbacks.c ****     return -1;
 153              		.loc 1 45 5 is_stmt 1 view .LVU24
  46:tmk_core/common/chibios/syscall-fallbacks.c **** }
 154              		.loc 1 46 1 is_stmt 0 view .LVU25
 155 0004 4FF0FF30 		mov	r0, #-1
 156              	.LVL10:
 157              		.loc 1 46 1 view .LVU26
 158 0008 7047     		bx	lr
 159              		.cfi_endproc
 160              	.LFE4:
 162              		.section	.text._link_r,"ax",%progbits
 163              		.align	1
 164              		.weak	_link_r
 165              		.syntax unified
 166              		.thumb
 167              		.thumb_func
 168              		.fpu fpv4-sp-d16
 170              	_link_r:
 171              	.LVL11:
 172              	.LFB5:
  47:tmk_core/common/chibios/syscall-fallbacks.c **** 
  48:tmk_core/common/chibios/syscall-fallbacks.c **** __attribute__((weak, used)) int _link_r(struct _reent *r, const char *oldpath, const char *newpath)
 173              		.loc 1 48 101 is_stmt 1 view -0
 174              		.cfi_startproc
 175              		@ args = 0, pretend = 0, frame = 0
 176              		@ frame_needed = 0, uses_anonymous_args = 0
 177              		@ link register save eliminated.
  49:tmk_core/common/chibios/syscall-fallbacks.c ****     __errno_r(r) = EPERM;
 178              		.loc 1 49 5 view .LVU28
 179              		.loc 1 49 18 is_stmt 0 view .LVU29
 180 0000 0123     		movs	r3, #1
 181 0002 0360     		str	r3, [r0]
  50:tmk_core/common/chibios/syscall-fallbacks.c ****     return -1;
 182              		.loc 1 50 5 is_stmt 1 view .LVU30
  51:tmk_core/common/chibios/syscall-fallbacks.c **** }
 183              		.loc 1 51 1 is_stmt 0 view .LVU31
 184 0004 4FF0FF30 		mov	r0, #-1
 185              	.LVL12:
 186              		.loc 1 51 1 view .LVU32
 187 0008 7047     		bx	lr
 188              		.cfi_endproc
 189              	.LFE5:
 191              		.section	.text._unlink_r,"ax",%progbits
 192              		.align	1
 193              		.weak	_unlink_r
 194              		.syntax unified
 195              		.thumb
 196              		.thumb_func
 197              		.fpu fpv4-sp-d16
 199              	_unlink_r:
 200              	.LVL13:
 201              	.LFB6:
  52:tmk_core/common/chibios/syscall-fallbacks.c **** 
  53:tmk_core/common/chibios/syscall-fallbacks.c **** __attribute__((weak, used)) int _unlink_r(struct _reent *r, const char *path) {
 202              		.loc 1 53 79 is_stmt 1 view -0
 203              		.cfi_startproc
 204              		@ args = 0, pretend = 0, frame = 0
 205              		@ frame_needed = 0, uses_anonymous_args = 0
 206              		@ link register save eliminated.
  54:tmk_core/common/chibios/syscall-fallbacks.c ****     __errno_r(r) = EPERM;
 207              		.loc 1 54 5 view .LVU34
 208              		.loc 1 54 18 is_stmt 0 view .LVU35
 209 0000 0123     		movs	r3, #1
 210 0002 0360     		str	r3, [r0]
  55:tmk_core/common/chibios/syscall-fallbacks.c ****     return -1;
 211              		.loc 1 55 5 is_stmt 1 view .LVU36
  56:tmk_core/common/chibios/syscall-fallbacks.c **** }
 212              		.loc 1 56 1 is_stmt 0 view .LVU37
 213 0004 4FF0FF30 		mov	r0, #-1
 214              	.LVL14:
 215              		.loc 1 56 1 view .LVU38
 216 0008 7047     		bx	lr
 217              		.cfi_endproc
 218              	.LFE6:
 220              		.section	.text._times_r,"ax",%progbits
 221              		.align	1
 222              		.weak	_times_r
 223              		.syntax unified
 224              		.thumb
 225              		.thumb_func
 226              		.fpu fpv4-sp-d16
 228              	_times_r:
 229              	.LVL15:
 230              	.LFB7:
  57:tmk_core/common/chibios/syscall-fallbacks.c **** 
  58:tmk_core/common/chibios/syscall-fallbacks.c **** __attribute__((weak, used)) clock_t _times_r(struct _reent *r, void *t) {
 231              		.loc 1 58 73 is_stmt 1 view -0
 232              		.cfi_startproc
 233              		@ args = 0, pretend = 0, frame = 0
 234              		@ frame_needed = 0, uses_anonymous_args = 0
 235              		@ link register save eliminated.
  59:tmk_core/common/chibios/syscall-fallbacks.c ****     __errno_r(r) = EFAULT;
 236              		.loc 1 59 5 view .LVU40
 237              		.loc 1 59 18 is_stmt 0 view .LVU41
 238 0000 0E23     		movs	r3, #14
 239 0002 0360     		str	r3, [r0]
  60:tmk_core/common/chibios/syscall-fallbacks.c ****     return -1;
 240              		.loc 1 60 5 is_stmt 1 view .LVU42
  61:tmk_core/common/chibios/syscall-fallbacks.c **** }
 241              		.loc 1 61 1 is_stmt 0 view .LVU43
 242 0004 4FF0FF30 		mov	r0, #-1
 243              	.LVL16:
 244              		.loc 1 61 1 view .LVU44
 245 0008 7047     		bx	lr
 246              		.cfi_endproc
 247              	.LFE7:
 249              		.section	.text._fstat_r,"ax",%progbits
 250              		.align	1
 251              		.weak	_fstat_r
 252              		.syntax unified
 253              		.thumb
 254              		.thumb_func
 255              		.fpu fpv4-sp-d16
 257              	_fstat_r:
 258              	.LVL17:
 259              	.LFB8:
  62:tmk_core/common/chibios/syscall-fallbacks.c **** 
  63:tmk_core/common/chibios/syscall-fallbacks.c **** __attribute__((weak, used)) int _fstat_r(struct _reent *r, int file, struct stat *st) {
 260              		.loc 1 63 87 is_stmt 1 view -0
 261              		.cfi_startproc
 262              		@ args = 0, pretend = 0, frame = 0
 263              		@ frame_needed = 0, uses_anonymous_args = 0
 264              		@ link register save eliminated.
  64:tmk_core/common/chibios/syscall-fallbacks.c ****     __errno_r(r) = EBADF;
 265              		.loc 1 64 5 view .LVU46
 266              		.loc 1 64 18 is_stmt 0 view .LVU47
 267 0000 0923     		movs	r3, #9
 268 0002 0360     		str	r3, [r0]
  65:tmk_core/common/chibios/syscall-fallbacks.c ****     return -1;
 269              		.loc 1 65 5 is_stmt 1 view .LVU48
  66:tmk_core/common/chibios/syscall-fallbacks.c **** }
 270              		.loc 1 66 1 is_stmt 0 view .LVU49
 271 0004 4FF0FF30 		mov	r0, #-1
 272              	.LVL18:
 273              		.loc 1 66 1 view .LVU50
 274 0008 7047     		bx	lr
 275              		.cfi_endproc
 276              	.LFE8:
 278              		.section	.text._isatty_r,"ax",%progbits
 279              		.align	1
 280              		.weak	_isatty_r
 281              		.syntax unified
 282              		.thumb
 283              		.thumb_func
 284              		.fpu fpv4-sp-d16
 286              	_isatty_r:
 287              	.LVL19:
 288              	.LFB9:
  67:tmk_core/common/chibios/syscall-fallbacks.c **** 
  68:tmk_core/common/chibios/syscall-fallbacks.c **** __attribute__((weak, used)) int _isatty_r(struct _reent *r, int fd) {
 289              		.loc 1 68 69 is_stmt 1 view -0
 290              		.cfi_startproc
 291              		@ args = 0, pretend = 0, frame = 0
 292              		@ frame_needed = 0, uses_anonymous_args = 0
 293              		@ link register save eliminated.
  69:tmk_core/common/chibios/syscall-fallbacks.c ****     __errno_r(r) = EBADF;
 294              		.loc 1 69 5 view .LVU52
 295              		.loc 1 69 18 is_stmt 0 view .LVU53
 296 0000 0923     		movs	r3, #9
 297 0002 0360     		str	r3, [r0]
  70:tmk_core/common/chibios/syscall-fallbacks.c ****     return 0;
 298              		.loc 1 70 5 is_stmt 1 view .LVU54
  71:tmk_core/common/chibios/syscall-fallbacks.c **** }
 299              		.loc 1 71 1 is_stmt 0 view .LVU55
 300 0004 0020     		movs	r0, #0
 301              	.LVL20:
 302              		.loc 1 71 1 view .LVU56
 303 0006 7047     		bx	lr
 304              		.cfi_endproc
 305              	.LFE9:
 307              		.section	.text._sbrk_r,"ax",%progbits
 308              		.align	1
 309              		.weak	_sbrk_r
 310              		.syntax unified
 311              		.thumb
 312              		.thumb_func
 313              		.fpu fpv4-sp-d16
 315              	_sbrk_r:
 316              	.LVL21:
 317              	.LFB10:
  72:tmk_core/common/chibios/syscall-fallbacks.c **** 
  73:tmk_core/common/chibios/syscall-fallbacks.c **** __attribute__((weak, used)) caddr_t _sbrk_r(struct _reent *r, int incr) {
 318              		.loc 1 73 73 is_stmt 1 view -0
 319              		.cfi_startproc
 320              		@ args = 0, pretend = 0, frame = 0
 321              		@ frame_needed = 0, uses_anonymous_args = 0
 322              		@ link register save eliminated.
  74:tmk_core/common/chibios/syscall-fallbacks.c ****     __errno_r(r) = ENOMEM;
 323              		.loc 1 74 5 view .LVU58
 324              		.loc 1 74 18 is_stmt 0 view .LVU59
 325 0000 0C23     		movs	r3, #12
 326 0002 0360     		str	r3, [r0]
  75:tmk_core/common/chibios/syscall-fallbacks.c ****     return (caddr_t)-1;
 327              		.loc 1 75 5 is_stmt 1 view .LVU60
  76:tmk_core/common/chibios/syscall-fallbacks.c **** }
 328              		.loc 1 76 1 is_stmt 0 view .LVU61
 329 0004 4FF0FF30 		mov	r0, #-1
 330              	.LVL22:
 331              		.loc 1 76 1 view .LVU62
 332 0008 7047     		bx	lr
 333              		.cfi_endproc
 334              	.LFE10:
 336              		.section	.text._kill,"ax",%progbits
 337              		.align	1
 338              		.weak	_kill
 339              		.syntax unified
 340              		.thumb
 341              		.thumb_func
 342              		.fpu fpv4-sp-d16
 344              	_kill:
 345              	.LVL23:
 346              	.LFB11:
  77:tmk_core/common/chibios/syscall-fallbacks.c **** 
  78:tmk_core/common/chibios/syscall-fallbacks.c **** __attribute__((weak, used)) int _kill(int pid, int sig) {
 347              		.loc 1 78 57 is_stmt 1 view -0
 348              		.cfi_startproc
 349              		@ args = 0, pretend = 0, frame = 0
 350              		@ frame_needed = 0, uses_anonymous_args = 0
  79:tmk_core/common/chibios/syscall-fallbacks.c ****     errno = EPERM;
 351              		.loc 1 79 5 view .LVU64
  78:tmk_core/common/chibios/syscall-fallbacks.c ****     errno = EPERM;
 352              		.loc 1 78 57 is_stmt 0 view .LVU65
 353 0000 08B5     		push	{r3, lr}
 354              		.cfi_def_cfa_offset 8
 355              		.cfi_offset 3, -8
 356              		.cfi_offset 14, -4
 357              		.loc 1 79 5 view .LVU66
 358 0002 FFF7FEFF 		bl	__errno
 359              	.LVL24:
 360              		.loc 1 79 11 view .LVU67
 361 0006 0123     		movs	r3, #1
 362 0008 0360     		str	r3, [r0]
  80:tmk_core/common/chibios/syscall-fallbacks.c ****     return -1;
 363              		.loc 1 80 5 is_stmt 1 view .LVU68
  81:tmk_core/common/chibios/syscall-fallbacks.c **** }
 364              		.loc 1 81 1 is_stmt 0 view .LVU69
 365 000a 4FF0FF30 		mov	r0, #-1
 366 000e 08BD     		pop	{r3, pc}
 367              		.cfi_endproc
 368              	.LFE11:
 370              		.section	.text._getpid,"ax",%progbits
 371              		.align	1
 372              		.weak	_getpid
 373              		.syntax unified
 374              		.thumb
 375              		.thumb_func
 376              		.fpu fpv4-sp-d16
 378              	_getpid:
 379              	.LFB12:
  82:tmk_core/common/chibios/syscall-fallbacks.c **** 
  83:tmk_core/common/chibios/syscall-fallbacks.c **** __attribute__((weak, used)) pid_t _getpid(void) { return 1; }
 380              		.loc 1 83 49 is_stmt 1 view -0
 381              		.cfi_startproc
 382              		@ args = 0, pretend = 0, frame = 0
 383              		@ frame_needed = 0, uses_anonymous_args = 0
 384              		@ link register save eliminated.
 385              		.loc 1 83 51 view .LVU71
 386              		.loc 1 83 61 is_stmt 0 view .LVU72
 387 0000 0120     		movs	r0, #1
 388 0002 7047     		bx	lr
 389              		.cfi_endproc
 390              	.LFE12:
 392              		.section	.text._fini,"ax",%progbits
 393              		.align	1
 394              		.weak	_fini
 395              		.syntax unified
 396              		.thumb
 397              		.thumb_func
 398              		.fpu fpv4-sp-d16
 400              	_fini:
 401              	.LFB13:
  84:tmk_core/common/chibios/syscall-fallbacks.c **** 
  85:tmk_core/common/chibios/syscall-fallbacks.c **** __attribute__((weak, used)) void _fini(void) { return; }
 402              		.loc 1 85 46 is_stmt 1 view -0
 403              		.cfi_startproc
 404              		@ args = 0, pretend = 0, frame = 0
 405              		@ frame_needed = 0, uses_anonymous_args = 0
 406              		@ link register save eliminated.
 407              		.loc 1 85 48 view .LVU74
 408              		.loc 1 85 56 is_stmt 0 view .LVU75
 409 0000 7047     		bx	lr
 410              		.cfi_endproc
 411              	.LFE13:
 413              		.section	.text._exit,"ax",%progbits
 414              		.align	1
 415              		.weak	_exit
 416              		.syntax unified
 417              		.thumb
 418              		.thumb_func
 419              		.fpu fpv4-sp-d16
 421              	_exit:
 422              	.LFB14:
  86:tmk_core/common/chibios/syscall-fallbacks.c **** 
  87:tmk_core/common/chibios/syscall-fallbacks.c **** __attribute__((weak, used, noreturn)) void _exit(int i) {
 423              		.loc 1 87 57 is_stmt 1 view -0
 424              		.cfi_startproc
 425              		@ Volatile: function does not return.
 426              		@ args = 0, pretend = 0, frame = 0
 427              		@ frame_needed = 0, uses_anonymous_args = 0
 428              		@ link register save eliminated.
 429              	.LVL25:
 430              	.L16:
  88:tmk_core/common/chibios/syscall-fallbacks.c ****     while (1)
 431              		.loc 1 88 5 discriminator 1 view .LVU77
 432              		.loc 1 88 11 discriminator 1 view .LVU78
 433 0000 FEE7     		b	.L16
 434              		.cfi_endproc
 435              	.LFE14:
 437              		.section	.text._gettimeofday_r,"ax",%progbits
 438              		.align	1
 439              		.weak	_gettimeofday_r
 440              		.syntax unified
 441              		.thumb
 442              		.thumb_func
 443              		.fpu fpv4-sp-d16
 445              	_gettimeofday_r:
 446              	.LFB20:
 447              		.cfi_startproc
 448              		@ args = 0, pretend = 0, frame = 0
 449              		@ frame_needed = 0, uses_anonymous_args = 0
 450              		@ link register save eliminated.
 451 0000 0123     		movs	r3, #1
 452 0002 0360     		str	r3, [r0]
 453 0004 4FF0FF30 		mov	r0, #-1
 454 0008 7047     		bx	lr
 455              		.cfi_endproc
 456              	.LFE20:
 458              		.section	.text.__cxa_pure_virtual,"ax",%progbits
 459              		.align	1
 460              		.weak	__cxa_pure_virtual
 461              		.syntax unified
 462              		.thumb
 463              		.thumb_func
 464              		.fpu fpv4-sp-d16
 466              	__cxa_pure_virtual:
 467              	.LFB16:
  89:tmk_core/common/chibios/syscall-fallbacks.c ****         ;
  90:tmk_core/common/chibios/syscall-fallbacks.c **** }
  91:tmk_core/common/chibios/syscall-fallbacks.c **** 
  92:tmk_core/common/chibios/syscall-fallbacks.c **** __attribute__((weak, used)) int _gettimeofday_r(struct _reent *r, struct timeval *t, void *tzp) {
  93:tmk_core/common/chibios/syscall-fallbacks.c ****     __errno_r(r) = EPERM;
  94:tmk_core/common/chibios/syscall-fallbacks.c ****     return -1;
  95:tmk_core/common/chibios/syscall-fallbacks.c **** }
  96:tmk_core/common/chibios/syscall-fallbacks.c **** 
  97:tmk_core/common/chibios/syscall-fallbacks.c **** __attribute__((weak, used)) void *__dso_handle;
  98:tmk_core/common/chibios/syscall-fallbacks.c **** 
  99:tmk_core/common/chibios/syscall-fallbacks.c **** __attribute__((weak, used)) void __cxa_pure_virtual(void) {
 468              		.loc 1 99 59 view -0
 469              		.cfi_startproc
 470              		@ args = 0, pretend = 0, frame = 0
 471              		@ frame_needed = 0, uses_anonymous_args = 0
 472              		@ link register save eliminated.
 473              	.L19:
 100:tmk_core/common/chibios/syscall-fallbacks.c ****     while (1)
 474              		.loc 1 100 5 discriminator 1 view .LVU80
 475              		.loc 1 100 11 discriminator 1 view .LVU81
 476 0000 FEE7     		b	.L19
 477              		.cfi_endproc
 478              	.LFE16:
 480              		.weak	__dso_handle
 481              		.section	.bss.__dso_handle,"aw",%nobits
 482              		.align	2
 485              	__dso_handle:
 486 0000 00000000 		.space	4
 487              		.text
 488              	.Letext0:
 489              		.file 2 "/usr/lib/gcc/arm-none-eabi/11.2.0/include/stddef.h"
 490              		.file 3 "/usr/arm-none-eabi/include/machine/_default_types.h"
 491              		.file 4 "/usr/arm-none-eabi/include/sys/_types.h"
 492              		.file 5 "/usr/arm-none-eabi/include/sys/reent.h"
 493              		.file 6 "/usr/arm-none-eabi/include/sys/lock.h"
 494              		.file 7 "/usr/arm-none-eabi/include/sys/_timeval.h"
 495              		.file 8 "/usr/arm-none-eabi/include/sys/_timespec.h"
 496              		.file 9 "/usr/arm-none-eabi/include/sys/types.h"
 497              		.file 10 "/usr/arm-none-eabi/include/sys/stat.h"
 498              		.file 11 "/usr/arm-none-eabi/include/sys/errno.h"