   1              		.cpu cortex-m4
   2              		.eabi_attribute 27, 1
   3              		.eabi_attribute 28, 1
   4              		.eabi_attribute 20, 1
   5              		.eabi_attribute 21, 1
   6              		.eabi_attribute 23, 3
   7              		.eabi_attribute 24, 1
   8              		.eabi_attribute 25, 1
   9              		.eabi_attribute 26, 1
  10              		.eabi_attribute 30, 4
  11              		.eabi_attribute 34, 1
  12              		.eabi_attribute 18, 2
  13              		.file	"chthreads.c"
  14              		.text
  15              	.Ltext0:
  16              		.cfi_sections	.debug_frame
  17              		.section	.text._thread_init,"ax",%progbits
  18              		.align	1
  19              		.global	_thread_init
  20              		.arch armv7e-m
  21              		.syntax unified
  22              		.thumb
  23              		.thumb_func
  24              		.fpu fpv4-sp-d16
  26              	_thread_init:
  27              	.LVL0:
  28              	.LFB243:
  29              		.file 1 "lib/chibios/os/rt/src/chthreads.c"
   1:lib/chibios/os/rt/src/chthreads.c **** /*
   2:lib/chibios/os/rt/src/chthreads.c ****     ChibiOS - Copyright (C) 2006..2018 Giovanni Di Sirio.
   3:lib/chibios/os/rt/src/chthreads.c **** 
   4:lib/chibios/os/rt/src/chthreads.c ****     This file is part of ChibiOS.
   5:lib/chibios/os/rt/src/chthreads.c **** 
   6:lib/chibios/os/rt/src/chthreads.c ****     ChibiOS is free software; you can redistribute it and/or modify
   7:lib/chibios/os/rt/src/chthreads.c ****     it under the terms of the GNU General Public License as published by
   8:lib/chibios/os/rt/src/chthreads.c ****     the Free Software Foundation; either version 3 of the License, or
   9:lib/chibios/os/rt/src/chthreads.c ****     (at your option) any later version.
  10:lib/chibios/os/rt/src/chthreads.c **** 
  11:lib/chibios/os/rt/src/chthreads.c ****     ChibiOS is distributed in the hope that it will be useful,
  12:lib/chibios/os/rt/src/chthreads.c ****     but WITHOUT ANY WARRANTY; without even the implied warranty of
  13:lib/chibios/os/rt/src/chthreads.c ****     MERCHANTABILITY or FITNESS FOR A PARTICULAR PURPOSE.  See the
  14:lib/chibios/os/rt/src/chthreads.c ****     GNU General Public License for more details.
  15:lib/chibios/os/rt/src/chthreads.c **** 
  16:lib/chibios/os/rt/src/chthreads.c ****     You should have received a copy of the GNU General Public License
  17:lib/chibios/os/rt/src/chthreads.c ****     along with this program.  If not, see <http://www.gnu.org/licenses/>.
  18:lib/chibios/os/rt/src/chthreads.c **** */
  19:lib/chibios/os/rt/src/chthreads.c **** 
  20:lib/chibios/os/rt/src/chthreads.c **** /**
  21:lib/chibios/os/rt/src/chthreads.c ****  * @file    rt/src/chthreads.c
  22:lib/chibios/os/rt/src/chthreads.c ****  * @brief   Threads code.
  23:lib/chibios/os/rt/src/chthreads.c ****  *
  24:lib/chibios/os/rt/src/chthreads.c ****  * @addtogroup threads
  25:lib/chibios/os/rt/src/chthreads.c ****  * @details Threads related APIs and services.
  26:lib/chibios/os/rt/src/chthreads.c ****  *          <h2>Operation mode</h2>
  27:lib/chibios/os/rt/src/chthreads.c ****  *          A thread is an abstraction of an independent instructions flow.
  28:lib/chibios/os/rt/src/chthreads.c ****  *          In ChibiOS/RT a thread is represented by a "C" function owning
  29:lib/chibios/os/rt/src/chthreads.c ****  *          a processor context, state informations and a dedicated stack
  30:lib/chibios/os/rt/src/chthreads.c ****  *          area. In this scenario static variables are shared among all
  31:lib/chibios/os/rt/src/chthreads.c ****  *          threads while automatic variables are local to the thread.<br>
  32:lib/chibios/os/rt/src/chthreads.c ****  *          Operations defined for threads:
  33:lib/chibios/os/rt/src/chthreads.c ****  *          - <b>Create</b>, a thread is started on the specified thread
  34:lib/chibios/os/rt/src/chthreads.c ****  *            function. This operation is available in multiple variants,
  35:lib/chibios/os/rt/src/chthreads.c ****  *            both static and dynamic.
  36:lib/chibios/os/rt/src/chthreads.c ****  *          - <b>Exit</b>, a thread terminates by returning from its top
  37:lib/chibios/os/rt/src/chthreads.c ****  *            level function or invoking a specific API, the thread can
  38:lib/chibios/os/rt/src/chthreads.c ****  *            return a value that can be retrieved by other threads.
  39:lib/chibios/os/rt/src/chthreads.c ****  *          - <b>Wait</b>, a thread waits for the termination of another
  40:lib/chibios/os/rt/src/chthreads.c ****  *            thread and retrieves its return value.
  41:lib/chibios/os/rt/src/chthreads.c ****  *          - <b>Resume</b>, a thread created in suspended state is started.
  42:lib/chibios/os/rt/src/chthreads.c ****  *          - <b>Sleep</b>, the execution of a thread is suspended for the
  43:lib/chibios/os/rt/src/chthreads.c ****  *            specified amount of time or the specified future absolute time
  44:lib/chibios/os/rt/src/chthreads.c ****  *            is reached.
  45:lib/chibios/os/rt/src/chthreads.c ****  *          - <b>SetPriority</b>, a thread changes its own priority level.
  46:lib/chibios/os/rt/src/chthreads.c ****  *          - <b>Yield</b>, a thread voluntarily renounces to its time slot.
  47:lib/chibios/os/rt/src/chthreads.c ****  *          .
  48:lib/chibios/os/rt/src/chthreads.c ****  * @{
  49:lib/chibios/os/rt/src/chthreads.c ****  */
  50:lib/chibios/os/rt/src/chthreads.c **** 
  51:lib/chibios/os/rt/src/chthreads.c **** #include "ch.h"
  52:lib/chibios/os/rt/src/chthreads.c **** 
  53:lib/chibios/os/rt/src/chthreads.c **** /*===========================================================================*/
  54:lib/chibios/os/rt/src/chthreads.c **** /* Module local definitions.                                                 */
  55:lib/chibios/os/rt/src/chthreads.c **** /*===========================================================================*/
  56:lib/chibios/os/rt/src/chthreads.c **** 
  57:lib/chibios/os/rt/src/chthreads.c **** /*===========================================================================*/
  58:lib/chibios/os/rt/src/chthreads.c **** /* Module exported variables.                                                */
  59:lib/chibios/os/rt/src/chthreads.c **** /*===========================================================================*/
  60:lib/chibios/os/rt/src/chthreads.c **** 
  61:lib/chibios/os/rt/src/chthreads.c **** /*===========================================================================*/
  62:lib/chibios/os/rt/src/chthreads.c **** /* Module local types.                                                       */
  63:lib/chibios/os/rt/src/chthreads.c **** /*===========================================================================*/
  64:lib/chibios/os/rt/src/chthreads.c **** 
  65:lib/chibios/os/rt/src/chthreads.c **** /*===========================================================================*/
  66:lib/chibios/os/rt/src/chthreads.c **** /* Module local variables.                                                   */
  67:lib/chibios/os/rt/src/chthreads.c **** /*===========================================================================*/
  68:lib/chibios/os/rt/src/chthreads.c **** 
  69:lib/chibios/os/rt/src/chthreads.c **** /*===========================================================================*/
  70:lib/chibios/os/rt/src/chthreads.c **** /* Module local functions.                                                   */
  71:lib/chibios/os/rt/src/chthreads.c **** /*===========================================================================*/
  72:lib/chibios/os/rt/src/chthreads.c **** 
  73:lib/chibios/os/rt/src/chthreads.c **** /*===========================================================================*/
  74:lib/chibios/os/rt/src/chthreads.c **** /* Module exported functions.                                                */
  75:lib/chibios/os/rt/src/chthreads.c **** /*===========================================================================*/
  76:lib/chibios/os/rt/src/chthreads.c **** 
  77:lib/chibios/os/rt/src/chthreads.c **** /**
  78:lib/chibios/os/rt/src/chthreads.c ****  * @brief   Initializes a thread structure.
  79:lib/chibios/os/rt/src/chthreads.c ****  * @note    This is an internal functions, do not use it in application code.
  80:lib/chibios/os/rt/src/chthreads.c ****  *
  81:lib/chibios/os/rt/src/chthreads.c ****  * @param[in] tp        pointer to the thread
  82:lib/chibios/os/rt/src/chthreads.c ****  * @param[in] name      thread name
  83:lib/chibios/os/rt/src/chthreads.c ****  * @param[in] prio      the priority level for the new thread
  84:lib/chibios/os/rt/src/chthreads.c ****  * @return              The same thread pointer passed as parameter.
  85:lib/chibios/os/rt/src/chthreads.c ****  *
  86:lib/chibios/os/rt/src/chthreads.c ****  * @notapi
  87:lib/chibios/os/rt/src/chthreads.c ****  */
  88:lib/chibios/os/rt/src/chthreads.c **** thread_t *_thread_init(thread_t *tp, const char *name, tprio_t prio) {
  30              		.loc 1 88 70 view -0
  31              		.cfi_startproc
  32              		@ args = 0, pretend = 0, frame = 0
  33              		@ frame_needed = 0, uses_anonymous_args = 0
  34              		@ link register save eliminated.
  89:lib/chibios/os/rt/src/chthreads.c **** 
  90:lib/chibios/os/rt/src/chthreads.c ****   tp->hdr.pqueue.prio = prio;
  35              		.loc 1 90 3 view .LVU1
  36              		.loc 1 90 23 is_stmt 0 view .LVU2
  37 0000 8260     		str	r2, [r0, #8]
  91:lib/chibios/os/rt/src/chthreads.c ****   tp->state           = CH_STATE_WTSTART;
  38              		.loc 1 91 3 is_stmt 1 view .LVU3
  92:lib/chibios/os/rt/src/chthreads.c ****   tp->flags           = CH_FLAG_MODE_STATIC;
  39              		.loc 1 92 3 view .LVU4
  91:lib/chibios/os/rt/src/chthreads.c ****   tp->state           = CH_STATE_WTSTART;
  40              		.loc 1 91 23 is_stmt 0 view .LVU5
  41 0002 0221     		movs	r1, #2
  42              	.LVL1:
  93:lib/chibios/os/rt/src/chthreads.c **** #if CH_CFG_TIME_QUANTUM > 0
  94:lib/chibios/os/rt/src/chthreads.c ****   tp->ticks           = (tslices_t)CH_CFG_TIME_QUANTUM;
  95:lib/chibios/os/rt/src/chthreads.c **** #endif
  96:lib/chibios/os/rt/src/chthreads.c **** #if CH_CFG_USE_MUTEXES == TRUE
  97:lib/chibios/os/rt/src/chthreads.c ****   tp->realprio        = prio;
  43              		.loc 1 97 23 view .LVU6
  44 0004 0262     		str	r2, [r0, #32]
  98:lib/chibios/os/rt/src/chthreads.c ****   tp->mtxlist         = NULL;
  45              		.loc 1 98 23 view .LVU7
  46 0006 0022     		movs	r2, #0
  47              	.LVL2:
  99:lib/chibios/os/rt/src/chthreads.c **** #endif
 100:lib/chibios/os/rt/src/chthreads.c **** #if CH_CFG_USE_EVENTS == TRUE
 101:lib/chibios/os/rt/src/chthreads.c ****   tp->epending        = (eventmask_t)0;
  48              		.loc 1 101 23 view .LVU8
  49 0008 C0E90622 		strd	r2, r2, [r0, #24]
  91:lib/chibios/os/rt/src/chthreads.c ****   tp->flags           = CH_FLAG_MODE_STATIC;
  50              		.loc 1 91 23 view .LVU9
  51 000c 0182     		strh	r1, [r0, #16]	@ movhi
  97:lib/chibios/os/rt/src/chthreads.c ****   tp->mtxlist         = NULL;
  52              		.loc 1 97 3 is_stmt 1 view .LVU10
  98:lib/chibios/os/rt/src/chthreads.c **** #endif
  53              		.loc 1 98 3 view .LVU11
 102:lib/chibios/os/rt/src/chthreads.c **** #endif
 103:lib/chibios/os/rt/src/chthreads.c **** #if CH_DBG_THREADS_PROFILING == TRUE
 104:lib/chibios/os/rt/src/chthreads.c ****   tp->time            = (systime_t)0;
 105:lib/chibios/os/rt/src/chthreads.c **** #endif
 106:lib/chibios/os/rt/src/chthreads.c **** #if CH_CFG_USE_REGISTRY == TRUE
 107:lib/chibios/os/rt/src/chthreads.c ****   tp->refs            = (trefs_t)1;
 108:lib/chibios/os/rt/src/chthreads.c ****   tp->name            = name;
 109:lib/chibios/os/rt/src/chthreads.c ****   REG_INSERT(tp);
 110:lib/chibios/os/rt/src/chthreads.c **** #else
 111:lib/chibios/os/rt/src/chthreads.c ****   (void)name;
  54              		.loc 1 111 3 view .LVU12
 112:lib/chibios/os/rt/src/chthreads.c **** #endif
 113:lib/chibios/os/rt/src/chthreads.c **** #if CH_CFG_USE_WAITEXIT == TRUE
 114:lib/chibios/os/rt/src/chthreads.c ****   ch_list_init(&tp->waiting);
 115:lib/chibios/os/rt/src/chthreads.c **** #endif
 116:lib/chibios/os/rt/src/chthreads.c **** #if CH_CFG_USE_MESSAGES == TRUE
 117:lib/chibios/os/rt/src/chthreads.c ****   ch_queue_init(&tp->msgqueue);
 118:lib/chibios/os/rt/src/chthreads.c **** #endif
 119:lib/chibios/os/rt/src/chthreads.c **** #if CH_DBG_STATISTICS == TRUE
 120:lib/chibios/os/rt/src/chthreads.c ****   chTMObjectInit(&tp->stats);
 121:lib/chibios/os/rt/src/chthreads.c **** #endif
 122:lib/chibios/os/rt/src/chthreads.c ****   CH_CFG_THREAD_INIT_HOOK(tp);
  55              		.loc 1 122 3 view .LVU13
  56              		.loc 1 122 30 view .LVU14
 123:lib/chibios/os/rt/src/chthreads.c ****   return tp;
  57              		.loc 1 123 3 view .LVU15
 124:lib/chibios/os/rt/src/chthreads.c **** }
  58              		.loc 1 124 1 is_stmt 0 view .LVU16
  59 000e 7047     		bx	lr
  60              		.cfi_endproc
  61              	.LFE243:
  63              		.section	.text.chThdCreateSuspendedI,"ax",%progbits
  64              		.align	1
  65              		.global	chThdCreateSuspendedI
  66              		.syntax unified
  67              		.thumb
  68              		.thumb_func
  69              		.fpu fpv4-sp-d16
  71              	chThdCreateSuspendedI:
  72              	.LVL3:
  73              	.LFB244:
 125:lib/chibios/os/rt/src/chthreads.c **** 
 126:lib/chibios/os/rt/src/chthreads.c **** #if (CH_DBG_FILL_THREADS == TRUE) || defined(__DOXYGEN__)
 127:lib/chibios/os/rt/src/chthreads.c **** /**
 128:lib/chibios/os/rt/src/chthreads.c ****  * @brief   Memory fill utility.
 129:lib/chibios/os/rt/src/chthreads.c ****  *
 130:lib/chibios/os/rt/src/chthreads.c ****  * @param[in] startp    first address to fill
 131:lib/chibios/os/rt/src/chthreads.c ****  * @param[in] endp      last address to fill +1
 132:lib/chibios/os/rt/src/chthreads.c ****  * @param[in] v         filler value
 133:lib/chibios/os/rt/src/chthreads.c ****  *
 134:lib/chibios/os/rt/src/chthreads.c ****  * @notapi
 135:lib/chibios/os/rt/src/chthreads.c ****  */
 136:lib/chibios/os/rt/src/chthreads.c **** void _thread_memfill(uint8_t *startp, uint8_t *endp, uint8_t v) {
 137:lib/chibios/os/rt/src/chthreads.c **** 
 138:lib/chibios/os/rt/src/chthreads.c ****   while (startp < endp) {
 139:lib/chibios/os/rt/src/chthreads.c ****     *startp++ = v;
 140:lib/chibios/os/rt/src/chthreads.c ****   }
 141:lib/chibios/os/rt/src/chthreads.c **** }
 142:lib/chibios/os/rt/src/chthreads.c **** #endif /* CH_DBG_FILL_THREADS */
 143:lib/chibios/os/rt/src/chthreads.c **** 
 144:lib/chibios/os/rt/src/chthreads.c **** /**
 145:lib/chibios/os/rt/src/chthreads.c ****  * @brief   Creates a new thread into a static memory area.
 146:lib/chibios/os/rt/src/chthreads.c ****  * @details The new thread is initialized but not inserted in the ready list,
 147:lib/chibios/os/rt/src/chthreads.c ****  *          the initial state is @p CH_STATE_WTSTART.
 148:lib/chibios/os/rt/src/chthreads.c ****  * @post    The created thread has a reference counter set to one, it is
 149:lib/chibios/os/rt/src/chthreads.c ****  *          caller responsibility to call @p chThdRelease() or @p chthdWait()
 150:lib/chibios/os/rt/src/chthreads.c ****  *          in order to release the reference. The thread persists in the
 151:lib/chibios/os/rt/src/chthreads.c ****  *          registry until its reference counter reaches zero.
 152:lib/chibios/os/rt/src/chthreads.c ****  * @post    The initialized thread can be subsequently started by invoking
 153:lib/chibios/os/rt/src/chthreads.c ****  *          @p chThdStart(), @p chThdStartI() or @p chSchWakeupS()
 154:lib/chibios/os/rt/src/chthreads.c ****  *          depending on the execution context.
 155:lib/chibios/os/rt/src/chthreads.c ****  * @note    A thread can terminate by calling @p chThdExit() or by simply
 156:lib/chibios/os/rt/src/chthreads.c ****  *          returning from its main function.
 157:lib/chibios/os/rt/src/chthreads.c ****  * @note    Threads created using this function do not obey to the
 158:lib/chibios/os/rt/src/chthreads.c ****  *          @p CH_DBG_FILL_THREADS debug option because it would keep
 159:lib/chibios/os/rt/src/chthreads.c ****  *          the kernel locked for too much time.
 160:lib/chibios/os/rt/src/chthreads.c ****  *
 161:lib/chibios/os/rt/src/chthreads.c ****  * @param[out] tdp      pointer to the thread descriptor
 162:lib/chibios/os/rt/src/chthreads.c ****  * @return              The pointer to the @p thread_t structure allocated for
 163:lib/chibios/os/rt/src/chthreads.c ****  *                      the thread into the working space area.
 164:lib/chibios/os/rt/src/chthreads.c ****  *
 165:lib/chibios/os/rt/src/chthreads.c ****  * @iclass
 166:lib/chibios/os/rt/src/chthreads.c ****  */
 167:lib/chibios/os/rt/src/chthreads.c **** thread_t *chThdCreateSuspendedI(const thread_descriptor_t *tdp) {
  74              		.loc 1 167 65 is_stmt 1 view -0
  75              		.cfi_startproc
  76              		@ args = 0, pretend = 0, frame = 0
  77              		@ frame_needed = 0, uses_anonymous_args = 0
  78              		@ link register save eliminated.
 168:lib/chibios/os/rt/src/chthreads.c ****   thread_t *tp;
  79              		.loc 1 168 3 view .LVU18
 169:lib/chibios/os/rt/src/chthreads.c **** 
 170:lib/chibios/os/rt/src/chthreads.c ****   chDbgCheckClassI();
  80              		.loc 1 170 21 view .LVU19
 171:lib/chibios/os/rt/src/chthreads.c ****   chDbgCheck(tdp != NULL);
  81              		.loc 1 171 3 view .LVU20
  82              		.loc 1 171 3 view .LVU21
  83              		.loc 1 171 3 view .LVU22
 172:lib/chibios/os/rt/src/chthreads.c ****   chDbgCheck(MEM_IS_ALIGNED(tdp->wbase, PORT_WORKING_AREA_ALIGN) &&
  84              		.loc 1 172 3 view .LVU23
  85              		.loc 1 172 3 view .LVU24
  86              		.loc 1 172 3 view .LVU25
 173:lib/chibios/os/rt/src/chthreads.c ****              MEM_IS_ALIGNED(tdp->wend, PORT_STACK_ALIGN) &&
 174:lib/chibios/os/rt/src/chthreads.c ****              (tdp->wend > tdp->wbase) &&
 175:lib/chibios/os/rt/src/chthreads.c ****              (((size_t)tdp->wend - (size_t)tdp->wbase) >= THD_WORKING_AREA_SIZE(0)));
 176:lib/chibios/os/rt/src/chthreads.c ****   chDbgCheck((tdp->prio <= HIGHPRIO) && (tdp->funcp != NULL));
  87              		.loc 1 176 3 view .LVU26
  88              		.loc 1 176 3 view .LVU27
  89              		.loc 1 176 3 view .LVU28
 177:lib/chibios/os/rt/src/chthreads.c **** 
 178:lib/chibios/os/rt/src/chthreads.c ****   /* The thread structure is laid out in the upper part of the thread
 179:lib/chibios/os/rt/src/chthreads.c ****      workspace. The thread position structure is aligned to the required
 180:lib/chibios/os/rt/src/chthreads.c ****      stack alignment because it represents the stack top.*/
 181:lib/chibios/os/rt/src/chthreads.c ****   tp = (thread_t *)((uint8_t *)tdp->wend -
  90              		.loc 1 181 3 view .LVU29
  91              		.loc 1 181 35 is_stmt 0 view .LVU30
  92 0000 8368     		ldr	r3, [r0, #8]
  93              	.LVL4:
 182:lib/chibios/os/rt/src/chthreads.c ****                     MEM_ALIGN_NEXT(sizeof (thread_t), PORT_STACK_ALIGN));
 183:lib/chibios/os/rt/src/chthreads.c **** 
 184:lib/chibios/os/rt/src/chthreads.c **** #if (CH_DBG_ENABLE_STACK_CHECK == TRUE) || (CH_CFG_USE_DYNAMIC == TRUE)
 185:lib/chibios/os/rt/src/chthreads.c ****   /* Stack boundary.*/
 186:lib/chibios/os/rt/src/chthreads.c ****   tp->wabase = tdp->wbase;
 187:lib/chibios/os/rt/src/chthreads.c **** #endif
 188:lib/chibios/os/rt/src/chthreads.c **** 
 189:lib/chibios/os/rt/src/chthreads.c ****   /* Setting up the port-dependent part of the working area.*/
 190:lib/chibios/os/rt/src/chthreads.c ****   PORT_SETUP_CONTEXT(tp, tdp->wbase, tp, tdp->funcp, tdp->arg);
  94              		.loc 1 190 3 is_stmt 1 view .LVU31
 191:lib/chibios/os/rt/src/chthreads.c **** 
 192:lib/chibios/os/rt/src/chthreads.c ****   /* The driver object is initialized but not started.*/
 193:lib/chibios/os/rt/src/chthreads.c ****   return _thread_init(tp, tdp->name, tdp->prio);
  95              		.loc 1 193 41 is_stmt 0 view .LVU32
  96 0002 C168     		ldr	r1, [r0, #12]
 190:lib/chibios/os/rt/src/chthreads.c **** 
  97              		.loc 1 190 3 view .LVU33
  98 0004 A3F18C02 		sub	r2, r3, #140
  99 0008 43F81C2C 		str	r2, [r3, #-28]
 190:lib/chibios/os/rt/src/chthreads.c **** 
 100              		.loc 1 190 3 is_stmt 1 view .LVU34
 101 000c 0269     		ldr	r2, [r0, #16]
 102 000e 43F84C2C 		str	r2, [r3, #-76]
 190:lib/chibios/os/rt/src/chthreads.c **** 
 103              		.loc 1 190 3 view .LVU35
 104 0012 4269     		ldr	r2, [r0, #20]
 105 0014 43F8482C 		str	r2, [r3, #-72]
 190:lib/chibios/os/rt/src/chthreads.c **** 
 106              		.loc 1 190 3 view .LVU36
 107 0018 084A     		ldr	r2, .L3
 108 001a 43F82C2C 		str	r2, [r3, #-44]
 190:lib/chibios/os/rt/src/chthreads.c **** 
 109              		.loc 1 190 3 view .LVU37
 190:lib/chibios/os/rt/src/chthreads.c **** 
 110              		.loc 1 190 3 view .LVU38
 190:lib/chibios/os/rt/src/chthreads.c **** 
 111              		.loc 1 190 63 view .LVU39
 112              		.loc 1 193 3 view .LVU40
 113              	.LVL5:
 114              	.LBB163:
 115              	.LBI163:
  88:lib/chibios/os/rt/src/chthreads.c **** 
 116              		.loc 1 88 11 view .LVU41
 117              	.LBB164:
  90:lib/chibios/os/rt/src/chthreads.c ****   tp->state           = CH_STATE_WTSTART;
 118              		.loc 1 90 3 view .LVU42
  91:lib/chibios/os/rt/src/chthreads.c ****   tp->flags           = CH_FLAG_MODE_STATIC;
 119              		.loc 1 91 23 is_stmt 0 view .LVU43
 120 001e 0222     		movs	r2, #2
 121 0020 03F8182C 		strb	r2, [r3, #-24]
 122              	.LVL6:
  92:lib/chibios/os/rt/src/chthreads.c **** #if CH_CFG_TIME_QUANTUM > 0
 123              		.loc 1 92 23 view .LVU44
 124 0024 0022     		movs	r2, #0
  98:lib/chibios/os/rt/src/chthreads.c **** #endif
 125              		.loc 1 98 23 view .LVU45
 126 0026 43E90321 		strd	r2, r1, [r3, #-12]
  90:lib/chibios/os/rt/src/chthreads.c ****   tp->state           = CH_STATE_WTSTART;
 127              		.loc 1 90 23 view .LVU46
 128 002a 43F8201C 		str	r1, [r3, #-32]
  91:lib/chibios/os/rt/src/chthreads.c ****   tp->flags           = CH_FLAG_MODE_STATIC;
 129              		.loc 1 91 3 is_stmt 1 view .LVU47
  92:lib/chibios/os/rt/src/chthreads.c **** #if CH_CFG_TIME_QUANTUM > 0
 130              		.loc 1 92 3 view .LVU48
  92:lib/chibios/os/rt/src/chthreads.c **** #if CH_CFG_TIME_QUANTUM > 0
 131              		.loc 1 92 23 is_stmt 0 view .LVU49
 132 002e 03F8172C 		strb	r2, [r3, #-23]
  97:lib/chibios/os/rt/src/chthreads.c ****   tp->mtxlist         = NULL;
 133              		.loc 1 97 3 is_stmt 1 view .LVU50
 101:lib/chibios/os/rt/src/chthreads.c **** #endif
 134              		.loc 1 101 3 view .LVU51
 101:lib/chibios/os/rt/src/chthreads.c **** #endif
 135              		.loc 1 101 23 is_stmt 0 view .LVU52
 136 0032 43F8102C 		str	r2, [r3, #-16]
 111:lib/chibios/os/rt/src/chthreads.c **** #endif
 137              		.loc 1 111 3 is_stmt 1 view .LVU53
 122:lib/chibios/os/rt/src/chthreads.c ****   return tp;
 138              		.loc 1 122 3 view .LVU54
 122:lib/chibios/os/rt/src/chthreads.c ****   return tp;
 139              		.loc 1 122 30 view .LVU55
 123:lib/chibios/os/rt/src/chthreads.c **** }
 140              		.loc 1 123 3 view .LVU56
 141              	.LVL7:
 123:lib/chibios/os/rt/src/chthreads.c **** }
 142              		.loc 1 123 3 is_stmt 0 view .LVU57
 143              	.LBE164:
 144              	.LBE163:
 194:lib/chibios/os/rt/src/chthreads.c **** }
 145              		.loc 1 194 1 view .LVU58
 146 0036 A3F12800 		sub	r0, r3, #40
 147              	.LVL8:
 148              		.loc 1 194 1 view .LVU59
 149 003a 7047     		bx	lr
 150              	.L4:
 151              		.align	2
 152              	.L3:
 153 003c 00000000 		.word	_port_thread_start
 154              		.cfi_endproc
 155              	.LFE244:
 157              		.section	.text.chThdCreateSuspended,"ax",%progbits
 158              		.align	1
 159              		.global	chThdCreateSuspended
 160              		.syntax unified
 161              		.thumb
 162              		.thumb_func
 163              		.fpu fpv4-sp-d16
 165              	chThdCreateSuspended:
 166              	.LVL9:
 167              	.LFB245:
 195:lib/chibios/os/rt/src/chthreads.c **** 
 196:lib/chibios/os/rt/src/chthreads.c **** /**
 197:lib/chibios/os/rt/src/chthreads.c ****  * @brief   Creates a new thread into a static memory area.
 198:lib/chibios/os/rt/src/chthreads.c ****  * @details The new thread is initialized but not inserted in the ready list,
 199:lib/chibios/os/rt/src/chthreads.c ****  *          the initial state is @p CH_STATE_WTSTART.
 200:lib/chibios/os/rt/src/chthreads.c ****  * @post    The created thread has a reference counter set to one, it is
 201:lib/chibios/os/rt/src/chthreads.c ****  *          caller responsibility to call @p chThdRelease() or @p chthdWait()
 202:lib/chibios/os/rt/src/chthreads.c ****  *          in order to release the reference. The thread persists in the
 203:lib/chibios/os/rt/src/chthreads.c ****  *          registry until its reference counter reaches zero.
 204:lib/chibios/os/rt/src/chthreads.c ****  * @post    The initialized thread can be subsequently started by invoking
 205:lib/chibios/os/rt/src/chthreads.c ****  *          @p chThdStart(), @p chThdStartI() or @p chSchWakeupS()
 206:lib/chibios/os/rt/src/chthreads.c ****  *          depending on the execution context.
 207:lib/chibios/os/rt/src/chthreads.c ****  * @note    A thread can terminate by calling @p chThdExit() or by simply
 208:lib/chibios/os/rt/src/chthreads.c ****  *          returning from its main function.
 209:lib/chibios/os/rt/src/chthreads.c ****  *
 210:lib/chibios/os/rt/src/chthreads.c ****  * @param[out] tdp      pointer to the thread descriptor
 211:lib/chibios/os/rt/src/chthreads.c ****  * @return              The pointer to the @p thread_t structure allocated for
 212:lib/chibios/os/rt/src/chthreads.c ****  *                      the thread into the working space area.
 213:lib/chibios/os/rt/src/chthreads.c ****  *
 214:lib/chibios/os/rt/src/chthreads.c ****  * @api
 215:lib/chibios/os/rt/src/chthreads.c ****  */
 216:lib/chibios/os/rt/src/chthreads.c **** thread_t *chThdCreateSuspended(const thread_descriptor_t *tdp) {
 168              		.loc 1 216 64 is_stmt 1 view -0
 169              		.cfi_startproc
 170              		@ args = 0, pretend = 0, frame = 0
 171              		@ frame_needed = 0, uses_anonymous_args = 0
 217:lib/chibios/os/rt/src/chthreads.c ****   thread_t *tp;
 172              		.loc 1 217 3 view .LVU61
 218:lib/chibios/os/rt/src/chthreads.c **** 
 219:lib/chibios/os/rt/src/chthreads.c **** #if CH_CFG_USE_REGISTRY == TRUE
 220:lib/chibios/os/rt/src/chthreads.c ****   chDbgAssert(chRegFindThreadByWorkingArea(tdp->wbase) == NULL,
 221:lib/chibios/os/rt/src/chthreads.c ****               "working area in use");
 222:lib/chibios/os/rt/src/chthreads.c **** #endif
 223:lib/chibios/os/rt/src/chthreads.c **** 
 224:lib/chibios/os/rt/src/chthreads.c **** #if CH_DBG_FILL_THREADS == TRUE
 225:lib/chibios/os/rt/src/chthreads.c ****   _thread_memfill((uint8_t *)tdp->wbase,
 226:lib/chibios/os/rt/src/chthreads.c ****                   (uint8_t *)tdp->wend,
 227:lib/chibios/os/rt/src/chthreads.c ****                   CH_DBG_STACK_FILL_VALUE);
 228:lib/chibios/os/rt/src/chthreads.c **** #endif
 229:lib/chibios/os/rt/src/chthreads.c **** 
 230:lib/chibios/os/rt/src/chthreads.c ****   chSysLock();
 173              		.loc 1 230 3 view .LVU62
 174              	.LBB165:
 175              	.LBI165:
 176              		.file 2 "./lib/chibios/os/rt/include/chsys.h"
   1:./lib/chibios/os/rt/include/chsys.h **** /*
   2:./lib/chibios/os/rt/include/chsys.h ****     ChibiOS - Copyright (C) 2006..2018 Giovanni Di Sirio.
   3:./lib/chibios/os/rt/include/chsys.h **** 
   4:./lib/chibios/os/rt/include/chsys.h ****     This file is part of ChibiOS.
   5:./lib/chibios/os/rt/include/chsys.h **** 
   6:./lib/chibios/os/rt/include/chsys.h ****     ChibiOS is free software; you can redistribute it and/or modify
   7:./lib/chibios/os/rt/include/chsys.h ****     it under the terms of the GNU General Public License as published by
   8:./lib/chibios/os/rt/include/chsys.h ****     the Free Software Foundation; either version 3 of the License, or
   9:./lib/chibios/os/rt/include/chsys.h ****     (at your option) any later version.
  10:./lib/chibios/os/rt/include/chsys.h **** 
  11:./lib/chibios/os/rt/include/chsys.h ****     ChibiOS is distributed in the hope that it will be useful,
  12:./lib/chibios/os/rt/include/chsys.h ****     but WITHOUT ANY WARRANTY; without even the implied warranty of
  13:./lib/chibios/os/rt/include/chsys.h ****     MERCHANTABILITY or FITNESS FOR A PARTICULAR PURPOSE.  See the
  14:./lib/chibios/os/rt/include/chsys.h ****     GNU General Public License for more details.
  15:./lib/chibios/os/rt/include/chsys.h **** 
  16:./lib/chibios/os/rt/include/chsys.h ****     You should have received a copy of the GNU General Public License
  17:./lib/chibios/os/rt/include/chsys.h ****     along with this program.  If not, see <http://www.gnu.org/licenses/>.
  18:./lib/chibios/os/rt/include/chsys.h **** */
  19:./lib/chibios/os/rt/include/chsys.h **** 
  20:./lib/chibios/os/rt/include/chsys.h **** /**
  21:./lib/chibios/os/rt/include/chsys.h ****  * @file    rt/include/chsys.h
  22:./lib/chibios/os/rt/include/chsys.h ****  * @brief   System related macros and structures.
  23:./lib/chibios/os/rt/include/chsys.h ****  *
  24:./lib/chibios/os/rt/include/chsys.h ****  * @addtogroup system
  25:./lib/chibios/os/rt/include/chsys.h ****  * @{
  26:./lib/chibios/os/rt/include/chsys.h ****  */
  27:./lib/chibios/os/rt/include/chsys.h **** 
  28:./lib/chibios/os/rt/include/chsys.h **** #ifndef CHSYS_H
  29:./lib/chibios/os/rt/include/chsys.h **** #define CHSYS_H
  30:./lib/chibios/os/rt/include/chsys.h **** 
  31:./lib/chibios/os/rt/include/chsys.h **** /*lint -sem(chSysHalt, r_no)*/
  32:./lib/chibios/os/rt/include/chsys.h **** 
  33:./lib/chibios/os/rt/include/chsys.h **** /*===========================================================================*/
  34:./lib/chibios/os/rt/include/chsys.h **** /* Module constants.                                                         */
  35:./lib/chibios/os/rt/include/chsys.h **** /*===========================================================================*/
  36:./lib/chibios/os/rt/include/chsys.h **** 
  37:./lib/chibios/os/rt/include/chsys.h **** /**
  38:./lib/chibios/os/rt/include/chsys.h ****  * @name    Masks of executable integrity checks.
  39:./lib/chibios/os/rt/include/chsys.h ****  * @{
  40:./lib/chibios/os/rt/include/chsys.h ****  */
  41:./lib/chibios/os/rt/include/chsys.h **** #define CH_INTEGRITY_RLIST                  1U
  42:./lib/chibios/os/rt/include/chsys.h **** #define CH_INTEGRITY_VTLIST                 2U
  43:./lib/chibios/os/rt/include/chsys.h **** #define CH_INTEGRITY_REGISTRY               4U
  44:./lib/chibios/os/rt/include/chsys.h **** #define CH_INTEGRITY_PORT                   8U
  45:./lib/chibios/os/rt/include/chsys.h **** /** @} */
  46:./lib/chibios/os/rt/include/chsys.h **** 
  47:./lib/chibios/os/rt/include/chsys.h **** /*===========================================================================*/
  48:./lib/chibios/os/rt/include/chsys.h **** /* Module pre-compile time settings.                                         */
  49:./lib/chibios/os/rt/include/chsys.h **** /*===========================================================================*/
  50:./lib/chibios/os/rt/include/chsys.h **** 
  51:./lib/chibios/os/rt/include/chsys.h **** /*===========================================================================*/
  52:./lib/chibios/os/rt/include/chsys.h **** /* Derived constants and error checks.                                       */
  53:./lib/chibios/os/rt/include/chsys.h **** /*===========================================================================*/
  54:./lib/chibios/os/rt/include/chsys.h **** 
  55:./lib/chibios/os/rt/include/chsys.h **** /*===========================================================================*/
  56:./lib/chibios/os/rt/include/chsys.h **** /* Module data structures and types.                                         */
  57:./lib/chibios/os/rt/include/chsys.h **** /*===========================================================================*/
  58:./lib/chibios/os/rt/include/chsys.h **** 
  59:./lib/chibios/os/rt/include/chsys.h **** /*===========================================================================*/
  60:./lib/chibios/os/rt/include/chsys.h **** /* Module macros.                                                            */
  61:./lib/chibios/os/rt/include/chsys.h **** /*===========================================================================*/
  62:./lib/chibios/os/rt/include/chsys.h **** 
  63:./lib/chibios/os/rt/include/chsys.h **** /**
  64:./lib/chibios/os/rt/include/chsys.h ****  * @name    ISRs abstraction macros
  65:./lib/chibios/os/rt/include/chsys.h ****  * @{
  66:./lib/chibios/os/rt/include/chsys.h ****  */
  67:./lib/chibios/os/rt/include/chsys.h **** /**
  68:./lib/chibios/os/rt/include/chsys.h ****  * @brief   Priority level validation macro.
  69:./lib/chibios/os/rt/include/chsys.h ****  * @details This macro determines if the passed value is a valid priority
  70:./lib/chibios/os/rt/include/chsys.h ****  *          level for the underlying architecture.
  71:./lib/chibios/os/rt/include/chsys.h ****  *
  72:./lib/chibios/os/rt/include/chsys.h ****  * @param[in] prio      the priority level
  73:./lib/chibios/os/rt/include/chsys.h ****  * @return              Priority range result.
  74:./lib/chibios/os/rt/include/chsys.h ****  * @retval false        if the priority is invalid or if the architecture
  75:./lib/chibios/os/rt/include/chsys.h ****  *                      does not support priorities.
  76:./lib/chibios/os/rt/include/chsys.h ****  * @retval true         if the priority is valid.
  77:./lib/chibios/os/rt/include/chsys.h ****  */
  78:./lib/chibios/os/rt/include/chsys.h **** #if defined(PORT_IRQ_IS_VALID_PRIORITY) || defined(__DOXYGEN__)
  79:./lib/chibios/os/rt/include/chsys.h **** #define CH_IRQ_IS_VALID_PRIORITY(prio)                                      \
  80:./lib/chibios/os/rt/include/chsys.h ****   PORT_IRQ_IS_VALID_PRIORITY(prio)
  81:./lib/chibios/os/rt/include/chsys.h **** #else
  82:./lib/chibios/os/rt/include/chsys.h **** #define CH_IRQ_IS_VALID_PRIORITY(prio) false
  83:./lib/chibios/os/rt/include/chsys.h **** #endif
  84:./lib/chibios/os/rt/include/chsys.h **** 
  85:./lib/chibios/os/rt/include/chsys.h **** /**
  86:./lib/chibios/os/rt/include/chsys.h ****  * @brief   Priority level validation macro.
  87:./lib/chibios/os/rt/include/chsys.h ****  * @details This macro determines if the passed value is a valid priority
  88:./lib/chibios/os/rt/include/chsys.h ****  *          level that cannot preempt the kernel critical zone.
  89:./lib/chibios/os/rt/include/chsys.h ****  *
  90:./lib/chibios/os/rt/include/chsys.h ****  * @param[in] prio      the priority level
  91:./lib/chibios/os/rt/include/chsys.h ****  * @return              Priority range result.
  92:./lib/chibios/os/rt/include/chsys.h ****  * @retval false        if the priority is invalid or if the architecture
  93:./lib/chibios/os/rt/include/chsys.h ****  *                      does not support priorities.
  94:./lib/chibios/os/rt/include/chsys.h ****  * @retval true         if the priority is valid.
  95:./lib/chibios/os/rt/include/chsys.h ****  */
  96:./lib/chibios/os/rt/include/chsys.h **** #if defined(PORT_IRQ_IS_VALID_KERNEL_PRIORITY) || defined(__DOXYGEN__)
  97:./lib/chibios/os/rt/include/chsys.h **** #define CH_IRQ_IS_VALID_KERNEL_PRIORITY(prio)                               \
  98:./lib/chibios/os/rt/include/chsys.h ****   PORT_IRQ_IS_VALID_KERNEL_PRIORITY(prio)
  99:./lib/chibios/os/rt/include/chsys.h **** #else
 100:./lib/chibios/os/rt/include/chsys.h **** #define CH_IRQ_IS_VALID_KERNEL_PRIORITY(prio) false
 101:./lib/chibios/os/rt/include/chsys.h **** #endif
 102:./lib/chibios/os/rt/include/chsys.h **** 
 103:./lib/chibios/os/rt/include/chsys.h **** /**
 104:./lib/chibios/os/rt/include/chsys.h ****  * @brief   IRQ handler enter code.
 105:./lib/chibios/os/rt/include/chsys.h ****  * @note    Usually IRQ handlers functions are also declared naked.
 106:./lib/chibios/os/rt/include/chsys.h ****  * @note    On some architectures this macro can be empty.
 107:./lib/chibios/os/rt/include/chsys.h ****  *
 108:./lib/chibios/os/rt/include/chsys.h ****  * @special
 109:./lib/chibios/os/rt/include/chsys.h ****  */
 110:./lib/chibios/os/rt/include/chsys.h **** #define CH_IRQ_PROLOGUE()                                                   \
 111:./lib/chibios/os/rt/include/chsys.h ****   PORT_IRQ_PROLOGUE();                                                      \
 112:./lib/chibios/os/rt/include/chsys.h ****   CH_CFG_IRQ_PROLOGUE_HOOK();                                               \
 113:./lib/chibios/os/rt/include/chsys.h ****   _stats_increase_irq();                                                    \
 114:./lib/chibios/os/rt/include/chsys.h ****   _trace_isr_enter(__func__);                                               \
 115:./lib/chibios/os/rt/include/chsys.h ****   _dbg_check_enter_isr()
 116:./lib/chibios/os/rt/include/chsys.h **** 
 117:./lib/chibios/os/rt/include/chsys.h **** /**
 118:./lib/chibios/os/rt/include/chsys.h ****  * @brief   IRQ handler exit code.
 119:./lib/chibios/os/rt/include/chsys.h ****  * @note    Usually IRQ handlers function are also declared naked.
 120:./lib/chibios/os/rt/include/chsys.h ****  * @note    This macro usually performs the final reschedule by using
 121:./lib/chibios/os/rt/include/chsys.h ****  *          @p chSchIsPreemptionRequired() and @p chSchDoReschedule().
 122:./lib/chibios/os/rt/include/chsys.h ****  *
 123:./lib/chibios/os/rt/include/chsys.h ****  * @special
 124:./lib/chibios/os/rt/include/chsys.h ****  */
 125:./lib/chibios/os/rt/include/chsys.h **** #define CH_IRQ_EPILOGUE()                                                   \
 126:./lib/chibios/os/rt/include/chsys.h ****   _dbg_check_leave_isr();                                                   \
 127:./lib/chibios/os/rt/include/chsys.h ****   _trace_isr_leave(__func__);                                               \
 128:./lib/chibios/os/rt/include/chsys.h ****   CH_CFG_IRQ_EPILOGUE_HOOK();                                               \
 129:./lib/chibios/os/rt/include/chsys.h ****   PORT_IRQ_EPILOGUE()
 130:./lib/chibios/os/rt/include/chsys.h **** 
 131:./lib/chibios/os/rt/include/chsys.h **** /**
 132:./lib/chibios/os/rt/include/chsys.h ****  * @brief   Standard normal IRQ handler declaration.
 133:./lib/chibios/os/rt/include/chsys.h ****  * @note    @p id can be a function name or a vector number depending on the
 134:./lib/chibios/os/rt/include/chsys.h ****  *          port implementation.
 135:./lib/chibios/os/rt/include/chsys.h ****  *
 136:./lib/chibios/os/rt/include/chsys.h ****  * @special
 137:./lib/chibios/os/rt/include/chsys.h ****  */
 138:./lib/chibios/os/rt/include/chsys.h **** #define CH_IRQ_HANDLER(id) PORT_IRQ_HANDLER(id)
 139:./lib/chibios/os/rt/include/chsys.h **** /** @} */
 140:./lib/chibios/os/rt/include/chsys.h **** 
 141:./lib/chibios/os/rt/include/chsys.h **** /**
 142:./lib/chibios/os/rt/include/chsys.h ****  * @name    Fast ISRs abstraction macros
 143:./lib/chibios/os/rt/include/chsys.h ****  * @{
 144:./lib/chibios/os/rt/include/chsys.h ****  */
 145:./lib/chibios/os/rt/include/chsys.h **** /**
 146:./lib/chibios/os/rt/include/chsys.h ****  * @brief   Standard fast IRQ handler declaration.
 147:./lib/chibios/os/rt/include/chsys.h ****  * @note    @p id can be a function name or a vector number depending on the
 148:./lib/chibios/os/rt/include/chsys.h ****  *          port implementation.
 149:./lib/chibios/os/rt/include/chsys.h ****  * @note    Not all architectures support fast interrupts.
 150:./lib/chibios/os/rt/include/chsys.h ****  *
 151:./lib/chibios/os/rt/include/chsys.h ****  * @special
 152:./lib/chibios/os/rt/include/chsys.h ****  */
 153:./lib/chibios/os/rt/include/chsys.h **** #define CH_FAST_IRQ_HANDLER(id) PORT_FAST_IRQ_HANDLER(id)
 154:./lib/chibios/os/rt/include/chsys.h **** /** @} */
 155:./lib/chibios/os/rt/include/chsys.h **** 
 156:./lib/chibios/os/rt/include/chsys.h **** /**
 157:./lib/chibios/os/rt/include/chsys.h ****  * @name    Time conversion utilities for the realtime counter
 158:./lib/chibios/os/rt/include/chsys.h ****  * @{
 159:./lib/chibios/os/rt/include/chsys.h ****  */
 160:./lib/chibios/os/rt/include/chsys.h **** /**
 161:./lib/chibios/os/rt/include/chsys.h ****  * @brief   Seconds to realtime counter.
 162:./lib/chibios/os/rt/include/chsys.h ****  * @details Converts from seconds to realtime counter cycles.
 163:./lib/chibios/os/rt/include/chsys.h ****  * @note    The macro assumes that @p freq >= @p 1.
 164:./lib/chibios/os/rt/include/chsys.h ****  *
 165:./lib/chibios/os/rt/include/chsys.h ****  * @param[in] freq      clock frequency, in Hz, of the realtime counter
 166:./lib/chibios/os/rt/include/chsys.h ****  * @param[in] sec       number of seconds
 167:./lib/chibios/os/rt/include/chsys.h ****  * @return              The number of cycles.
 168:./lib/chibios/os/rt/include/chsys.h ****  *
 169:./lib/chibios/os/rt/include/chsys.h ****  * @api
 170:./lib/chibios/os/rt/include/chsys.h ****  */
 171:./lib/chibios/os/rt/include/chsys.h **** #define S2RTC(freq, sec) ((freq) * (sec))
 172:./lib/chibios/os/rt/include/chsys.h **** 
 173:./lib/chibios/os/rt/include/chsys.h **** /**
 174:./lib/chibios/os/rt/include/chsys.h ****  * @brief   Milliseconds to realtime counter.
 175:./lib/chibios/os/rt/include/chsys.h ****  * @details Converts from milliseconds to realtime counter cycles.
 176:./lib/chibios/os/rt/include/chsys.h ****  * @note    The result is rounded upward to the next millisecond boundary.
 177:./lib/chibios/os/rt/include/chsys.h ****  * @note    The macro assumes that @p freq >= @p 1000.
 178:./lib/chibios/os/rt/include/chsys.h ****  *
 179:./lib/chibios/os/rt/include/chsys.h ****  * @param[in] freq      clock frequency, in Hz, of the realtime counter
 180:./lib/chibios/os/rt/include/chsys.h ****  * @param[in] msec      number of milliseconds
 181:./lib/chibios/os/rt/include/chsys.h ****  * @return              The number of cycles.
 182:./lib/chibios/os/rt/include/chsys.h ****  *
 183:./lib/chibios/os/rt/include/chsys.h ****  * @api
 184:./lib/chibios/os/rt/include/chsys.h ****  */
 185:./lib/chibios/os/rt/include/chsys.h **** #define MS2RTC(freq, msec) (rtcnt_t)((((freq) + 999UL) / 1000UL) * (msec))
 186:./lib/chibios/os/rt/include/chsys.h **** 
 187:./lib/chibios/os/rt/include/chsys.h **** /**
 188:./lib/chibios/os/rt/include/chsys.h ****  * @brief   Microseconds to realtime counter.
 189:./lib/chibios/os/rt/include/chsys.h ****  * @details Converts from microseconds to realtime counter cycles.
 190:./lib/chibios/os/rt/include/chsys.h ****  * @note    The result is rounded upward to the next microsecond boundary.
 191:./lib/chibios/os/rt/include/chsys.h ****  * @note    The macro assumes that @p freq >= @p 1000000.
 192:./lib/chibios/os/rt/include/chsys.h ****  *
 193:./lib/chibios/os/rt/include/chsys.h ****  * @param[in] freq      clock frequency, in Hz, of the realtime counter
 194:./lib/chibios/os/rt/include/chsys.h ****  * @param[in] usec      number of microseconds
 195:./lib/chibios/os/rt/include/chsys.h ****  * @return              The number of cycles.
 196:./lib/chibios/os/rt/include/chsys.h ****  *
 197:./lib/chibios/os/rt/include/chsys.h ****  * @api
 198:./lib/chibios/os/rt/include/chsys.h ****  */
 199:./lib/chibios/os/rt/include/chsys.h **** #define US2RTC(freq, usec) (rtcnt_t)((((freq) + 999999UL) / 1000000UL) * (usec))
 200:./lib/chibios/os/rt/include/chsys.h **** 
 201:./lib/chibios/os/rt/include/chsys.h **** /**
 202:./lib/chibios/os/rt/include/chsys.h ****  * @brief   Realtime counter cycles to seconds.
 203:./lib/chibios/os/rt/include/chsys.h ****  * @details Converts from realtime counter cycles number to seconds.
 204:./lib/chibios/os/rt/include/chsys.h ****  * @note    The result is rounded up to the next second boundary.
 205:./lib/chibios/os/rt/include/chsys.h ****  * @note    The macro assumes that @p freq >= @p 1.
 206:./lib/chibios/os/rt/include/chsys.h ****  *
 207:./lib/chibios/os/rt/include/chsys.h ****  * @param[in] freq      clock frequency, in Hz, of the realtime counter
 208:./lib/chibios/os/rt/include/chsys.h ****  * @param[in] n         number of cycles
 209:./lib/chibios/os/rt/include/chsys.h ****  * @return              The number of seconds.
 210:./lib/chibios/os/rt/include/chsys.h ****  *
 211:./lib/chibios/os/rt/include/chsys.h ****  * @api
 212:./lib/chibios/os/rt/include/chsys.h ****  */
 213:./lib/chibios/os/rt/include/chsys.h **** #define RTC2S(freq, n) ((((n) - 1UL) / (freq)) + 1UL)
 214:./lib/chibios/os/rt/include/chsys.h **** 
 215:./lib/chibios/os/rt/include/chsys.h **** /**
 216:./lib/chibios/os/rt/include/chsys.h ****  * @brief   Realtime counter cycles to milliseconds.
 217:./lib/chibios/os/rt/include/chsys.h ****  * @details Converts from realtime counter cycles number to milliseconds.
 218:./lib/chibios/os/rt/include/chsys.h ****  * @note    The result is rounded up to the next millisecond boundary.
 219:./lib/chibios/os/rt/include/chsys.h ****  * @note    The macro assumes that @p freq >= @p 1000.
 220:./lib/chibios/os/rt/include/chsys.h ****  *
 221:./lib/chibios/os/rt/include/chsys.h ****  * @param[in] freq      clock frequency, in Hz, of the realtime counter
 222:./lib/chibios/os/rt/include/chsys.h ****  * @param[in] n         number of cycles
 223:./lib/chibios/os/rt/include/chsys.h ****  * @return              The number of milliseconds.
 224:./lib/chibios/os/rt/include/chsys.h ****  *
 225:./lib/chibios/os/rt/include/chsys.h ****  * @api
 226:./lib/chibios/os/rt/include/chsys.h ****  */
 227:./lib/chibios/os/rt/include/chsys.h **** #define RTC2MS(freq, n) ((((n) - 1UL) / ((freq) / 1000UL)) + 1UL)
 228:./lib/chibios/os/rt/include/chsys.h **** 
 229:./lib/chibios/os/rt/include/chsys.h **** /**
 230:./lib/chibios/os/rt/include/chsys.h ****  * @brief   Realtime counter cycles to microseconds.
 231:./lib/chibios/os/rt/include/chsys.h ****  * @details Converts from realtime counter cycles number to microseconds.
 232:./lib/chibios/os/rt/include/chsys.h ****  * @note    The result is rounded up to the next microsecond boundary.
 233:./lib/chibios/os/rt/include/chsys.h ****  * @note    The macro assumes that @p freq >= @p 1000000.
 234:./lib/chibios/os/rt/include/chsys.h ****  *
 235:./lib/chibios/os/rt/include/chsys.h ****  * @param[in] freq      clock frequency, in Hz, of the realtime counter
 236:./lib/chibios/os/rt/include/chsys.h ****  * @param[in] n         number of cycles
 237:./lib/chibios/os/rt/include/chsys.h ****  * @return              The number of microseconds.
 238:./lib/chibios/os/rt/include/chsys.h ****  *
 239:./lib/chibios/os/rt/include/chsys.h ****  * @api
 240:./lib/chibios/os/rt/include/chsys.h ****  */
 241:./lib/chibios/os/rt/include/chsys.h **** #define RTC2US(freq, n) ((((n) - 1UL) / ((freq) / 1000000UL)) + 1UL)
 242:./lib/chibios/os/rt/include/chsys.h **** /** @} */
 243:./lib/chibios/os/rt/include/chsys.h **** 
 244:./lib/chibios/os/rt/include/chsys.h **** /**
 245:./lib/chibios/os/rt/include/chsys.h ****  * @brief   Returns the current value of the system real time counter.
 246:./lib/chibios/os/rt/include/chsys.h ****  * @note    This function is only available if the port layer supports the
 247:./lib/chibios/os/rt/include/chsys.h ****  *          option @p PORT_SUPPORTS_RT.
 248:./lib/chibios/os/rt/include/chsys.h ****  *
 249:./lib/chibios/os/rt/include/chsys.h ****  * @return              The value of the system realtime counter of
 250:./lib/chibios/os/rt/include/chsys.h ****  *                      type rtcnt_t.
 251:./lib/chibios/os/rt/include/chsys.h ****  *
 252:./lib/chibios/os/rt/include/chsys.h ****  * @xclass
 253:./lib/chibios/os/rt/include/chsys.h ****  */
 254:./lib/chibios/os/rt/include/chsys.h **** #if (PORT_SUPPORTS_RT == TRUE) || defined(__DOXYGEN__)
 255:./lib/chibios/os/rt/include/chsys.h **** #define chSysGetRealtimeCounterX() (rtcnt_t)port_rt_get_counter_value()
 256:./lib/chibios/os/rt/include/chsys.h **** #endif
 257:./lib/chibios/os/rt/include/chsys.h **** 
 258:./lib/chibios/os/rt/include/chsys.h **** /**
 259:./lib/chibios/os/rt/include/chsys.h ****  * @brief   Performs a context switch.
 260:./lib/chibios/os/rt/include/chsys.h ****  * @note    Not a user function, it is meant to be invoked by the scheduler
 261:./lib/chibios/os/rt/include/chsys.h ****  *          itself or from within the port layer.
 262:./lib/chibios/os/rt/include/chsys.h ****  *
 263:./lib/chibios/os/rt/include/chsys.h ****  * @param[in] ntp       the thread to be switched in
 264:./lib/chibios/os/rt/include/chsys.h ****  * @param[in] otp       the thread to be switched out
 265:./lib/chibios/os/rt/include/chsys.h ****  *
 266:./lib/chibios/os/rt/include/chsys.h ****  * @special
 267:./lib/chibios/os/rt/include/chsys.h ****  */
 268:./lib/chibios/os/rt/include/chsys.h **** #define chSysSwitch(ntp, otp) {                                             \
 269:./lib/chibios/os/rt/include/chsys.h ****                                                                             \
 270:./lib/chibios/os/rt/include/chsys.h ****   _trace_switch(ntp, otp);                                                  \
 271:./lib/chibios/os/rt/include/chsys.h ****   _stats_ctxswc(ntp, otp);                                                  \
 272:./lib/chibios/os/rt/include/chsys.h ****   CH_CFG_CONTEXT_SWITCH_HOOK(ntp, otp);                                     \
 273:./lib/chibios/os/rt/include/chsys.h ****   port_switch(ntp, otp);                                                    \
 274:./lib/chibios/os/rt/include/chsys.h **** }
 275:./lib/chibios/os/rt/include/chsys.h **** 
 276:./lib/chibios/os/rt/include/chsys.h **** /*===========================================================================*/
 277:./lib/chibios/os/rt/include/chsys.h **** /* External declarations.                                                    */
 278:./lib/chibios/os/rt/include/chsys.h **** /*===========================================================================*/
 279:./lib/chibios/os/rt/include/chsys.h **** 
 280:./lib/chibios/os/rt/include/chsys.h **** #if !defined(__DOXYGEN__)
 281:./lib/chibios/os/rt/include/chsys.h **** extern stkalign_t ch_idle_thread_wa[];
 282:./lib/chibios/os/rt/include/chsys.h **** #endif
 283:./lib/chibios/os/rt/include/chsys.h **** 
 284:./lib/chibios/os/rt/include/chsys.h **** #ifdef __cplusplus
 285:./lib/chibios/os/rt/include/chsys.h **** extern "C" {
 286:./lib/chibios/os/rt/include/chsys.h **** #endif
 287:./lib/chibios/os/rt/include/chsys.h ****   void chSysInit(void);
 288:./lib/chibios/os/rt/include/chsys.h ****   bool chSysIntegrityCheckI(unsigned testmask);
 289:./lib/chibios/os/rt/include/chsys.h ****   void chSysTimerHandlerI(void);
 290:./lib/chibios/os/rt/include/chsys.h ****   syssts_t chSysGetStatusAndLockX(void);
 291:./lib/chibios/os/rt/include/chsys.h ****   void chSysRestoreStatusX(syssts_t sts);
 292:./lib/chibios/os/rt/include/chsys.h **** #if PORT_SUPPORTS_RT == TRUE
 293:./lib/chibios/os/rt/include/chsys.h ****   bool chSysIsCounterWithinX(rtcnt_t cnt, rtcnt_t start, rtcnt_t end);
 294:./lib/chibios/os/rt/include/chsys.h ****   void chSysPolledDelayX(rtcnt_t cycles);
 295:./lib/chibios/os/rt/include/chsys.h **** #endif
 296:./lib/chibios/os/rt/include/chsys.h **** #ifdef __cplusplus
 297:./lib/chibios/os/rt/include/chsys.h **** }
 298:./lib/chibios/os/rt/include/chsys.h **** #endif
 299:./lib/chibios/os/rt/include/chsys.h **** 
 300:./lib/chibios/os/rt/include/chsys.h **** /*===========================================================================*/
 301:./lib/chibios/os/rt/include/chsys.h **** /* Module inline functions.                                                  */
 302:./lib/chibios/os/rt/include/chsys.h **** /*===========================================================================*/
 303:./lib/chibios/os/rt/include/chsys.h **** 
 304:./lib/chibios/os/rt/include/chsys.h **** /**
 305:./lib/chibios/os/rt/include/chsys.h ****  * @brief   Raises the system interrupt priority mask to the maximum level.
 306:./lib/chibios/os/rt/include/chsys.h ****  * @details All the maskable interrupt sources are disabled regardless their
 307:./lib/chibios/os/rt/include/chsys.h ****  *          hardware priority.
 308:./lib/chibios/os/rt/include/chsys.h ****  * @note    Do not invoke this API from within a kernel lock.
 309:./lib/chibios/os/rt/include/chsys.h ****  *
 310:./lib/chibios/os/rt/include/chsys.h ****  * @special
 311:./lib/chibios/os/rt/include/chsys.h ****  */
 312:./lib/chibios/os/rt/include/chsys.h **** static inline void chSysDisable(void) {
 313:./lib/chibios/os/rt/include/chsys.h **** 
 314:./lib/chibios/os/rt/include/chsys.h ****   port_disable();
 315:./lib/chibios/os/rt/include/chsys.h ****   _dbg_check_disable();
 316:./lib/chibios/os/rt/include/chsys.h **** }
 317:./lib/chibios/os/rt/include/chsys.h **** 
 318:./lib/chibios/os/rt/include/chsys.h **** /**
 319:./lib/chibios/os/rt/include/chsys.h ****  * @brief   Raises the system interrupt priority mask to system level.
 320:./lib/chibios/os/rt/include/chsys.h ****  * @details The interrupt sources that should not be able to preempt the kernel
 321:./lib/chibios/os/rt/include/chsys.h ****  *          are disabled, interrupt sources with higher priority are still
 322:./lib/chibios/os/rt/include/chsys.h ****  *          enabled.
 323:./lib/chibios/os/rt/include/chsys.h ****  * @note    Do not invoke this API from within a kernel lock.
 324:./lib/chibios/os/rt/include/chsys.h ****  * @note    This API is no replacement for @p chSysLock(), the @p chSysLock()
 325:./lib/chibios/os/rt/include/chsys.h ****  *          could do more than just disable the interrupts.
 326:./lib/chibios/os/rt/include/chsys.h ****  *
 327:./lib/chibios/os/rt/include/chsys.h ****  * @special
 328:./lib/chibios/os/rt/include/chsys.h ****  */
 329:./lib/chibios/os/rt/include/chsys.h **** static inline void chSysSuspend(void) {
 330:./lib/chibios/os/rt/include/chsys.h **** 
 331:./lib/chibios/os/rt/include/chsys.h ****   port_suspend();
 332:./lib/chibios/os/rt/include/chsys.h ****   _dbg_check_suspend();
 333:./lib/chibios/os/rt/include/chsys.h **** }
 334:./lib/chibios/os/rt/include/chsys.h **** 
 335:./lib/chibios/os/rt/include/chsys.h **** /**
 336:./lib/chibios/os/rt/include/chsys.h ****  * @brief   Lowers the system interrupt priority mask to user level.
 337:./lib/chibios/os/rt/include/chsys.h ****  * @details All the interrupt sources are enabled.
 338:./lib/chibios/os/rt/include/chsys.h ****  * @note    Do not invoke this API from within a kernel lock.
 339:./lib/chibios/os/rt/include/chsys.h ****  * @note    This API is no replacement for @p chSysUnlock(), the
 340:./lib/chibios/os/rt/include/chsys.h ****  *          @p chSysUnlock() could do more than just enable the interrupts.
 341:./lib/chibios/os/rt/include/chsys.h ****  *
 342:./lib/chibios/os/rt/include/chsys.h ****  * @special
 343:./lib/chibios/os/rt/include/chsys.h ****  */
 344:./lib/chibios/os/rt/include/chsys.h **** static inline void chSysEnable(void) {
 345:./lib/chibios/os/rt/include/chsys.h **** 
 346:./lib/chibios/os/rt/include/chsys.h ****   _dbg_check_enable();
 347:./lib/chibios/os/rt/include/chsys.h ****   port_enable();
 348:./lib/chibios/os/rt/include/chsys.h **** }
 349:./lib/chibios/os/rt/include/chsys.h **** 
 350:./lib/chibios/os/rt/include/chsys.h **** /**
 351:./lib/chibios/os/rt/include/chsys.h ****  * @brief   Enters the kernel lock state.
 352:./lib/chibios/os/rt/include/chsys.h ****  *
 353:./lib/chibios/os/rt/include/chsys.h ****  * @special
 354:./lib/chibios/os/rt/include/chsys.h ****  */
 355:./lib/chibios/os/rt/include/chsys.h **** static inline void chSysLock(void) {
 177              		.loc 2 355 20 view .LVU63
 356:./lib/chibios/os/rt/include/chsys.h **** 
 357:./lib/chibios/os/rt/include/chsys.h ****   port_lock();
 178              		.loc 2 357 3 view .LVU64
 179              	.LBB166:
 180              	.LBI166:
 181              		.file 3 "./lib/chibios/os/common/ports/ARMCMx/chcore_v7m.h"
   1:./lib/chibios/os/common/ports/ARMCMx/chcore_v7m.h **** /*
   2:./lib/chibios/os/common/ports/ARMCMx/chcore_v7m.h ****     ChibiOS - Copyright (C) 2006..2018 Giovanni Di Sirio.
   3:./lib/chibios/os/common/ports/ARMCMx/chcore_v7m.h **** 
   4:./lib/chibios/os/common/ports/ARMCMx/chcore_v7m.h ****     This file is part of ChibiOS.
   5:./lib/chibios/os/common/ports/ARMCMx/chcore_v7m.h **** 
   6:./lib/chibios/os/common/ports/ARMCMx/chcore_v7m.h ****     ChibiOS is free software; you can redistribute it and/or modify
   7:./lib/chibios/os/common/ports/ARMCMx/chcore_v7m.h ****     it under the terms of the GNU General Public License as published by
   8:./lib/chibios/os/common/ports/ARMCMx/chcore_v7m.h ****     the Free Software Foundation; either version 3 of the License, or
   9:./lib/chibios/os/common/ports/ARMCMx/chcore_v7m.h ****     (at your option) any later version.
  10:./lib/chibios/os/common/ports/ARMCMx/chcore_v7m.h **** 
  11:./lib/chibios/os/common/ports/ARMCMx/chcore_v7m.h ****     ChibiOS is distributed in the hope that it will be useful,
  12:./lib/chibios/os/common/ports/ARMCMx/chcore_v7m.h ****     but WITHOUT ANY WARRANTY; without even the implied warranty of
  13:./lib/chibios/os/common/ports/ARMCMx/chcore_v7m.h ****     MERCHANTABILITY or FITNESS FOR A PARTICULAR PURPOSE.  See the
  14:./lib/chibios/os/common/ports/ARMCMx/chcore_v7m.h ****     GNU General Public License for more details.
  15:./lib/chibios/os/common/ports/ARMCMx/chcore_v7m.h **** 
  16:./lib/chibios/os/common/ports/ARMCMx/chcore_v7m.h ****     You should have received a copy of the GNU General Public License
  17:./lib/chibios/os/common/ports/ARMCMx/chcore_v7m.h ****     along with this program.  If not, see <http://www.gnu.org/licenses/>.
  18:./lib/chibios/os/common/ports/ARMCMx/chcore_v7m.h **** */
  19:./lib/chibios/os/common/ports/ARMCMx/chcore_v7m.h **** 
  20:./lib/chibios/os/common/ports/ARMCMx/chcore_v7m.h **** /**
  21:./lib/chibios/os/common/ports/ARMCMx/chcore_v7m.h ****  * @file    chcore_v7m.h
  22:./lib/chibios/os/common/ports/ARMCMx/chcore_v7m.h ****  * @brief   ARMv7-M architecture port macros and structures.
  23:./lib/chibios/os/common/ports/ARMCMx/chcore_v7m.h ****  *
  24:./lib/chibios/os/common/ports/ARMCMx/chcore_v7m.h ****  * @addtogroup ARMCMx_V7M_CORE
  25:./lib/chibios/os/common/ports/ARMCMx/chcore_v7m.h ****  * @{
  26:./lib/chibios/os/common/ports/ARMCMx/chcore_v7m.h ****  */
  27:./lib/chibios/os/common/ports/ARMCMx/chcore_v7m.h **** 
  28:./lib/chibios/os/common/ports/ARMCMx/chcore_v7m.h **** #ifndef CHCORE_V7M_H
  29:./lib/chibios/os/common/ports/ARMCMx/chcore_v7m.h **** #define CHCORE_V7M_H
  30:./lib/chibios/os/common/ports/ARMCMx/chcore_v7m.h **** 
  31:./lib/chibios/os/common/ports/ARMCMx/chcore_v7m.h **** /*===========================================================================*/
  32:./lib/chibios/os/common/ports/ARMCMx/chcore_v7m.h **** /* Module constants.                                                         */
  33:./lib/chibios/os/common/ports/ARMCMx/chcore_v7m.h **** /*===========================================================================*/
  34:./lib/chibios/os/common/ports/ARMCMx/chcore_v7m.h **** 
  35:./lib/chibios/os/common/ports/ARMCMx/chcore_v7m.h **** /**
  36:./lib/chibios/os/common/ports/ARMCMx/chcore_v7m.h ****  * @name    Port Capabilities and Constants
  37:./lib/chibios/os/common/ports/ARMCMx/chcore_v7m.h ****  * @{
  38:./lib/chibios/os/common/ports/ARMCMx/chcore_v7m.h ****  */
  39:./lib/chibios/os/common/ports/ARMCMx/chcore_v7m.h **** /**
  40:./lib/chibios/os/common/ports/ARMCMx/chcore_v7m.h ****  * @brief   This port supports a realtime counter.
  41:./lib/chibios/os/common/ports/ARMCMx/chcore_v7m.h ****  */
  42:./lib/chibios/os/common/ports/ARMCMx/chcore_v7m.h **** #define PORT_SUPPORTS_RT                TRUE
  43:./lib/chibios/os/common/ports/ARMCMx/chcore_v7m.h **** 
  44:./lib/chibios/os/common/ports/ARMCMx/chcore_v7m.h **** /**
  45:./lib/chibios/os/common/ports/ARMCMx/chcore_v7m.h ****  * @brief   Natural alignment constant.
  46:./lib/chibios/os/common/ports/ARMCMx/chcore_v7m.h ****  * @note    It is the minimum alignment for pointer-size variables.
  47:./lib/chibios/os/common/ports/ARMCMx/chcore_v7m.h ****  */
  48:./lib/chibios/os/common/ports/ARMCMx/chcore_v7m.h **** #define PORT_NATURAL_ALIGN              sizeof (void *)
  49:./lib/chibios/os/common/ports/ARMCMx/chcore_v7m.h **** 
  50:./lib/chibios/os/common/ports/ARMCMx/chcore_v7m.h **** /**
  51:./lib/chibios/os/common/ports/ARMCMx/chcore_v7m.h ****  * @brief   Stack alignment constant.
  52:./lib/chibios/os/common/ports/ARMCMx/chcore_v7m.h ****  * @note    It is the alignment required for the stack pointer.
  53:./lib/chibios/os/common/ports/ARMCMx/chcore_v7m.h ****  */
  54:./lib/chibios/os/common/ports/ARMCMx/chcore_v7m.h **** #define PORT_STACK_ALIGN                sizeof (stkalign_t)
  55:./lib/chibios/os/common/ports/ARMCMx/chcore_v7m.h **** 
  56:./lib/chibios/os/common/ports/ARMCMx/chcore_v7m.h **** /**
  57:./lib/chibios/os/common/ports/ARMCMx/chcore_v7m.h ****  * @brief   Working Areas alignment constant.
  58:./lib/chibios/os/common/ports/ARMCMx/chcore_v7m.h ****  * @note    It is the alignment to be enforced for thread working areas.
  59:./lib/chibios/os/common/ports/ARMCMx/chcore_v7m.h ****  */
  60:./lib/chibios/os/common/ports/ARMCMx/chcore_v7m.h **** #define PORT_WORKING_AREA_ALIGN         ((PORT_ENABLE_GUARD_PAGES == TRUE) ?\
  61:./lib/chibios/os/common/ports/ARMCMx/chcore_v7m.h ****                                          32U : PORT_STACK_ALIGN)
  62:./lib/chibios/os/common/ports/ARMCMx/chcore_v7m.h **** /** @} */
  63:./lib/chibios/os/common/ports/ARMCMx/chcore_v7m.h **** 
  64:./lib/chibios/os/common/ports/ARMCMx/chcore_v7m.h **** /**
  65:./lib/chibios/os/common/ports/ARMCMx/chcore_v7m.h ****  * @brief   Disabled value for BASEPRI register.
  66:./lib/chibios/os/common/ports/ARMCMx/chcore_v7m.h ****  */
  67:./lib/chibios/os/common/ports/ARMCMx/chcore_v7m.h **** #define CORTEX_BASEPRI_DISABLED         0U
  68:./lib/chibios/os/common/ports/ARMCMx/chcore_v7m.h **** 
  69:./lib/chibios/os/common/ports/ARMCMx/chcore_v7m.h **** /*===========================================================================*/
  70:./lib/chibios/os/common/ports/ARMCMx/chcore_v7m.h **** /* Module pre-compile time settings.                                         */
  71:./lib/chibios/os/common/ports/ARMCMx/chcore_v7m.h **** /*===========================================================================*/
  72:./lib/chibios/os/common/ports/ARMCMx/chcore_v7m.h **** 
  73:./lib/chibios/os/common/ports/ARMCMx/chcore_v7m.h **** /**
  74:./lib/chibios/os/common/ports/ARMCMx/chcore_v7m.h ****  * @brief   Implements a syscall interface on SVC.
  75:./lib/chibios/os/common/ports/ARMCMx/chcore_v7m.h ****  */
  76:./lib/chibios/os/common/ports/ARMCMx/chcore_v7m.h **** #if !defined(PORT_USE_SYSCALL) || defined(__DOXYGEN__)
  77:./lib/chibios/os/common/ports/ARMCMx/chcore_v7m.h **** #define PORT_USE_SYSCALL                FALSE
  78:./lib/chibios/os/common/ports/ARMCMx/chcore_v7m.h **** #endif
  79:./lib/chibios/os/common/ports/ARMCMx/chcore_v7m.h **** 
  80:./lib/chibios/os/common/ports/ARMCMx/chcore_v7m.h **** /**
  81:./lib/chibios/os/common/ports/ARMCMx/chcore_v7m.h ****  * @brief   Number of MPU regions to be saved/restored during context switch.
  82:./lib/chibios/os/common/ports/ARMCMx/chcore_v7m.h ****  * @note    The first region is always region zero.
  83:./lib/chibios/os/common/ports/ARMCMx/chcore_v7m.h ****  * @note    The use of this option has an overhead of 8 bytes for each
  84:./lib/chibios/os/common/ports/ARMCMx/chcore_v7m.h ****  *          region for each thread.
  85:./lib/chibios/os/common/ports/ARMCMx/chcore_v7m.h ****  * @note    Allowed values are 0..4, zero means none.
  86:./lib/chibios/os/common/ports/ARMCMx/chcore_v7m.h ****  */
  87:./lib/chibios/os/common/ports/ARMCMx/chcore_v7m.h **** #if !defined(PORT_SWITCHED_REGIONS_NUMBER) || defined(__DOXYGEN__)
  88:./lib/chibios/os/common/ports/ARMCMx/chcore_v7m.h **** #define PORT_SWITCHED_REGIONS_NUMBER    0
  89:./lib/chibios/os/common/ports/ARMCMx/chcore_v7m.h **** #endif
  90:./lib/chibios/os/common/ports/ARMCMx/chcore_v7m.h **** 
  91:./lib/chibios/os/common/ports/ARMCMx/chcore_v7m.h **** /**
  92:./lib/chibios/os/common/ports/ARMCMx/chcore_v7m.h ****  * @brief   Enables stack overflow guard pages using MPU.
  93:./lib/chibios/os/common/ports/ARMCMx/chcore_v7m.h ****  * @note    This option can only be enabled if also option
  94:./lib/chibios/os/common/ports/ARMCMx/chcore_v7m.h ****  *          @p CH_DBG_ENABLE_STACK_CHECK is enabled.
  95:./lib/chibios/os/common/ports/ARMCMx/chcore_v7m.h ****  * @note    The use of this option has an overhead of 32 bytes for each
  96:./lib/chibios/os/common/ports/ARMCMx/chcore_v7m.h ****  *          thread.
  97:./lib/chibios/os/common/ports/ARMCMx/chcore_v7m.h ****  */
  98:./lib/chibios/os/common/ports/ARMCMx/chcore_v7m.h **** #if !defined(PORT_ENABLE_GUARD_PAGES) || defined(__DOXYGEN__)
  99:./lib/chibios/os/common/ports/ARMCMx/chcore_v7m.h **** #define PORT_ENABLE_GUARD_PAGES         FALSE
 100:./lib/chibios/os/common/ports/ARMCMx/chcore_v7m.h **** #endif
 101:./lib/chibios/os/common/ports/ARMCMx/chcore_v7m.h **** 
 102:./lib/chibios/os/common/ports/ARMCMx/chcore_v7m.h **** /**
 103:./lib/chibios/os/common/ports/ARMCMx/chcore_v7m.h ****  * @brief   MPU region to be used to stack guards.
 104:./lib/chibios/os/common/ports/ARMCMx/chcore_v7m.h ****  * @note    Make sure this region is not included in the
 105:./lib/chibios/os/common/ports/ARMCMx/chcore_v7m.h ****  *          @p PORT_SWITCHED_REGIONS_NUMBER regions range.
 106:./lib/chibios/os/common/ports/ARMCMx/chcore_v7m.h ****  */
 107:./lib/chibios/os/common/ports/ARMCMx/chcore_v7m.h **** #if !defined(PORT_USE_GUARD_MPU_REGION) || defined(__DOXYGEN__)
 108:./lib/chibios/os/common/ports/ARMCMx/chcore_v7m.h **** #define PORT_USE_GUARD_MPU_REGION       MPU_REGION_7
 109:./lib/chibios/os/common/ports/ARMCMx/chcore_v7m.h **** #endif
 110:./lib/chibios/os/common/ports/ARMCMx/chcore_v7m.h **** 
 111:./lib/chibios/os/common/ports/ARMCMx/chcore_v7m.h **** /**
 112:./lib/chibios/os/common/ports/ARMCMx/chcore_v7m.h ****  * @brief   Stack size for the system idle thread.
 113:./lib/chibios/os/common/ports/ARMCMx/chcore_v7m.h ****  * @details This size depends on the idle thread implementation, usually
 114:./lib/chibios/os/common/ports/ARMCMx/chcore_v7m.h ****  *          the idle thread should take no more space than those reserved
 115:./lib/chibios/os/common/ports/ARMCMx/chcore_v7m.h ****  *          by @p PORT_INT_REQUIRED_STACK.
 116:./lib/chibios/os/common/ports/ARMCMx/chcore_v7m.h ****  * @note    In this port it is set to 16 because the idle thread does have
 117:./lib/chibios/os/common/ports/ARMCMx/chcore_v7m.h ****  *          a stack frame when compiling without optimizations. You may
 118:./lib/chibios/os/common/ports/ARMCMx/chcore_v7m.h ****  *          reduce this value to zero when compiling with optimizations.
 119:./lib/chibios/os/common/ports/ARMCMx/chcore_v7m.h ****  */
 120:./lib/chibios/os/common/ports/ARMCMx/chcore_v7m.h **** #if !defined(PORT_IDLE_THREAD_STACK_SIZE) || defined(__DOXYGEN__)
 121:./lib/chibios/os/common/ports/ARMCMx/chcore_v7m.h **** #define PORT_IDLE_THREAD_STACK_SIZE     16
 122:./lib/chibios/os/common/ports/ARMCMx/chcore_v7m.h **** #endif
 123:./lib/chibios/os/common/ports/ARMCMx/chcore_v7m.h **** 
 124:./lib/chibios/os/common/ports/ARMCMx/chcore_v7m.h **** /**
 125:./lib/chibios/os/common/ports/ARMCMx/chcore_v7m.h ****  * @brief   Per-thread stack overhead for interrupts servicing.
 126:./lib/chibios/os/common/ports/ARMCMx/chcore_v7m.h ****  * @details This constant is used in the calculation of the correct working
 127:./lib/chibios/os/common/ports/ARMCMx/chcore_v7m.h ****  *          area size.
 128:./lib/chibios/os/common/ports/ARMCMx/chcore_v7m.h ****  * @note    In this port this value is conservatively set to 64 because the
 129:./lib/chibios/os/common/ports/ARMCMx/chcore_v7m.h ****  *          function @p chSchDoReschedule() can have a stack frame, especially
 130:./lib/chibios/os/common/ports/ARMCMx/chcore_v7m.h ****  *          with compiler optimizations disabled. The value can be reduced
 131:./lib/chibios/os/common/ports/ARMCMx/chcore_v7m.h ****  *          when compiler optimizations are enabled.
 132:./lib/chibios/os/common/ports/ARMCMx/chcore_v7m.h ****  */
 133:./lib/chibios/os/common/ports/ARMCMx/chcore_v7m.h **** #if !defined(PORT_INT_REQUIRED_STACK) || defined(__DOXYGEN__)
 134:./lib/chibios/os/common/ports/ARMCMx/chcore_v7m.h **** #define PORT_INT_REQUIRED_STACK         64
 135:./lib/chibios/os/common/ports/ARMCMx/chcore_v7m.h **** #endif
 136:./lib/chibios/os/common/ports/ARMCMx/chcore_v7m.h **** 
 137:./lib/chibios/os/common/ports/ARMCMx/chcore_v7m.h **** /**
 138:./lib/chibios/os/common/ports/ARMCMx/chcore_v7m.h ****  * @brief   Enables the use of the WFI instruction in the idle thread loop.
 139:./lib/chibios/os/common/ports/ARMCMx/chcore_v7m.h ****  */
 140:./lib/chibios/os/common/ports/ARMCMx/chcore_v7m.h **** #if !defined(CORTEX_ENABLE_WFI_IDLE)
 141:./lib/chibios/os/common/ports/ARMCMx/chcore_v7m.h **** #define CORTEX_ENABLE_WFI_IDLE          FALSE
 142:./lib/chibios/os/common/ports/ARMCMx/chcore_v7m.h **** #endif
 143:./lib/chibios/os/common/ports/ARMCMx/chcore_v7m.h **** 
 144:./lib/chibios/os/common/ports/ARMCMx/chcore_v7m.h **** /**
 145:./lib/chibios/os/common/ports/ARMCMx/chcore_v7m.h ****  * @brief   FPU support in context switch.
 146:./lib/chibios/os/common/ports/ARMCMx/chcore_v7m.h ****  * @details Activating this option activates the FPU support in the kernel.
 147:./lib/chibios/os/common/ports/ARMCMx/chcore_v7m.h ****  */
 148:./lib/chibios/os/common/ports/ARMCMx/chcore_v7m.h **** #if !defined(CORTEX_USE_FPU)
 149:./lib/chibios/os/common/ports/ARMCMx/chcore_v7m.h **** #define CORTEX_USE_FPU                  CORTEX_HAS_FPU
 150:./lib/chibios/os/common/ports/ARMCMx/chcore_v7m.h **** #elif (CORTEX_USE_FPU == TRUE) && (CORTEX_HAS_FPU == FALSE)
 151:./lib/chibios/os/common/ports/ARMCMx/chcore_v7m.h **** /* This setting requires an FPU presence check in case it is externally
 152:./lib/chibios/os/common/ports/ARMCMx/chcore_v7m.h ****    redefined.*/
 153:./lib/chibios/os/common/ports/ARMCMx/chcore_v7m.h **** #error "the selected core does not have an FPU"
 154:./lib/chibios/os/common/ports/ARMCMx/chcore_v7m.h **** #endif
 155:./lib/chibios/os/common/ports/ARMCMx/chcore_v7m.h **** 
 156:./lib/chibios/os/common/ports/ARMCMx/chcore_v7m.h **** /**
 157:./lib/chibios/os/common/ports/ARMCMx/chcore_v7m.h ****  * @brief   Simplified priority handling flag.
 158:./lib/chibios/os/common/ports/ARMCMx/chcore_v7m.h ****  * @details Activating this option makes the Kernel work in compact mode.
 159:./lib/chibios/os/common/ports/ARMCMx/chcore_v7m.h ****  *          In compact mode interrupts are disabled globally instead of
 160:./lib/chibios/os/common/ports/ARMCMx/chcore_v7m.h ****  *          raising the priority mask to some intermediate level.
 161:./lib/chibios/os/common/ports/ARMCMx/chcore_v7m.h ****  */
 162:./lib/chibios/os/common/ports/ARMCMx/chcore_v7m.h **** #if !defined(CORTEX_SIMPLIFIED_PRIORITY)
 163:./lib/chibios/os/common/ports/ARMCMx/chcore_v7m.h **** #define CORTEX_SIMPLIFIED_PRIORITY      FALSE
 164:./lib/chibios/os/common/ports/ARMCMx/chcore_v7m.h **** #endif
 165:./lib/chibios/os/common/ports/ARMCMx/chcore_v7m.h **** 
 166:./lib/chibios/os/common/ports/ARMCMx/chcore_v7m.h **** /**
 167:./lib/chibios/os/common/ports/ARMCMx/chcore_v7m.h ****  * @brief   SVCALL handler priority.
 168:./lib/chibios/os/common/ports/ARMCMx/chcore_v7m.h ****  * @note    The default SVCALL handler priority is defaulted to
 169:./lib/chibios/os/common/ports/ARMCMx/chcore_v7m.h ****  *          @p CORTEX_MAXIMUM_PRIORITY+1, this reserves the
 170:./lib/chibios/os/common/ports/ARMCMx/chcore_v7m.h ****  *          @p CORTEX_MAXIMUM_PRIORITY priority level as fast interrupts
 171:./lib/chibios/os/common/ports/ARMCMx/chcore_v7m.h ****  *          priority level.
 172:./lib/chibios/os/common/ports/ARMCMx/chcore_v7m.h ****  */
 173:./lib/chibios/os/common/ports/ARMCMx/chcore_v7m.h **** #if !defined(CORTEX_PRIORITY_SVCALL)
 174:./lib/chibios/os/common/ports/ARMCMx/chcore_v7m.h **** #define CORTEX_PRIORITY_SVCALL          (CORTEX_MAXIMUM_PRIORITY + 1U)
 175:./lib/chibios/os/common/ports/ARMCMx/chcore_v7m.h **** #elif !PORT_IRQ_IS_VALID_PRIORITY(CORTEX_PRIORITY_SVCALL)
 176:./lib/chibios/os/common/ports/ARMCMx/chcore_v7m.h **** /* If it is externally redefined then better perform a validity check on it.*/
 177:./lib/chibios/os/common/ports/ARMCMx/chcore_v7m.h **** #error "invalid priority level specified for CORTEX_PRIORITY_SVCALL"
 178:./lib/chibios/os/common/ports/ARMCMx/chcore_v7m.h **** #endif
 179:./lib/chibios/os/common/ports/ARMCMx/chcore_v7m.h **** 
 180:./lib/chibios/os/common/ports/ARMCMx/chcore_v7m.h **** /**
 181:./lib/chibios/os/common/ports/ARMCMx/chcore_v7m.h ****  * @brief   NVIC PRIGROUP initialization expression.
 182:./lib/chibios/os/common/ports/ARMCMx/chcore_v7m.h ****  * @details The default assigns all available priority bits as preemption
 183:./lib/chibios/os/common/ports/ARMCMx/chcore_v7m.h ****  *          priority with no sub-priority.
 184:./lib/chibios/os/common/ports/ARMCMx/chcore_v7m.h ****  */
 185:./lib/chibios/os/common/ports/ARMCMx/chcore_v7m.h **** #if !defined(CORTEX_PRIGROUP_INIT) || defined(__DOXYGEN__)
 186:./lib/chibios/os/common/ports/ARMCMx/chcore_v7m.h **** #define CORTEX_PRIGROUP_INIT            (7 - CORTEX_PRIORITY_BITS)
 187:./lib/chibios/os/common/ports/ARMCMx/chcore_v7m.h **** #endif
 188:./lib/chibios/os/common/ports/ARMCMx/chcore_v7m.h **** 
 189:./lib/chibios/os/common/ports/ARMCMx/chcore_v7m.h **** /*===========================================================================*/
 190:./lib/chibios/os/common/ports/ARMCMx/chcore_v7m.h **** /* Derived constants and error checks.                                       */
 191:./lib/chibios/os/common/ports/ARMCMx/chcore_v7m.h **** /*===========================================================================*/
 192:./lib/chibios/os/common/ports/ARMCMx/chcore_v7m.h **** 
 193:./lib/chibios/os/common/ports/ARMCMx/chcore_v7m.h **** #if (PORT_SWITCHED_REGIONS_NUMBER < 0) || (PORT_SWITCHED_REGIONS_NUMBER > 4)
 194:./lib/chibios/os/common/ports/ARMCMx/chcore_v7m.h **** #error "invalid PORT_SWITCHED_REGIONS_NUMBER value"
 195:./lib/chibios/os/common/ports/ARMCMx/chcore_v7m.h **** #endif
 196:./lib/chibios/os/common/ports/ARMCMx/chcore_v7m.h **** 
 197:./lib/chibios/os/common/ports/ARMCMx/chcore_v7m.h **** #if !defined(_FROM_ASM_)
 198:./lib/chibios/os/common/ports/ARMCMx/chcore_v7m.h **** /**
 199:./lib/chibios/os/common/ports/ARMCMx/chcore_v7m.h ****  * @brief   MPU guard page size.
 200:./lib/chibios/os/common/ports/ARMCMx/chcore_v7m.h ****  */
 201:./lib/chibios/os/common/ports/ARMCMx/chcore_v7m.h **** #if (PORT_ENABLE_GUARD_PAGES == TRUE) || defined(__DOXYGEN__)
 202:./lib/chibios/os/common/ports/ARMCMx/chcore_v7m.h ****   #if CH_DBG_ENABLE_STACK_CHECK == FALSE
 203:./lib/chibios/os/common/ports/ARMCMx/chcore_v7m.h ****     #error "PORT_ENABLE_GUARD_PAGES requires CH_DBG_ENABLE_STACK_CHECK"
 204:./lib/chibios/os/common/ports/ARMCMx/chcore_v7m.h ****   #endif
 205:./lib/chibios/os/common/ports/ARMCMx/chcore_v7m.h ****   #if __MPU_PRESENT == 0
 206:./lib/chibios/os/common/ports/ARMCMx/chcore_v7m.h ****     #error "MPU not present in current device"
 207:./lib/chibios/os/common/ports/ARMCMx/chcore_v7m.h ****   #endif
 208:./lib/chibios/os/common/ports/ARMCMx/chcore_v7m.h ****   #define PORT_GUARD_PAGE_SIZE          32U
 209:./lib/chibios/os/common/ports/ARMCMx/chcore_v7m.h **** #else
 210:./lib/chibios/os/common/ports/ARMCMx/chcore_v7m.h ****   #define PORT_GUARD_PAGE_SIZE          0U
 211:./lib/chibios/os/common/ports/ARMCMx/chcore_v7m.h **** #endif
 212:./lib/chibios/os/common/ports/ARMCMx/chcore_v7m.h **** #endif /* !defined(_FROM_ASM_) */
 213:./lib/chibios/os/common/ports/ARMCMx/chcore_v7m.h **** 
 214:./lib/chibios/os/common/ports/ARMCMx/chcore_v7m.h **** /**
 215:./lib/chibios/os/common/ports/ARMCMx/chcore_v7m.h ****  * @name    Architecture and Compiler
 216:./lib/chibios/os/common/ports/ARMCMx/chcore_v7m.h ****  * @{
 217:./lib/chibios/os/common/ports/ARMCMx/chcore_v7m.h ****  */
 218:./lib/chibios/os/common/ports/ARMCMx/chcore_v7m.h **** #if (CORTEX_MODEL == 3) || defined(__DOXYGEN__)
 219:./lib/chibios/os/common/ports/ARMCMx/chcore_v7m.h **** 
 220:./lib/chibios/os/common/ports/ARMCMx/chcore_v7m.h ****   #if !defined(CH_CUSTOMER_LIC_PORT_CM3)
 221:./lib/chibios/os/common/ports/ARMCMx/chcore_v7m.h ****     #error "CH_CUSTOMER_LIC_PORT_CM3 not defined"
 222:./lib/chibios/os/common/ports/ARMCMx/chcore_v7m.h ****   #endif
 223:./lib/chibios/os/common/ports/ARMCMx/chcore_v7m.h **** 
 224:./lib/chibios/os/common/ports/ARMCMx/chcore_v7m.h ****   #if CH_CUSTOMER_LIC_PORT_CM3 == FALSE
 225:./lib/chibios/os/common/ports/ARMCMx/chcore_v7m.h ****     #error "ChibiOS Cortex-M3 port not licensed"
 226:./lib/chibios/os/common/ports/ARMCMx/chcore_v7m.h ****   #endif
 227:./lib/chibios/os/common/ports/ARMCMx/chcore_v7m.h **** 
 228:./lib/chibios/os/common/ports/ARMCMx/chcore_v7m.h **** /**
 229:./lib/chibios/os/common/ports/ARMCMx/chcore_v7m.h ****  * @brief   Macro defining the specific ARM architecture.
 230:./lib/chibios/os/common/ports/ARMCMx/chcore_v7m.h ****  */
 231:./lib/chibios/os/common/ports/ARMCMx/chcore_v7m.h **** #define PORT_ARCHITECTURE_ARM_v7M
 232:./lib/chibios/os/common/ports/ARMCMx/chcore_v7m.h **** 
 233:./lib/chibios/os/common/ports/ARMCMx/chcore_v7m.h **** /**
 234:./lib/chibios/os/common/ports/ARMCMx/chcore_v7m.h ****  * @brief   Name of the implemented architecture.
 235:./lib/chibios/os/common/ports/ARMCMx/chcore_v7m.h ****  */
 236:./lib/chibios/os/common/ports/ARMCMx/chcore_v7m.h **** #define PORT_ARCHITECTURE_NAME          "ARMv7-M"
 237:./lib/chibios/os/common/ports/ARMCMx/chcore_v7m.h **** 
 238:./lib/chibios/os/common/ports/ARMCMx/chcore_v7m.h **** /**
 239:./lib/chibios/os/common/ports/ARMCMx/chcore_v7m.h ****  * @brief   Name of the architecture variant.
 240:./lib/chibios/os/common/ports/ARMCMx/chcore_v7m.h ****  */
 241:./lib/chibios/os/common/ports/ARMCMx/chcore_v7m.h **** #if (PORT_ENABLE_GUARD_PAGES == FALSE) || defined(__DOXYGEN__)
 242:./lib/chibios/os/common/ports/ARMCMx/chcore_v7m.h ****   #define PORT_CORE_VARIANT_NAME        "Cortex-M3"
 243:./lib/chibios/os/common/ports/ARMCMx/chcore_v7m.h **** #else
 244:./lib/chibios/os/common/ports/ARMCMx/chcore_v7m.h ****   #define PORT_CORE_VARIANT_NAME        "Cortex-M3 (MPU)"
 245:./lib/chibios/os/common/ports/ARMCMx/chcore_v7m.h **** #endif
 246:./lib/chibios/os/common/ports/ARMCMx/chcore_v7m.h **** 
 247:./lib/chibios/os/common/ports/ARMCMx/chcore_v7m.h **** #elif (CORTEX_MODEL == 4)
 248:./lib/chibios/os/common/ports/ARMCMx/chcore_v7m.h **** 
 249:./lib/chibios/os/common/ports/ARMCMx/chcore_v7m.h ****   #if !defined(CH_CUSTOMER_LIC_PORT_CM4)
 250:./lib/chibios/os/common/ports/ARMCMx/chcore_v7m.h ****     #error "CH_CUSTOMER_LIC_PORT_CM4 not defined"
 251:./lib/chibios/os/common/ports/ARMCMx/chcore_v7m.h ****   #endif
 252:./lib/chibios/os/common/ports/ARMCMx/chcore_v7m.h **** 
 253:./lib/chibios/os/common/ports/ARMCMx/chcore_v7m.h ****   #if CH_CUSTOMER_LIC_PORT_CM4 == FALSE
 254:./lib/chibios/os/common/ports/ARMCMx/chcore_v7m.h ****   #error "ChibiOS Cortex-M4 port not licensed"
 255:./lib/chibios/os/common/ports/ARMCMx/chcore_v7m.h ****   #endif
 256:./lib/chibios/os/common/ports/ARMCMx/chcore_v7m.h **** 
 257:./lib/chibios/os/common/ports/ARMCMx/chcore_v7m.h ****   #define PORT_ARCHITECTURE_ARM_v7ME
 258:./lib/chibios/os/common/ports/ARMCMx/chcore_v7m.h ****   #define PORT_ARCHITECTURE_NAME        "ARMv7E-M"
 259:./lib/chibios/os/common/ports/ARMCMx/chcore_v7m.h ****   #if CORTEX_USE_FPU
 260:./lib/chibios/os/common/ports/ARMCMx/chcore_v7m.h ****     #if PORT_ENABLE_GUARD_PAGES == FALSE
 261:./lib/chibios/os/common/ports/ARMCMx/chcore_v7m.h ****       #define PORT_CORE_VARIANT_NAME    "Cortex-M4F"
 262:./lib/chibios/os/common/ports/ARMCMx/chcore_v7m.h ****     #else
 263:./lib/chibios/os/common/ports/ARMCMx/chcore_v7m.h ****       #define PORT_CORE_VARIANT_NAME    "Cortex-M4F (MPU)"
 264:./lib/chibios/os/common/ports/ARMCMx/chcore_v7m.h ****     #endif
 265:./lib/chibios/os/common/ports/ARMCMx/chcore_v7m.h ****   #else
 266:./lib/chibios/os/common/ports/ARMCMx/chcore_v7m.h ****     #if PORT_ENABLE_GUARD_PAGES == FALSE
 267:./lib/chibios/os/common/ports/ARMCMx/chcore_v7m.h ****       #define PORT_CORE_VARIANT_NAME    "Cortex-M4"
 268:./lib/chibios/os/common/ports/ARMCMx/chcore_v7m.h ****     #else
 269:./lib/chibios/os/common/ports/ARMCMx/chcore_v7m.h ****       #define PORT_CORE_VARIANT_NAME    "Cortex-M4 (MPU)"
 270:./lib/chibios/os/common/ports/ARMCMx/chcore_v7m.h ****     #endif
 271:./lib/chibios/os/common/ports/ARMCMx/chcore_v7m.h ****   #endif
 272:./lib/chibios/os/common/ports/ARMCMx/chcore_v7m.h **** 
 273:./lib/chibios/os/common/ports/ARMCMx/chcore_v7m.h **** #elif (CORTEX_MODEL == 7)
 274:./lib/chibios/os/common/ports/ARMCMx/chcore_v7m.h **** 
 275:./lib/chibios/os/common/ports/ARMCMx/chcore_v7m.h ****   #if !defined(CH_CUSTOMER_LIC_PORT_CM7)
 276:./lib/chibios/os/common/ports/ARMCMx/chcore_v7m.h ****     #error "CH_CUSTOMER_LIC_PORT_CM7 not defined"
 277:./lib/chibios/os/common/ports/ARMCMx/chcore_v7m.h ****   #endif
 278:./lib/chibios/os/common/ports/ARMCMx/chcore_v7m.h **** 
 279:./lib/chibios/os/common/ports/ARMCMx/chcore_v7m.h ****   #if CH_CUSTOMER_LIC_PORT_CM7 == FALSE
 280:./lib/chibios/os/common/ports/ARMCMx/chcore_v7m.h ****     #error "ChibiOS Cortex-M7 port not licensed"
 281:./lib/chibios/os/common/ports/ARMCMx/chcore_v7m.h ****   #endif
 282:./lib/chibios/os/common/ports/ARMCMx/chcore_v7m.h **** 
 283:./lib/chibios/os/common/ports/ARMCMx/chcore_v7m.h **** #define PORT_ARCHITECTURE_ARM_v7ME
 284:./lib/chibios/os/common/ports/ARMCMx/chcore_v7m.h ****   #define PORT_ARCHITECTURE_NAME        "ARMv7E-M"
 285:./lib/chibios/os/common/ports/ARMCMx/chcore_v7m.h ****   #if CORTEX_USE_FPU
 286:./lib/chibios/os/common/ports/ARMCMx/chcore_v7m.h ****     #if PORT_ENABLE_GUARD_PAGES == FALSE
 287:./lib/chibios/os/common/ports/ARMCMx/chcore_v7m.h ****       #define PORT_CORE_VARIANT_NAME    "Cortex-M7F"
 288:./lib/chibios/os/common/ports/ARMCMx/chcore_v7m.h ****     #else
 289:./lib/chibios/os/common/ports/ARMCMx/chcore_v7m.h ****       #define PORT_CORE_VARIANT_NAME    "Cortex-M7F (MPU)"
 290:./lib/chibios/os/common/ports/ARMCMx/chcore_v7m.h ****     #endif
 291:./lib/chibios/os/common/ports/ARMCMx/chcore_v7m.h ****   #else
 292:./lib/chibios/os/common/ports/ARMCMx/chcore_v7m.h ****     #if PORT_ENABLE_GUARD_PAGES == FALSE
 293:./lib/chibios/os/common/ports/ARMCMx/chcore_v7m.h ****       #define PORT_CORE_VARIANT_NAME    "Cortex-M7"
 294:./lib/chibios/os/common/ports/ARMCMx/chcore_v7m.h ****     #else
 295:./lib/chibios/os/common/ports/ARMCMx/chcore_v7m.h ****       #define PORT_CORE_VARIANT_NAME    "Cortex-M7 (MPU)"
 296:./lib/chibios/os/common/ports/ARMCMx/chcore_v7m.h ****     #endif
 297:./lib/chibios/os/common/ports/ARMCMx/chcore_v7m.h ****   #endif
 298:./lib/chibios/os/common/ports/ARMCMx/chcore_v7m.h **** #endif
 299:./lib/chibios/os/common/ports/ARMCMx/chcore_v7m.h **** 
 300:./lib/chibios/os/common/ports/ARMCMx/chcore_v7m.h **** /**
 301:./lib/chibios/os/common/ports/ARMCMx/chcore_v7m.h ****  * @brief   Port-specific information string.
 302:./lib/chibios/os/common/ports/ARMCMx/chcore_v7m.h ****  */
 303:./lib/chibios/os/common/ports/ARMCMx/chcore_v7m.h **** #if (CORTEX_SIMPLIFIED_PRIORITY == FALSE) || defined(__DOXYGEN__)
 304:./lib/chibios/os/common/ports/ARMCMx/chcore_v7m.h **** #define PORT_INFO                       "Advanced kernel mode"
 305:./lib/chibios/os/common/ports/ARMCMx/chcore_v7m.h **** #else
 306:./lib/chibios/os/common/ports/ARMCMx/chcore_v7m.h **** #define PORT_INFO                       "Compact kernel mode"
 307:./lib/chibios/os/common/ports/ARMCMx/chcore_v7m.h **** #endif
 308:./lib/chibios/os/common/ports/ARMCMx/chcore_v7m.h **** /** @} */
 309:./lib/chibios/os/common/ports/ARMCMx/chcore_v7m.h **** 
 310:./lib/chibios/os/common/ports/ARMCMx/chcore_v7m.h **** #if (CORTEX_SIMPLIFIED_PRIORITY == FALSE) || defined(__DOXYGEN__)
 311:./lib/chibios/os/common/ports/ARMCMx/chcore_v7m.h **** /**
 312:./lib/chibios/os/common/ports/ARMCMx/chcore_v7m.h ****  * @brief   Maximum usable priority for normal ISRs.
 313:./lib/chibios/os/common/ports/ARMCMx/chcore_v7m.h ****  */
 314:./lib/chibios/os/common/ports/ARMCMx/chcore_v7m.h **** #define CORTEX_MAX_KERNEL_PRIORITY      (CORTEX_PRIORITY_SVCALL + 1U)
 315:./lib/chibios/os/common/ports/ARMCMx/chcore_v7m.h **** 
 316:./lib/chibios/os/common/ports/ARMCMx/chcore_v7m.h **** /**
 317:./lib/chibios/os/common/ports/ARMCMx/chcore_v7m.h ****  * @brief   BASEPRI level within kernel lock.
 318:./lib/chibios/os/common/ports/ARMCMx/chcore_v7m.h ****  */
 319:./lib/chibios/os/common/ports/ARMCMx/chcore_v7m.h **** #define CORTEX_BASEPRI_KERNEL                                               \
 320:./lib/chibios/os/common/ports/ARMCMx/chcore_v7m.h ****   CORTEX_PRIO_MASK(CORTEX_MAX_KERNEL_PRIORITY)
 321:./lib/chibios/os/common/ports/ARMCMx/chcore_v7m.h **** #else
 322:./lib/chibios/os/common/ports/ARMCMx/chcore_v7m.h **** 
 323:./lib/chibios/os/common/ports/ARMCMx/chcore_v7m.h **** #define CORTEX_MAX_KERNEL_PRIORITY      0U
 324:./lib/chibios/os/common/ports/ARMCMx/chcore_v7m.h **** #endif
 325:./lib/chibios/os/common/ports/ARMCMx/chcore_v7m.h **** 
 326:./lib/chibios/os/common/ports/ARMCMx/chcore_v7m.h **** /**
 327:./lib/chibios/os/common/ports/ARMCMx/chcore_v7m.h ****  * @brief   PendSV priority level.
 328:./lib/chibios/os/common/ports/ARMCMx/chcore_v7m.h ****  * @note    This priority is enforced to be equal to
 329:./lib/chibios/os/common/ports/ARMCMx/chcore_v7m.h ****  *          @p CORTEX_MAX_KERNEL_PRIORITY, this handler always have the
 330:./lib/chibios/os/common/ports/ARMCMx/chcore_v7m.h ****  *          highest priority that cannot preempt the kernel.
 331:./lib/chibios/os/common/ports/ARMCMx/chcore_v7m.h ****  */
 332:./lib/chibios/os/common/ports/ARMCMx/chcore_v7m.h **** #define CORTEX_PRIORITY_PENDSV          CORTEX_MAX_KERNEL_PRIORITY
 333:./lib/chibios/os/common/ports/ARMCMx/chcore_v7m.h **** 
 334:./lib/chibios/os/common/ports/ARMCMx/chcore_v7m.h **** /*===========================================================================*/
 335:./lib/chibios/os/common/ports/ARMCMx/chcore_v7m.h **** /* Module data structures and types.                                         */
 336:./lib/chibios/os/common/ports/ARMCMx/chcore_v7m.h **** /*===========================================================================*/
 337:./lib/chibios/os/common/ports/ARMCMx/chcore_v7m.h **** 
 338:./lib/chibios/os/common/ports/ARMCMx/chcore_v7m.h **** /* The following code is not processed when the file is included from an
 339:./lib/chibios/os/common/ports/ARMCMx/chcore_v7m.h ****    asm module.*/
 340:./lib/chibios/os/common/ports/ARMCMx/chcore_v7m.h **** #if !defined(_FROM_ASM_)
 341:./lib/chibios/os/common/ports/ARMCMx/chcore_v7m.h **** 
 342:./lib/chibios/os/common/ports/ARMCMx/chcore_v7m.h **** /* The documentation of the following declarations is in chconf.h in order
 343:./lib/chibios/os/common/ports/ARMCMx/chcore_v7m.h ****    to not have duplicated structure names into the documentation.*/
 344:./lib/chibios/os/common/ports/ARMCMx/chcore_v7m.h **** #if !defined(__DOXYGEN__)
 345:./lib/chibios/os/common/ports/ARMCMx/chcore_v7m.h **** struct port_extctx {
 346:./lib/chibios/os/common/ports/ARMCMx/chcore_v7m.h ****   uint32_t      r0;
 347:./lib/chibios/os/common/ports/ARMCMx/chcore_v7m.h ****   uint32_t      r1;
 348:./lib/chibios/os/common/ports/ARMCMx/chcore_v7m.h ****   uint32_t      r2;
 349:./lib/chibios/os/common/ports/ARMCMx/chcore_v7m.h ****   uint32_t      r3;
 350:./lib/chibios/os/common/ports/ARMCMx/chcore_v7m.h ****   uint32_t      r12;
 351:./lib/chibios/os/common/ports/ARMCMx/chcore_v7m.h ****   uint32_t      lr_thd;
 352:./lib/chibios/os/common/ports/ARMCMx/chcore_v7m.h ****   uint32_t      pc;
 353:./lib/chibios/os/common/ports/ARMCMx/chcore_v7m.h ****   uint32_t      xpsr;
 354:./lib/chibios/os/common/ports/ARMCMx/chcore_v7m.h **** #if CORTEX_USE_FPU
 355:./lib/chibios/os/common/ports/ARMCMx/chcore_v7m.h ****   uint32_t      s0;
 356:./lib/chibios/os/common/ports/ARMCMx/chcore_v7m.h ****   uint32_t      s1;
 357:./lib/chibios/os/common/ports/ARMCMx/chcore_v7m.h ****   uint32_t      s2;
 358:./lib/chibios/os/common/ports/ARMCMx/chcore_v7m.h ****   uint32_t      s3;
 359:./lib/chibios/os/common/ports/ARMCMx/chcore_v7m.h ****   uint32_t      s4;
 360:./lib/chibios/os/common/ports/ARMCMx/chcore_v7m.h ****   uint32_t      s5;
 361:./lib/chibios/os/common/ports/ARMCMx/chcore_v7m.h ****   uint32_t      s6;
 362:./lib/chibios/os/common/ports/ARMCMx/chcore_v7m.h ****   uint32_t      s7;
 363:./lib/chibios/os/common/ports/ARMCMx/chcore_v7m.h ****   uint32_t      s8;
 364:./lib/chibios/os/common/ports/ARMCMx/chcore_v7m.h ****   uint32_t      s9;
 365:./lib/chibios/os/common/ports/ARMCMx/chcore_v7m.h ****   uint32_t      s10;
 366:./lib/chibios/os/common/ports/ARMCMx/chcore_v7m.h ****   uint32_t      s11;
 367:./lib/chibios/os/common/ports/ARMCMx/chcore_v7m.h ****   uint32_t      s12;
 368:./lib/chibios/os/common/ports/ARMCMx/chcore_v7m.h ****   uint32_t      s13;
 369:./lib/chibios/os/common/ports/ARMCMx/chcore_v7m.h ****   uint32_t      s14;
 370:./lib/chibios/os/common/ports/ARMCMx/chcore_v7m.h ****   uint32_t      s15;
 371:./lib/chibios/os/common/ports/ARMCMx/chcore_v7m.h ****   uint32_t      fpscr;
 372:./lib/chibios/os/common/ports/ARMCMx/chcore_v7m.h ****   uint32_t      reserved;
 373:./lib/chibios/os/common/ports/ARMCMx/chcore_v7m.h **** #endif /* CORTEX_USE_FPU */
 374:./lib/chibios/os/common/ports/ARMCMx/chcore_v7m.h **** };
 375:./lib/chibios/os/common/ports/ARMCMx/chcore_v7m.h **** 
 376:./lib/chibios/os/common/ports/ARMCMx/chcore_v7m.h **** #if (PORT_USE_SYSCALL == TRUE) || defined(__DOXYGEN__)
 377:./lib/chibios/os/common/ports/ARMCMx/chcore_v7m.h **** /**
 378:./lib/chibios/os/common/ports/ARMCMx/chcore_v7m.h ****  * @brief   Link context structure.
 379:./lib/chibios/os/common/ports/ARMCMx/chcore_v7m.h ****  * @details This structure is used when there is the need to save extra
 380:./lib/chibios/os/common/ports/ARMCMx/chcore_v7m.h ****  *          context information that is not part of the registers stacked
 381:./lib/chibios/os/common/ports/ARMCMx/chcore_v7m.h ****  *          in HW.
 382:./lib/chibios/os/common/ports/ARMCMx/chcore_v7m.h ****  */
 383:./lib/chibios/os/common/ports/ARMCMx/chcore_v7m.h **** struct port_linkctx {
 384:./lib/chibios/os/common/ports/ARMCMx/chcore_v7m.h ****   uint32_t              control;
 385:./lib/chibios/os/common/ports/ARMCMx/chcore_v7m.h ****   struct port_extctx    *ectxp;
 386:./lib/chibios/os/common/ports/ARMCMx/chcore_v7m.h **** };
 387:./lib/chibios/os/common/ports/ARMCMx/chcore_v7m.h **** #endif
 388:./lib/chibios/os/common/ports/ARMCMx/chcore_v7m.h **** 
 389:./lib/chibios/os/common/ports/ARMCMx/chcore_v7m.h **** struct port_intctx {
 390:./lib/chibios/os/common/ports/ARMCMx/chcore_v7m.h **** #if (PORT_SWITCHED_REGIONS_NUMBER > 0) || defined(__DOXYGEN__)
 391:./lib/chibios/os/common/ports/ARMCMx/chcore_v7m.h ****   struct {
 392:./lib/chibios/os/common/ports/ARMCMx/chcore_v7m.h ****     uint32_t    rbar;
 393:./lib/chibios/os/common/ports/ARMCMx/chcore_v7m.h ****     uint32_t    rasr;
 394:./lib/chibios/os/common/ports/ARMCMx/chcore_v7m.h ****   } regions[PORT_SWITCHED_REGIONS_NUMBER];
 395:./lib/chibios/os/common/ports/ARMCMx/chcore_v7m.h **** #endif
 396:./lib/chibios/os/common/ports/ARMCMx/chcore_v7m.h **** #if CORTEX_USE_FPU
 397:./lib/chibios/os/common/ports/ARMCMx/chcore_v7m.h ****   uint32_t      s16;
 398:./lib/chibios/os/common/ports/ARMCMx/chcore_v7m.h ****   uint32_t      s17;
 399:./lib/chibios/os/common/ports/ARMCMx/chcore_v7m.h ****   uint32_t      s18;
 400:./lib/chibios/os/common/ports/ARMCMx/chcore_v7m.h ****   uint32_t      s19;
 401:./lib/chibios/os/common/ports/ARMCMx/chcore_v7m.h ****   uint32_t      s20;
 402:./lib/chibios/os/common/ports/ARMCMx/chcore_v7m.h ****   uint32_t      s21;
 403:./lib/chibios/os/common/ports/ARMCMx/chcore_v7m.h ****   uint32_t      s22;
 404:./lib/chibios/os/common/ports/ARMCMx/chcore_v7m.h ****   uint32_t      s23;
 405:./lib/chibios/os/common/ports/ARMCMx/chcore_v7m.h ****   uint32_t      s24;
 406:./lib/chibios/os/common/ports/ARMCMx/chcore_v7m.h ****   uint32_t      s25;
 407:./lib/chibios/os/common/ports/ARMCMx/chcore_v7m.h ****   uint32_t      s26;
 408:./lib/chibios/os/common/ports/ARMCMx/chcore_v7m.h ****   uint32_t      s27;
 409:./lib/chibios/os/common/ports/ARMCMx/chcore_v7m.h ****   uint32_t      s28;
 410:./lib/chibios/os/common/ports/ARMCMx/chcore_v7m.h ****   uint32_t      s29;
 411:./lib/chibios/os/common/ports/ARMCMx/chcore_v7m.h ****   uint32_t      s30;
 412:./lib/chibios/os/common/ports/ARMCMx/chcore_v7m.h ****   uint32_t      s31;
 413:./lib/chibios/os/common/ports/ARMCMx/chcore_v7m.h **** #endif /* CORTEX_USE_FPU */
 414:./lib/chibios/os/common/ports/ARMCMx/chcore_v7m.h ****   uint32_t      r4;
 415:./lib/chibios/os/common/ports/ARMCMx/chcore_v7m.h ****   uint32_t      r5;
 416:./lib/chibios/os/common/ports/ARMCMx/chcore_v7m.h ****   uint32_t      r6;
 417:./lib/chibios/os/common/ports/ARMCMx/chcore_v7m.h ****   uint32_t      r7;
 418:./lib/chibios/os/common/ports/ARMCMx/chcore_v7m.h ****   uint32_t      r8;
 419:./lib/chibios/os/common/ports/ARMCMx/chcore_v7m.h ****   uint32_t      r9;
 420:./lib/chibios/os/common/ports/ARMCMx/chcore_v7m.h ****   uint32_t      r10;
 421:./lib/chibios/os/common/ports/ARMCMx/chcore_v7m.h ****   uint32_t      r11;
 422:./lib/chibios/os/common/ports/ARMCMx/chcore_v7m.h ****   uint32_t      lr;
 423:./lib/chibios/os/common/ports/ARMCMx/chcore_v7m.h **** };
 424:./lib/chibios/os/common/ports/ARMCMx/chcore_v7m.h **** 
 425:./lib/chibios/os/common/ports/ARMCMx/chcore_v7m.h **** struct port_context {
 426:./lib/chibios/os/common/ports/ARMCMx/chcore_v7m.h ****   struct port_intctx    *sp;
 427:./lib/chibios/os/common/ports/ARMCMx/chcore_v7m.h **** #if (PORT_USE_SYSCALL == TRUE) || defined(__DOXYGEN__)
 428:./lib/chibios/os/common/ports/ARMCMx/chcore_v7m.h ****   struct {
 429:./lib/chibios/os/common/ports/ARMCMx/chcore_v7m.h ****     uint32_t            psp;
 430:./lib/chibios/os/common/ports/ARMCMx/chcore_v7m.h ****     const void          *p;
 431:./lib/chibios/os/common/ports/ARMCMx/chcore_v7m.h ****   } syscall;
 432:./lib/chibios/os/common/ports/ARMCMx/chcore_v7m.h **** #endif
 433:./lib/chibios/os/common/ports/ARMCMx/chcore_v7m.h **** };
 434:./lib/chibios/os/common/ports/ARMCMx/chcore_v7m.h **** #endif /* !defined(__DOXYGEN__) */
 435:./lib/chibios/os/common/ports/ARMCMx/chcore_v7m.h **** 
 436:./lib/chibios/os/common/ports/ARMCMx/chcore_v7m.h **** /*===========================================================================*/
 437:./lib/chibios/os/common/ports/ARMCMx/chcore_v7m.h **** /* Module macros.                                                            */
 438:./lib/chibios/os/common/ports/ARMCMx/chcore_v7m.h **** /*===========================================================================*/
 439:./lib/chibios/os/common/ports/ARMCMx/chcore_v7m.h **** 
 440:./lib/chibios/os/common/ports/ARMCMx/chcore_v7m.h **** /* By default threads have no syscall context information.*/
 441:./lib/chibios/os/common/ports/ARMCMx/chcore_v7m.h **** #if (PORT_USE_SYSCALL == TRUE) || defined(__DOXYGEN__)
 442:./lib/chibios/os/common/ports/ARMCMx/chcore_v7m.h **** #define __PORT_SETUP_CONTEXT_SYSCALL(tp, wtop)                              \
 443:./lib/chibios/os/common/ports/ARMCMx/chcore_v7m.h ****   (tp)->ctx.syscall.psp = (uint32_t)(wtop);                                 \
 444:./lib/chibios/os/common/ports/ARMCMx/chcore_v7m.h ****   (tp)->ctx.syscall.p   = NULL;
 445:./lib/chibios/os/common/ports/ARMCMx/chcore_v7m.h **** #else
 446:./lib/chibios/os/common/ports/ARMCMx/chcore_v7m.h **** #define __PORT_SETUP_CONTEXT_SYSCALL(tp, wtop)
 447:./lib/chibios/os/common/ports/ARMCMx/chcore_v7m.h **** #endif
 448:./lib/chibios/os/common/ports/ARMCMx/chcore_v7m.h **** 
 449:./lib/chibios/os/common/ports/ARMCMx/chcore_v7m.h **** /* By default threads have all regions disabled.*/
 450:./lib/chibios/os/common/ports/ARMCMx/chcore_v7m.h **** #if (PORT_SWITCHED_REGIONS_NUMBER == 0) || defined(__DOXYGEN__)
 451:./lib/chibios/os/common/ports/ARMCMx/chcore_v7m.h **** #define __PORT_SETUP_CONTEXT_MPU(tp)
 452:./lib/chibios/os/common/ports/ARMCMx/chcore_v7m.h **** #elif (PORT_SWITCHED_REGIONS_NUMBER == 1) || defined(__DOXYGEN__)
 453:./lib/chibios/os/common/ports/ARMCMx/chcore_v7m.h **** #define __PORT_SETUP_CONTEXT_MPU(tp)                                        \
 454:./lib/chibios/os/common/ports/ARMCMx/chcore_v7m.h ****   (tp)->ctx.sp->regions[0].rbar  = 0U;                                      \
 455:./lib/chibios/os/common/ports/ARMCMx/chcore_v7m.h ****   (tp)->ctx.sp->regions[0].rasr  = 0U
 456:./lib/chibios/os/common/ports/ARMCMx/chcore_v7m.h **** #elif (PORT_SWITCHED_REGIONS_NUMBER == 2) || defined(__DOXYGEN__)
 457:./lib/chibios/os/common/ports/ARMCMx/chcore_v7m.h **** #define __PORT_SETUP_CONTEXT_MPU(tp)                                        \
 458:./lib/chibios/os/common/ports/ARMCMx/chcore_v7m.h ****   (tp)->ctx.sp->regions[0].rbar  = 0U;                                      \
 459:./lib/chibios/os/common/ports/ARMCMx/chcore_v7m.h ****   (tp)->ctx.sp->regions[0].rasr  = 0U;                                      \
 460:./lib/chibios/os/common/ports/ARMCMx/chcore_v7m.h ****   (tp)->ctx.sp->regions[1].rbar  = 0U;                                      \
 461:./lib/chibios/os/common/ports/ARMCMx/chcore_v7m.h ****   (tp)->ctx.sp->regions[1].rasr  = 0U
 462:./lib/chibios/os/common/ports/ARMCMx/chcore_v7m.h **** #elif (PORT_SWITCHED_REGIONS_NUMBER == 3) || defined(__DOXYGEN__)
 463:./lib/chibios/os/common/ports/ARMCMx/chcore_v7m.h **** #define __PORT_SETUP_CONTEXT_MPU(tp)                                        \
 464:./lib/chibios/os/common/ports/ARMCMx/chcore_v7m.h ****   (tp)->ctx.sp->regions[0].rbar  = 0U;                                      \
 465:./lib/chibios/os/common/ports/ARMCMx/chcore_v7m.h ****   (tp)->ctx.sp->regions[0].rasr  = 0U;                                      \
 466:./lib/chibios/os/common/ports/ARMCMx/chcore_v7m.h ****   (tp)->ctx.sp->regions[1].rbar  = 0U;                                      \
 467:./lib/chibios/os/common/ports/ARMCMx/chcore_v7m.h ****   (tp)->ctx.sp->regions[1].rasr  = 0U;                                      \
 468:./lib/chibios/os/common/ports/ARMCMx/chcore_v7m.h ****   (tp)->ctx.sp->regions[2].rbar  = 0U;                                      \
 469:./lib/chibios/os/common/ports/ARMCMx/chcore_v7m.h ****   (tp)->ctx.sp->regions[2].rasr  = 0U
 470:./lib/chibios/os/common/ports/ARMCMx/chcore_v7m.h **** #elif (PORT_SWITCHED_REGIONS_NUMBER == 4) || defined(__DOXYGEN__)
 471:./lib/chibios/os/common/ports/ARMCMx/chcore_v7m.h **** #define __PORT_SETUP_CONTEXT_MPU(tp)                                        \
 472:./lib/chibios/os/common/ports/ARMCMx/chcore_v7m.h ****   (tp)->ctx.sp->regions[0].rbar  = 0U;                                      \
 473:./lib/chibios/os/common/ports/ARMCMx/chcore_v7m.h ****   (tp)->ctx.sp->regions[0].rasr  = 0U;                                      \
 474:./lib/chibios/os/common/ports/ARMCMx/chcore_v7m.h ****   (tp)->ctx.sp->regions[1].rbar  = 0U;                                      \
 475:./lib/chibios/os/common/ports/ARMCMx/chcore_v7m.h ****   (tp)->ctx.sp->regions[1].rasr  = 0U;                                      \
 476:./lib/chibios/os/common/ports/ARMCMx/chcore_v7m.h ****   (tp)->ctx.sp->regions[2].rbar  = 0U;                                      \
 477:./lib/chibios/os/common/ports/ARMCMx/chcore_v7m.h ****   (tp)->ctx.sp->regions[2].rasr  = 0U;                                      \
 478:./lib/chibios/os/common/ports/ARMCMx/chcore_v7m.h ****   (tp)->ctx.sp->regions[3].rbar  = 0U;                                      \
 479:./lib/chibios/os/common/ports/ARMCMx/chcore_v7m.h ****   (tp)->ctx.sp->regions[3].rasr  = 0U
 480:./lib/chibios/os/common/ports/ARMCMx/chcore_v7m.h **** #else
 481:./lib/chibios/os/common/ports/ARMCMx/chcore_v7m.h **** #endif
 482:./lib/chibios/os/common/ports/ARMCMx/chcore_v7m.h **** 
 483:./lib/chibios/os/common/ports/ARMCMx/chcore_v7m.h **** /**
 484:./lib/chibios/os/common/ports/ARMCMx/chcore_v7m.h ****  * @brief   Platform dependent part of the @p chThdCreateI() API.
 485:./lib/chibios/os/common/ports/ARMCMx/chcore_v7m.h ****  * @details This code usually setup the context switching frame represented
 486:./lib/chibios/os/common/ports/ARMCMx/chcore_v7m.h ****  *          by an @p port_intctx structure.
 487:./lib/chibios/os/common/ports/ARMCMx/chcore_v7m.h ****  */
 488:./lib/chibios/os/common/ports/ARMCMx/chcore_v7m.h **** #define PORT_SETUP_CONTEXT(tp, wbase, wtop, pf, arg) {                      \
 489:./lib/chibios/os/common/ports/ARMCMx/chcore_v7m.h ****   (tp)->ctx.sp = (struct port_intctx *)((uint8_t *)(wtop) -                 \
 490:./lib/chibios/os/common/ports/ARMCMx/chcore_v7m.h ****                                         sizeof (struct port_intctx));       \
 491:./lib/chibios/os/common/ports/ARMCMx/chcore_v7m.h ****   (tp)->ctx.sp->r4 = (uint32_t)(pf);                                        \
 492:./lib/chibios/os/common/ports/ARMCMx/chcore_v7m.h ****   (tp)->ctx.sp->r5 = (uint32_t)(arg);                                       \
 493:./lib/chibios/os/common/ports/ARMCMx/chcore_v7m.h ****   (tp)->ctx.sp->lr = (uint32_t)_port_thread_start;                          \
 494:./lib/chibios/os/common/ports/ARMCMx/chcore_v7m.h ****   __PORT_SETUP_CONTEXT_MPU(tp);                                             \
 495:./lib/chibios/os/common/ports/ARMCMx/chcore_v7m.h ****   __PORT_SETUP_CONTEXT_SYSCALL(tp, wtop);                                   \
 496:./lib/chibios/os/common/ports/ARMCMx/chcore_v7m.h **** }
 497:./lib/chibios/os/common/ports/ARMCMx/chcore_v7m.h **** 
 498:./lib/chibios/os/common/ports/ARMCMx/chcore_v7m.h **** //  __PORT_SETUP_CONTEXT_MPU(tp)
 499:./lib/chibios/os/common/ports/ARMCMx/chcore_v7m.h **** 
 500:./lib/chibios/os/common/ports/ARMCMx/chcore_v7m.h **** /**
 501:./lib/chibios/os/common/ports/ARMCMx/chcore_v7m.h ****  * @brief   Computes the thread working area global size.
 502:./lib/chibios/os/common/ports/ARMCMx/chcore_v7m.h ****  * @note    There is no need to perform alignments in this macro.
 503:./lib/chibios/os/common/ports/ARMCMx/chcore_v7m.h ****  */
 504:./lib/chibios/os/common/ports/ARMCMx/chcore_v7m.h **** #define PORT_WA_SIZE(n) ((size_t)PORT_GUARD_PAGE_SIZE +                     \
 505:./lib/chibios/os/common/ports/ARMCMx/chcore_v7m.h ****                          sizeof (struct port_intctx) +                      \
 506:./lib/chibios/os/common/ports/ARMCMx/chcore_v7m.h ****                          sizeof (struct port_extctx) +                      \
 507:./lib/chibios/os/common/ports/ARMCMx/chcore_v7m.h ****                          (size_t)(n) +                                      \
 508:./lib/chibios/os/common/ports/ARMCMx/chcore_v7m.h ****                          (size_t)PORT_INT_REQUIRED_STACK)
 509:./lib/chibios/os/common/ports/ARMCMx/chcore_v7m.h **** 
 510:./lib/chibios/os/common/ports/ARMCMx/chcore_v7m.h **** /**
 511:./lib/chibios/os/common/ports/ARMCMx/chcore_v7m.h ****  * @brief   Static working area allocation.
 512:./lib/chibios/os/common/ports/ARMCMx/chcore_v7m.h ****  * @details This macro is used to allocate a static thread working area
 513:./lib/chibios/os/common/ports/ARMCMx/chcore_v7m.h ****  *          aligned as both position and size.
 514:./lib/chibios/os/common/ports/ARMCMx/chcore_v7m.h ****  *
 515:./lib/chibios/os/common/ports/ARMCMx/chcore_v7m.h ****  * @param[in] s         the name to be assigned to the stack array
 516:./lib/chibios/os/common/ports/ARMCMx/chcore_v7m.h ****  * @param[in] n         the stack size to be assigned to the thread
 517:./lib/chibios/os/common/ports/ARMCMx/chcore_v7m.h ****  */
 518:./lib/chibios/os/common/ports/ARMCMx/chcore_v7m.h **** #if (PORT_ENABLE_GUARD_PAGES == FALSE) || defined(__DOXYGEN__)
 519:./lib/chibios/os/common/ports/ARMCMx/chcore_v7m.h **** #define PORT_WORKING_AREA(s, n)                                             \
 520:./lib/chibios/os/common/ports/ARMCMx/chcore_v7m.h ****   stkalign_t s[THD_WORKING_AREA_SIZE(n) / sizeof (stkalign_t)]
 521:./lib/chibios/os/common/ports/ARMCMx/chcore_v7m.h **** #else
 522:./lib/chibios/os/common/ports/ARMCMx/chcore_v7m.h **** #define PORT_WORKING_AREA(s, n)                                             \
 523:./lib/chibios/os/common/ports/ARMCMx/chcore_v7m.h ****   ALIGNED_VAR(32) stkalign_t s[THD_WORKING_AREA_SIZE(n) / sizeof (stkalign_t)]
 524:./lib/chibios/os/common/ports/ARMCMx/chcore_v7m.h **** #endif
 525:./lib/chibios/os/common/ports/ARMCMx/chcore_v7m.h **** 
 526:./lib/chibios/os/common/ports/ARMCMx/chcore_v7m.h **** /**
 527:./lib/chibios/os/common/ports/ARMCMx/chcore_v7m.h ****  * @brief   IRQ prologue code.
 528:./lib/chibios/os/common/ports/ARMCMx/chcore_v7m.h ****  * @details This macro must be inserted at the start of all IRQ handlers
 529:./lib/chibios/os/common/ports/ARMCMx/chcore_v7m.h ****  *          enabled to invoke system APIs.
 530:./lib/chibios/os/common/ports/ARMCMx/chcore_v7m.h ****  */
 531:./lib/chibios/os/common/ports/ARMCMx/chcore_v7m.h **** #define PORT_IRQ_PROLOGUE()
 532:./lib/chibios/os/common/ports/ARMCMx/chcore_v7m.h **** 
 533:./lib/chibios/os/common/ports/ARMCMx/chcore_v7m.h **** /**
 534:./lib/chibios/os/common/ports/ARMCMx/chcore_v7m.h ****  * @brief   IRQ epilogue code.
 535:./lib/chibios/os/common/ports/ARMCMx/chcore_v7m.h ****  * @details This macro must be inserted at the end of all IRQ handlers
 536:./lib/chibios/os/common/ports/ARMCMx/chcore_v7m.h ****  *          enabled to invoke system APIs.
 537:./lib/chibios/os/common/ports/ARMCMx/chcore_v7m.h ****  */
 538:./lib/chibios/os/common/ports/ARMCMx/chcore_v7m.h **** #define PORT_IRQ_EPILOGUE() _port_irq_epilogue()
 539:./lib/chibios/os/common/ports/ARMCMx/chcore_v7m.h **** 
 540:./lib/chibios/os/common/ports/ARMCMx/chcore_v7m.h **** /**
 541:./lib/chibios/os/common/ports/ARMCMx/chcore_v7m.h ****  * @brief   IRQ handler function declaration.
 542:./lib/chibios/os/common/ports/ARMCMx/chcore_v7m.h ****  * @note    @p id can be a function name or a vector number depending on the
 543:./lib/chibios/os/common/ports/ARMCMx/chcore_v7m.h ****  *          port implementation.
 544:./lib/chibios/os/common/ports/ARMCMx/chcore_v7m.h ****  */
 545:./lib/chibios/os/common/ports/ARMCMx/chcore_v7m.h **** #ifdef __cplusplus
 546:./lib/chibios/os/common/ports/ARMCMx/chcore_v7m.h **** #define PORT_IRQ_HANDLER(id) extern "C" void id(void)
 547:./lib/chibios/os/common/ports/ARMCMx/chcore_v7m.h **** #else
 548:./lib/chibios/os/common/ports/ARMCMx/chcore_v7m.h **** #define PORT_IRQ_HANDLER(id) void id(void)
 549:./lib/chibios/os/common/ports/ARMCMx/chcore_v7m.h **** #endif
 550:./lib/chibios/os/common/ports/ARMCMx/chcore_v7m.h **** 
 551:./lib/chibios/os/common/ports/ARMCMx/chcore_v7m.h **** /**
 552:./lib/chibios/os/common/ports/ARMCMx/chcore_v7m.h ****  * @brief   Fast IRQ handler function declaration.
 553:./lib/chibios/os/common/ports/ARMCMx/chcore_v7m.h ****  * @note    @p id can be a function name or a vector number depending on the
 554:./lib/chibios/os/common/ports/ARMCMx/chcore_v7m.h ****  *          port implementation.
 555:./lib/chibios/os/common/ports/ARMCMx/chcore_v7m.h ****  */
 556:./lib/chibios/os/common/ports/ARMCMx/chcore_v7m.h **** #ifdef __cplusplus
 557:./lib/chibios/os/common/ports/ARMCMx/chcore_v7m.h **** #define PORT_FAST_IRQ_HANDLER(id) extern "C" void id(void)
 558:./lib/chibios/os/common/ports/ARMCMx/chcore_v7m.h **** #else
 559:./lib/chibios/os/common/ports/ARMCMx/chcore_v7m.h **** #define PORT_FAST_IRQ_HANDLER(id) void id(void)
 560:./lib/chibios/os/common/ports/ARMCMx/chcore_v7m.h **** #endif
 561:./lib/chibios/os/common/ports/ARMCMx/chcore_v7m.h **** 
 562:./lib/chibios/os/common/ports/ARMCMx/chcore_v7m.h **** /**
 563:./lib/chibios/os/common/ports/ARMCMx/chcore_v7m.h ****  * @brief   Performs a context switch between two threads.
 564:./lib/chibios/os/common/ports/ARMCMx/chcore_v7m.h ****  * @details This is the most critical code in any port, this function
 565:./lib/chibios/os/common/ports/ARMCMx/chcore_v7m.h ****  *          is responsible for the context switch between 2 threads.
 566:./lib/chibios/os/common/ports/ARMCMx/chcore_v7m.h ****  * @note    The implementation of this code affects <b>directly</b> the context
 567:./lib/chibios/os/common/ports/ARMCMx/chcore_v7m.h ****  *          switch performance so optimize here as much as you can.
 568:./lib/chibios/os/common/ports/ARMCMx/chcore_v7m.h ****  *
 569:./lib/chibios/os/common/ports/ARMCMx/chcore_v7m.h ****  * @param[in] ntp       the thread to be switched in
 570:./lib/chibios/os/common/ports/ARMCMx/chcore_v7m.h ****  * @param[in] otp       the thread to be switched out
 571:./lib/chibios/os/common/ports/ARMCMx/chcore_v7m.h ****  */
 572:./lib/chibios/os/common/ports/ARMCMx/chcore_v7m.h **** #if (CH_DBG_ENABLE_STACK_CHECK == FALSE) || defined(__DOXYGEN__)
 573:./lib/chibios/os/common/ports/ARMCMx/chcore_v7m.h **** #define port_switch(ntp, otp) _port_switch(ntp, otp)
 574:./lib/chibios/os/common/ports/ARMCMx/chcore_v7m.h **** #else
 575:./lib/chibios/os/common/ports/ARMCMx/chcore_v7m.h **** #if PORT_ENABLE_GUARD_PAGES == FALSE
 576:./lib/chibios/os/common/ports/ARMCMx/chcore_v7m.h **** #define port_switch(ntp, otp) {                                             \
 577:./lib/chibios/os/common/ports/ARMCMx/chcore_v7m.h ****   struct port_intctx *r13 = (struct port_intctx *)__get_PSP();              \
 578:./lib/chibios/os/common/ports/ARMCMx/chcore_v7m.h ****   if ((stkalign_t *)(r13 - 1) < (otp)->wabase) {                            \
 579:./lib/chibios/os/common/ports/ARMCMx/chcore_v7m.h ****     chSysHalt("stack overflow");                                            \
 580:./lib/chibios/os/common/ports/ARMCMx/chcore_v7m.h ****   }                                                                         \
 581:./lib/chibios/os/common/ports/ARMCMx/chcore_v7m.h ****   _port_switch(ntp, otp);                                                   \
 582:./lib/chibios/os/common/ports/ARMCMx/chcore_v7m.h **** }
 583:./lib/chibios/os/common/ports/ARMCMx/chcore_v7m.h **** #else
 584:./lib/chibios/os/common/ports/ARMCMx/chcore_v7m.h **** #define port_switch(ntp, otp) {                                             \
 585:./lib/chibios/os/common/ports/ARMCMx/chcore_v7m.h ****   _port_switch(ntp, otp);                                                   \
 586:./lib/chibios/os/common/ports/ARMCMx/chcore_v7m.h ****                                                                             \
 587:./lib/chibios/os/common/ports/ARMCMx/chcore_v7m.h ****   /* Setting up the guard page for the switched-in thread.*/                \
 588:./lib/chibios/os/common/ports/ARMCMx/chcore_v7m.h ****   mpuSetRegionAddress(PORT_USE_GUARD_MPU_REGION,                            \
 589:./lib/chibios/os/common/ports/ARMCMx/chcore_v7m.h ****                       chThdGetSelfX()->wabase);                             \
 590:./lib/chibios/os/common/ports/ARMCMx/chcore_v7m.h **** }
 591:./lib/chibios/os/common/ports/ARMCMx/chcore_v7m.h **** #endif
 592:./lib/chibios/os/common/ports/ARMCMx/chcore_v7m.h **** #endif
 593:./lib/chibios/os/common/ports/ARMCMx/chcore_v7m.h **** 
 594:./lib/chibios/os/common/ports/ARMCMx/chcore_v7m.h **** /*===========================================================================*/
 595:./lib/chibios/os/common/ports/ARMCMx/chcore_v7m.h **** /* External declarations.                                                    */
 596:./lib/chibios/os/common/ports/ARMCMx/chcore_v7m.h **** /*===========================================================================*/
 597:./lib/chibios/os/common/ports/ARMCMx/chcore_v7m.h **** 
 598:./lib/chibios/os/common/ports/ARMCMx/chcore_v7m.h **** #ifdef __cplusplus
 599:./lib/chibios/os/common/ports/ARMCMx/chcore_v7m.h **** extern "C" {
 600:./lib/chibios/os/common/ports/ARMCMx/chcore_v7m.h **** #endif
 601:./lib/chibios/os/common/ports/ARMCMx/chcore_v7m.h ****   void port_init(void);
 602:./lib/chibios/os/common/ports/ARMCMx/chcore_v7m.h ****   void _port_irq_epilogue(void);
 603:./lib/chibios/os/common/ports/ARMCMx/chcore_v7m.h ****   void _port_switch(thread_t *ntp, thread_t *otp);
 604:./lib/chibios/os/common/ports/ARMCMx/chcore_v7m.h ****   void _port_thread_start(void);
 605:./lib/chibios/os/common/ports/ARMCMx/chcore_v7m.h ****   void _port_switch_from_isr(void);
 606:./lib/chibios/os/common/ports/ARMCMx/chcore_v7m.h ****   void _port_exit_from_isr(void);
 607:./lib/chibios/os/common/ports/ARMCMx/chcore_v7m.h **** #if PORT_USE_SYSCALL == TRUE
 608:./lib/chibios/os/common/ports/ARMCMx/chcore_v7m.h ****   void port_unprivileged_jump(uint32_t pc, uint32_t psp);
 609:./lib/chibios/os/common/ports/ARMCMx/chcore_v7m.h **** #endif
 610:./lib/chibios/os/common/ports/ARMCMx/chcore_v7m.h **** #ifdef __cplusplus
 611:./lib/chibios/os/common/ports/ARMCMx/chcore_v7m.h **** }
 612:./lib/chibios/os/common/ports/ARMCMx/chcore_v7m.h **** #endif
 613:./lib/chibios/os/common/ports/ARMCMx/chcore_v7m.h **** 
 614:./lib/chibios/os/common/ports/ARMCMx/chcore_v7m.h **** /*===========================================================================*/
 615:./lib/chibios/os/common/ports/ARMCMx/chcore_v7m.h **** /* Module inline functions.                                                  */
 616:./lib/chibios/os/common/ports/ARMCMx/chcore_v7m.h **** /*===========================================================================*/
 617:./lib/chibios/os/common/ports/ARMCMx/chcore_v7m.h **** 
 618:./lib/chibios/os/common/ports/ARMCMx/chcore_v7m.h **** /**
 619:./lib/chibios/os/common/ports/ARMCMx/chcore_v7m.h ****  * @brief   Returns a word encoding the current interrupts status.
 620:./lib/chibios/os/common/ports/ARMCMx/chcore_v7m.h ****  *
 621:./lib/chibios/os/common/ports/ARMCMx/chcore_v7m.h ****  * @return              The interrupts status.
 622:./lib/chibios/os/common/ports/ARMCMx/chcore_v7m.h ****  */
 623:./lib/chibios/os/common/ports/ARMCMx/chcore_v7m.h **** __STATIC_FORCEINLINE syssts_t port_get_irq_status(void) {
 624:./lib/chibios/os/common/ports/ARMCMx/chcore_v7m.h ****   syssts_t sts;
 625:./lib/chibios/os/common/ports/ARMCMx/chcore_v7m.h **** 
 626:./lib/chibios/os/common/ports/ARMCMx/chcore_v7m.h **** #if CORTEX_SIMPLIFIED_PRIORITY == FALSE
 627:./lib/chibios/os/common/ports/ARMCMx/chcore_v7m.h ****   sts = (syssts_t)__get_BASEPRI();
 628:./lib/chibios/os/common/ports/ARMCMx/chcore_v7m.h **** #else /* CORTEX_SIMPLIFIED_PRIORITY */
 629:./lib/chibios/os/common/ports/ARMCMx/chcore_v7m.h ****   sts = (syssts_t)__get_PRIMASK();
 630:./lib/chibios/os/common/ports/ARMCMx/chcore_v7m.h **** #endif /* CORTEX_SIMPLIFIED_PRIORITY */
 631:./lib/chibios/os/common/ports/ARMCMx/chcore_v7m.h ****   return sts;
 632:./lib/chibios/os/common/ports/ARMCMx/chcore_v7m.h **** }
 633:./lib/chibios/os/common/ports/ARMCMx/chcore_v7m.h **** 
 634:./lib/chibios/os/common/ports/ARMCMx/chcore_v7m.h **** /**
 635:./lib/chibios/os/common/ports/ARMCMx/chcore_v7m.h ****  * @brief   Checks the interrupt status.
 636:./lib/chibios/os/common/ports/ARMCMx/chcore_v7m.h ****  *
 637:./lib/chibios/os/common/ports/ARMCMx/chcore_v7m.h ****  * @param[in] sts       the interrupt status word
 638:./lib/chibios/os/common/ports/ARMCMx/chcore_v7m.h ****  *
 639:./lib/chibios/os/common/ports/ARMCMx/chcore_v7m.h ****  * @return              The interrupt status.
 640:./lib/chibios/os/common/ports/ARMCMx/chcore_v7m.h ****  * @retval false        the word specified a disabled interrupts status.
 641:./lib/chibios/os/common/ports/ARMCMx/chcore_v7m.h ****  * @retval true         the word specified an enabled interrupts status.
 642:./lib/chibios/os/common/ports/ARMCMx/chcore_v7m.h ****  */
 643:./lib/chibios/os/common/ports/ARMCMx/chcore_v7m.h **** __STATIC_FORCEINLINE bool port_irq_enabled(syssts_t sts) {
 644:./lib/chibios/os/common/ports/ARMCMx/chcore_v7m.h **** 
 645:./lib/chibios/os/common/ports/ARMCMx/chcore_v7m.h **** #if CORTEX_SIMPLIFIED_PRIORITY == FALSE
 646:./lib/chibios/os/common/ports/ARMCMx/chcore_v7m.h ****   return sts == (syssts_t)CORTEX_BASEPRI_DISABLED;
 647:./lib/chibios/os/common/ports/ARMCMx/chcore_v7m.h **** #else /* CORTEX_SIMPLIFIED_PRIORITY */
 648:./lib/chibios/os/common/ports/ARMCMx/chcore_v7m.h ****   return (sts & (syssts_t)1) == (syssts_t)0;
 649:./lib/chibios/os/common/ports/ARMCMx/chcore_v7m.h **** #endif /* CORTEX_SIMPLIFIED_PRIORITY */
 650:./lib/chibios/os/common/ports/ARMCMx/chcore_v7m.h **** }
 651:./lib/chibios/os/common/ports/ARMCMx/chcore_v7m.h **** 
 652:./lib/chibios/os/common/ports/ARMCMx/chcore_v7m.h **** /**
 653:./lib/chibios/os/common/ports/ARMCMx/chcore_v7m.h ****  * @brief   Determines the current execution context.
 654:./lib/chibios/os/common/ports/ARMCMx/chcore_v7m.h ****  *
 655:./lib/chibios/os/common/ports/ARMCMx/chcore_v7m.h ****  * @return              The execution context.
 656:./lib/chibios/os/common/ports/ARMCMx/chcore_v7m.h ****  * @retval false        not running in ISR mode.
 657:./lib/chibios/os/common/ports/ARMCMx/chcore_v7m.h ****  * @retval true         running in ISR mode.
 658:./lib/chibios/os/common/ports/ARMCMx/chcore_v7m.h ****  */
 659:./lib/chibios/os/common/ports/ARMCMx/chcore_v7m.h **** __STATIC_FORCEINLINE bool port_is_isr_context(void) {
 660:./lib/chibios/os/common/ports/ARMCMx/chcore_v7m.h **** 
 661:./lib/chibios/os/common/ports/ARMCMx/chcore_v7m.h ****   return (bool)((__get_IPSR() & 0x1FFU) != 0U);
 662:./lib/chibios/os/common/ports/ARMCMx/chcore_v7m.h **** }
 663:./lib/chibios/os/common/ports/ARMCMx/chcore_v7m.h **** 
 664:./lib/chibios/os/common/ports/ARMCMx/chcore_v7m.h **** /**
 665:./lib/chibios/os/common/ports/ARMCMx/chcore_v7m.h ****  * @brief   Kernel-lock action.
 666:./lib/chibios/os/common/ports/ARMCMx/chcore_v7m.h ****  * @details In this port this function raises the base priority to kernel
 667:./lib/chibios/os/common/ports/ARMCMx/chcore_v7m.h ****  *          level.
 668:./lib/chibios/os/common/ports/ARMCMx/chcore_v7m.h ****  */
 669:./lib/chibios/os/common/ports/ARMCMx/chcore_v7m.h **** __STATIC_FORCEINLINE void port_lock(void) {
 182              		.loc 3 669 27 view .LVU65
 670:./lib/chibios/os/common/ports/ARMCMx/chcore_v7m.h **** 
 671:./lib/chibios/os/common/ports/ARMCMx/chcore_v7m.h **** #if CORTEX_SIMPLIFIED_PRIORITY == FALSE
 672:./lib/chibios/os/common/ports/ARMCMx/chcore_v7m.h **** #if defined(__CM7_REV)
 673:./lib/chibios/os/common/ports/ARMCMx/chcore_v7m.h **** #if __CM7_REV <= 1
 674:./lib/chibios/os/common/ports/ARMCMx/chcore_v7m.h ****   __disable_irq();
 675:./lib/chibios/os/common/ports/ARMCMx/chcore_v7m.h **** #endif
 676:./lib/chibios/os/common/ports/ARMCMx/chcore_v7m.h **** #endif
 677:./lib/chibios/os/common/ports/ARMCMx/chcore_v7m.h ****   __set_BASEPRI(CORTEX_BASEPRI_KERNEL);
 183              		.loc 3 677 3 view .LVU66
 184              	.LBB167:
 185              	.LBI167:
 186              		.file 4 "./lib/chibios/os/common/ext/ARM/CMSIS/Core/Include/cmsis_gcc.h"
   1:./lib/chibios/os/common/ext/ARM/CMSIS/Core/Include/cmsis_gcc.h **** /**************************************************************************//**
   2:./lib/chibios/os/common/ext/ARM/CMSIS/Core/Include/cmsis_gcc.h ****  * @file     cmsis_gcc.h
   3:./lib/chibios/os/common/ext/ARM/CMSIS/Core/Include/cmsis_gcc.h ****  * @brief    CMSIS compiler GCC header file
   4:./lib/chibios/os/common/ext/ARM/CMSIS/Core/Include/cmsis_gcc.h ****  * @version  V5.0.4
   5:./lib/chibios/os/common/ext/ARM/CMSIS/Core/Include/cmsis_gcc.h ****  * @date     09. April 2018
   6:./lib/chibios/os/common/ext/ARM/CMSIS/Core/Include/cmsis_gcc.h ****  ******************************************************************************/
   7:./lib/chibios/os/common/ext/ARM/CMSIS/Core/Include/cmsis_gcc.h **** /*
   8:./lib/chibios/os/common/ext/ARM/CMSIS/Core/Include/cmsis_gcc.h ****  * Copyright (c) 2009-2018 Arm Limited. All rights reserved.
   9:./lib/chibios/os/common/ext/ARM/CMSIS/Core/Include/cmsis_gcc.h ****  *
  10:./lib/chibios/os/common/ext/ARM/CMSIS/Core/Include/cmsis_gcc.h ****  * SPDX-License-Identifier: Apache-2.0
  11:./lib/chibios/os/common/ext/ARM/CMSIS/Core/Include/cmsis_gcc.h ****  *
  12:./lib/chibios/os/common/ext/ARM/CMSIS/Core/Include/cmsis_gcc.h ****  * Licensed under the Apache License, Version 2.0 (the License); you may
  13:./lib/chibios/os/common/ext/ARM/CMSIS/Core/Include/cmsis_gcc.h ****  * not use this file except in compliance with the License.
  14:./lib/chibios/os/common/ext/ARM/CMSIS/Core/Include/cmsis_gcc.h ****  * You may obtain a copy of the License at
  15:./lib/chibios/os/common/ext/ARM/CMSIS/Core/Include/cmsis_gcc.h ****  *
  16:./lib/chibios/os/common/ext/ARM/CMSIS/Core/Include/cmsis_gcc.h ****  * www.apache.org/licenses/LICENSE-2.0
  17:./lib/chibios/os/common/ext/ARM/CMSIS/Core/Include/cmsis_gcc.h ****  *
  18:./lib/chibios/os/common/ext/ARM/CMSIS/Core/Include/cmsis_gcc.h ****  * Unless required by applicable law or agreed to in writing, software
  19:./lib/chibios/os/common/ext/ARM/CMSIS/Core/Include/cmsis_gcc.h ****  * distributed under the License is distributed on an AS IS BASIS, WITHOUT
  20:./lib/chibios/os/common/ext/ARM/CMSIS/Core/Include/cmsis_gcc.h ****  * WARRANTIES OR CONDITIONS OF ANY KIND, either express or implied.
  21:./lib/chibios/os/common/ext/ARM/CMSIS/Core/Include/cmsis_gcc.h ****  * See the License for the specific language governing permissions and
  22:./lib/chibios/os/common/ext/ARM/CMSIS/Core/Include/cmsis_gcc.h ****  * limitations under the License.
  23:./lib/chibios/os/common/ext/ARM/CMSIS/Core/Include/cmsis_gcc.h ****  */
  24:./lib/chibios/os/common/ext/ARM/CMSIS/Core/Include/cmsis_gcc.h **** 
  25:./lib/chibios/os/common/ext/ARM/CMSIS/Core/Include/cmsis_gcc.h **** #ifndef __CMSIS_GCC_H
  26:./lib/chibios/os/common/ext/ARM/CMSIS/Core/Include/cmsis_gcc.h **** #define __CMSIS_GCC_H
  27:./lib/chibios/os/common/ext/ARM/CMSIS/Core/Include/cmsis_gcc.h **** 
  28:./lib/chibios/os/common/ext/ARM/CMSIS/Core/Include/cmsis_gcc.h **** /* ignore some GCC warnings */
  29:./lib/chibios/os/common/ext/ARM/CMSIS/Core/Include/cmsis_gcc.h **** #pragma GCC diagnostic push
  30:./lib/chibios/os/common/ext/ARM/CMSIS/Core/Include/cmsis_gcc.h **** #pragma GCC diagnostic ignored "-Wsign-conversion"
  31:./lib/chibios/os/common/ext/ARM/CMSIS/Core/Include/cmsis_gcc.h **** #pragma GCC diagnostic ignored "-Wconversion"
  32:./lib/chibios/os/common/ext/ARM/CMSIS/Core/Include/cmsis_gcc.h **** #pragma GCC diagnostic ignored "-Wunused-parameter"
  33:./lib/chibios/os/common/ext/ARM/CMSIS/Core/Include/cmsis_gcc.h **** 
  34:./lib/chibios/os/common/ext/ARM/CMSIS/Core/Include/cmsis_gcc.h **** /* Fallback for __has_builtin */
  35:./lib/chibios/os/common/ext/ARM/CMSIS/Core/Include/cmsis_gcc.h **** #ifndef __has_builtin
  36:./lib/chibios/os/common/ext/ARM/CMSIS/Core/Include/cmsis_gcc.h ****   #define __has_builtin(x) (0)
  37:./lib/chibios/os/common/ext/ARM/CMSIS/Core/Include/cmsis_gcc.h **** #endif
  38:./lib/chibios/os/common/ext/ARM/CMSIS/Core/Include/cmsis_gcc.h **** 
  39:./lib/chibios/os/common/ext/ARM/CMSIS/Core/Include/cmsis_gcc.h **** /* CMSIS compiler specific defines */
  40:./lib/chibios/os/common/ext/ARM/CMSIS/Core/Include/cmsis_gcc.h **** #ifndef   __ASM
  41:./lib/chibios/os/common/ext/ARM/CMSIS/Core/Include/cmsis_gcc.h ****   #define __ASM                                  __asm
  42:./lib/chibios/os/common/ext/ARM/CMSIS/Core/Include/cmsis_gcc.h **** #endif
  43:./lib/chibios/os/common/ext/ARM/CMSIS/Core/Include/cmsis_gcc.h **** #ifndef   __INLINE
  44:./lib/chibios/os/common/ext/ARM/CMSIS/Core/Include/cmsis_gcc.h ****   #define __INLINE                               inline
  45:./lib/chibios/os/common/ext/ARM/CMSIS/Core/Include/cmsis_gcc.h **** #endif
  46:./lib/chibios/os/common/ext/ARM/CMSIS/Core/Include/cmsis_gcc.h **** #ifndef   __STATIC_INLINE
  47:./lib/chibios/os/common/ext/ARM/CMSIS/Core/Include/cmsis_gcc.h ****   #define __STATIC_INLINE                        static inline
  48:./lib/chibios/os/common/ext/ARM/CMSIS/Core/Include/cmsis_gcc.h **** #endif
  49:./lib/chibios/os/common/ext/ARM/CMSIS/Core/Include/cmsis_gcc.h **** #ifndef   __STATIC_FORCEINLINE                 
  50:./lib/chibios/os/common/ext/ARM/CMSIS/Core/Include/cmsis_gcc.h ****   #define __STATIC_FORCEINLINE                   __attribute__((always_inline)) static inline
  51:./lib/chibios/os/common/ext/ARM/CMSIS/Core/Include/cmsis_gcc.h **** #endif                                           
  52:./lib/chibios/os/common/ext/ARM/CMSIS/Core/Include/cmsis_gcc.h **** #ifndef   __NO_RETURN
  53:./lib/chibios/os/common/ext/ARM/CMSIS/Core/Include/cmsis_gcc.h ****   #define __NO_RETURN                            __attribute__((__noreturn__))
  54:./lib/chibios/os/common/ext/ARM/CMSIS/Core/Include/cmsis_gcc.h **** #endif
  55:./lib/chibios/os/common/ext/ARM/CMSIS/Core/Include/cmsis_gcc.h **** #ifndef   __USED
  56:./lib/chibios/os/common/ext/ARM/CMSIS/Core/Include/cmsis_gcc.h ****   #define __USED                                 __attribute__((used))
  57:./lib/chibios/os/common/ext/ARM/CMSIS/Core/Include/cmsis_gcc.h **** #endif
  58:./lib/chibios/os/common/ext/ARM/CMSIS/Core/Include/cmsis_gcc.h **** #ifndef   __WEAK
  59:./lib/chibios/os/common/ext/ARM/CMSIS/Core/Include/cmsis_gcc.h ****   #define __WEAK                                 __attribute__((weak))
  60:./lib/chibios/os/common/ext/ARM/CMSIS/Core/Include/cmsis_gcc.h **** #endif
  61:./lib/chibios/os/common/ext/ARM/CMSIS/Core/Include/cmsis_gcc.h **** #ifndef   __PACKED
  62:./lib/chibios/os/common/ext/ARM/CMSIS/Core/Include/cmsis_gcc.h ****   #define __PACKED                               __attribute__((packed, aligned(1)))
  63:./lib/chibios/os/common/ext/ARM/CMSIS/Core/Include/cmsis_gcc.h **** #endif
  64:./lib/chibios/os/common/ext/ARM/CMSIS/Core/Include/cmsis_gcc.h **** #ifndef   __PACKED_STRUCT
  65:./lib/chibios/os/common/ext/ARM/CMSIS/Core/Include/cmsis_gcc.h ****   #define __PACKED_STRUCT                        struct __attribute__((packed, aligned(1)))
  66:./lib/chibios/os/common/ext/ARM/CMSIS/Core/Include/cmsis_gcc.h **** #endif
  67:./lib/chibios/os/common/ext/ARM/CMSIS/Core/Include/cmsis_gcc.h **** #ifndef   __PACKED_UNION
  68:./lib/chibios/os/common/ext/ARM/CMSIS/Core/Include/cmsis_gcc.h ****   #define __PACKED_UNION                         union __attribute__((packed, aligned(1)))
  69:./lib/chibios/os/common/ext/ARM/CMSIS/Core/Include/cmsis_gcc.h **** #endif
  70:./lib/chibios/os/common/ext/ARM/CMSIS/Core/Include/cmsis_gcc.h **** #ifndef   __UNALIGNED_UINT32        /* deprecated */
  71:./lib/chibios/os/common/ext/ARM/CMSIS/Core/Include/cmsis_gcc.h ****   #pragma GCC diagnostic push
  72:./lib/chibios/os/common/ext/ARM/CMSIS/Core/Include/cmsis_gcc.h ****   #pragma GCC diagnostic ignored "-Wpacked"
  73:./lib/chibios/os/common/ext/ARM/CMSIS/Core/Include/cmsis_gcc.h ****   #pragma GCC diagnostic ignored "-Wattributes"
  74:./lib/chibios/os/common/ext/ARM/CMSIS/Core/Include/cmsis_gcc.h ****   struct __attribute__((packed)) T_UINT32 { uint32_t v; };
  75:./lib/chibios/os/common/ext/ARM/CMSIS/Core/Include/cmsis_gcc.h ****   #pragma GCC diagnostic pop
  76:./lib/chibios/os/common/ext/ARM/CMSIS/Core/Include/cmsis_gcc.h ****   #define __UNALIGNED_UINT32(x)                  (((struct T_UINT32 *)(x))->v)
  77:./lib/chibios/os/common/ext/ARM/CMSIS/Core/Include/cmsis_gcc.h **** #endif
  78:./lib/chibios/os/common/ext/ARM/CMSIS/Core/Include/cmsis_gcc.h **** #ifndef   __UNALIGNED_UINT16_WRITE
  79:./lib/chibios/os/common/ext/ARM/CMSIS/Core/Include/cmsis_gcc.h ****   #pragma GCC diagnostic push
  80:./lib/chibios/os/common/ext/ARM/CMSIS/Core/Include/cmsis_gcc.h ****   #pragma GCC diagnostic ignored "-Wpacked"
  81:./lib/chibios/os/common/ext/ARM/CMSIS/Core/Include/cmsis_gcc.h ****   #pragma GCC diagnostic ignored "-Wattributes"
  82:./lib/chibios/os/common/ext/ARM/CMSIS/Core/Include/cmsis_gcc.h ****   __PACKED_STRUCT T_UINT16_WRITE { uint16_t v; };
  83:./lib/chibios/os/common/ext/ARM/CMSIS/Core/Include/cmsis_gcc.h ****   #pragma GCC diagnostic pop
  84:./lib/chibios/os/common/ext/ARM/CMSIS/Core/Include/cmsis_gcc.h ****   #define __UNALIGNED_UINT16_WRITE(addr, val)    (void)((((struct T_UINT16_WRITE *)(void *)(addr))-
  85:./lib/chibios/os/common/ext/ARM/CMSIS/Core/Include/cmsis_gcc.h **** #endif
  86:./lib/chibios/os/common/ext/ARM/CMSIS/Core/Include/cmsis_gcc.h **** #ifndef   __UNALIGNED_UINT16_READ
  87:./lib/chibios/os/common/ext/ARM/CMSIS/Core/Include/cmsis_gcc.h ****   #pragma GCC diagnostic push
  88:./lib/chibios/os/common/ext/ARM/CMSIS/Core/Include/cmsis_gcc.h ****   #pragma GCC diagnostic ignored "-Wpacked"
  89:./lib/chibios/os/common/ext/ARM/CMSIS/Core/Include/cmsis_gcc.h ****   #pragma GCC diagnostic ignored "-Wattributes"
  90:./lib/chibios/os/common/ext/ARM/CMSIS/Core/Include/cmsis_gcc.h ****   __PACKED_STRUCT T_UINT16_READ { uint16_t v; };
  91:./lib/chibios/os/common/ext/ARM/CMSIS/Core/Include/cmsis_gcc.h ****   #pragma GCC diagnostic pop
  92:./lib/chibios/os/common/ext/ARM/CMSIS/Core/Include/cmsis_gcc.h ****   #define __UNALIGNED_UINT16_READ(addr)          (((const struct T_UINT16_READ *)(const void *)(add
  93:./lib/chibios/os/common/ext/ARM/CMSIS/Core/Include/cmsis_gcc.h **** #endif
  94:./lib/chibios/os/common/ext/ARM/CMSIS/Core/Include/cmsis_gcc.h **** #ifndef   __UNALIGNED_UINT32_WRITE
  95:./lib/chibios/os/common/ext/ARM/CMSIS/Core/Include/cmsis_gcc.h ****   #pragma GCC diagnostic push
  96:./lib/chibios/os/common/ext/ARM/CMSIS/Core/Include/cmsis_gcc.h ****   #pragma GCC diagnostic ignored "-Wpacked"
  97:./lib/chibios/os/common/ext/ARM/CMSIS/Core/Include/cmsis_gcc.h ****   #pragma GCC diagnostic ignored "-Wattributes"
  98:./lib/chibios/os/common/ext/ARM/CMSIS/Core/Include/cmsis_gcc.h ****   __PACKED_STRUCT T_UINT32_WRITE { uint32_t v; };
  99:./lib/chibios/os/common/ext/ARM/CMSIS/Core/Include/cmsis_gcc.h ****   #pragma GCC diagnostic pop
 100:./lib/chibios/os/common/ext/ARM/CMSIS/Core/Include/cmsis_gcc.h ****   #define __UNALIGNED_UINT32_WRITE(addr, val)    (void)((((struct T_UINT32_WRITE *)(void *)(addr))-
 101:./lib/chibios/os/common/ext/ARM/CMSIS/Core/Include/cmsis_gcc.h **** #endif
 102:./lib/chibios/os/common/ext/ARM/CMSIS/Core/Include/cmsis_gcc.h **** #ifndef   __UNALIGNED_UINT32_READ
 103:./lib/chibios/os/common/ext/ARM/CMSIS/Core/Include/cmsis_gcc.h ****   #pragma GCC diagnostic push
 104:./lib/chibios/os/common/ext/ARM/CMSIS/Core/Include/cmsis_gcc.h ****   #pragma GCC diagnostic ignored "-Wpacked"
 105:./lib/chibios/os/common/ext/ARM/CMSIS/Core/Include/cmsis_gcc.h ****   #pragma GCC diagnostic ignored "-Wattributes"
 106:./lib/chibios/os/common/ext/ARM/CMSIS/Core/Include/cmsis_gcc.h ****   __PACKED_STRUCT T_UINT32_READ { uint32_t v; };
 107:./lib/chibios/os/common/ext/ARM/CMSIS/Core/Include/cmsis_gcc.h ****   #pragma GCC diagnostic pop
 108:./lib/chibios/os/common/ext/ARM/CMSIS/Core/Include/cmsis_gcc.h ****   #define __UNALIGNED_UINT32_READ(addr)          (((const struct T_UINT32_READ *)(const void *)(add
 109:./lib/chibios/os/common/ext/ARM/CMSIS/Core/Include/cmsis_gcc.h **** #endif
 110:./lib/chibios/os/common/ext/ARM/CMSIS/Core/Include/cmsis_gcc.h **** #ifndef   __ALIGNED
 111:./lib/chibios/os/common/ext/ARM/CMSIS/Core/Include/cmsis_gcc.h ****   #define __ALIGNED(x)                           __attribute__((aligned(x)))
 112:./lib/chibios/os/common/ext/ARM/CMSIS/Core/Include/cmsis_gcc.h **** #endif
 113:./lib/chibios/os/common/ext/ARM/CMSIS/Core/Include/cmsis_gcc.h **** #ifndef   __RESTRICT
 114:./lib/chibios/os/common/ext/ARM/CMSIS/Core/Include/cmsis_gcc.h ****   #define __RESTRICT                             __restrict
 115:./lib/chibios/os/common/ext/ARM/CMSIS/Core/Include/cmsis_gcc.h **** #endif
 116:./lib/chibios/os/common/ext/ARM/CMSIS/Core/Include/cmsis_gcc.h **** 
 117:./lib/chibios/os/common/ext/ARM/CMSIS/Core/Include/cmsis_gcc.h **** 
 118:./lib/chibios/os/common/ext/ARM/CMSIS/Core/Include/cmsis_gcc.h **** /* ###########################  Core Function Access  ########################### */
 119:./lib/chibios/os/common/ext/ARM/CMSIS/Core/Include/cmsis_gcc.h **** /** \ingroup  CMSIS_Core_FunctionInterface
 120:./lib/chibios/os/common/ext/ARM/CMSIS/Core/Include/cmsis_gcc.h ****     \defgroup CMSIS_Core_RegAccFunctions CMSIS Core Register Access Functions
 121:./lib/chibios/os/common/ext/ARM/CMSIS/Core/Include/cmsis_gcc.h ****   @{
 122:./lib/chibios/os/common/ext/ARM/CMSIS/Core/Include/cmsis_gcc.h ****  */
 123:./lib/chibios/os/common/ext/ARM/CMSIS/Core/Include/cmsis_gcc.h **** 
 124:./lib/chibios/os/common/ext/ARM/CMSIS/Core/Include/cmsis_gcc.h **** /**
 125:./lib/chibios/os/common/ext/ARM/CMSIS/Core/Include/cmsis_gcc.h ****   \brief   Enable IRQ Interrupts
 126:./lib/chibios/os/common/ext/ARM/CMSIS/Core/Include/cmsis_gcc.h ****   \details Enables IRQ interrupts by clearing the I-bit in the CPSR.
 127:./lib/chibios/os/common/ext/ARM/CMSIS/Core/Include/cmsis_gcc.h ****            Can only be executed in Privileged modes.
 128:./lib/chibios/os/common/ext/ARM/CMSIS/Core/Include/cmsis_gcc.h ****  */
 129:./lib/chibios/os/common/ext/ARM/CMSIS/Core/Include/cmsis_gcc.h **** __STATIC_FORCEINLINE void __enable_irq(void)
 130:./lib/chibios/os/common/ext/ARM/CMSIS/Core/Include/cmsis_gcc.h **** {
 131:./lib/chibios/os/common/ext/ARM/CMSIS/Core/Include/cmsis_gcc.h ****   __ASM volatile ("cpsie i" : : : "memory");
 132:./lib/chibios/os/common/ext/ARM/CMSIS/Core/Include/cmsis_gcc.h **** }
 133:./lib/chibios/os/common/ext/ARM/CMSIS/Core/Include/cmsis_gcc.h **** 
 134:./lib/chibios/os/common/ext/ARM/CMSIS/Core/Include/cmsis_gcc.h **** 
 135:./lib/chibios/os/common/ext/ARM/CMSIS/Core/Include/cmsis_gcc.h **** /**
 136:./lib/chibios/os/common/ext/ARM/CMSIS/Core/Include/cmsis_gcc.h ****   \brief   Disable IRQ Interrupts
 137:./lib/chibios/os/common/ext/ARM/CMSIS/Core/Include/cmsis_gcc.h ****   \details Disables IRQ interrupts by setting the I-bit in the CPSR.
 138:./lib/chibios/os/common/ext/ARM/CMSIS/Core/Include/cmsis_gcc.h ****            Can only be executed in Privileged modes.
 139:./lib/chibios/os/common/ext/ARM/CMSIS/Core/Include/cmsis_gcc.h ****  */
 140:./lib/chibios/os/common/ext/ARM/CMSIS/Core/Include/cmsis_gcc.h **** __STATIC_FORCEINLINE void __disable_irq(void)
 141:./lib/chibios/os/common/ext/ARM/CMSIS/Core/Include/cmsis_gcc.h **** {
 142:./lib/chibios/os/common/ext/ARM/CMSIS/Core/Include/cmsis_gcc.h ****   __ASM volatile ("cpsid i" : : : "memory");
 143:./lib/chibios/os/common/ext/ARM/CMSIS/Core/Include/cmsis_gcc.h **** }
 144:./lib/chibios/os/common/ext/ARM/CMSIS/Core/Include/cmsis_gcc.h **** 
 145:./lib/chibios/os/common/ext/ARM/CMSIS/Core/Include/cmsis_gcc.h **** 
 146:./lib/chibios/os/common/ext/ARM/CMSIS/Core/Include/cmsis_gcc.h **** /**
 147:./lib/chibios/os/common/ext/ARM/CMSIS/Core/Include/cmsis_gcc.h ****   \brief   Get Control Register
 148:./lib/chibios/os/common/ext/ARM/CMSIS/Core/Include/cmsis_gcc.h ****   \details Returns the content of the Control Register.
 149:./lib/chibios/os/common/ext/ARM/CMSIS/Core/Include/cmsis_gcc.h ****   \return               Control Register value
 150:./lib/chibios/os/common/ext/ARM/CMSIS/Core/Include/cmsis_gcc.h ****  */
 151:./lib/chibios/os/common/ext/ARM/CMSIS/Core/Include/cmsis_gcc.h **** __STATIC_FORCEINLINE uint32_t __get_CONTROL(void)
 152:./lib/chibios/os/common/ext/ARM/CMSIS/Core/Include/cmsis_gcc.h **** {
 153:./lib/chibios/os/common/ext/ARM/CMSIS/Core/Include/cmsis_gcc.h ****   uint32_t result;
 154:./lib/chibios/os/common/ext/ARM/CMSIS/Core/Include/cmsis_gcc.h **** 
 155:./lib/chibios/os/common/ext/ARM/CMSIS/Core/Include/cmsis_gcc.h ****   __ASM volatile ("MRS %0, control" : "=r" (result) );
 156:./lib/chibios/os/common/ext/ARM/CMSIS/Core/Include/cmsis_gcc.h ****   return(result);
 157:./lib/chibios/os/common/ext/ARM/CMSIS/Core/Include/cmsis_gcc.h **** }
 158:./lib/chibios/os/common/ext/ARM/CMSIS/Core/Include/cmsis_gcc.h **** 
 159:./lib/chibios/os/common/ext/ARM/CMSIS/Core/Include/cmsis_gcc.h **** 
 160:./lib/chibios/os/common/ext/ARM/CMSIS/Core/Include/cmsis_gcc.h **** #if (defined (__ARM_FEATURE_CMSE ) && (__ARM_FEATURE_CMSE == 3))
 161:./lib/chibios/os/common/ext/ARM/CMSIS/Core/Include/cmsis_gcc.h **** /**
 162:./lib/chibios/os/common/ext/ARM/CMSIS/Core/Include/cmsis_gcc.h ****   \brief   Get Control Register (non-secure)
 163:./lib/chibios/os/common/ext/ARM/CMSIS/Core/Include/cmsis_gcc.h ****   \details Returns the content of the non-secure Control Register when in secure mode.
 164:./lib/chibios/os/common/ext/ARM/CMSIS/Core/Include/cmsis_gcc.h ****   \return               non-secure Control Register value
 165:./lib/chibios/os/common/ext/ARM/CMSIS/Core/Include/cmsis_gcc.h ****  */
 166:./lib/chibios/os/common/ext/ARM/CMSIS/Core/Include/cmsis_gcc.h **** __STATIC_FORCEINLINE uint32_t __TZ_get_CONTROL_NS(void)
 167:./lib/chibios/os/common/ext/ARM/CMSIS/Core/Include/cmsis_gcc.h **** {
 168:./lib/chibios/os/common/ext/ARM/CMSIS/Core/Include/cmsis_gcc.h ****   uint32_t result;
 169:./lib/chibios/os/common/ext/ARM/CMSIS/Core/Include/cmsis_gcc.h **** 
 170:./lib/chibios/os/common/ext/ARM/CMSIS/Core/Include/cmsis_gcc.h ****   __ASM volatile ("MRS %0, control_ns" : "=r" (result) );
 171:./lib/chibios/os/common/ext/ARM/CMSIS/Core/Include/cmsis_gcc.h ****   return(result);
 172:./lib/chibios/os/common/ext/ARM/CMSIS/Core/Include/cmsis_gcc.h **** }
 173:./lib/chibios/os/common/ext/ARM/CMSIS/Core/Include/cmsis_gcc.h **** #endif
 174:./lib/chibios/os/common/ext/ARM/CMSIS/Core/Include/cmsis_gcc.h **** 
 175:./lib/chibios/os/common/ext/ARM/CMSIS/Core/Include/cmsis_gcc.h **** 
 176:./lib/chibios/os/common/ext/ARM/CMSIS/Core/Include/cmsis_gcc.h **** /**
 177:./lib/chibios/os/common/ext/ARM/CMSIS/Core/Include/cmsis_gcc.h ****   \brief   Set Control Register
 178:./lib/chibios/os/common/ext/ARM/CMSIS/Core/Include/cmsis_gcc.h ****   \details Writes the given value to the Control Register.
 179:./lib/chibios/os/common/ext/ARM/CMSIS/Core/Include/cmsis_gcc.h ****   \param [in]    control  Control Register value to set
 180:./lib/chibios/os/common/ext/ARM/CMSIS/Core/Include/cmsis_gcc.h ****  */
 181:./lib/chibios/os/common/ext/ARM/CMSIS/Core/Include/cmsis_gcc.h **** __STATIC_FORCEINLINE void __set_CONTROL(uint32_t control)
 182:./lib/chibios/os/common/ext/ARM/CMSIS/Core/Include/cmsis_gcc.h **** {
 183:./lib/chibios/os/common/ext/ARM/CMSIS/Core/Include/cmsis_gcc.h ****   __ASM volatile ("MSR control, %0" : : "r" (control) : "memory");
 184:./lib/chibios/os/common/ext/ARM/CMSIS/Core/Include/cmsis_gcc.h **** }
 185:./lib/chibios/os/common/ext/ARM/CMSIS/Core/Include/cmsis_gcc.h **** 
 186:./lib/chibios/os/common/ext/ARM/CMSIS/Core/Include/cmsis_gcc.h **** 
 187:./lib/chibios/os/common/ext/ARM/CMSIS/Core/Include/cmsis_gcc.h **** #if (defined (__ARM_FEATURE_CMSE ) && (__ARM_FEATURE_CMSE == 3))
 188:./lib/chibios/os/common/ext/ARM/CMSIS/Core/Include/cmsis_gcc.h **** /**
 189:./lib/chibios/os/common/ext/ARM/CMSIS/Core/Include/cmsis_gcc.h ****   \brief   Set Control Register (non-secure)
 190:./lib/chibios/os/common/ext/ARM/CMSIS/Core/Include/cmsis_gcc.h ****   \details Writes the given value to the non-secure Control Register when in secure state.
 191:./lib/chibios/os/common/ext/ARM/CMSIS/Core/Include/cmsis_gcc.h ****   \param [in]    control  Control Register value to set
 192:./lib/chibios/os/common/ext/ARM/CMSIS/Core/Include/cmsis_gcc.h ****  */
 193:./lib/chibios/os/common/ext/ARM/CMSIS/Core/Include/cmsis_gcc.h **** __STATIC_FORCEINLINE void __TZ_set_CONTROL_NS(uint32_t control)
 194:./lib/chibios/os/common/ext/ARM/CMSIS/Core/Include/cmsis_gcc.h **** {
 195:./lib/chibios/os/common/ext/ARM/CMSIS/Core/Include/cmsis_gcc.h ****   __ASM volatile ("MSR control_ns, %0" : : "r" (control) : "memory");
 196:./lib/chibios/os/common/ext/ARM/CMSIS/Core/Include/cmsis_gcc.h **** }
 197:./lib/chibios/os/common/ext/ARM/CMSIS/Core/Include/cmsis_gcc.h **** #endif
 198:./lib/chibios/os/common/ext/ARM/CMSIS/Core/Include/cmsis_gcc.h **** 
 199:./lib/chibios/os/common/ext/ARM/CMSIS/Core/Include/cmsis_gcc.h **** 
 200:./lib/chibios/os/common/ext/ARM/CMSIS/Core/Include/cmsis_gcc.h **** /**
 201:./lib/chibios/os/common/ext/ARM/CMSIS/Core/Include/cmsis_gcc.h ****   \brief   Get IPSR Register
 202:./lib/chibios/os/common/ext/ARM/CMSIS/Core/Include/cmsis_gcc.h ****   \details Returns the content of the IPSR Register.
 203:./lib/chibios/os/common/ext/ARM/CMSIS/Core/Include/cmsis_gcc.h ****   \return               IPSR Register value
 204:./lib/chibios/os/common/ext/ARM/CMSIS/Core/Include/cmsis_gcc.h ****  */
 205:./lib/chibios/os/common/ext/ARM/CMSIS/Core/Include/cmsis_gcc.h **** __STATIC_FORCEINLINE uint32_t __get_IPSR(void)
 206:./lib/chibios/os/common/ext/ARM/CMSIS/Core/Include/cmsis_gcc.h **** {
 207:./lib/chibios/os/common/ext/ARM/CMSIS/Core/Include/cmsis_gcc.h ****   uint32_t result;
 208:./lib/chibios/os/common/ext/ARM/CMSIS/Core/Include/cmsis_gcc.h **** 
 209:./lib/chibios/os/common/ext/ARM/CMSIS/Core/Include/cmsis_gcc.h ****   __ASM volatile ("MRS %0, ipsr" : "=r" (result) );
 210:./lib/chibios/os/common/ext/ARM/CMSIS/Core/Include/cmsis_gcc.h ****   return(result);
 211:./lib/chibios/os/common/ext/ARM/CMSIS/Core/Include/cmsis_gcc.h **** }
 212:./lib/chibios/os/common/ext/ARM/CMSIS/Core/Include/cmsis_gcc.h **** 
 213:./lib/chibios/os/common/ext/ARM/CMSIS/Core/Include/cmsis_gcc.h **** 
 214:./lib/chibios/os/common/ext/ARM/CMSIS/Core/Include/cmsis_gcc.h **** /**
 215:./lib/chibios/os/common/ext/ARM/CMSIS/Core/Include/cmsis_gcc.h ****   \brief   Get APSR Register
 216:./lib/chibios/os/common/ext/ARM/CMSIS/Core/Include/cmsis_gcc.h ****   \details Returns the content of the APSR Register.
 217:./lib/chibios/os/common/ext/ARM/CMSIS/Core/Include/cmsis_gcc.h ****   \return               APSR Register value
 218:./lib/chibios/os/common/ext/ARM/CMSIS/Core/Include/cmsis_gcc.h ****  */
 219:./lib/chibios/os/common/ext/ARM/CMSIS/Core/Include/cmsis_gcc.h **** __STATIC_FORCEINLINE uint32_t __get_APSR(void)
 220:./lib/chibios/os/common/ext/ARM/CMSIS/Core/Include/cmsis_gcc.h **** {
 221:./lib/chibios/os/common/ext/ARM/CMSIS/Core/Include/cmsis_gcc.h ****   uint32_t result;
 222:./lib/chibios/os/common/ext/ARM/CMSIS/Core/Include/cmsis_gcc.h **** 
 223:./lib/chibios/os/common/ext/ARM/CMSIS/Core/Include/cmsis_gcc.h ****   __ASM volatile ("MRS %0, apsr" : "=r" (result) );
 224:./lib/chibios/os/common/ext/ARM/CMSIS/Core/Include/cmsis_gcc.h ****   return(result);
 225:./lib/chibios/os/common/ext/ARM/CMSIS/Core/Include/cmsis_gcc.h **** }
 226:./lib/chibios/os/common/ext/ARM/CMSIS/Core/Include/cmsis_gcc.h **** 
 227:./lib/chibios/os/common/ext/ARM/CMSIS/Core/Include/cmsis_gcc.h **** 
 228:./lib/chibios/os/common/ext/ARM/CMSIS/Core/Include/cmsis_gcc.h **** /**
 229:./lib/chibios/os/common/ext/ARM/CMSIS/Core/Include/cmsis_gcc.h ****   \brief   Get xPSR Register
 230:./lib/chibios/os/common/ext/ARM/CMSIS/Core/Include/cmsis_gcc.h ****   \details Returns the content of the xPSR Register.
 231:./lib/chibios/os/common/ext/ARM/CMSIS/Core/Include/cmsis_gcc.h ****   \return               xPSR Register value
 232:./lib/chibios/os/common/ext/ARM/CMSIS/Core/Include/cmsis_gcc.h ****  */
 233:./lib/chibios/os/common/ext/ARM/CMSIS/Core/Include/cmsis_gcc.h **** __STATIC_FORCEINLINE uint32_t __get_xPSR(void)
 234:./lib/chibios/os/common/ext/ARM/CMSIS/Core/Include/cmsis_gcc.h **** {
 235:./lib/chibios/os/common/ext/ARM/CMSIS/Core/Include/cmsis_gcc.h ****   uint32_t result;
 236:./lib/chibios/os/common/ext/ARM/CMSIS/Core/Include/cmsis_gcc.h **** 
 237:./lib/chibios/os/common/ext/ARM/CMSIS/Core/Include/cmsis_gcc.h ****   __ASM volatile ("MRS %0, xpsr" : "=r" (result) );
 238:./lib/chibios/os/common/ext/ARM/CMSIS/Core/Include/cmsis_gcc.h ****   return(result);
 239:./lib/chibios/os/common/ext/ARM/CMSIS/Core/Include/cmsis_gcc.h **** }
 240:./lib/chibios/os/common/ext/ARM/CMSIS/Core/Include/cmsis_gcc.h **** 
 241:./lib/chibios/os/common/ext/ARM/CMSIS/Core/Include/cmsis_gcc.h **** 
 242:./lib/chibios/os/common/ext/ARM/CMSIS/Core/Include/cmsis_gcc.h **** /**
 243:./lib/chibios/os/common/ext/ARM/CMSIS/Core/Include/cmsis_gcc.h ****   \brief   Get Process Stack Pointer
 244:./lib/chibios/os/common/ext/ARM/CMSIS/Core/Include/cmsis_gcc.h ****   \details Returns the current value of the Process Stack Pointer (PSP).
 245:./lib/chibios/os/common/ext/ARM/CMSIS/Core/Include/cmsis_gcc.h ****   \return               PSP Register value
 246:./lib/chibios/os/common/ext/ARM/CMSIS/Core/Include/cmsis_gcc.h ****  */
 247:./lib/chibios/os/common/ext/ARM/CMSIS/Core/Include/cmsis_gcc.h **** __STATIC_FORCEINLINE uint32_t __get_PSP(void)
 248:./lib/chibios/os/common/ext/ARM/CMSIS/Core/Include/cmsis_gcc.h **** {
 249:./lib/chibios/os/common/ext/ARM/CMSIS/Core/Include/cmsis_gcc.h ****   uint32_t result;
 250:./lib/chibios/os/common/ext/ARM/CMSIS/Core/Include/cmsis_gcc.h **** 
 251:./lib/chibios/os/common/ext/ARM/CMSIS/Core/Include/cmsis_gcc.h ****   __ASM volatile ("MRS %0, psp"  : "=r" (result) );
 252:./lib/chibios/os/common/ext/ARM/CMSIS/Core/Include/cmsis_gcc.h ****   return(result);
 253:./lib/chibios/os/common/ext/ARM/CMSIS/Core/Include/cmsis_gcc.h **** }
 254:./lib/chibios/os/common/ext/ARM/CMSIS/Core/Include/cmsis_gcc.h **** 
 255:./lib/chibios/os/common/ext/ARM/CMSIS/Core/Include/cmsis_gcc.h **** 
 256:./lib/chibios/os/common/ext/ARM/CMSIS/Core/Include/cmsis_gcc.h **** #if (defined (__ARM_FEATURE_CMSE ) && (__ARM_FEATURE_CMSE == 3))
 257:./lib/chibios/os/common/ext/ARM/CMSIS/Core/Include/cmsis_gcc.h **** /**
 258:./lib/chibios/os/common/ext/ARM/CMSIS/Core/Include/cmsis_gcc.h ****   \brief   Get Process Stack Pointer (non-secure)
 259:./lib/chibios/os/common/ext/ARM/CMSIS/Core/Include/cmsis_gcc.h ****   \details Returns the current value of the non-secure Process Stack Pointer (PSP) when in secure s
 260:./lib/chibios/os/common/ext/ARM/CMSIS/Core/Include/cmsis_gcc.h ****   \return               PSP Register value
 261:./lib/chibios/os/common/ext/ARM/CMSIS/Core/Include/cmsis_gcc.h ****  */
 262:./lib/chibios/os/common/ext/ARM/CMSIS/Core/Include/cmsis_gcc.h **** __STATIC_FORCEINLINE uint32_t __TZ_get_PSP_NS(void)
 263:./lib/chibios/os/common/ext/ARM/CMSIS/Core/Include/cmsis_gcc.h **** {
 264:./lib/chibios/os/common/ext/ARM/CMSIS/Core/Include/cmsis_gcc.h ****   uint32_t result;
 265:./lib/chibios/os/common/ext/ARM/CMSIS/Core/Include/cmsis_gcc.h **** 
 266:./lib/chibios/os/common/ext/ARM/CMSIS/Core/Include/cmsis_gcc.h ****   __ASM volatile ("MRS %0, psp_ns"  : "=r" (result) );
 267:./lib/chibios/os/common/ext/ARM/CMSIS/Core/Include/cmsis_gcc.h ****   return(result);
 268:./lib/chibios/os/common/ext/ARM/CMSIS/Core/Include/cmsis_gcc.h **** }
 269:./lib/chibios/os/common/ext/ARM/CMSIS/Core/Include/cmsis_gcc.h **** #endif
 270:./lib/chibios/os/common/ext/ARM/CMSIS/Core/Include/cmsis_gcc.h **** 
 271:./lib/chibios/os/common/ext/ARM/CMSIS/Core/Include/cmsis_gcc.h **** 
 272:./lib/chibios/os/common/ext/ARM/CMSIS/Core/Include/cmsis_gcc.h **** /**
 273:./lib/chibios/os/common/ext/ARM/CMSIS/Core/Include/cmsis_gcc.h ****   \brief   Set Process Stack Pointer
 274:./lib/chibios/os/common/ext/ARM/CMSIS/Core/Include/cmsis_gcc.h ****   \details Assigns the given value to the Process Stack Pointer (PSP).
 275:./lib/chibios/os/common/ext/ARM/CMSIS/Core/Include/cmsis_gcc.h ****   \param [in]    topOfProcStack  Process Stack Pointer value to set
 276:./lib/chibios/os/common/ext/ARM/CMSIS/Core/Include/cmsis_gcc.h ****  */
 277:./lib/chibios/os/common/ext/ARM/CMSIS/Core/Include/cmsis_gcc.h **** __STATIC_FORCEINLINE void __set_PSP(uint32_t topOfProcStack)
 278:./lib/chibios/os/common/ext/ARM/CMSIS/Core/Include/cmsis_gcc.h **** {
 279:./lib/chibios/os/common/ext/ARM/CMSIS/Core/Include/cmsis_gcc.h ****   __ASM volatile ("MSR psp, %0" : : "r" (topOfProcStack) : );
 280:./lib/chibios/os/common/ext/ARM/CMSIS/Core/Include/cmsis_gcc.h **** }
 281:./lib/chibios/os/common/ext/ARM/CMSIS/Core/Include/cmsis_gcc.h **** 
 282:./lib/chibios/os/common/ext/ARM/CMSIS/Core/Include/cmsis_gcc.h **** 
 283:./lib/chibios/os/common/ext/ARM/CMSIS/Core/Include/cmsis_gcc.h **** #if (defined (__ARM_FEATURE_CMSE ) && (__ARM_FEATURE_CMSE == 3))
 284:./lib/chibios/os/common/ext/ARM/CMSIS/Core/Include/cmsis_gcc.h **** /**
 285:./lib/chibios/os/common/ext/ARM/CMSIS/Core/Include/cmsis_gcc.h ****   \brief   Set Process Stack Pointer (non-secure)
 286:./lib/chibios/os/common/ext/ARM/CMSIS/Core/Include/cmsis_gcc.h ****   \details Assigns the given value to the non-secure Process Stack Pointer (PSP) when in secure sta
 287:./lib/chibios/os/common/ext/ARM/CMSIS/Core/Include/cmsis_gcc.h ****   \param [in]    topOfProcStack  Process Stack Pointer value to set
 288:./lib/chibios/os/common/ext/ARM/CMSIS/Core/Include/cmsis_gcc.h ****  */
 289:./lib/chibios/os/common/ext/ARM/CMSIS/Core/Include/cmsis_gcc.h **** __STATIC_FORCEINLINE void __TZ_set_PSP_NS(uint32_t topOfProcStack)
 290:./lib/chibios/os/common/ext/ARM/CMSIS/Core/Include/cmsis_gcc.h **** {
 291:./lib/chibios/os/common/ext/ARM/CMSIS/Core/Include/cmsis_gcc.h ****   __ASM volatile ("MSR psp_ns, %0" : : "r" (topOfProcStack) : );
 292:./lib/chibios/os/common/ext/ARM/CMSIS/Core/Include/cmsis_gcc.h **** }
 293:./lib/chibios/os/common/ext/ARM/CMSIS/Core/Include/cmsis_gcc.h **** #endif
 294:./lib/chibios/os/common/ext/ARM/CMSIS/Core/Include/cmsis_gcc.h **** 
 295:./lib/chibios/os/common/ext/ARM/CMSIS/Core/Include/cmsis_gcc.h **** 
 296:./lib/chibios/os/common/ext/ARM/CMSIS/Core/Include/cmsis_gcc.h **** /**
 297:./lib/chibios/os/common/ext/ARM/CMSIS/Core/Include/cmsis_gcc.h ****   \brief   Get Main Stack Pointer
 298:./lib/chibios/os/common/ext/ARM/CMSIS/Core/Include/cmsis_gcc.h ****   \details Returns the current value of the Main Stack Pointer (MSP).
 299:./lib/chibios/os/common/ext/ARM/CMSIS/Core/Include/cmsis_gcc.h ****   \return               MSP Register value
 300:./lib/chibios/os/common/ext/ARM/CMSIS/Core/Include/cmsis_gcc.h ****  */
 301:./lib/chibios/os/common/ext/ARM/CMSIS/Core/Include/cmsis_gcc.h **** __STATIC_FORCEINLINE uint32_t __get_MSP(void)
 302:./lib/chibios/os/common/ext/ARM/CMSIS/Core/Include/cmsis_gcc.h **** {
 303:./lib/chibios/os/common/ext/ARM/CMSIS/Core/Include/cmsis_gcc.h ****   uint32_t result;
 304:./lib/chibios/os/common/ext/ARM/CMSIS/Core/Include/cmsis_gcc.h **** 
 305:./lib/chibios/os/common/ext/ARM/CMSIS/Core/Include/cmsis_gcc.h ****   __ASM volatile ("MRS %0, msp" : "=r" (result) );
 306:./lib/chibios/os/common/ext/ARM/CMSIS/Core/Include/cmsis_gcc.h ****   return(result);
 307:./lib/chibios/os/common/ext/ARM/CMSIS/Core/Include/cmsis_gcc.h **** }
 308:./lib/chibios/os/common/ext/ARM/CMSIS/Core/Include/cmsis_gcc.h **** 
 309:./lib/chibios/os/common/ext/ARM/CMSIS/Core/Include/cmsis_gcc.h **** 
 310:./lib/chibios/os/common/ext/ARM/CMSIS/Core/Include/cmsis_gcc.h **** #if (defined (__ARM_FEATURE_CMSE ) && (__ARM_FEATURE_CMSE == 3))
 311:./lib/chibios/os/common/ext/ARM/CMSIS/Core/Include/cmsis_gcc.h **** /**
 312:./lib/chibios/os/common/ext/ARM/CMSIS/Core/Include/cmsis_gcc.h ****   \brief   Get Main Stack Pointer (non-secure)
 313:./lib/chibios/os/common/ext/ARM/CMSIS/Core/Include/cmsis_gcc.h ****   \details Returns the current value of the non-secure Main Stack Pointer (MSP) when in secure stat
 314:./lib/chibios/os/common/ext/ARM/CMSIS/Core/Include/cmsis_gcc.h ****   \return               MSP Register value
 315:./lib/chibios/os/common/ext/ARM/CMSIS/Core/Include/cmsis_gcc.h ****  */
 316:./lib/chibios/os/common/ext/ARM/CMSIS/Core/Include/cmsis_gcc.h **** __STATIC_FORCEINLINE uint32_t __TZ_get_MSP_NS(void)
 317:./lib/chibios/os/common/ext/ARM/CMSIS/Core/Include/cmsis_gcc.h **** {
 318:./lib/chibios/os/common/ext/ARM/CMSIS/Core/Include/cmsis_gcc.h ****   uint32_t result;
 319:./lib/chibios/os/common/ext/ARM/CMSIS/Core/Include/cmsis_gcc.h **** 
 320:./lib/chibios/os/common/ext/ARM/CMSIS/Core/Include/cmsis_gcc.h ****   __ASM volatile ("MRS %0, msp_ns" : "=r" (result) );
 321:./lib/chibios/os/common/ext/ARM/CMSIS/Core/Include/cmsis_gcc.h ****   return(result);
 322:./lib/chibios/os/common/ext/ARM/CMSIS/Core/Include/cmsis_gcc.h **** }
 323:./lib/chibios/os/common/ext/ARM/CMSIS/Core/Include/cmsis_gcc.h **** #endif
 324:./lib/chibios/os/common/ext/ARM/CMSIS/Core/Include/cmsis_gcc.h **** 
 325:./lib/chibios/os/common/ext/ARM/CMSIS/Core/Include/cmsis_gcc.h **** 
 326:./lib/chibios/os/common/ext/ARM/CMSIS/Core/Include/cmsis_gcc.h **** /**
 327:./lib/chibios/os/common/ext/ARM/CMSIS/Core/Include/cmsis_gcc.h ****   \brief   Set Main Stack Pointer
 328:./lib/chibios/os/common/ext/ARM/CMSIS/Core/Include/cmsis_gcc.h ****   \details Assigns the given value to the Main Stack Pointer (MSP).
 329:./lib/chibios/os/common/ext/ARM/CMSIS/Core/Include/cmsis_gcc.h ****   \param [in]    topOfMainStack  Main Stack Pointer value to set
 330:./lib/chibios/os/common/ext/ARM/CMSIS/Core/Include/cmsis_gcc.h ****  */
 331:./lib/chibios/os/common/ext/ARM/CMSIS/Core/Include/cmsis_gcc.h **** __STATIC_FORCEINLINE void __set_MSP(uint32_t topOfMainStack)
 332:./lib/chibios/os/common/ext/ARM/CMSIS/Core/Include/cmsis_gcc.h **** {
 333:./lib/chibios/os/common/ext/ARM/CMSIS/Core/Include/cmsis_gcc.h ****   __ASM volatile ("MSR msp, %0" : : "r" (topOfMainStack) : );
 334:./lib/chibios/os/common/ext/ARM/CMSIS/Core/Include/cmsis_gcc.h **** }
 335:./lib/chibios/os/common/ext/ARM/CMSIS/Core/Include/cmsis_gcc.h **** 
 336:./lib/chibios/os/common/ext/ARM/CMSIS/Core/Include/cmsis_gcc.h **** 
 337:./lib/chibios/os/common/ext/ARM/CMSIS/Core/Include/cmsis_gcc.h **** #if (defined (__ARM_FEATURE_CMSE ) && (__ARM_FEATURE_CMSE == 3))
 338:./lib/chibios/os/common/ext/ARM/CMSIS/Core/Include/cmsis_gcc.h **** /**
 339:./lib/chibios/os/common/ext/ARM/CMSIS/Core/Include/cmsis_gcc.h ****   \brief   Set Main Stack Pointer (non-secure)
 340:./lib/chibios/os/common/ext/ARM/CMSIS/Core/Include/cmsis_gcc.h ****   \details Assigns the given value to the non-secure Main Stack Pointer (MSP) when in secure state.
 341:./lib/chibios/os/common/ext/ARM/CMSIS/Core/Include/cmsis_gcc.h ****   \param [in]    topOfMainStack  Main Stack Pointer value to set
 342:./lib/chibios/os/common/ext/ARM/CMSIS/Core/Include/cmsis_gcc.h ****  */
 343:./lib/chibios/os/common/ext/ARM/CMSIS/Core/Include/cmsis_gcc.h **** __STATIC_FORCEINLINE void __TZ_set_MSP_NS(uint32_t topOfMainStack)
 344:./lib/chibios/os/common/ext/ARM/CMSIS/Core/Include/cmsis_gcc.h **** {
 345:./lib/chibios/os/common/ext/ARM/CMSIS/Core/Include/cmsis_gcc.h ****   __ASM volatile ("MSR msp_ns, %0" : : "r" (topOfMainStack) : );
 346:./lib/chibios/os/common/ext/ARM/CMSIS/Core/Include/cmsis_gcc.h **** }
 347:./lib/chibios/os/common/ext/ARM/CMSIS/Core/Include/cmsis_gcc.h **** #endif
 348:./lib/chibios/os/common/ext/ARM/CMSIS/Core/Include/cmsis_gcc.h **** 
 349:./lib/chibios/os/common/ext/ARM/CMSIS/Core/Include/cmsis_gcc.h **** 
 350:./lib/chibios/os/common/ext/ARM/CMSIS/Core/Include/cmsis_gcc.h **** #if (defined (__ARM_FEATURE_CMSE ) && (__ARM_FEATURE_CMSE == 3))
 351:./lib/chibios/os/common/ext/ARM/CMSIS/Core/Include/cmsis_gcc.h **** /**
 352:./lib/chibios/os/common/ext/ARM/CMSIS/Core/Include/cmsis_gcc.h ****   \brief   Get Stack Pointer (non-secure)
 353:./lib/chibios/os/common/ext/ARM/CMSIS/Core/Include/cmsis_gcc.h ****   \details Returns the current value of the non-secure Stack Pointer (SP) when in secure state.
 354:./lib/chibios/os/common/ext/ARM/CMSIS/Core/Include/cmsis_gcc.h ****   \return               SP Register value
 355:./lib/chibios/os/common/ext/ARM/CMSIS/Core/Include/cmsis_gcc.h ****  */
 356:./lib/chibios/os/common/ext/ARM/CMSIS/Core/Include/cmsis_gcc.h **** __STATIC_FORCEINLINE uint32_t __TZ_get_SP_NS(void)
 357:./lib/chibios/os/common/ext/ARM/CMSIS/Core/Include/cmsis_gcc.h **** {
 358:./lib/chibios/os/common/ext/ARM/CMSIS/Core/Include/cmsis_gcc.h ****   uint32_t result;
 359:./lib/chibios/os/common/ext/ARM/CMSIS/Core/Include/cmsis_gcc.h **** 
 360:./lib/chibios/os/common/ext/ARM/CMSIS/Core/Include/cmsis_gcc.h ****   __ASM volatile ("MRS %0, sp_ns" : "=r" (result) );
 361:./lib/chibios/os/common/ext/ARM/CMSIS/Core/Include/cmsis_gcc.h ****   return(result);
 362:./lib/chibios/os/common/ext/ARM/CMSIS/Core/Include/cmsis_gcc.h **** }
 363:./lib/chibios/os/common/ext/ARM/CMSIS/Core/Include/cmsis_gcc.h **** 
 364:./lib/chibios/os/common/ext/ARM/CMSIS/Core/Include/cmsis_gcc.h **** 
 365:./lib/chibios/os/common/ext/ARM/CMSIS/Core/Include/cmsis_gcc.h **** /**
 366:./lib/chibios/os/common/ext/ARM/CMSIS/Core/Include/cmsis_gcc.h ****   \brief   Set Stack Pointer (non-secure)
 367:./lib/chibios/os/common/ext/ARM/CMSIS/Core/Include/cmsis_gcc.h ****   \details Assigns the given value to the non-secure Stack Pointer (SP) when in secure state.
 368:./lib/chibios/os/common/ext/ARM/CMSIS/Core/Include/cmsis_gcc.h ****   \param [in]    topOfStack  Stack Pointer value to set
 369:./lib/chibios/os/common/ext/ARM/CMSIS/Core/Include/cmsis_gcc.h ****  */
 370:./lib/chibios/os/common/ext/ARM/CMSIS/Core/Include/cmsis_gcc.h **** __STATIC_FORCEINLINE void __TZ_set_SP_NS(uint32_t topOfStack)
 371:./lib/chibios/os/common/ext/ARM/CMSIS/Core/Include/cmsis_gcc.h **** {
 372:./lib/chibios/os/common/ext/ARM/CMSIS/Core/Include/cmsis_gcc.h ****   __ASM volatile ("MSR sp_ns, %0" : : "r" (topOfStack) : );
 373:./lib/chibios/os/common/ext/ARM/CMSIS/Core/Include/cmsis_gcc.h **** }
 374:./lib/chibios/os/common/ext/ARM/CMSIS/Core/Include/cmsis_gcc.h **** #endif
 375:./lib/chibios/os/common/ext/ARM/CMSIS/Core/Include/cmsis_gcc.h **** 
 376:./lib/chibios/os/common/ext/ARM/CMSIS/Core/Include/cmsis_gcc.h **** 
 377:./lib/chibios/os/common/ext/ARM/CMSIS/Core/Include/cmsis_gcc.h **** /**
 378:./lib/chibios/os/common/ext/ARM/CMSIS/Core/Include/cmsis_gcc.h ****   \brief   Get Priority Mask
 379:./lib/chibios/os/common/ext/ARM/CMSIS/Core/Include/cmsis_gcc.h ****   \details Returns the current state of the priority mask bit from the Priority Mask Register.
 380:./lib/chibios/os/common/ext/ARM/CMSIS/Core/Include/cmsis_gcc.h ****   \return               Priority Mask value
 381:./lib/chibios/os/common/ext/ARM/CMSIS/Core/Include/cmsis_gcc.h ****  */
 382:./lib/chibios/os/common/ext/ARM/CMSIS/Core/Include/cmsis_gcc.h **** __STATIC_FORCEINLINE uint32_t __get_PRIMASK(void)
 383:./lib/chibios/os/common/ext/ARM/CMSIS/Core/Include/cmsis_gcc.h **** {
 384:./lib/chibios/os/common/ext/ARM/CMSIS/Core/Include/cmsis_gcc.h ****   uint32_t result;
 385:./lib/chibios/os/common/ext/ARM/CMSIS/Core/Include/cmsis_gcc.h **** 
 386:./lib/chibios/os/common/ext/ARM/CMSIS/Core/Include/cmsis_gcc.h ****   __ASM volatile ("MRS %0, primask" : "=r" (result) :: "memory");
 387:./lib/chibios/os/common/ext/ARM/CMSIS/Core/Include/cmsis_gcc.h ****   return(result);
 388:./lib/chibios/os/common/ext/ARM/CMSIS/Core/Include/cmsis_gcc.h **** }
 389:./lib/chibios/os/common/ext/ARM/CMSIS/Core/Include/cmsis_gcc.h **** 
 390:./lib/chibios/os/common/ext/ARM/CMSIS/Core/Include/cmsis_gcc.h **** 
 391:./lib/chibios/os/common/ext/ARM/CMSIS/Core/Include/cmsis_gcc.h **** #if (defined (__ARM_FEATURE_CMSE ) && (__ARM_FEATURE_CMSE == 3))
 392:./lib/chibios/os/common/ext/ARM/CMSIS/Core/Include/cmsis_gcc.h **** /**
 393:./lib/chibios/os/common/ext/ARM/CMSIS/Core/Include/cmsis_gcc.h ****   \brief   Get Priority Mask (non-secure)
 394:./lib/chibios/os/common/ext/ARM/CMSIS/Core/Include/cmsis_gcc.h ****   \details Returns the current state of the non-secure priority mask bit from the Priority Mask Reg
 395:./lib/chibios/os/common/ext/ARM/CMSIS/Core/Include/cmsis_gcc.h ****   \return               Priority Mask value
 396:./lib/chibios/os/common/ext/ARM/CMSIS/Core/Include/cmsis_gcc.h ****  */
 397:./lib/chibios/os/common/ext/ARM/CMSIS/Core/Include/cmsis_gcc.h **** __STATIC_FORCEINLINE uint32_t __TZ_get_PRIMASK_NS(void)
 398:./lib/chibios/os/common/ext/ARM/CMSIS/Core/Include/cmsis_gcc.h **** {
 399:./lib/chibios/os/common/ext/ARM/CMSIS/Core/Include/cmsis_gcc.h ****   uint32_t result;
 400:./lib/chibios/os/common/ext/ARM/CMSIS/Core/Include/cmsis_gcc.h **** 
 401:./lib/chibios/os/common/ext/ARM/CMSIS/Core/Include/cmsis_gcc.h ****   __ASM volatile ("MRS %0, primask_ns" : "=r" (result) :: "memory");
 402:./lib/chibios/os/common/ext/ARM/CMSIS/Core/Include/cmsis_gcc.h ****   return(result);
 403:./lib/chibios/os/common/ext/ARM/CMSIS/Core/Include/cmsis_gcc.h **** }
 404:./lib/chibios/os/common/ext/ARM/CMSIS/Core/Include/cmsis_gcc.h **** #endif
 405:./lib/chibios/os/common/ext/ARM/CMSIS/Core/Include/cmsis_gcc.h **** 
 406:./lib/chibios/os/common/ext/ARM/CMSIS/Core/Include/cmsis_gcc.h **** 
 407:./lib/chibios/os/common/ext/ARM/CMSIS/Core/Include/cmsis_gcc.h **** /**
 408:./lib/chibios/os/common/ext/ARM/CMSIS/Core/Include/cmsis_gcc.h ****   \brief   Set Priority Mask
 409:./lib/chibios/os/common/ext/ARM/CMSIS/Core/Include/cmsis_gcc.h ****   \details Assigns the given value to the Priority Mask Register.
 410:./lib/chibios/os/common/ext/ARM/CMSIS/Core/Include/cmsis_gcc.h ****   \param [in]    priMask  Priority Mask
 411:./lib/chibios/os/common/ext/ARM/CMSIS/Core/Include/cmsis_gcc.h ****  */
 412:./lib/chibios/os/common/ext/ARM/CMSIS/Core/Include/cmsis_gcc.h **** __STATIC_FORCEINLINE void __set_PRIMASK(uint32_t priMask)
 413:./lib/chibios/os/common/ext/ARM/CMSIS/Core/Include/cmsis_gcc.h **** {
 414:./lib/chibios/os/common/ext/ARM/CMSIS/Core/Include/cmsis_gcc.h ****   __ASM volatile ("MSR primask, %0" : : "r" (priMask) : "memory");
 415:./lib/chibios/os/common/ext/ARM/CMSIS/Core/Include/cmsis_gcc.h **** }
 416:./lib/chibios/os/common/ext/ARM/CMSIS/Core/Include/cmsis_gcc.h **** 
 417:./lib/chibios/os/common/ext/ARM/CMSIS/Core/Include/cmsis_gcc.h **** 
 418:./lib/chibios/os/common/ext/ARM/CMSIS/Core/Include/cmsis_gcc.h **** #if (defined (__ARM_FEATURE_CMSE ) && (__ARM_FEATURE_CMSE == 3))
 419:./lib/chibios/os/common/ext/ARM/CMSIS/Core/Include/cmsis_gcc.h **** /**
 420:./lib/chibios/os/common/ext/ARM/CMSIS/Core/Include/cmsis_gcc.h ****   \brief   Set Priority Mask (non-secure)
 421:./lib/chibios/os/common/ext/ARM/CMSIS/Core/Include/cmsis_gcc.h ****   \details Assigns the given value to the non-secure Priority Mask Register when in secure state.
 422:./lib/chibios/os/common/ext/ARM/CMSIS/Core/Include/cmsis_gcc.h ****   \param [in]    priMask  Priority Mask
 423:./lib/chibios/os/common/ext/ARM/CMSIS/Core/Include/cmsis_gcc.h ****  */
 424:./lib/chibios/os/common/ext/ARM/CMSIS/Core/Include/cmsis_gcc.h **** __STATIC_FORCEINLINE void __TZ_set_PRIMASK_NS(uint32_t priMask)
 425:./lib/chibios/os/common/ext/ARM/CMSIS/Core/Include/cmsis_gcc.h **** {
 426:./lib/chibios/os/common/ext/ARM/CMSIS/Core/Include/cmsis_gcc.h ****   __ASM volatile ("MSR primask_ns, %0" : : "r" (priMask) : "memory");
 427:./lib/chibios/os/common/ext/ARM/CMSIS/Core/Include/cmsis_gcc.h **** }
 428:./lib/chibios/os/common/ext/ARM/CMSIS/Core/Include/cmsis_gcc.h **** #endif
 429:./lib/chibios/os/common/ext/ARM/CMSIS/Core/Include/cmsis_gcc.h **** 
 430:./lib/chibios/os/common/ext/ARM/CMSIS/Core/Include/cmsis_gcc.h **** 
 431:./lib/chibios/os/common/ext/ARM/CMSIS/Core/Include/cmsis_gcc.h **** #if ((defined (__ARM_ARCH_7M__      ) && (__ARM_ARCH_7M__      == 1)) || \
 432:./lib/chibios/os/common/ext/ARM/CMSIS/Core/Include/cmsis_gcc.h ****      (defined (__ARM_ARCH_7EM__     ) && (__ARM_ARCH_7EM__     == 1)) || \
 433:./lib/chibios/os/common/ext/ARM/CMSIS/Core/Include/cmsis_gcc.h ****      (defined (__ARM_ARCH_8M_MAIN__ ) && (__ARM_ARCH_8M_MAIN__ == 1))    )
 434:./lib/chibios/os/common/ext/ARM/CMSIS/Core/Include/cmsis_gcc.h **** /**
 435:./lib/chibios/os/common/ext/ARM/CMSIS/Core/Include/cmsis_gcc.h ****   \brief   Enable FIQ
 436:./lib/chibios/os/common/ext/ARM/CMSIS/Core/Include/cmsis_gcc.h ****   \details Enables FIQ interrupts by clearing the F-bit in the CPSR.
 437:./lib/chibios/os/common/ext/ARM/CMSIS/Core/Include/cmsis_gcc.h ****            Can only be executed in Privileged modes.
 438:./lib/chibios/os/common/ext/ARM/CMSIS/Core/Include/cmsis_gcc.h ****  */
 439:./lib/chibios/os/common/ext/ARM/CMSIS/Core/Include/cmsis_gcc.h **** __STATIC_FORCEINLINE void __enable_fault_irq(void)
 440:./lib/chibios/os/common/ext/ARM/CMSIS/Core/Include/cmsis_gcc.h **** {
 441:./lib/chibios/os/common/ext/ARM/CMSIS/Core/Include/cmsis_gcc.h ****   __ASM volatile ("cpsie f" : : : "memory");
 442:./lib/chibios/os/common/ext/ARM/CMSIS/Core/Include/cmsis_gcc.h **** }
 443:./lib/chibios/os/common/ext/ARM/CMSIS/Core/Include/cmsis_gcc.h **** 
 444:./lib/chibios/os/common/ext/ARM/CMSIS/Core/Include/cmsis_gcc.h **** 
 445:./lib/chibios/os/common/ext/ARM/CMSIS/Core/Include/cmsis_gcc.h **** /**
 446:./lib/chibios/os/common/ext/ARM/CMSIS/Core/Include/cmsis_gcc.h ****   \brief   Disable FIQ
 447:./lib/chibios/os/common/ext/ARM/CMSIS/Core/Include/cmsis_gcc.h ****   \details Disables FIQ interrupts by setting the F-bit in the CPSR.
 448:./lib/chibios/os/common/ext/ARM/CMSIS/Core/Include/cmsis_gcc.h ****            Can only be executed in Privileged modes.
 449:./lib/chibios/os/common/ext/ARM/CMSIS/Core/Include/cmsis_gcc.h ****  */
 450:./lib/chibios/os/common/ext/ARM/CMSIS/Core/Include/cmsis_gcc.h **** __STATIC_FORCEINLINE void __disable_fault_irq(void)
 451:./lib/chibios/os/common/ext/ARM/CMSIS/Core/Include/cmsis_gcc.h **** {
 452:./lib/chibios/os/common/ext/ARM/CMSIS/Core/Include/cmsis_gcc.h ****   __ASM volatile ("cpsid f" : : : "memory");
 453:./lib/chibios/os/common/ext/ARM/CMSIS/Core/Include/cmsis_gcc.h **** }
 454:./lib/chibios/os/common/ext/ARM/CMSIS/Core/Include/cmsis_gcc.h **** 
 455:./lib/chibios/os/common/ext/ARM/CMSIS/Core/Include/cmsis_gcc.h **** 
 456:./lib/chibios/os/common/ext/ARM/CMSIS/Core/Include/cmsis_gcc.h **** /**
 457:./lib/chibios/os/common/ext/ARM/CMSIS/Core/Include/cmsis_gcc.h ****   \brief   Get Base Priority
 458:./lib/chibios/os/common/ext/ARM/CMSIS/Core/Include/cmsis_gcc.h ****   \details Returns the current value of the Base Priority register.
 459:./lib/chibios/os/common/ext/ARM/CMSIS/Core/Include/cmsis_gcc.h ****   \return               Base Priority register value
 460:./lib/chibios/os/common/ext/ARM/CMSIS/Core/Include/cmsis_gcc.h ****  */
 461:./lib/chibios/os/common/ext/ARM/CMSIS/Core/Include/cmsis_gcc.h **** __STATIC_FORCEINLINE uint32_t __get_BASEPRI(void)
 462:./lib/chibios/os/common/ext/ARM/CMSIS/Core/Include/cmsis_gcc.h **** {
 463:./lib/chibios/os/common/ext/ARM/CMSIS/Core/Include/cmsis_gcc.h ****   uint32_t result;
 464:./lib/chibios/os/common/ext/ARM/CMSIS/Core/Include/cmsis_gcc.h **** 
 465:./lib/chibios/os/common/ext/ARM/CMSIS/Core/Include/cmsis_gcc.h ****   __ASM volatile ("MRS %0, basepri" : "=r" (result) );
 466:./lib/chibios/os/common/ext/ARM/CMSIS/Core/Include/cmsis_gcc.h ****   return(result);
 467:./lib/chibios/os/common/ext/ARM/CMSIS/Core/Include/cmsis_gcc.h **** }
 468:./lib/chibios/os/common/ext/ARM/CMSIS/Core/Include/cmsis_gcc.h **** 
 469:./lib/chibios/os/common/ext/ARM/CMSIS/Core/Include/cmsis_gcc.h **** 
 470:./lib/chibios/os/common/ext/ARM/CMSIS/Core/Include/cmsis_gcc.h **** #if (defined (__ARM_FEATURE_CMSE ) && (__ARM_FEATURE_CMSE == 3))
 471:./lib/chibios/os/common/ext/ARM/CMSIS/Core/Include/cmsis_gcc.h **** /**
 472:./lib/chibios/os/common/ext/ARM/CMSIS/Core/Include/cmsis_gcc.h ****   \brief   Get Base Priority (non-secure)
 473:./lib/chibios/os/common/ext/ARM/CMSIS/Core/Include/cmsis_gcc.h ****   \details Returns the current value of the non-secure Base Priority register when in secure state.
 474:./lib/chibios/os/common/ext/ARM/CMSIS/Core/Include/cmsis_gcc.h ****   \return               Base Priority register value
 475:./lib/chibios/os/common/ext/ARM/CMSIS/Core/Include/cmsis_gcc.h ****  */
 476:./lib/chibios/os/common/ext/ARM/CMSIS/Core/Include/cmsis_gcc.h **** __STATIC_FORCEINLINE uint32_t __TZ_get_BASEPRI_NS(void)
 477:./lib/chibios/os/common/ext/ARM/CMSIS/Core/Include/cmsis_gcc.h **** {
 478:./lib/chibios/os/common/ext/ARM/CMSIS/Core/Include/cmsis_gcc.h ****   uint32_t result;
 479:./lib/chibios/os/common/ext/ARM/CMSIS/Core/Include/cmsis_gcc.h **** 
 480:./lib/chibios/os/common/ext/ARM/CMSIS/Core/Include/cmsis_gcc.h ****   __ASM volatile ("MRS %0, basepri_ns" : "=r" (result) );
 481:./lib/chibios/os/common/ext/ARM/CMSIS/Core/Include/cmsis_gcc.h ****   return(result);
 482:./lib/chibios/os/common/ext/ARM/CMSIS/Core/Include/cmsis_gcc.h **** }
 483:./lib/chibios/os/common/ext/ARM/CMSIS/Core/Include/cmsis_gcc.h **** #endif
 484:./lib/chibios/os/common/ext/ARM/CMSIS/Core/Include/cmsis_gcc.h **** 
 485:./lib/chibios/os/common/ext/ARM/CMSIS/Core/Include/cmsis_gcc.h **** 
 486:./lib/chibios/os/common/ext/ARM/CMSIS/Core/Include/cmsis_gcc.h **** /**
 487:./lib/chibios/os/common/ext/ARM/CMSIS/Core/Include/cmsis_gcc.h ****   \brief   Set Base Priority
 488:./lib/chibios/os/common/ext/ARM/CMSIS/Core/Include/cmsis_gcc.h ****   \details Assigns the given value to the Base Priority register.
 489:./lib/chibios/os/common/ext/ARM/CMSIS/Core/Include/cmsis_gcc.h ****   \param [in]    basePri  Base Priority value to set
 490:./lib/chibios/os/common/ext/ARM/CMSIS/Core/Include/cmsis_gcc.h ****  */
 491:./lib/chibios/os/common/ext/ARM/CMSIS/Core/Include/cmsis_gcc.h **** __STATIC_FORCEINLINE void __set_BASEPRI(uint32_t basePri)
 187              		.loc 4 491 27 view .LVU67
 188              	.LBB168:
 492:./lib/chibios/os/common/ext/ARM/CMSIS/Core/Include/cmsis_gcc.h **** {
 493:./lib/chibios/os/common/ext/ARM/CMSIS/Core/Include/cmsis_gcc.h ****   __ASM volatile ("MSR basepri, %0" : : "r" (basePri) : "memory");
 189              		.loc 4 493 3 view .LVU68
 190              	.LBE168:
 191              	.LBE167:
 192              	.LBE166:
 193              	.LBE165:
 216:lib/chibios/os/rt/src/chthreads.c ****   thread_t *tp;
 194              		.loc 1 216 64 is_stmt 0 view .LVU69
 195 0000 08B5     		push	{r3, lr}
 196              		.cfi_def_cfa_offset 8
 197              		.cfi_offset 3, -8
 198              		.cfi_offset 14, -4
 199              	.LBB172:
 200              	.LBB171:
 201              	.LBB170:
 202              	.LBB169:
 203              		.loc 4 493 3 view .LVU70
 204 0002 2023     		movs	r3, #32
 205              		.syntax unified
 206              	@ 493 "./lib/chibios/os/common/ext/ARM/CMSIS/Core/Include/cmsis_gcc.h" 1
 207 0004 83F31188 		MSR basepri, r3
 208              	@ 0 "" 2
 209              	.LVL10:
 210              		.loc 4 493 3 view .LVU71
 211              		.thumb
 212              		.syntax unified
 213              	.LBE169:
 214              	.LBE170:
 215              	.LBE171:
 358:./lib/chibios/os/rt/include/chsys.h ****   _stats_start_measure_crit_thd();
 216              		.loc 2 358 34 is_stmt 1 view .LVU72
 359:./lib/chibios/os/rt/include/chsys.h ****   _dbg_check_lock();
 217              		.loc 2 359 20 view .LVU73
 218              	.LBE172:
 231:lib/chibios/os/rt/src/chthreads.c ****   tp = chThdCreateSuspendedI(tdp);
 219              		.loc 1 231 3 view .LVU74
 220              		.loc 1 231 8 is_stmt 0 view .LVU75
 221 0008 FFF7FEFF 		bl	chThdCreateSuspendedI
 222              	.LVL11:
 232:lib/chibios/os/rt/src/chthreads.c ****   chSysUnlock();
 223              		.loc 1 232 3 is_stmt 1 view .LVU76
 224              	.LBB173:
 225              	.LBI173:
 360:./lib/chibios/os/rt/include/chsys.h **** }
 361:./lib/chibios/os/rt/include/chsys.h **** 
 362:./lib/chibios/os/rt/include/chsys.h **** /**
 363:./lib/chibios/os/rt/include/chsys.h ****  * @brief   Leaves the kernel lock state.
 364:./lib/chibios/os/rt/include/chsys.h ****  *
 365:./lib/chibios/os/rt/include/chsys.h ****  * @special
 366:./lib/chibios/os/rt/include/chsys.h ****  */
 367:./lib/chibios/os/rt/include/chsys.h **** static inline void chSysUnlock(void) {
 226              		.loc 2 367 20 view .LVU77
 227              	.LBB174:
 368:./lib/chibios/os/rt/include/chsys.h **** 
 369:./lib/chibios/os/rt/include/chsys.h ****   _dbg_check_unlock();
 228              		.loc 2 369 22 view .LVU78
 370:./lib/chibios/os/rt/include/chsys.h ****   _stats_stop_measure_crit_thd();
 229              		.loc 2 370 33 view .LVU79
 371:./lib/chibios/os/rt/include/chsys.h **** 
 372:./lib/chibios/os/rt/include/chsys.h ****   /* The following condition can be triggered by the use of i-class functions
 373:./lib/chibios/os/rt/include/chsys.h ****      in a critical section not followed by a chSchRescheduleS(), this means
 374:./lib/chibios/os/rt/include/chsys.h ****      that the current thread has a lower priority than the next thread in
 375:./lib/chibios/os/rt/include/chsys.h ****      the ready list.*/
 376:./lib/chibios/os/rt/include/chsys.h ****   chDbgAssert((ch.rlist.pqueue.next == &ch.rlist.pqueue) ||
 230              		.loc 2 376 3 view .LVU80
 231              		.loc 2 376 3 view .LVU81
 232              		.loc 2 376 3 view .LVU82
 377:./lib/chibios/os/rt/include/chsys.h ****               (ch.rlist.current->hdr.pqueue.prio >= ch.rlist.pqueue.next->prio),
 378:./lib/chibios/os/rt/include/chsys.h ****               "priority order violation");
 379:./lib/chibios/os/rt/include/chsys.h **** 
 380:./lib/chibios/os/rt/include/chsys.h ****   port_unlock();
 233              		.loc 2 380 3 view .LVU83
 234              	.LBB175:
 235              	.LBI175:
 678:./lib/chibios/os/common/ports/ARMCMx/chcore_v7m.h **** #if defined(__CM7_REV)
 679:./lib/chibios/os/common/ports/ARMCMx/chcore_v7m.h **** #if __CM7_REV <= 1
 680:./lib/chibios/os/common/ports/ARMCMx/chcore_v7m.h ****   __enable_irq();
 681:./lib/chibios/os/common/ports/ARMCMx/chcore_v7m.h **** #endif
 682:./lib/chibios/os/common/ports/ARMCMx/chcore_v7m.h **** #endif
 683:./lib/chibios/os/common/ports/ARMCMx/chcore_v7m.h **** #else /* CORTEX_SIMPLIFIED_PRIORITY */
 684:./lib/chibios/os/common/ports/ARMCMx/chcore_v7m.h ****   __disable_irq();
 685:./lib/chibios/os/common/ports/ARMCMx/chcore_v7m.h **** #endif /* CORTEX_SIMPLIFIED_PRIORITY */
 686:./lib/chibios/os/common/ports/ARMCMx/chcore_v7m.h **** }
 687:./lib/chibios/os/common/ports/ARMCMx/chcore_v7m.h **** 
 688:./lib/chibios/os/common/ports/ARMCMx/chcore_v7m.h **** /**
 689:./lib/chibios/os/common/ports/ARMCMx/chcore_v7m.h ****  * @brief   Kernel-unlock action.
 690:./lib/chibios/os/common/ports/ARMCMx/chcore_v7m.h ****  * @details In this port this function lowers the base priority to user
 691:./lib/chibios/os/common/ports/ARMCMx/chcore_v7m.h ****  *          level.
 692:./lib/chibios/os/common/ports/ARMCMx/chcore_v7m.h ****  */
 693:./lib/chibios/os/common/ports/ARMCMx/chcore_v7m.h **** __STATIC_FORCEINLINE void port_unlock(void) {
 236              		.loc 3 693 27 view .LVU84
 694:./lib/chibios/os/common/ports/ARMCMx/chcore_v7m.h **** 
 695:./lib/chibios/os/common/ports/ARMCMx/chcore_v7m.h **** #if CORTEX_SIMPLIFIED_PRIORITY == FALSE
 696:./lib/chibios/os/common/ports/ARMCMx/chcore_v7m.h ****   __set_BASEPRI(CORTEX_BASEPRI_DISABLED);
 237              		.loc 3 696 3 view .LVU85
 238              	.LBB176:
 239              	.LBI176:
 491:./lib/chibios/os/common/ext/ARM/CMSIS/Core/Include/cmsis_gcc.h **** {
 240              		.loc 4 491 27 view .LVU86
 241              	.LBB177:
 242              		.loc 4 493 3 view .LVU87
 243 000c 0023     		movs	r3, #0
 244              		.syntax unified
 245              	@ 493 "./lib/chibios/os/common/ext/ARM/CMSIS/Core/Include/cmsis_gcc.h" 1
 246 000e 83F31188 		MSR basepri, r3
 247              	@ 0 "" 2
 248              	.LVL12:
 249              		.loc 4 493 3 is_stmt 0 view .LVU88
 250              		.thumb
 251              		.syntax unified
 252              	.LBE177:
 253              	.LBE176:
 254              	.LBE175:
 255              	.LBE174:
 256              	.LBE173:
 233:lib/chibios/os/rt/src/chthreads.c **** 
 234:lib/chibios/os/rt/src/chthreads.c ****   return tp;
 257              		.loc 1 234 3 is_stmt 1 view .LVU89
 235:lib/chibios/os/rt/src/chthreads.c **** }
 258              		.loc 1 235 1 is_stmt 0 view .LVU90
 259 0012 08BD     		pop	{r3, pc}
 260              		.cfi_endproc
 261              	.LFE245:
 263              		.section	.text.chThdCreateI,"ax",%progbits
 264              		.align	1
 265              		.global	chThdCreateI
 266              		.syntax unified
 267              		.thumb
 268              		.thumb_func
 269              		.fpu fpv4-sp-d16
 271              	chThdCreateI:
 272              	.LVL13:
 273              	.LFB246:
 236:lib/chibios/os/rt/src/chthreads.c **** 
 237:lib/chibios/os/rt/src/chthreads.c **** /**
 238:lib/chibios/os/rt/src/chthreads.c ****  * @brief   Creates a new thread into a static memory area.
 239:lib/chibios/os/rt/src/chthreads.c ****  * @details The new thread is initialized and make ready to execute.
 240:lib/chibios/os/rt/src/chthreads.c ****  * @post    The created thread has a reference counter set to one, it is
 241:lib/chibios/os/rt/src/chthreads.c ****  *          caller responsibility to call @p chThdRelease() or @p chthdWait()
 242:lib/chibios/os/rt/src/chthreads.c ****  *          in order to release the reference. The thread persists in the
 243:lib/chibios/os/rt/src/chthreads.c ****  *          registry until its reference counter reaches zero.
 244:lib/chibios/os/rt/src/chthreads.c ****  * @post    The initialized thread can be subsequently started by invoking
 245:lib/chibios/os/rt/src/chthreads.c ****  *          @p chThdStart(), @p chThdStartI() or @p chSchWakeupS()
 246:lib/chibios/os/rt/src/chthreads.c ****  *          depending on the execution context.
 247:lib/chibios/os/rt/src/chthreads.c ****  * @note    A thread can terminate by calling @p chThdExit() or by simply
 248:lib/chibios/os/rt/src/chthreads.c ****  *          returning from its main function.
 249:lib/chibios/os/rt/src/chthreads.c ****  * @note    Threads created using this function do not obey to the
 250:lib/chibios/os/rt/src/chthreads.c ****  *          @p CH_DBG_FILL_THREADS debug option because it would keep
 251:lib/chibios/os/rt/src/chthreads.c ****  *          the kernel locked for too much time.
 252:lib/chibios/os/rt/src/chthreads.c ****  *
 253:lib/chibios/os/rt/src/chthreads.c ****  * @param[out] tdp      pointer to the thread descriptor
 254:lib/chibios/os/rt/src/chthreads.c ****  * @return              The pointer to the @p thread_t structure allocated for
 255:lib/chibios/os/rt/src/chthreads.c ****  *                      the thread into the working space area.
 256:lib/chibios/os/rt/src/chthreads.c ****  *
 257:lib/chibios/os/rt/src/chthreads.c ****  * @iclass
 258:lib/chibios/os/rt/src/chthreads.c ****  */
 259:lib/chibios/os/rt/src/chthreads.c **** thread_t *chThdCreateI(const thread_descriptor_t *tdp) {
 274              		.loc 1 259 56 is_stmt 1 view -0
 275              		.cfi_startproc
 276              		@ args = 0, pretend = 0, frame = 0
 277              		@ frame_needed = 0, uses_anonymous_args = 0
 260:lib/chibios/os/rt/src/chthreads.c **** 
 261:lib/chibios/os/rt/src/chthreads.c ****   return chSchReadyI(chThdCreateSuspendedI(tdp));
 278              		.loc 1 261 3 view .LVU92
 259:lib/chibios/os/rt/src/chthreads.c **** 
 279              		.loc 1 259 56 is_stmt 0 view .LVU93
 280 0000 08B5     		push	{r3, lr}
 281              		.cfi_def_cfa_offset 8
 282              		.cfi_offset 3, -8
 283              		.cfi_offset 14, -4
 284              		.loc 1 261 10 view .LVU94
 285 0002 FFF7FEFF 		bl	chThdCreateSuspendedI
 286              	.LVL14:
 262:lib/chibios/os/rt/src/chthreads.c **** }
 287              		.loc 1 262 1 view .LVU95
 288 0006 BDE80840 		pop	{r3, lr}
 289              		.cfi_restore 14
 290              		.cfi_restore 3
 291              		.cfi_def_cfa_offset 0
 261:lib/chibios/os/rt/src/chthreads.c **** }
 292              		.loc 1 261 10 view .LVU96
 293 000a FFF7FEBF 		b	chSchReadyI
 294              	.LVL15:
 295              		.cfi_endproc
 296              	.LFE246:
 298              		.section	.text.chThdCreate,"ax",%progbits
 299              		.align	1
 300              		.global	chThdCreate
 301              		.syntax unified
 302              		.thumb
 303              		.thumb_func
 304              		.fpu fpv4-sp-d16
 306              	chThdCreate:
 307              	.LVL16:
 308              	.LFB247:
 263:lib/chibios/os/rt/src/chthreads.c **** 
 264:lib/chibios/os/rt/src/chthreads.c **** /**
 265:lib/chibios/os/rt/src/chthreads.c ****  * @brief   Creates a new thread into a static memory area.
 266:lib/chibios/os/rt/src/chthreads.c ****  * @details The new thread is initialized and make ready to execute.
 267:lib/chibios/os/rt/src/chthreads.c ****  * @post    The created thread has a reference counter set to one, it is
 268:lib/chibios/os/rt/src/chthreads.c ****  *          caller responsibility to call @p chThdRelease() or @p chthdWait()
 269:lib/chibios/os/rt/src/chthreads.c ****  *          in order to release the reference. The thread persists in the
 270:lib/chibios/os/rt/src/chthreads.c ****  *          registry until its reference counter reaches zero.
 271:lib/chibios/os/rt/src/chthreads.c ****  * @note    A thread can terminate by calling @p chThdExit() or by simply
 272:lib/chibios/os/rt/src/chthreads.c ****  *          returning from its main function.
 273:lib/chibios/os/rt/src/chthreads.c ****  *
 274:lib/chibios/os/rt/src/chthreads.c ****  * @param[out] tdp      pointer to the thread descriptor
 275:lib/chibios/os/rt/src/chthreads.c ****  * @return              The pointer to the @p thread_t structure allocated for
 276:lib/chibios/os/rt/src/chthreads.c ****  *                      the thread into the working space area.
 277:lib/chibios/os/rt/src/chthreads.c ****  *
 278:lib/chibios/os/rt/src/chthreads.c ****  * @iclass
 279:lib/chibios/os/rt/src/chthreads.c ****  */
 280:lib/chibios/os/rt/src/chthreads.c **** thread_t *chThdCreate(const thread_descriptor_t *tdp) {
 309              		.loc 1 280 55 is_stmt 1 view -0
 310              		.cfi_startproc
 311              		@ args = 0, pretend = 0, frame = 0
 312              		@ frame_needed = 0, uses_anonymous_args = 0
 281:lib/chibios/os/rt/src/chthreads.c ****   thread_t *tp;
 313              		.loc 1 281 3 view .LVU98
 282:lib/chibios/os/rt/src/chthreads.c **** 
 283:lib/chibios/os/rt/src/chthreads.c **** #if (CH_CFG_USE_REGISTRY == TRUE) &&                                        \
 284:lib/chibios/os/rt/src/chthreads.c ****     ((CH_DBG_ENABLE_STACK_CHECK == TRUE) || (CH_CFG_USE_DYNAMIC == TRUE))
 285:lib/chibios/os/rt/src/chthreads.c ****   chDbgAssert(chRegFindThreadByWorkingArea(tdp->wbase) == NULL,
 286:lib/chibios/os/rt/src/chthreads.c ****               "working area in use");
 287:lib/chibios/os/rt/src/chthreads.c **** #endif
 288:lib/chibios/os/rt/src/chthreads.c **** 
 289:lib/chibios/os/rt/src/chthreads.c **** #if CH_DBG_FILL_THREADS == TRUE
 290:lib/chibios/os/rt/src/chthreads.c ****   _thread_memfill((uint8_t *)tdp->wbase,
 291:lib/chibios/os/rt/src/chthreads.c ****                   (uint8_t *)tdp->wend,
 292:lib/chibios/os/rt/src/chthreads.c ****                   CH_DBG_STACK_FILL_VALUE);
 293:lib/chibios/os/rt/src/chthreads.c **** #endif
 294:lib/chibios/os/rt/src/chthreads.c **** 
 295:lib/chibios/os/rt/src/chthreads.c ****   chSysLock();
 314              		.loc 1 295 3 view .LVU99
 315              	.LBB178:
 316              	.LBI178:
 355:./lib/chibios/os/rt/include/chsys.h **** 
 317              		.loc 2 355 20 view .LVU100
 357:./lib/chibios/os/rt/include/chsys.h ****   _stats_start_measure_crit_thd();
 318              		.loc 2 357 3 view .LVU101
 319              	.LBB179:
 320              	.LBI179:
 669:./lib/chibios/os/common/ports/ARMCMx/chcore_v7m.h **** 
 321              		.loc 3 669 27 view .LVU102
 677:./lib/chibios/os/common/ports/ARMCMx/chcore_v7m.h **** #if defined(__CM7_REV)
 322              		.loc 3 677 3 view .LVU103
 323              	.LBB180:
 324              	.LBI180:
 491:./lib/chibios/os/common/ext/ARM/CMSIS/Core/Include/cmsis_gcc.h **** {
 325              		.loc 4 491 27 view .LVU104
 326              	.LBB181:
 327              		.loc 4 493 3 view .LVU105
 328              	.LBE181:
 329              	.LBE180:
 330              	.LBE179:
 331              	.LBE178:
 280:lib/chibios/os/rt/src/chthreads.c ****   thread_t *tp;
 332              		.loc 1 280 55 is_stmt 0 view .LVU106
 333 0000 10B5     		push	{r4, lr}
 334              		.cfi_def_cfa_offset 8
 335              		.cfi_offset 4, -8
 336              		.cfi_offset 14, -4
 337              	.LBB185:
 338              	.LBB184:
 339              	.LBB183:
 340              	.LBB182:
 341              		.loc 4 493 3 view .LVU107
 342 0002 2023     		movs	r3, #32
 343              		.syntax unified
 344              	@ 493 "./lib/chibios/os/common/ext/ARM/CMSIS/Core/Include/cmsis_gcc.h" 1
 345 0004 83F31188 		MSR basepri, r3
 346              	@ 0 "" 2
 347              	.LVL17:
 348              		.loc 4 493 3 view .LVU108
 349              		.thumb
 350              		.syntax unified
 351              	.LBE182:
 352              	.LBE183:
 353              	.LBE184:
 358:./lib/chibios/os/rt/include/chsys.h ****   _dbg_check_lock();
 354              		.loc 2 358 34 is_stmt 1 view .LVU109
 359:./lib/chibios/os/rt/include/chsys.h **** }
 355              		.loc 2 359 20 view .LVU110
 356              	.LBE185:
 296:lib/chibios/os/rt/src/chthreads.c ****   tp = chThdCreateSuspendedI(tdp);
 357              		.loc 1 296 3 view .LVU111
 358              		.loc 1 296 8 is_stmt 0 view .LVU112
 359 0008 FFF7FEFF 		bl	chThdCreateSuspendedI
 360              	.LVL18:
 297:lib/chibios/os/rt/src/chthreads.c ****   chSchWakeupS(tp, MSG_OK);
 361              		.loc 1 297 3 view .LVU113
 362 000c 0021     		movs	r1, #0
 296:lib/chibios/os/rt/src/chthreads.c ****   tp = chThdCreateSuspendedI(tdp);
 363              		.loc 1 296 8 view .LVU114
 364 000e 0446     		mov	r4, r0
 365              	.LVL19:
 366              		.loc 1 297 3 is_stmt 1 view .LVU115
 367 0010 FFF7FEFF 		bl	chSchWakeupS
 368              	.LVL20:
 298:lib/chibios/os/rt/src/chthreads.c ****   chSysUnlock();
 369              		.loc 1 298 3 view .LVU116
 370              	.LBB186:
 371              	.LBI186:
 367:./lib/chibios/os/rt/include/chsys.h **** 
 372              		.loc 2 367 20 view .LVU117
 373              	.LBB187:
 369:./lib/chibios/os/rt/include/chsys.h ****   _stats_stop_measure_crit_thd();
 374              		.loc 2 369 22 view .LVU118
 370:./lib/chibios/os/rt/include/chsys.h **** 
 375              		.loc 2 370 33 view .LVU119
 376:./lib/chibios/os/rt/include/chsys.h ****               (ch.rlist.current->hdr.pqueue.prio >= ch.rlist.pqueue.next->prio),
 376              		.loc 2 376 3 view .LVU120
 376:./lib/chibios/os/rt/include/chsys.h ****               (ch.rlist.current->hdr.pqueue.prio >= ch.rlist.pqueue.next->prio),
 377              		.loc 2 376 3 view .LVU121
 376:./lib/chibios/os/rt/include/chsys.h ****               (ch.rlist.current->hdr.pqueue.prio >= ch.rlist.pqueue.next->prio),
 378              		.loc 2 376 3 view .LVU122
 379              		.loc 2 380 3 view .LVU123
 380              	.LBB188:
 381              	.LBI188:
 693:./lib/chibios/os/common/ports/ARMCMx/chcore_v7m.h **** 
 382              		.loc 3 693 27 view .LVU124
 383              		.loc 3 696 3 view .LVU125
 384              	.LBB189:
 385              	.LBI189:
 491:./lib/chibios/os/common/ext/ARM/CMSIS/Core/Include/cmsis_gcc.h **** {
 386              		.loc 4 491 27 view .LVU126
 387              	.LBB190:
 388              		.loc 4 493 3 view .LVU127
 389 0014 0023     		movs	r3, #0
 390              		.syntax unified
 391              	@ 493 "./lib/chibios/os/common/ext/ARM/CMSIS/Core/Include/cmsis_gcc.h" 1
 392 0016 83F31188 		MSR basepri, r3
 393              	@ 0 "" 2
 394              	.LVL21:
 395              		.loc 4 493 3 is_stmt 0 view .LVU128
 396              		.thumb
 397              		.syntax unified
 398              	.LBE190:
 399              	.LBE189:
 400              	.LBE188:
 401              	.LBE187:
 402              	.LBE186:
 299:lib/chibios/os/rt/src/chthreads.c **** 
 300:lib/chibios/os/rt/src/chthreads.c ****   return tp;
 403              		.loc 1 300 3 is_stmt 1 view .LVU129
 301:lib/chibios/os/rt/src/chthreads.c **** }
 404              		.loc 1 301 1 is_stmt 0 view .LVU130
 405 001a 2046     		mov	r0, r4
 406 001c 10BD     		pop	{r4, pc}
 407              		.loc 1 301 1 view .LVU131
 408              		.cfi_endproc
 409              	.LFE247:
 411              		.section	.text.chThdCreateStatic,"ax",%progbits
 412              		.align	1
 413              		.global	chThdCreateStatic
 414              		.syntax unified
 415              		.thumb
 416              		.thumb_func
 417              		.fpu fpv4-sp-d16
 419              	chThdCreateStatic:
 420              	.LVL22:
 421              	.LFB248:
 302:lib/chibios/os/rt/src/chthreads.c **** 
 303:lib/chibios/os/rt/src/chthreads.c **** /**
 304:lib/chibios/os/rt/src/chthreads.c ****  * @brief   Creates a new thread into a static memory area.
 305:lib/chibios/os/rt/src/chthreads.c ****  * @post    The created thread has a reference counter set to one, it is
 306:lib/chibios/os/rt/src/chthreads.c ****  *          caller responsibility to call @p chThdRelease() or @p chThdWait()
 307:lib/chibios/os/rt/src/chthreads.c ****  *          in order to release the reference. The thread persists in the
 308:lib/chibios/os/rt/src/chthreads.c ****  *          registry until its reference counter reaches zero.
 309:lib/chibios/os/rt/src/chthreads.c ****  * @note    A thread can terminate by calling @p chThdExit() or by simply
 310:lib/chibios/os/rt/src/chthreads.c ****  *          returning from its main function.
 311:lib/chibios/os/rt/src/chthreads.c ****  *
 312:lib/chibios/os/rt/src/chthreads.c ****  * @param[out] wsp      pointer to a working area dedicated to the thread stack
 313:lib/chibios/os/rt/src/chthreads.c ****  * @param[in] size      size of the working area
 314:lib/chibios/os/rt/src/chthreads.c ****  * @param[in] prio      the priority level for the new thread
 315:lib/chibios/os/rt/src/chthreads.c ****  * @param[in] pf        the thread function
 316:lib/chibios/os/rt/src/chthreads.c ****  * @param[in] arg       an argument passed to the thread function. It can be
 317:lib/chibios/os/rt/src/chthreads.c ****  *                      @p NULL.
 318:lib/chibios/os/rt/src/chthreads.c ****  * @return              The pointer to the @p thread_t structure allocated for
 319:lib/chibios/os/rt/src/chthreads.c ****  *                      the thread into the working space area.
 320:lib/chibios/os/rt/src/chthreads.c ****  *
 321:lib/chibios/os/rt/src/chthreads.c ****  * @api
 322:lib/chibios/os/rt/src/chthreads.c ****  */
 323:lib/chibios/os/rt/src/chthreads.c **** thread_t *chThdCreateStatic(void *wsp, size_t size,
 324:lib/chibios/os/rt/src/chthreads.c ****                             tprio_t prio, tfunc_t pf, void *arg) {
 422              		.loc 1 324 66 is_stmt 1 view -0
 423              		.cfi_startproc
 424              		@ args = 4, pretend = 0, frame = 0
 425              		@ frame_needed = 0, uses_anonymous_args = 0
 325:lib/chibios/os/rt/src/chthreads.c ****   thread_t *tp;
 426              		.loc 1 325 3 view .LVU133
 326:lib/chibios/os/rt/src/chthreads.c **** 
 327:lib/chibios/os/rt/src/chthreads.c ****   chDbgCheck((wsp != NULL) &&
 427              		.loc 1 327 3 view .LVU134
 428              		.loc 1 327 3 view .LVU135
 429              		.loc 1 327 3 view .LVU136
 328:lib/chibios/os/rt/src/chthreads.c ****              MEM_IS_ALIGNED(wsp, PORT_WORKING_AREA_ALIGN) &&
 329:lib/chibios/os/rt/src/chthreads.c ****              (size >= THD_WORKING_AREA_SIZE(0)) &&
 330:lib/chibios/os/rt/src/chthreads.c ****              MEM_IS_ALIGNED(size, PORT_STACK_ALIGN) &&
 331:lib/chibios/os/rt/src/chthreads.c ****              (prio <= HIGHPRIO) && (pf != NULL));
 332:lib/chibios/os/rt/src/chthreads.c **** 
 333:lib/chibios/os/rt/src/chthreads.c **** #if (CH_CFG_USE_REGISTRY == TRUE) &&                                        \
 334:lib/chibios/os/rt/src/chthreads.c ****     ((CH_DBG_ENABLE_STACK_CHECK == TRUE) || (CH_CFG_USE_DYNAMIC == TRUE))
 335:lib/chibios/os/rt/src/chthreads.c ****   chDbgAssert(chRegFindThreadByWorkingArea(wsp) == NULL,
 336:lib/chibios/os/rt/src/chthreads.c ****               "working area in use");
 337:lib/chibios/os/rt/src/chthreads.c **** #endif
 338:lib/chibios/os/rt/src/chthreads.c **** 
 339:lib/chibios/os/rt/src/chthreads.c **** #if CH_DBG_FILL_THREADS == TRUE
 340:lib/chibios/os/rt/src/chthreads.c ****   _thread_memfill((uint8_t *)wsp,
 341:lib/chibios/os/rt/src/chthreads.c ****                   (uint8_t *)wsp + size,
 342:lib/chibios/os/rt/src/chthreads.c ****                   CH_DBG_STACK_FILL_VALUE);
 343:lib/chibios/os/rt/src/chthreads.c **** #endif
 344:lib/chibios/os/rt/src/chthreads.c **** 
 345:lib/chibios/os/rt/src/chthreads.c ****   chSysLock();
 430              		.loc 1 345 3 view .LVU137
 431              	.LBB191:
 432              	.LBI191:
 355:./lib/chibios/os/rt/include/chsys.h **** 
 433              		.loc 2 355 20 view .LVU138
 357:./lib/chibios/os/rt/include/chsys.h ****   _stats_start_measure_crit_thd();
 434              		.loc 2 357 3 view .LVU139
 435              	.LBB192:
 436              	.LBI192:
 669:./lib/chibios/os/common/ports/ARMCMx/chcore_v7m.h **** 
 437              		.loc 3 669 27 view .LVU140
 677:./lib/chibios/os/common/ports/ARMCMx/chcore_v7m.h **** #if defined(__CM7_REV)
 438              		.loc 3 677 3 view .LVU141
 439              	.LBB193:
 440              	.LBI193:
 491:./lib/chibios/os/common/ext/ARM/CMSIS/Core/Include/cmsis_gcc.h **** {
 441              		.loc 4 491 27 view .LVU142
 442              	.LBB194:
 443              		.loc 4 493 3 view .LVU143
 444              	.LBE194:
 445              	.LBE193:
 446              	.LBE192:
 447              	.LBE191:
 324:lib/chibios/os/rt/src/chthreads.c ****   thread_t *tp;
 448              		.loc 1 324 66 is_stmt 0 view .LVU144
 449 0000 38B5     		push	{r3, r4, r5, lr}
 450              		.cfi_def_cfa_offset 16
 451              		.cfi_offset 3, -16
 452              		.cfi_offset 4, -12
 453              		.cfi_offset 5, -8
 454              		.cfi_offset 14, -4
 455              	.LBB198:
 456              	.LBB197:
 457              	.LBB196:
 458              	.LBB195:
 459              		.loc 4 493 3 view .LVU145
 460 0002 2024     		movs	r4, #32
 461              		.syntax unified
 462              	@ 493 "./lib/chibios/os/common/ext/ARM/CMSIS/Core/Include/cmsis_gcc.h" 1
 463 0004 84F31188 		MSR basepri, r4
 464              	@ 0 "" 2
 465              	.LVL23:
 466              		.loc 4 493 3 view .LVU146
 467              		.thumb
 468              		.syntax unified
 469              	.LBE195:
 470              	.LBE196:
 471              	.LBE197:
 358:./lib/chibios/os/rt/include/chsys.h ****   _dbg_check_lock();
 472              		.loc 2 358 34 is_stmt 1 view .LVU147
 359:./lib/chibios/os/rt/include/chsys.h **** }
 473              		.loc 2 359 20 view .LVU148
 474              	.LBE198:
 346:lib/chibios/os/rt/src/chthreads.c **** 
 347:lib/chibios/os/rt/src/chthreads.c ****   /* The thread structure is laid out in the upper part of the thread
 348:lib/chibios/os/rt/src/chthreads.c ****      workspace. The thread position structure is aligned to the required
 349:lib/chibios/os/rt/src/chthreads.c ****      stack alignment because it represents the stack top.*/
 350:lib/chibios/os/rt/src/chthreads.c ****   tp = (thread_t *)((uint8_t *)wsp + size -
 475              		.loc 1 350 3 view .LVU149
 476              		.loc 1 350 43 is_stmt 0 view .LVU150
 477 0008 2839     		subs	r1, r1, #40
 478              	.LVL24:
 479              		.loc 1 350 6 view .LVU151
 480 000a 4418     		adds	r4, r0, r1
 481              	.LVL25:
 351:lib/chibios/os/rt/src/chthreads.c ****                     MEM_ALIGN_NEXT(sizeof (thread_t), PORT_STACK_ALIGN));
 352:lib/chibios/os/rt/src/chthreads.c **** 
 353:lib/chibios/os/rt/src/chthreads.c **** #if (CH_DBG_ENABLE_STACK_CHECK == TRUE) || (CH_CFG_USE_DYNAMIC == TRUE)
 354:lib/chibios/os/rt/src/chthreads.c ****   /* Stack boundary.*/
 355:lib/chibios/os/rt/src/chthreads.c ****   tp->wabase = (stkalign_t *)wsp;
 356:lib/chibios/os/rt/src/chthreads.c **** #endif
 357:lib/chibios/os/rt/src/chthreads.c **** 
 358:lib/chibios/os/rt/src/chthreads.c ****   /* Setting up the port-dependent part of the working area.*/
 359:lib/chibios/os/rt/src/chthreads.c ****   PORT_SETUP_CONTEXT(tp, wsp, tp, pf, arg);
 482              		.loc 1 359 3 is_stmt 1 view .LVU152
 483 000c A4F16401 		sub	r1, r4, #100
 484              	.LVL26:
 485              		.loc 1 359 3 is_stmt 0 view .LVU153
 486 0010 44F8243C 		str	r3, [r4, #-36]
 487 0014 049B     		ldr	r3, [sp, #16]
 488              	.LVL27:
 489              		.loc 1 359 3 view .LVU154
 490 0016 44F8203C 		str	r3, [r4, #-32]
 491 001a 094B     		ldr	r3, .L9
 492 001c 44F8043C 		str	r3, [r4, #-4]
 493              	.LBB199:
 494              	.LBB200:
  98:lib/chibios/os/rt/src/chthreads.c **** #endif
 495              		.loc 1 98 23 view .LVU155
 496 0020 0025     		movs	r5, #0
  91:lib/chibios/os/rt/src/chthreads.c ****   tp->flags           = CH_FLAG_MODE_STATIC;
 497              		.loc 1 91 23 view .LVU156
 498 0022 0223     		movs	r3, #2
 499              	.LBE200:
 500              	.LBE199:
 501              		.loc 1 359 3 view .LVU157
 502 0024 E160     		str	r1, [r4, #12]
 503              		.loc 1 359 3 is_stmt 1 view .LVU158
 504              		.loc 1 359 3 view .LVU159
 505              		.loc 1 359 3 view .LVU160
 506              		.loc 1 359 3 view .LVU161
 507              		.loc 1 359 3 view .LVU162
 508              		.loc 1 359 43 view .LVU163
 360:lib/chibios/os/rt/src/chthreads.c **** 
 361:lib/chibios/os/rt/src/chthreads.c ****   tp = _thread_init(tp, "noname", prio);
 509              		.loc 1 361 3 view .LVU164
 510              	.LVL28:
 511              	.LBB202:
 512              	.LBI199:
  88:lib/chibios/os/rt/src/chthreads.c **** 
 513              		.loc 1 88 11 view .LVU165
 514              	.LBB201:
  90:lib/chibios/os/rt/src/chthreads.c ****   tp->state           = CH_STATE_WTSTART;
 515              		.loc 1 90 3 view .LVU166
 101:lib/chibios/os/rt/src/chthreads.c **** #endif
 516              		.loc 1 101 23 is_stmt 0 view .LVU167
 517 0026 C4E90655 		strd	r5, r5, [r4, #24]
  90:lib/chibios/os/rt/src/chthreads.c ****   tp->state           = CH_STATE_WTSTART;
 518              		.loc 1 90 23 view .LVU168
 519 002a A260     		str	r2, [r4, #8]
  91:lib/chibios/os/rt/src/chthreads.c ****   tp->flags           = CH_FLAG_MODE_STATIC;
 520              		.loc 1 91 3 is_stmt 1 view .LVU169
  92:lib/chibios/os/rt/src/chthreads.c **** #if CH_CFG_TIME_QUANTUM > 0
 521              		.loc 1 92 3 view .LVU170
  91:lib/chibios/os/rt/src/chthreads.c ****   tp->flags           = CH_FLAG_MODE_STATIC;
 522              		.loc 1 91 23 is_stmt 0 view .LVU171
 523 002c 2382     		strh	r3, [r4, #16]	@ movhi
  97:lib/chibios/os/rt/src/chthreads.c ****   tp->mtxlist         = NULL;
 524              		.loc 1 97 3 is_stmt 1 view .LVU172
  97:lib/chibios/os/rt/src/chthreads.c ****   tp->mtxlist         = NULL;
 525              		.loc 1 97 23 is_stmt 0 view .LVU173
 526 002e 2262     		str	r2, [r4, #32]
  98:lib/chibios/os/rt/src/chthreads.c **** #endif
 527              		.loc 1 98 3 is_stmt 1 view .LVU174
 111:lib/chibios/os/rt/src/chthreads.c **** #endif
 528              		.loc 1 111 3 view .LVU175
 122:lib/chibios/os/rt/src/chthreads.c ****   return tp;
 529              		.loc 1 122 3 view .LVU176
 122:lib/chibios/os/rt/src/chthreads.c ****   return tp;
 530              		.loc 1 122 30 view .LVU177
 123:lib/chibios/os/rt/src/chthreads.c **** }
 531              		.loc 1 123 3 view .LVU178
 532              	.LVL29:
 123:lib/chibios/os/rt/src/chthreads.c **** }
 533              		.loc 1 123 3 is_stmt 0 view .LVU179
 534              	.LBE201:
 535              	.LBE202:
 362:lib/chibios/os/rt/src/chthreads.c **** 
 363:lib/chibios/os/rt/src/chthreads.c ****   /* Starting the thread immediately.*/
 364:lib/chibios/os/rt/src/chthreads.c ****   chSchWakeupS(tp, MSG_OK);
 536              		.loc 1 364 3 is_stmt 1 view .LVU180
 537 0030 2946     		mov	r1, r5
 538 0032 2046     		mov	r0, r4
 539              	.LVL30:
 540              		.loc 1 364 3 is_stmt 0 view .LVU181
 541 0034 FFF7FEFF 		bl	chSchWakeupS
 542              	.LVL31:
 365:lib/chibios/os/rt/src/chthreads.c ****   chSysUnlock();
 543              		.loc 1 365 3 is_stmt 1 view .LVU182
 544              	.LBB203:
 545              	.LBI203:
 367:./lib/chibios/os/rt/include/chsys.h **** 
 546              		.loc 2 367 20 view .LVU183
 547              	.LBB204:
 369:./lib/chibios/os/rt/include/chsys.h ****   _stats_stop_measure_crit_thd();
 548              		.loc 2 369 22 view .LVU184
 370:./lib/chibios/os/rt/include/chsys.h **** 
 549              		.loc 2 370 33 view .LVU185
 376:./lib/chibios/os/rt/include/chsys.h ****               (ch.rlist.current->hdr.pqueue.prio >= ch.rlist.pqueue.next->prio),
 550              		.loc 2 376 3 view .LVU186
 376:./lib/chibios/os/rt/include/chsys.h ****               (ch.rlist.current->hdr.pqueue.prio >= ch.rlist.pqueue.next->prio),
 551              		.loc 2 376 3 view .LVU187
 376:./lib/chibios/os/rt/include/chsys.h ****               (ch.rlist.current->hdr.pqueue.prio >= ch.rlist.pqueue.next->prio),
 552              		.loc 2 376 3 view .LVU188
 553              		.loc 2 380 3 view .LVU189
 554              	.LBB205:
 555              	.LBI205:
 693:./lib/chibios/os/common/ports/ARMCMx/chcore_v7m.h **** 
 556              		.loc 3 693 27 view .LVU190
 557              		.loc 3 696 3 view .LVU191
 558              	.LBB206:
 559              	.LBI206:
 491:./lib/chibios/os/common/ext/ARM/CMSIS/Core/Include/cmsis_gcc.h **** {
 560              		.loc 4 491 27 view .LVU192
 561              	.LBB207:
 562              		.loc 4 493 3 view .LVU193
 563              		.syntax unified
 564              	@ 493 "./lib/chibios/os/common/ext/ARM/CMSIS/Core/Include/cmsis_gcc.h" 1
 565 0038 85F31188 		MSR basepri, r5
 566              	@ 0 "" 2
 567              	.LVL32:
 568              		.loc 4 493 3 is_stmt 0 view .LVU194
 569              		.thumb
 570              		.syntax unified
 571              	.LBE207:
 572              	.LBE206:
 573              	.LBE205:
 574              	.LBE204:
 575              	.LBE203:
 366:lib/chibios/os/rt/src/chthreads.c **** 
 367:lib/chibios/os/rt/src/chthreads.c ****   return tp;
 576              		.loc 1 367 3 is_stmt 1 view .LVU195
 368:lib/chibios/os/rt/src/chthreads.c **** }
 577              		.loc 1 368 1 is_stmt 0 view .LVU196
 578 003c 2046     		mov	r0, r4
 579 003e 38BD     		pop	{r3, r4, r5, pc}
 580              	.LVL33:
 581              	.L10:
 582              		.loc 1 368 1 view .LVU197
 583              		.align	2
 584              	.L9:
 585 0040 00000000 		.word	_port_thread_start
 586              		.cfi_endproc
 587              	.LFE248:
 589              		.section	.text.chThdStart,"ax",%progbits
 590              		.align	1
 591              		.global	chThdStart
 592              		.syntax unified
 593              		.thumb
 594              		.thumb_func
 595              		.fpu fpv4-sp-d16
 597              	chThdStart:
 598              	.LVL34:
 599              	.LFB249:
 369:lib/chibios/os/rt/src/chthreads.c **** 
 370:lib/chibios/os/rt/src/chthreads.c **** /**
 371:lib/chibios/os/rt/src/chthreads.c ****  * @brief   Resumes a thread created with @p chThdCreateI().
 372:lib/chibios/os/rt/src/chthreads.c ****  *
 373:lib/chibios/os/rt/src/chthreads.c ****  * @param[in] tp        pointer to the thread
 374:lib/chibios/os/rt/src/chthreads.c ****  * @return              The pointer to the @p thread_t structure allocated for
 375:lib/chibios/os/rt/src/chthreads.c ****  *                      the thread into the working space area.
 376:lib/chibios/os/rt/src/chthreads.c ****  *
 377:lib/chibios/os/rt/src/chthreads.c ****  * @api
 378:lib/chibios/os/rt/src/chthreads.c ****  */
 379:lib/chibios/os/rt/src/chthreads.c **** thread_t *chThdStart(thread_t *tp) {
 600              		.loc 1 379 36 is_stmt 1 view -0
 601              		.cfi_startproc
 602              		@ args = 0, pretend = 0, frame = 0
 603              		@ frame_needed = 0, uses_anonymous_args = 0
 380:lib/chibios/os/rt/src/chthreads.c **** 
 381:lib/chibios/os/rt/src/chthreads.c ****   chSysLock();
 604              		.loc 1 381 3 view .LVU199
 605              	.LBB208:
 606              	.LBI208:
 355:./lib/chibios/os/rt/include/chsys.h **** 
 607              		.loc 2 355 20 view .LVU200
 357:./lib/chibios/os/rt/include/chsys.h ****   _stats_start_measure_crit_thd();
 608              		.loc 2 357 3 view .LVU201
 609              	.LBB209:
 610              	.LBI209:
 669:./lib/chibios/os/common/ports/ARMCMx/chcore_v7m.h **** 
 611              		.loc 3 669 27 view .LVU202
 677:./lib/chibios/os/common/ports/ARMCMx/chcore_v7m.h **** #if defined(__CM7_REV)
 612              		.loc 3 677 3 view .LVU203
 613              	.LBB210:
 614              	.LBI210:
 491:./lib/chibios/os/common/ext/ARM/CMSIS/Core/Include/cmsis_gcc.h **** {
 615              		.loc 4 491 27 view .LVU204
 616              	.LBB211:
 617              		.loc 4 493 3 view .LVU205
 618              	.LBE211:
 619              	.LBE210:
 620              	.LBE209:
 621              	.LBE208:
 379:lib/chibios/os/rt/src/chthreads.c **** 
 622              		.loc 1 379 36 is_stmt 0 view .LVU206
 623 0000 10B5     		push	{r4, lr}
 624              		.cfi_def_cfa_offset 8
 625              		.cfi_offset 4, -8
 626              		.cfi_offset 14, -4
 627              	.LBB218:
 628              	.LBB216:
 629              	.LBB214:
 630              	.LBB212:
 631              		.loc 4 493 3 view .LVU207
 632 0002 2023     		movs	r3, #32
 633              	.LBE212:
 634              	.LBE214:
 635              	.LBE216:
 636              	.LBE218:
 379:lib/chibios/os/rt/src/chthreads.c **** 
 637              		.loc 1 379 36 view .LVU208
 638 0004 0446     		mov	r4, r0
 639              	.LBB219:
 640              	.LBB217:
 641              	.LBB215:
 642              	.LBB213:
 643              		.loc 4 493 3 view .LVU209
 644              		.syntax unified
 645              	@ 493 "./lib/chibios/os/common/ext/ARM/CMSIS/Core/Include/cmsis_gcc.h" 1
 646 0006 83F31188 		MSR basepri, r3
 647              	@ 0 "" 2
 648              	.LVL35:
 649              		.loc 4 493 3 view .LVU210
 650              		.thumb
 651              		.syntax unified
 652              	.LBE213:
 653              	.LBE215:
 654              	.LBE217:
 358:./lib/chibios/os/rt/include/chsys.h ****   _dbg_check_lock();
 655              		.loc 2 358 34 is_stmt 1 view .LVU211
 359:./lib/chibios/os/rt/include/chsys.h **** }
 656              		.loc 2 359 20 view .LVU212
 657              	.LBE219:
 382:lib/chibios/os/rt/src/chthreads.c ****   chDbgAssert(tp->state == CH_STATE_WTSTART, "wrong state");
 658              		.loc 1 382 3 view .LVU213
 659              		.loc 1 382 3 view .LVU214
 660              		.loc 1 382 3 view .LVU215
 383:lib/chibios/os/rt/src/chthreads.c ****   chSchWakeupS(tp, MSG_OK);
 661              		.loc 1 383 3 view .LVU216
 662 000a 0021     		movs	r1, #0
 663 000c FFF7FEFF 		bl	chSchWakeupS
 664              	.LVL36:
 384:lib/chibios/os/rt/src/chthreads.c ****   chSysUnlock();
 665              		.loc 1 384 3 view .LVU217
 666              	.LBB220:
 667              	.LBI220:
 367:./lib/chibios/os/rt/include/chsys.h **** 
 668              		.loc 2 367 20 view .LVU218
 669              	.LBB221:
 369:./lib/chibios/os/rt/include/chsys.h ****   _stats_stop_measure_crit_thd();
 670              		.loc 2 369 22 view .LVU219
 370:./lib/chibios/os/rt/include/chsys.h **** 
 671              		.loc 2 370 33 view .LVU220
 376:./lib/chibios/os/rt/include/chsys.h ****               (ch.rlist.current->hdr.pqueue.prio >= ch.rlist.pqueue.next->prio),
 672              		.loc 2 376 3 view .LVU221
 376:./lib/chibios/os/rt/include/chsys.h ****               (ch.rlist.current->hdr.pqueue.prio >= ch.rlist.pqueue.next->prio),
 673              		.loc 2 376 3 view .LVU222
 376:./lib/chibios/os/rt/include/chsys.h ****               (ch.rlist.current->hdr.pqueue.prio >= ch.rlist.pqueue.next->prio),
 674              		.loc 2 376 3 view .LVU223
 675              		.loc 2 380 3 view .LVU224
 676              	.LBB222:
 677              	.LBI222:
 693:./lib/chibios/os/common/ports/ARMCMx/chcore_v7m.h **** 
 678              		.loc 3 693 27 view .LVU225
 679              		.loc 3 696 3 view .LVU226
 680              	.LBB223:
 681              	.LBI223:
 491:./lib/chibios/os/common/ext/ARM/CMSIS/Core/Include/cmsis_gcc.h **** {
 682              		.loc 4 491 27 view .LVU227
 683              	.LBB224:
 684              		.loc 4 493 3 view .LVU228
 685 0010 0023     		movs	r3, #0
 686              		.syntax unified
 687              	@ 493 "./lib/chibios/os/common/ext/ARM/CMSIS/Core/Include/cmsis_gcc.h" 1
 688 0012 83F31188 		MSR basepri, r3
 689              	@ 0 "" 2
 690              	.LVL37:
 691              		.loc 4 493 3 is_stmt 0 view .LVU229
 692              		.thumb
 693              		.syntax unified
 694              	.LBE224:
 695              	.LBE223:
 696              	.LBE222:
 697              	.LBE221:
 698              	.LBE220:
 385:lib/chibios/os/rt/src/chthreads.c **** 
 386:lib/chibios/os/rt/src/chthreads.c ****   return tp;
 699              		.loc 1 386 3 is_stmt 1 view .LVU230
 387:lib/chibios/os/rt/src/chthreads.c **** }
 700              		.loc 1 387 1 is_stmt 0 view .LVU231
 701 0016 2046     		mov	r0, r4
 702 0018 10BD     		pop	{r4, pc}
 703              		.loc 1 387 1 view .LVU232
 704              		.cfi_endproc
 705              	.LFE249:
 707              		.section	.text.chThdExitS,"ax",%progbits
 708              		.align	1
 709              		.global	chThdExitS
 710              		.syntax unified
 711              		.thumb
 712              		.thumb_func
 713              		.fpu fpv4-sp-d16
 715              	chThdExitS:
 716              	.LVL38:
 717              	.LFB251:
 388:lib/chibios/os/rt/src/chthreads.c **** 
 389:lib/chibios/os/rt/src/chthreads.c **** #if (CH_CFG_USE_REGISTRY == TRUE) || defined(__DOXYGEN__)
 390:lib/chibios/os/rt/src/chthreads.c **** /**
 391:lib/chibios/os/rt/src/chthreads.c ****  * @brief   Adds a reference to a thread object.
 392:lib/chibios/os/rt/src/chthreads.c ****  * @pre     The configuration option @p CH_CFG_USE_REGISTRY must be enabled in
 393:lib/chibios/os/rt/src/chthreads.c ****  *          order to use this function.
 394:lib/chibios/os/rt/src/chthreads.c ****  *
 395:lib/chibios/os/rt/src/chthreads.c ****  * @param[in] tp        pointer to the thread
 396:lib/chibios/os/rt/src/chthreads.c ****  * @return              The same thread pointer passed as parameter
 397:lib/chibios/os/rt/src/chthreads.c ****  *                      representing the new reference.
 398:lib/chibios/os/rt/src/chthreads.c ****  *
 399:lib/chibios/os/rt/src/chthreads.c ****  * @api
 400:lib/chibios/os/rt/src/chthreads.c ****  */
 401:lib/chibios/os/rt/src/chthreads.c **** thread_t *chThdAddRef(thread_t *tp) {
 402:lib/chibios/os/rt/src/chthreads.c **** 
 403:lib/chibios/os/rt/src/chthreads.c ****   chSysLock();
 404:lib/chibios/os/rt/src/chthreads.c ****   chDbgAssert(tp->refs < (trefs_t)255, "too many references");
 405:lib/chibios/os/rt/src/chthreads.c ****   tp->refs++;
 406:lib/chibios/os/rt/src/chthreads.c ****   chSysUnlock();
 407:lib/chibios/os/rt/src/chthreads.c **** 
 408:lib/chibios/os/rt/src/chthreads.c ****   return tp;
 409:lib/chibios/os/rt/src/chthreads.c **** }
 410:lib/chibios/os/rt/src/chthreads.c **** 
 411:lib/chibios/os/rt/src/chthreads.c **** /**
 412:lib/chibios/os/rt/src/chthreads.c ****  * @brief   Releases a reference to a thread object.
 413:lib/chibios/os/rt/src/chthreads.c ****  * @details If the references counter reaches zero <b>and</b> the thread
 414:lib/chibios/os/rt/src/chthreads.c ****  *          is in the @p CH_STATE_FINAL state then the thread's memory is
 415:lib/chibios/os/rt/src/chthreads.c ****  *          returned to the proper allocator and the thread is removed
 416:lib/chibios/os/rt/src/chthreads.c ****  *          from the registry.<br>
 417:lib/chibios/os/rt/src/chthreads.c ****  *          Threads whose counter reaches zero and are still active become
 418:lib/chibios/os/rt/src/chthreads.c ****  *          "detached" and will be removed from registry on termination.
 419:lib/chibios/os/rt/src/chthreads.c ****  * @pre     The configuration option @p CH_CFG_USE_REGISTRY must be enabled in
 420:lib/chibios/os/rt/src/chthreads.c ****  *          order to use this function.
 421:lib/chibios/os/rt/src/chthreads.c ****  * @note    Static threads are not affected.
 422:lib/chibios/os/rt/src/chthreads.c ****  *
 423:lib/chibios/os/rt/src/chthreads.c ****  * @param[in] tp        pointer to the thread
 424:lib/chibios/os/rt/src/chthreads.c ****  *
 425:lib/chibios/os/rt/src/chthreads.c ****  * @api
 426:lib/chibios/os/rt/src/chthreads.c ****  */
 427:lib/chibios/os/rt/src/chthreads.c **** void chThdRelease(thread_t *tp) {
 428:lib/chibios/os/rt/src/chthreads.c **** 
 429:lib/chibios/os/rt/src/chthreads.c ****   chSysLock();
 430:lib/chibios/os/rt/src/chthreads.c ****   chDbgAssert(tp->refs > (trefs_t)0, "not referenced");
 431:lib/chibios/os/rt/src/chthreads.c ****   tp->refs--;
 432:lib/chibios/os/rt/src/chthreads.c **** 
 433:lib/chibios/os/rt/src/chthreads.c ****   /* If the references counter reaches zero and the thread is in its
 434:lib/chibios/os/rt/src/chthreads.c ****      terminated state then the memory can be returned to the proper
 435:lib/chibios/os/rt/src/chthreads.c ****      allocator.*/
 436:lib/chibios/os/rt/src/chthreads.c ****   if ((tp->refs == (trefs_t)0) && (tp->state == CH_STATE_FINAL)) {
 437:lib/chibios/os/rt/src/chthreads.c ****     REG_REMOVE(tp);
 438:lib/chibios/os/rt/src/chthreads.c ****     chSysUnlock();
 439:lib/chibios/os/rt/src/chthreads.c **** 
 440:lib/chibios/os/rt/src/chthreads.c **** #if CH_CFG_USE_DYNAMIC == TRUE
 441:lib/chibios/os/rt/src/chthreads.c ****     switch (tp->flags & CH_FLAG_MODE_MASK) {
 442:lib/chibios/os/rt/src/chthreads.c **** #if CH_CFG_USE_HEAP == TRUE
 443:lib/chibios/os/rt/src/chthreads.c ****     case CH_FLAG_MODE_HEAP:
 444:lib/chibios/os/rt/src/chthreads.c ****       chHeapFree(chThdGetWorkingAreaX(tp));
 445:lib/chibios/os/rt/src/chthreads.c ****       break;
 446:lib/chibios/os/rt/src/chthreads.c **** #endif
 447:lib/chibios/os/rt/src/chthreads.c **** #if CH_CFG_USE_MEMPOOLS == TRUE
 448:lib/chibios/os/rt/src/chthreads.c ****     case CH_FLAG_MODE_MPOOL:
 449:lib/chibios/os/rt/src/chthreads.c ****       chPoolFree(tp->mpool, chThdGetWorkingAreaX(tp));
 450:lib/chibios/os/rt/src/chthreads.c ****       break;
 451:lib/chibios/os/rt/src/chthreads.c **** #endif
 452:lib/chibios/os/rt/src/chthreads.c ****     default:
 453:lib/chibios/os/rt/src/chthreads.c ****       /* Nothing else to do for static threads.*/
 454:lib/chibios/os/rt/src/chthreads.c ****       break;
 455:lib/chibios/os/rt/src/chthreads.c ****     }
 456:lib/chibios/os/rt/src/chthreads.c **** #endif /* CH_CFG_USE_DYNAMIC == TRUE */
 457:lib/chibios/os/rt/src/chthreads.c ****     return;
 458:lib/chibios/os/rt/src/chthreads.c ****   }
 459:lib/chibios/os/rt/src/chthreads.c ****   chSysUnlock();
 460:lib/chibios/os/rt/src/chthreads.c **** }
 461:lib/chibios/os/rt/src/chthreads.c **** #endif /* CH_CFG_USE_REGISTRY == TRUE */
 462:lib/chibios/os/rt/src/chthreads.c **** 
 463:lib/chibios/os/rt/src/chthreads.c **** /**
 464:lib/chibios/os/rt/src/chthreads.c ****  * @brief   Terminates the current thread.
 465:lib/chibios/os/rt/src/chthreads.c ****  * @details The thread goes in the @p CH_STATE_FINAL state holding the
 466:lib/chibios/os/rt/src/chthreads.c ****  *          specified exit status code, other threads can retrieve the
 467:lib/chibios/os/rt/src/chthreads.c ****  *          exit status code by invoking the function @p chThdWait().
 468:lib/chibios/os/rt/src/chthreads.c ****  * @post    Eventual code after this function will never be executed,
 469:lib/chibios/os/rt/src/chthreads.c ****  *          this function never returns. The compiler has no way to
 470:lib/chibios/os/rt/src/chthreads.c ****  *          know this so do not assume that the compiler would remove
 471:lib/chibios/os/rt/src/chthreads.c ****  *          the dead code.
 472:lib/chibios/os/rt/src/chthreads.c ****  *
 473:lib/chibios/os/rt/src/chthreads.c ****  * @param[in] msg       thread exit code
 474:lib/chibios/os/rt/src/chthreads.c ****  *
 475:lib/chibios/os/rt/src/chthreads.c ****  * @api
 476:lib/chibios/os/rt/src/chthreads.c ****  */
 477:lib/chibios/os/rt/src/chthreads.c **** void chThdExit(msg_t msg) {
 478:lib/chibios/os/rt/src/chthreads.c **** 
 479:lib/chibios/os/rt/src/chthreads.c ****   chSysLock();
 480:lib/chibios/os/rt/src/chthreads.c ****   chThdExitS(msg);
 481:lib/chibios/os/rt/src/chthreads.c ****   /* The thread never returns here.*/
 482:lib/chibios/os/rt/src/chthreads.c **** }
 483:lib/chibios/os/rt/src/chthreads.c **** 
 484:lib/chibios/os/rt/src/chthreads.c **** /**
 485:lib/chibios/os/rt/src/chthreads.c ****  * @brief   Terminates the current thread.
 486:lib/chibios/os/rt/src/chthreads.c ****  * @details The thread goes in the @p CH_STATE_FINAL state holding the
 487:lib/chibios/os/rt/src/chthreads.c ****  *          specified exit status code, other threads can retrieve the
 488:lib/chibios/os/rt/src/chthreads.c ****  *          exit status code by invoking the function @p chThdWait().
 489:lib/chibios/os/rt/src/chthreads.c ****  * @post    Exiting a non-static thread that does not have references
 490:lib/chibios/os/rt/src/chthreads.c ****  *          (detached) causes the thread to remain in the registry.
 491:lib/chibios/os/rt/src/chthreads.c ****  *          It can only be removed by performing a registry scan operation.
 492:lib/chibios/os/rt/src/chthreads.c ****  * @post    Eventual code after this function will never be executed,
 493:lib/chibios/os/rt/src/chthreads.c ****  *          this function never returns. The compiler has no way to
 494:lib/chibios/os/rt/src/chthreads.c ****  *          know this so do not assume that the compiler would remove
 495:lib/chibios/os/rt/src/chthreads.c ****  *          the dead code.
 496:lib/chibios/os/rt/src/chthreads.c ****  *
 497:lib/chibios/os/rt/src/chthreads.c ****  * @param[in] msg       thread exit code
 498:lib/chibios/os/rt/src/chthreads.c ****  *
 499:lib/chibios/os/rt/src/chthreads.c ****  * @sclass
 500:lib/chibios/os/rt/src/chthreads.c ****  */
 501:lib/chibios/os/rt/src/chthreads.c **** void chThdExitS(msg_t msg) {
 718              		.loc 1 501 28 is_stmt 1 view -0
 719              		.cfi_startproc
 720              		@ args = 0, pretend = 0, frame = 0
 721              		@ frame_needed = 0, uses_anonymous_args = 0
 722              		@ link register save eliminated.
 502:lib/chibios/os/rt/src/chthreads.c ****   thread_t *tp = currp;
 723              		.loc 1 502 3 view .LVU234
 503:lib/chibios/os/rt/src/chthreads.c **** 
 504:lib/chibios/os/rt/src/chthreads.c ****   /* Storing exit message.*/
 505:lib/chibios/os/rt/src/chthreads.c ****   tp->u.exitcode = msg;
 724              		.loc 1 505 3 view .LVU235
 502:lib/chibios/os/rt/src/chthreads.c ****   thread_t *tp = currp;
 725              		.loc 1 502 13 is_stmt 0 view .LVU236
 726 0000 024B     		ldr	r3, .L13
 727              		.loc 1 505 18 view .LVU237
 728 0002 1B69     		ldr	r3, [r3, #16]
 729 0004 5861     		str	r0, [r3, #20]
 506:lib/chibios/os/rt/src/chthreads.c **** 
 507:lib/chibios/os/rt/src/chthreads.c ****   /* Exit handler hook.*/
 508:lib/chibios/os/rt/src/chthreads.c ****   CH_CFG_THREAD_EXIT_HOOK(tp);
 730              		.loc 1 508 3 is_stmt 1 view .LVU238
 731              		.loc 1 508 30 view .LVU239
 509:lib/chibios/os/rt/src/chthreads.c **** 
 510:lib/chibios/os/rt/src/chthreads.c **** #if CH_CFG_USE_WAITEXIT == TRUE
 511:lib/chibios/os/rt/src/chthreads.c ****   /* Waking up any waiting thread.*/
 512:lib/chibios/os/rt/src/chthreads.c ****   while (ch_list_notempty(&tp->waiting)) {
 513:lib/chibios/os/rt/src/chthreads.c ****     (void) chSchReadyI((thread_t *)ch_list_pop(&tp->waiting));
 514:lib/chibios/os/rt/src/chthreads.c ****   }
 515:lib/chibios/os/rt/src/chthreads.c **** #endif
 516:lib/chibios/os/rt/src/chthreads.c **** 
 517:lib/chibios/os/rt/src/chthreads.c **** #if CH_CFG_USE_REGISTRY == TRUE
 518:lib/chibios/os/rt/src/chthreads.c ****   /* Static threads with no references are immediately removed from the
 519:lib/chibios/os/rt/src/chthreads.c ****      registry because there is no memory to recover.*/
 520:lib/chibios/os/rt/src/chthreads.c **** #if CH_CFG_USE_DYNAMIC == TRUE
 521:lib/chibios/os/rt/src/chthreads.c ****   if ((tp->refs == (trefs_t)0) &&
 522:lib/chibios/os/rt/src/chthreads.c ****       ((tp->flags & CH_FLAG_MODE_MASK) == CH_FLAG_MODE_STATIC)) {
 523:lib/chibios/os/rt/src/chthreads.c ****     REG_REMOVE(tp);
 524:lib/chibios/os/rt/src/chthreads.c ****   }
 525:lib/chibios/os/rt/src/chthreads.c **** #else
 526:lib/chibios/os/rt/src/chthreads.c ****   if (tp->refs == (trefs_t)0) {
 527:lib/chibios/os/rt/src/chthreads.c ****     REG_REMOVE(tp);
 528:lib/chibios/os/rt/src/chthreads.c ****   }
 529:lib/chibios/os/rt/src/chthreads.c **** #endif
 530:lib/chibios/os/rt/src/chthreads.c **** #endif
 531:lib/chibios/os/rt/src/chthreads.c **** 
 532:lib/chibios/os/rt/src/chthreads.c ****   /* Going into final state.*/
 533:lib/chibios/os/rt/src/chthreads.c ****   chSchGoSleepS(CH_STATE_FINAL);
 732              		.loc 1 533 3 view .LVU240
 733 0006 0F20     		movs	r0, #15
 734              	.LVL39:
 735              		.loc 1 533 3 is_stmt 0 view .LVU241
 736 0008 FFF7FEBF 		b	chSchGoSleepS
 737              	.LVL40:
 738              	.L14:
 739              		.loc 1 533 3 view .LVU242
 740              		.align	2
 741              	.L13:
 742 000c 00000000 		.word	ch
 743              		.cfi_endproc
 744              	.LFE251:
 746              		.section	.text.chThdExit,"ax",%progbits
 747              		.align	1
 748              		.global	chThdExit
 749              		.syntax unified
 750              		.thumb
 751              		.thumb_func
 752              		.fpu fpv4-sp-d16
 754              	chThdExit:
 755              	.LVL41:
 756              	.LFB250:
 477:lib/chibios/os/rt/src/chthreads.c **** 
 757              		.loc 1 477 27 is_stmt 1 view -0
 758              		.cfi_startproc
 759              		@ args = 0, pretend = 0, frame = 0
 760              		@ frame_needed = 0, uses_anonymous_args = 0
 761              		@ link register save eliminated.
 479:lib/chibios/os/rt/src/chthreads.c ****   chThdExitS(msg);
 762              		.loc 1 479 3 view .LVU244
 763              	.LBB225:
 764              	.LBI225:
 355:./lib/chibios/os/rt/include/chsys.h **** 
 765              		.loc 2 355 20 view .LVU245
 357:./lib/chibios/os/rt/include/chsys.h ****   _stats_start_measure_crit_thd();
 766              		.loc 2 357 3 view .LVU246
 767              	.LBB226:
 768              	.LBI226:
 669:./lib/chibios/os/common/ports/ARMCMx/chcore_v7m.h **** 
 769              		.loc 3 669 27 view .LVU247
 677:./lib/chibios/os/common/ports/ARMCMx/chcore_v7m.h **** #if defined(__CM7_REV)
 770              		.loc 3 677 3 view .LVU248
 771              	.LBB227:
 772              	.LBI227:
 491:./lib/chibios/os/common/ext/ARM/CMSIS/Core/Include/cmsis_gcc.h **** {
 773              		.loc 4 491 27 view .LVU249
 774              	.LBB228:
 775              		.loc 4 493 3 view .LVU250
 776 0000 2023     		movs	r3, #32
 777              		.syntax unified
 778              	@ 493 "./lib/chibios/os/common/ext/ARM/CMSIS/Core/Include/cmsis_gcc.h" 1
 779 0002 83F31188 		MSR basepri, r3
 780              	@ 0 "" 2
 781              	.LVL42:
 782              		.loc 4 493 3 is_stmt 0 view .LVU251
 783              		.thumb
 784              		.syntax unified
 785              	.LBE228:
 786              	.LBE227:
 787              	.LBE226:
 358:./lib/chibios/os/rt/include/chsys.h ****   _dbg_check_lock();
 788              		.loc 2 358 34 is_stmt 1 view .LVU252
 359:./lib/chibios/os/rt/include/chsys.h **** }
 789              		.loc 2 359 20 view .LVU253
 790              	.LBE225:
 480:lib/chibios/os/rt/src/chthreads.c ****   /* The thread never returns here.*/
 791              		.loc 1 480 3 view .LVU254
 792 0006 FFF7FEBF 		b	chThdExitS
 793              	.LVL43:
 480:lib/chibios/os/rt/src/chthreads.c ****   /* The thread never returns here.*/
 794              		.loc 1 480 3 is_stmt 0 view .LVU255
 795              		.cfi_endproc
 796              	.LFE250:
 798              		.section	.text.chThdSetPriority,"ax",%progbits
 799              		.align	1
 800              		.global	chThdSetPriority
 801              		.syntax unified
 802              		.thumb
 803              		.thumb_func
 804              		.fpu fpv4-sp-d16
 806              	chThdSetPriority:
 807              	.LVL44:
 808              	.LFB252:
 534:lib/chibios/os/rt/src/chthreads.c **** 
 535:lib/chibios/os/rt/src/chthreads.c ****   /* The thread never returns here.*/
 536:lib/chibios/os/rt/src/chthreads.c ****   chDbgAssert(false, "zombies apocalypse");
 537:lib/chibios/os/rt/src/chthreads.c **** }
 538:lib/chibios/os/rt/src/chthreads.c **** 
 539:lib/chibios/os/rt/src/chthreads.c **** #if (CH_CFG_USE_WAITEXIT == TRUE) || defined(__DOXYGEN__)
 540:lib/chibios/os/rt/src/chthreads.c **** /**
 541:lib/chibios/os/rt/src/chthreads.c ****  * @brief   Blocks the execution of the invoking thread until the specified
 542:lib/chibios/os/rt/src/chthreads.c ****  *          thread terminates then the exit code is returned.
 543:lib/chibios/os/rt/src/chthreads.c ****  * @details This function waits for the specified thread to terminate then
 544:lib/chibios/os/rt/src/chthreads.c ****  *          decrements its reference counter, if the counter reaches zero then
 545:lib/chibios/os/rt/src/chthreads.c ****  *          the thread working area is returned to the proper allocator and
 546:lib/chibios/os/rt/src/chthreads.c ****  *          the thread is removed from registry.
 547:lib/chibios/os/rt/src/chthreads.c ****  * @pre     The configuration option @p CH_CFG_USE_WAITEXIT must be enabled in
 548:lib/chibios/os/rt/src/chthreads.c ****  *          order to use this function.
 549:lib/chibios/os/rt/src/chthreads.c ****  * @post    Enabling @p chThdWait() requires 2-4 (depending on the
 550:lib/chibios/os/rt/src/chthreads.c ****  *          architecture) extra bytes in the @p thread_t structure.
 551:lib/chibios/os/rt/src/chthreads.c ****  * @note    If @p CH_CFG_USE_DYNAMIC is not specified this function just waits
 552:lib/chibios/os/rt/src/chthreads.c ****  *          for the thread termination, no memory allocators are involved.
 553:lib/chibios/os/rt/src/chthreads.c ****  *
 554:lib/chibios/os/rt/src/chthreads.c ****  * @param[in] tp        pointer to the thread
 555:lib/chibios/os/rt/src/chthreads.c ****  * @return              The exit code from the terminated thread.
 556:lib/chibios/os/rt/src/chthreads.c ****  *
 557:lib/chibios/os/rt/src/chthreads.c ****  * @api
 558:lib/chibios/os/rt/src/chthreads.c ****  */
 559:lib/chibios/os/rt/src/chthreads.c **** msg_t chThdWait(thread_t *tp) {
 560:lib/chibios/os/rt/src/chthreads.c ****   msg_t msg;
 561:lib/chibios/os/rt/src/chthreads.c **** 
 562:lib/chibios/os/rt/src/chthreads.c ****   chDbgCheck(tp != NULL);
 563:lib/chibios/os/rt/src/chthreads.c **** 
 564:lib/chibios/os/rt/src/chthreads.c ****   chSysLock();
 565:lib/chibios/os/rt/src/chthreads.c ****   chDbgAssert(tp != currp, "waiting self");
 566:lib/chibios/os/rt/src/chthreads.c **** #if CH_CFG_USE_REGISTRY == TRUE
 567:lib/chibios/os/rt/src/chthreads.c ****   chDbgAssert(tp->refs > (trefs_t)0, "no references");
 568:lib/chibios/os/rt/src/chthreads.c **** #endif
 569:lib/chibios/os/rt/src/chthreads.c **** 
 570:lib/chibios/os/rt/src/chthreads.c ****   if (tp->state != CH_STATE_FINAL) {
 571:lib/chibios/os/rt/src/chthreads.c ****     ch_list_push(&currp->hdr.list, &tp->waiting);
 572:lib/chibios/os/rt/src/chthreads.c ****     chSchGoSleepS(CH_STATE_WTEXIT);
 573:lib/chibios/os/rt/src/chthreads.c ****   }
 574:lib/chibios/os/rt/src/chthreads.c ****   msg = tp->u.exitcode;
 575:lib/chibios/os/rt/src/chthreads.c ****   chSysUnlock();
 576:lib/chibios/os/rt/src/chthreads.c **** 
 577:lib/chibios/os/rt/src/chthreads.c **** #if CH_CFG_USE_REGISTRY == TRUE
 578:lib/chibios/os/rt/src/chthreads.c ****   /* Releasing a reference to the thread.*/
 579:lib/chibios/os/rt/src/chthreads.c ****   chThdRelease(tp);
 580:lib/chibios/os/rt/src/chthreads.c **** #endif
 581:lib/chibios/os/rt/src/chthreads.c **** 
 582:lib/chibios/os/rt/src/chthreads.c ****   return msg;
 583:lib/chibios/os/rt/src/chthreads.c **** }
 584:lib/chibios/os/rt/src/chthreads.c **** #endif /* CH_CFG_USE_WAITEXIT */
 585:lib/chibios/os/rt/src/chthreads.c **** 
 586:lib/chibios/os/rt/src/chthreads.c **** /**
 587:lib/chibios/os/rt/src/chthreads.c ****  * @brief   Changes the running thread priority level then reschedules if
 588:lib/chibios/os/rt/src/chthreads.c ****  *          necessary.
 589:lib/chibios/os/rt/src/chthreads.c ****  * @note    The function returns the real thread priority regardless of the
 590:lib/chibios/os/rt/src/chthreads.c ****  *          current priority that could be higher than the real priority
 591:lib/chibios/os/rt/src/chthreads.c ****  *          because the priority inheritance mechanism.
 592:lib/chibios/os/rt/src/chthreads.c ****  *
 593:lib/chibios/os/rt/src/chthreads.c ****  * @param[in] newprio   the new priority level of the running thread
 594:lib/chibios/os/rt/src/chthreads.c ****  * @return              The old priority level.
 595:lib/chibios/os/rt/src/chthreads.c ****  *
 596:lib/chibios/os/rt/src/chthreads.c ****  * @api
 597:lib/chibios/os/rt/src/chthreads.c ****  */
 598:lib/chibios/os/rt/src/chthreads.c **** tprio_t chThdSetPriority(tprio_t newprio) {
 809              		.loc 1 598 43 is_stmt 1 view -0
 810              		.cfi_startproc
 811              		@ args = 0, pretend = 0, frame = 0
 812              		@ frame_needed = 0, uses_anonymous_args = 0
 599:lib/chibios/os/rt/src/chthreads.c ****   tprio_t oldprio;
 813              		.loc 1 599 3 view .LVU257
 600:lib/chibios/os/rt/src/chthreads.c **** 
 601:lib/chibios/os/rt/src/chthreads.c ****   chDbgCheck(newprio <= HIGHPRIO);
 814              		.loc 1 601 3 view .LVU258
 815              		.loc 1 601 3 view .LVU259
 816              		.loc 1 601 3 view .LVU260
 602:lib/chibios/os/rt/src/chthreads.c **** 
 603:lib/chibios/os/rt/src/chthreads.c ****   chSysLock();
 817              		.loc 1 603 3 view .LVU261
 818              	.LBB229:
 819              	.LBI229:
 355:./lib/chibios/os/rt/include/chsys.h **** 
 820              		.loc 2 355 20 view .LVU262
 357:./lib/chibios/os/rt/include/chsys.h ****   _stats_start_measure_crit_thd();
 821              		.loc 2 357 3 view .LVU263
 822              	.LBB230:
 823              	.LBI230:
 669:./lib/chibios/os/common/ports/ARMCMx/chcore_v7m.h **** 
 824              		.loc 3 669 27 view .LVU264
 677:./lib/chibios/os/common/ports/ARMCMx/chcore_v7m.h **** #if defined(__CM7_REV)
 825              		.loc 3 677 3 view .LVU265
 826              	.LBB231:
 827              	.LBI231:
 491:./lib/chibios/os/common/ext/ARM/CMSIS/Core/Include/cmsis_gcc.h **** {
 828              		.loc 4 491 27 view .LVU266
 829              	.LBB232:
 830              		.loc 4 493 3 view .LVU267
 831              	.LBE232:
 832              	.LBE231:
 833              	.LBE230:
 834              	.LBE229:
 598:lib/chibios/os/rt/src/chthreads.c ****   tprio_t oldprio;
 835              		.loc 1 598 43 is_stmt 0 view .LVU268
 836 0000 10B5     		push	{r4, lr}
 837              		.cfi_def_cfa_offset 8
 838              		.cfi_offset 4, -8
 839              		.cfi_offset 14, -4
 840              	.LBB236:
 841              	.LBB235:
 842              	.LBB234:
 843              	.LBB233:
 844              		.loc 4 493 3 view .LVU269
 845 0002 2023     		movs	r3, #32
 846              		.syntax unified
 847              	@ 493 "./lib/chibios/os/common/ext/ARM/CMSIS/Core/Include/cmsis_gcc.h" 1
 848 0004 83F31188 		MSR basepri, r3
 849              	@ 0 "" 2
 850              	.LVL45:
 851              		.loc 4 493 3 view .LVU270
 852              		.thumb
 853              		.syntax unified
 854              	.LBE233:
 855              	.LBE234:
 856              	.LBE235:
 358:./lib/chibios/os/rt/include/chsys.h ****   _dbg_check_lock();
 857              		.loc 2 358 34 is_stmt 1 view .LVU271
 359:./lib/chibios/os/rt/include/chsys.h **** }
 858              		.loc 2 359 20 view .LVU272
 859              	.LBE236:
 604:lib/chibios/os/rt/src/chthreads.c **** #if CH_CFG_USE_MUTEXES == TRUE
 605:lib/chibios/os/rt/src/chthreads.c ****   oldprio = currp->realprio;
 860              		.loc 1 605 3 view .LVU273
 861              		.loc 1 605 13 is_stmt 0 view .LVU274
 862 0008 084B     		ldr	r3, .L19
 863 000a 1B69     		ldr	r3, [r3, #16]
 864              		.loc 1 605 11 view .LVU275
 865 000c 1C6A     		ldr	r4, [r3, #32]
 866              	.LVL46:
 606:lib/chibios/os/rt/src/chthreads.c ****   if ((currp->hdr.pqueue.prio == currp->realprio) ||
 867              		.loc 1 606 3 is_stmt 1 view .LVU276
 868              		.loc 1 606 25 is_stmt 0 view .LVU277
 869 000e 9A68     		ldr	r2, [r3, #8]
 870              		.loc 1 606 6 view .LVU278
 871 0010 A242     		cmp	r2, r4
 872 0012 01D0     		beq	.L17
 873              		.loc 1 606 51 discriminator 1 view .LVU279
 874 0014 8242     		cmp	r2, r0
 875 0016 00D2     		bcs	.L18
 876              	.L17:
 607:lib/chibios/os/rt/src/chthreads.c ****       (newprio > currp->hdr.pqueue.prio)) {
 608:lib/chibios/os/rt/src/chthreads.c ****     currp->hdr.pqueue.prio = newprio;
 877              		.loc 1 608 5 is_stmt 1 view .LVU280
 878              		.loc 1 608 28 is_stmt 0 view .LVU281
 879 0018 9860     		str	r0, [r3, #8]
 880              	.L18:
 609:lib/chibios/os/rt/src/chthreads.c ****   }
 610:lib/chibios/os/rt/src/chthreads.c ****   currp->realprio = newprio;
 881              		.loc 1 610 3 is_stmt 1 view .LVU282
 882              		.loc 1 610 19 is_stmt 0 view .LVU283
 883 001a 1862     		str	r0, [r3, #32]
 611:lib/chibios/os/rt/src/chthreads.c **** #else
 612:lib/chibios/os/rt/src/chthreads.c ****   oldprio = currp->hdr.pqueue.prio;
 613:lib/chibios/os/rt/src/chthreads.c ****   currp->hdr.pqueue.prio = newprio;
 614:lib/chibios/os/rt/src/chthreads.c **** #endif
 615:lib/chibios/os/rt/src/chthreads.c ****   chSchRescheduleS();
 884              		.loc 1 615 3 is_stmt 1 view .LVU284
 885 001c FFF7FEFF 		bl	chSchRescheduleS
 886              	.LVL47:
 616:lib/chibios/os/rt/src/chthreads.c ****   chSysUnlock();
 887              		.loc 1 616 3 view .LVU285
 888              	.LBB237:
 889              	.LBI237:
 367:./lib/chibios/os/rt/include/chsys.h **** 
 890              		.loc 2 367 20 view .LVU286
 891              	.LBB238:
 369:./lib/chibios/os/rt/include/chsys.h ****   _stats_stop_measure_crit_thd();
 892              		.loc 2 369 22 view .LVU287
 370:./lib/chibios/os/rt/include/chsys.h **** 
 893              		.loc 2 370 33 view .LVU288
 376:./lib/chibios/os/rt/include/chsys.h ****               (ch.rlist.current->hdr.pqueue.prio >= ch.rlist.pqueue.next->prio),
 894              		.loc 2 376 3 view .LVU289
 376:./lib/chibios/os/rt/include/chsys.h ****               (ch.rlist.current->hdr.pqueue.prio >= ch.rlist.pqueue.next->prio),
 895              		.loc 2 376 3 view .LVU290
 376:./lib/chibios/os/rt/include/chsys.h ****               (ch.rlist.current->hdr.pqueue.prio >= ch.rlist.pqueue.next->prio),
 896              		.loc 2 376 3 view .LVU291
 897              		.loc 2 380 3 view .LVU292
 898              	.LBB239:
 899              	.LBI239:
 693:./lib/chibios/os/common/ports/ARMCMx/chcore_v7m.h **** 
 900              		.loc 3 693 27 view .LVU293
 901              		.loc 3 696 3 view .LVU294
 902              	.LBB240:
 903              	.LBI240:
 491:./lib/chibios/os/common/ext/ARM/CMSIS/Core/Include/cmsis_gcc.h **** {
 904              		.loc 4 491 27 view .LVU295
 905              	.LBB241:
 906              		.loc 4 493 3 view .LVU296
 907 0020 0023     		movs	r3, #0
 908              		.syntax unified
 909              	@ 493 "./lib/chibios/os/common/ext/ARM/CMSIS/Core/Include/cmsis_gcc.h" 1
 910 0022 83F31188 		MSR basepri, r3
 911              	@ 0 "" 2
 912              	.LVL48:
 913              		.loc 4 493 3 is_stmt 0 view .LVU297
 914              		.thumb
 915              		.syntax unified
 916              	.LBE241:
 917              	.LBE240:
 918              	.LBE239:
 919              	.LBE238:
 920              	.LBE237:
 617:lib/chibios/os/rt/src/chthreads.c **** 
 618:lib/chibios/os/rt/src/chthreads.c ****   return oldprio;
 921              		.loc 1 618 3 is_stmt 1 view .LVU298
 619:lib/chibios/os/rt/src/chthreads.c **** }
 922              		.loc 1 619 1 is_stmt 0 view .LVU299
 923 0026 2046     		mov	r0, r4
 924 0028 10BD     		pop	{r4, pc}
 925              	.LVL49:
 926              	.L20:
 927              		.loc 1 619 1 view .LVU300
 928 002a 00BF     		.align	2
 929              	.L19:
 930 002c 00000000 		.word	ch
 931              		.cfi_endproc
 932              	.LFE252:
 934              		.section	.text.chThdTerminate,"ax",%progbits
 935              		.align	1
 936              		.global	chThdTerminate
 937              		.syntax unified
 938              		.thumb
 939              		.thumb_func
 940              		.fpu fpv4-sp-d16
 942              	chThdTerminate:
 943              	.LVL50:
 944              	.LFB253:
 620:lib/chibios/os/rt/src/chthreads.c **** 
 621:lib/chibios/os/rt/src/chthreads.c **** /**
 622:lib/chibios/os/rt/src/chthreads.c ****  * @brief   Requests a thread termination.
 623:lib/chibios/os/rt/src/chthreads.c ****  * @pre     The target thread must be written to invoke periodically
 624:lib/chibios/os/rt/src/chthreads.c ****  *          @p chThdShouldTerminate() and terminate cleanly if it returns
 625:lib/chibios/os/rt/src/chthreads.c ****  *          @p true.
 626:lib/chibios/os/rt/src/chthreads.c ****  * @post    The specified thread will terminate after detecting the termination
 627:lib/chibios/os/rt/src/chthreads.c ****  *          condition.
 628:lib/chibios/os/rt/src/chthreads.c ****  *
 629:lib/chibios/os/rt/src/chthreads.c ****  * @param[in] tp        pointer to the thread
 630:lib/chibios/os/rt/src/chthreads.c ****  *
 631:lib/chibios/os/rt/src/chthreads.c ****  * @api
 632:lib/chibios/os/rt/src/chthreads.c ****  */
 633:lib/chibios/os/rt/src/chthreads.c **** void chThdTerminate(thread_t *tp) {
 945              		.loc 1 633 35 is_stmt 1 view -0
 946              		.cfi_startproc
 947              		@ args = 0, pretend = 0, frame = 0
 948              		@ frame_needed = 0, uses_anonymous_args = 0
 949              		@ link register save eliminated.
 634:lib/chibios/os/rt/src/chthreads.c **** 
 635:lib/chibios/os/rt/src/chthreads.c ****   chSysLock();
 950              		.loc 1 635 3 view .LVU302
 951              	.LBB242:
 952              	.LBI242:
 355:./lib/chibios/os/rt/include/chsys.h **** 
 953              		.loc 2 355 20 view .LVU303
 357:./lib/chibios/os/rt/include/chsys.h ****   _stats_start_measure_crit_thd();
 954              		.loc 2 357 3 view .LVU304
 955              	.LBB243:
 956              	.LBI243:
 669:./lib/chibios/os/common/ports/ARMCMx/chcore_v7m.h **** 
 957              		.loc 3 669 27 view .LVU305
 677:./lib/chibios/os/common/ports/ARMCMx/chcore_v7m.h **** #if defined(__CM7_REV)
 958              		.loc 3 677 3 view .LVU306
 959              	.LBB244:
 960              	.LBI244:
 491:./lib/chibios/os/common/ext/ARM/CMSIS/Core/Include/cmsis_gcc.h **** {
 961              		.loc 4 491 27 view .LVU307
 962              	.LBB245:
 963              		.loc 4 493 3 view .LVU308
 964 0000 2023     		movs	r3, #32
 965              		.syntax unified
 966              	@ 493 "./lib/chibios/os/common/ext/ARM/CMSIS/Core/Include/cmsis_gcc.h" 1
 967 0002 83F31188 		MSR basepri, r3
 968              	@ 0 "" 2
 969              	.LVL51:
 970              		.loc 4 493 3 is_stmt 0 view .LVU309
 971              		.thumb
 972              		.syntax unified
 973              	.LBE245:
 974              	.LBE244:
 975              	.LBE243:
 358:./lib/chibios/os/rt/include/chsys.h ****   _dbg_check_lock();
 976              		.loc 2 358 34 is_stmt 1 view .LVU310
 359:./lib/chibios/os/rt/include/chsys.h **** }
 977              		.loc 2 359 20 view .LVU311
 978              	.LBE242:
 636:lib/chibios/os/rt/src/chthreads.c ****   tp->flags |= CH_FLAG_TERMINATE;
 979              		.loc 1 636 3 view .LVU312
 980              		.loc 1 636 13 is_stmt 0 view .LVU313
 981 0006 437C     		ldrb	r3, [r0, #17]	@ zero_extendqisi2
 982 0008 43F00403 		orr	r3, r3, #4
 983 000c 4374     		strb	r3, [r0, #17]
 637:lib/chibios/os/rt/src/chthreads.c ****   chSysUnlock();
 984              		.loc 1 637 3 is_stmt 1 view .LVU314
 985              	.LBB246:
 986              	.LBI246:
 367:./lib/chibios/os/rt/include/chsys.h **** 
 987              		.loc 2 367 20 view .LVU315
 988              	.LBB247:
 369:./lib/chibios/os/rt/include/chsys.h ****   _stats_stop_measure_crit_thd();
 989              		.loc 2 369 22 view .LVU316
 370:./lib/chibios/os/rt/include/chsys.h **** 
 990              		.loc 2 370 33 view .LVU317
 376:./lib/chibios/os/rt/include/chsys.h ****               (ch.rlist.current->hdr.pqueue.prio >= ch.rlist.pqueue.next->prio),
 991              		.loc 2 376 3 view .LVU318
 376:./lib/chibios/os/rt/include/chsys.h ****               (ch.rlist.current->hdr.pqueue.prio >= ch.rlist.pqueue.next->prio),
 992              		.loc 2 376 3 view .LVU319
 376:./lib/chibios/os/rt/include/chsys.h ****               (ch.rlist.current->hdr.pqueue.prio >= ch.rlist.pqueue.next->prio),
 993              		.loc 2 376 3 view .LVU320
 994              		.loc 2 380 3 view .LVU321
 995              	.LBB248:
 996              	.LBI248:
 693:./lib/chibios/os/common/ports/ARMCMx/chcore_v7m.h **** 
 997              		.loc 3 693 27 view .LVU322
 998              		.loc 3 696 3 view .LVU323
 999              	.LVL52:
 1000              	.LBB249:
 1001              	.LBI249:
 491:./lib/chibios/os/common/ext/ARM/CMSIS/Core/Include/cmsis_gcc.h **** {
 1002              		.loc 4 491 27 view .LVU324
 1003              	.LBB250:
 1004              		.loc 4 493 3 view .LVU325
 1005 000e 0023     		movs	r3, #0
 1006              		.syntax unified
 1007              	@ 493 "./lib/chibios/os/common/ext/ARM/CMSIS/Core/Include/cmsis_gcc.h" 1
 1008 0010 83F31188 		MSR basepri, r3
 1009              	@ 0 "" 2
 1010              	.LVL53:
 1011              		.loc 4 493 3 is_stmt 0 view .LVU326
 1012              		.thumb
 1013              		.syntax unified
 1014              	.LBE250:
 1015              	.LBE249:
 1016              	.LBE248:
 1017              	.LBE247:
 1018              	.LBE246:
 638:lib/chibios/os/rt/src/chthreads.c **** }
 1019              		.loc 1 638 1 view .LVU327
 1020 0014 7047     		bx	lr
 1021              		.cfi_endproc
 1022              	.LFE253:
 1024              		.section	.text.chThdSleep,"ax",%progbits
 1025              		.align	1
 1026              		.global	chThdSleep
 1027              		.syntax unified
 1028              		.thumb
 1029              		.thumb_func
 1030              		.fpu fpv4-sp-d16
 1032              	chThdSleep:
 1033              	.LVL54:
 1034              	.LFB254:
 639:lib/chibios/os/rt/src/chthreads.c **** 
 640:lib/chibios/os/rt/src/chthreads.c **** /**
 641:lib/chibios/os/rt/src/chthreads.c ****  * @brief   Suspends the invoking thread for the specified time.
 642:lib/chibios/os/rt/src/chthreads.c ****  *
 643:lib/chibios/os/rt/src/chthreads.c ****  * @param[in] time      the delay in system ticks, the special values are
 644:lib/chibios/os/rt/src/chthreads.c ****  *                      handled as follow:
 645:lib/chibios/os/rt/src/chthreads.c ****  *                      - @a TIME_INFINITE the thread enters an infinite sleep
 646:lib/chibios/os/rt/src/chthreads.c ****  *                        state.
 647:lib/chibios/os/rt/src/chthreads.c ****  *                      - @a TIME_IMMEDIATE this value is not allowed.
 648:lib/chibios/os/rt/src/chthreads.c ****  *                      .
 649:lib/chibios/os/rt/src/chthreads.c ****  *
 650:lib/chibios/os/rt/src/chthreads.c ****  * @api
 651:lib/chibios/os/rt/src/chthreads.c ****  */
 652:lib/chibios/os/rt/src/chthreads.c **** void chThdSleep(sysinterval_t time) {
 1035              		.loc 1 652 37 is_stmt 1 view -0
 1036              		.cfi_startproc
 1037              		@ args = 0, pretend = 0, frame = 0
 1038              		@ frame_needed = 0, uses_anonymous_args = 0
 653:lib/chibios/os/rt/src/chthreads.c **** 
 654:lib/chibios/os/rt/src/chthreads.c ****   chSysLock();
 1039              		.loc 1 654 3 view .LVU329
 1040              	.LBB262:
 1041              	.LBI262:
 355:./lib/chibios/os/rt/include/chsys.h **** 
 1042              		.loc 2 355 20 view .LVU330
 357:./lib/chibios/os/rt/include/chsys.h ****   _stats_start_measure_crit_thd();
 1043              		.loc 2 357 3 view .LVU331
 1044              	.LBB263:
 1045              	.LBI263:
 669:./lib/chibios/os/common/ports/ARMCMx/chcore_v7m.h **** 
 1046              		.loc 3 669 27 view .LVU332
 677:./lib/chibios/os/common/ports/ARMCMx/chcore_v7m.h **** #if defined(__CM7_REV)
 1047              		.loc 3 677 3 view .LVU333
 1048              	.LBB264:
 1049              	.LBI264:
 491:./lib/chibios/os/common/ext/ARM/CMSIS/Core/Include/cmsis_gcc.h **** {
 1050              		.loc 4 491 27 view .LVU334
 1051              	.LBB265:
 1052              		.loc 4 493 3 view .LVU335
 1053              	.LBE265:
 1054              	.LBE264:
 1055              	.LBE263:
 1056              	.LBE262:
 652:lib/chibios/os/rt/src/chthreads.c **** 
 1057              		.loc 1 652 37 is_stmt 0 view .LVU336
 1058 0000 08B5     		push	{r3, lr}
 1059              		.cfi_def_cfa_offset 8
 1060              		.cfi_offset 3, -8
 1061              		.cfi_offset 14, -4
 652:lib/chibios/os/rt/src/chthreads.c **** 
 1062              		.loc 1 652 37 view .LVU337
 1063 0002 0146     		mov	r1, r0
 1064              	.LBB269:
 1065              	.LBB268:
 1066              	.LBB267:
 1067              	.LBB266:
 1068              		.loc 4 493 3 view .LVU338
 1069 0004 2023     		movs	r3, #32
 1070              		.syntax unified
 1071              	@ 493 "./lib/chibios/os/common/ext/ARM/CMSIS/Core/Include/cmsis_gcc.h" 1
 1072 0006 83F31188 		MSR basepri, r3
 1073              	@ 0 "" 2
 1074              	.LVL55:
 1075              		.loc 4 493 3 view .LVU339
 1076              		.thumb
 1077              		.syntax unified
 1078              	.LBE266:
 1079              	.LBE267:
 1080              	.LBE268:
 358:./lib/chibios/os/rt/include/chsys.h ****   _dbg_check_lock();
 1081              		.loc 2 358 34 is_stmt 1 view .LVU340
 359:./lib/chibios/os/rt/include/chsys.h **** }
 1082              		.loc 2 359 20 view .LVU341
 1083              	.LBE269:
 655:lib/chibios/os/rt/src/chthreads.c ****   chThdSleepS(time);
 1084              		.loc 1 655 3 view .LVU342
 1085              	.LBB270:
 1086              	.LBI270:
 1087              		.file 5 "./lib/chibios/os/rt/include/chthreads.h"
   1:./lib/chibios/os/rt/include/chthreads.h **** /*
   2:./lib/chibios/os/rt/include/chthreads.h ****     ChibiOS - Copyright (C) 2006..2018 Giovanni Di Sirio.
   3:./lib/chibios/os/rt/include/chthreads.h **** 
   4:./lib/chibios/os/rt/include/chthreads.h ****     This file is part of ChibiOS.
   5:./lib/chibios/os/rt/include/chthreads.h **** 
