   1              		.cpu cortex-m4
   2              		.arch armv7e-m
   3              		.fpu fpv4-sp-d16
   4              		.eabi_attribute 27, 1
   5              		.eabi_attribute 28, 1
   6              		.eabi_attribute 20, 1
   7              		.eabi_attribute 21, 1
   8              		.eabi_attribute 23, 3
   9              		.eabi_attribute 24, 1
  10              		.eabi_attribute 25, 1
  11              		.eabi_attribute 26, 1
  12              		.eabi_attribute 30, 4
  13              		.eabi_attribute 34, 1
  14              		.eabi_attribute 18, 2
  15              		.file	"hal_gpt_lld.c"
  16              		.text
  17              	.Ltext0:
  18              		.cfi_sections	.debug_frame
  19              		.file 1 "lib/chibios/os/hal/ports/STM32/LLD/TIMv1/hal_gpt_lld.c"
  20              		.section	.text.gpt_lld_init,"ax",%progbits
  21              		.align	1
  22              		.global	gpt_lld_init
  23              		.syntax unified
  24              		.thumb
  25              		.thumb_func
  27              	gpt_lld_init:
  28              	.LFB331:
   1:lib/chibios/os/hal/ports/STM32/LLD/TIMv1/hal_gpt_lld.c **** /*
   2:lib/chibios/os/hal/ports/STM32/LLD/TIMv1/hal_gpt_lld.c ****     ChibiOS - Copyright (C) 2006..2018 Giovanni Di Sirio
   3:lib/chibios/os/hal/ports/STM32/LLD/TIMv1/hal_gpt_lld.c **** 
   4:lib/chibios/os/hal/ports/STM32/LLD/TIMv1/hal_gpt_lld.c ****     Licensed under the Apache License, Version 2.0 (the "License");
   5:lib/chibios/os/hal/ports/STM32/LLD/TIMv1/hal_gpt_lld.c ****     you may not use this file except in compliance with the License.
   6:lib/chibios/os/hal/ports/STM32/LLD/TIMv1/hal_gpt_lld.c ****     You may obtain a copy of the License at
   7:lib/chibios/os/hal/ports/STM32/LLD/TIMv1/hal_gpt_lld.c **** 
   8:lib/chibios/os/hal/ports/STM32/LLD/TIMv1/hal_gpt_lld.c ****         http://www.apache.org/licenses/LICENSE-2.0
   9:lib/chibios/os/hal/ports/STM32/LLD/TIMv1/hal_gpt_lld.c **** 
  10:lib/chibios/os/hal/ports/STM32/LLD/TIMv1/hal_gpt_lld.c ****     Unless required by applicable law or agreed to in writing, software
  11:lib/chibios/os/hal/ports/STM32/LLD/TIMv1/hal_gpt_lld.c ****     distributed under the License is distributed on an "AS IS" BASIS,
  12:lib/chibios/os/hal/ports/STM32/LLD/TIMv1/hal_gpt_lld.c ****     WITHOUT WARRANTIES OR CONDITIONS OF ANY KIND, either express or implied.
  13:lib/chibios/os/hal/ports/STM32/LLD/TIMv1/hal_gpt_lld.c ****     See the License for the specific language governing permissions and
  14:lib/chibios/os/hal/ports/STM32/LLD/TIMv1/hal_gpt_lld.c ****     limitations under the License.
  15:lib/chibios/os/hal/ports/STM32/LLD/TIMv1/hal_gpt_lld.c **** */
  16:lib/chibios/os/hal/ports/STM32/LLD/TIMv1/hal_gpt_lld.c **** 
  17:lib/chibios/os/hal/ports/STM32/LLD/TIMv1/hal_gpt_lld.c **** /**
  18:lib/chibios/os/hal/ports/STM32/LLD/TIMv1/hal_gpt_lld.c ****  * @file    TIMv1/hal_gpt_lld.c
  19:lib/chibios/os/hal/ports/STM32/LLD/TIMv1/hal_gpt_lld.c ****  * @brief   STM32 GPT subsystem low level driver source.
  20:lib/chibios/os/hal/ports/STM32/LLD/TIMv1/hal_gpt_lld.c ****  *
  21:lib/chibios/os/hal/ports/STM32/LLD/TIMv1/hal_gpt_lld.c ****  * @addtogroup GPT
  22:lib/chibios/os/hal/ports/STM32/LLD/TIMv1/hal_gpt_lld.c ****  * @{
  23:lib/chibios/os/hal/ports/STM32/LLD/TIMv1/hal_gpt_lld.c ****  */
  24:lib/chibios/os/hal/ports/STM32/LLD/TIMv1/hal_gpt_lld.c **** 
  25:lib/chibios/os/hal/ports/STM32/LLD/TIMv1/hal_gpt_lld.c **** #include "hal.h"
  26:lib/chibios/os/hal/ports/STM32/LLD/TIMv1/hal_gpt_lld.c **** 
  27:lib/chibios/os/hal/ports/STM32/LLD/TIMv1/hal_gpt_lld.c **** #if HAL_USE_GPT || defined(__DOXYGEN__)
  28:lib/chibios/os/hal/ports/STM32/LLD/TIMv1/hal_gpt_lld.c **** 
  29:lib/chibios/os/hal/ports/STM32/LLD/TIMv1/hal_gpt_lld.c **** /*===========================================================================*/
  30:lib/chibios/os/hal/ports/STM32/LLD/TIMv1/hal_gpt_lld.c **** /* Driver local definitions.                                                 */
  31:lib/chibios/os/hal/ports/STM32/LLD/TIMv1/hal_gpt_lld.c **** /*===========================================================================*/
  32:lib/chibios/os/hal/ports/STM32/LLD/TIMv1/hal_gpt_lld.c **** 
  33:lib/chibios/os/hal/ports/STM32/LLD/TIMv1/hal_gpt_lld.c **** /*===========================================================================*/
  34:lib/chibios/os/hal/ports/STM32/LLD/TIMv1/hal_gpt_lld.c **** /* Driver exported variables.                                                */
  35:lib/chibios/os/hal/ports/STM32/LLD/TIMv1/hal_gpt_lld.c **** /*===========================================================================*/
  36:lib/chibios/os/hal/ports/STM32/LLD/TIMv1/hal_gpt_lld.c **** 
  37:lib/chibios/os/hal/ports/STM32/LLD/TIMv1/hal_gpt_lld.c **** /**
  38:lib/chibios/os/hal/ports/STM32/LLD/TIMv1/hal_gpt_lld.c ****  * @brief   GPTD1 driver identifier.
  39:lib/chibios/os/hal/ports/STM32/LLD/TIMv1/hal_gpt_lld.c ****  * @note    The driver GPTD1 allocates the complex timer TIM1 when enabled.
  40:lib/chibios/os/hal/ports/STM32/LLD/TIMv1/hal_gpt_lld.c ****  */
  41:lib/chibios/os/hal/ports/STM32/LLD/TIMv1/hal_gpt_lld.c **** #if STM32_GPT_USE_TIM1 || defined(__DOXYGEN__)
  42:lib/chibios/os/hal/ports/STM32/LLD/TIMv1/hal_gpt_lld.c **** GPTDriver GPTD1;
  43:lib/chibios/os/hal/ports/STM32/LLD/TIMv1/hal_gpt_lld.c **** #endif
  44:lib/chibios/os/hal/ports/STM32/LLD/TIMv1/hal_gpt_lld.c **** 
  45:lib/chibios/os/hal/ports/STM32/LLD/TIMv1/hal_gpt_lld.c **** /**
  46:lib/chibios/os/hal/ports/STM32/LLD/TIMv1/hal_gpt_lld.c ****  * @brief   GPTD2 driver identifier.
  47:lib/chibios/os/hal/ports/STM32/LLD/TIMv1/hal_gpt_lld.c ****  * @note    The driver GPTD2 allocates the timer TIM2 when enabled.
  48:lib/chibios/os/hal/ports/STM32/LLD/TIMv1/hal_gpt_lld.c ****  */
  49:lib/chibios/os/hal/ports/STM32/LLD/TIMv1/hal_gpt_lld.c **** #if STM32_GPT_USE_TIM2 || defined(__DOXYGEN__)
  50:lib/chibios/os/hal/ports/STM32/LLD/TIMv1/hal_gpt_lld.c **** GPTDriver GPTD2;
  51:lib/chibios/os/hal/ports/STM32/LLD/TIMv1/hal_gpt_lld.c **** #endif
  52:lib/chibios/os/hal/ports/STM32/LLD/TIMv1/hal_gpt_lld.c **** 
  53:lib/chibios/os/hal/ports/STM32/LLD/TIMv1/hal_gpt_lld.c **** /**
  54:lib/chibios/os/hal/ports/STM32/LLD/TIMv1/hal_gpt_lld.c ****  * @brief   GPTD3 driver identifier.
  55:lib/chibios/os/hal/ports/STM32/LLD/TIMv1/hal_gpt_lld.c ****  * @note    The driver GPTD3 allocates the timer TIM3 when enabled.
  56:lib/chibios/os/hal/ports/STM32/LLD/TIMv1/hal_gpt_lld.c ****  */
  57:lib/chibios/os/hal/ports/STM32/LLD/TIMv1/hal_gpt_lld.c **** #if STM32_GPT_USE_TIM3 || defined(__DOXYGEN__)
  58:lib/chibios/os/hal/ports/STM32/LLD/TIMv1/hal_gpt_lld.c **** GPTDriver GPTD3;
  59:lib/chibios/os/hal/ports/STM32/LLD/TIMv1/hal_gpt_lld.c **** #endif
  60:lib/chibios/os/hal/ports/STM32/LLD/TIMv1/hal_gpt_lld.c **** 
  61:lib/chibios/os/hal/ports/STM32/LLD/TIMv1/hal_gpt_lld.c **** /**
  62:lib/chibios/os/hal/ports/STM32/LLD/TIMv1/hal_gpt_lld.c ****  * @brief   GPTD4 driver identifier.
  63:lib/chibios/os/hal/ports/STM32/LLD/TIMv1/hal_gpt_lld.c ****  * @note    The driver GPTD4 allocates the timer TIM4 when enabled.
  64:lib/chibios/os/hal/ports/STM32/LLD/TIMv1/hal_gpt_lld.c ****  */
  65:lib/chibios/os/hal/ports/STM32/LLD/TIMv1/hal_gpt_lld.c **** #if STM32_GPT_USE_TIM4 || defined(__DOXYGEN__)
  66:lib/chibios/os/hal/ports/STM32/LLD/TIMv1/hal_gpt_lld.c **** GPTDriver GPTD4;
  67:lib/chibios/os/hal/ports/STM32/LLD/TIMv1/hal_gpt_lld.c **** #endif
  68:lib/chibios/os/hal/ports/STM32/LLD/TIMv1/hal_gpt_lld.c **** 
  69:lib/chibios/os/hal/ports/STM32/LLD/TIMv1/hal_gpt_lld.c **** /**
  70:lib/chibios/os/hal/ports/STM32/LLD/TIMv1/hal_gpt_lld.c ****  * @brief   GPTD5 driver identifier.
  71:lib/chibios/os/hal/ports/STM32/LLD/TIMv1/hal_gpt_lld.c ****  * @note    The driver GPTD5 allocates the timer TIM5 when enabled.
  72:lib/chibios/os/hal/ports/STM32/LLD/TIMv1/hal_gpt_lld.c ****  */
  73:lib/chibios/os/hal/ports/STM32/LLD/TIMv1/hal_gpt_lld.c **** #if STM32_GPT_USE_TIM5 || defined(__DOXYGEN__)
  74:lib/chibios/os/hal/ports/STM32/LLD/TIMv1/hal_gpt_lld.c **** GPTDriver GPTD5;
  75:lib/chibios/os/hal/ports/STM32/LLD/TIMv1/hal_gpt_lld.c **** #endif
  76:lib/chibios/os/hal/ports/STM32/LLD/TIMv1/hal_gpt_lld.c **** 
  77:lib/chibios/os/hal/ports/STM32/LLD/TIMv1/hal_gpt_lld.c **** /**
  78:lib/chibios/os/hal/ports/STM32/LLD/TIMv1/hal_gpt_lld.c ****  * @brief   GPTD6 driver identifier.
  79:lib/chibios/os/hal/ports/STM32/LLD/TIMv1/hal_gpt_lld.c ****  * @note    The driver GPTD6 allocates the timer TIM6 when enabled.
  80:lib/chibios/os/hal/ports/STM32/LLD/TIMv1/hal_gpt_lld.c ****  */
  81:lib/chibios/os/hal/ports/STM32/LLD/TIMv1/hal_gpt_lld.c **** #if STM32_GPT_USE_TIM6 || defined(__DOXYGEN__)
  82:lib/chibios/os/hal/ports/STM32/LLD/TIMv1/hal_gpt_lld.c **** GPTDriver GPTD6;
  83:lib/chibios/os/hal/ports/STM32/LLD/TIMv1/hal_gpt_lld.c **** #endif
  84:lib/chibios/os/hal/ports/STM32/LLD/TIMv1/hal_gpt_lld.c **** 
  85:lib/chibios/os/hal/ports/STM32/LLD/TIMv1/hal_gpt_lld.c **** /**
  86:lib/chibios/os/hal/ports/STM32/LLD/TIMv1/hal_gpt_lld.c ****  * @brief   GPTD7 driver identifier.
  87:lib/chibios/os/hal/ports/STM32/LLD/TIMv1/hal_gpt_lld.c ****  * @note    The driver GPTD7 allocates the timer TIM7 when enabled.
  88:lib/chibios/os/hal/ports/STM32/LLD/TIMv1/hal_gpt_lld.c ****  */
  89:lib/chibios/os/hal/ports/STM32/LLD/TIMv1/hal_gpt_lld.c **** #if STM32_GPT_USE_TIM7 || defined(__DOXYGEN__)
  90:lib/chibios/os/hal/ports/STM32/LLD/TIMv1/hal_gpt_lld.c **** GPTDriver GPTD7;
  91:lib/chibios/os/hal/ports/STM32/LLD/TIMv1/hal_gpt_lld.c **** #endif
  92:lib/chibios/os/hal/ports/STM32/LLD/TIMv1/hal_gpt_lld.c **** 
  93:lib/chibios/os/hal/ports/STM32/LLD/TIMv1/hal_gpt_lld.c **** /**
  94:lib/chibios/os/hal/ports/STM32/LLD/TIMv1/hal_gpt_lld.c ****  * @brief   GPTD8 driver identifier.
  95:lib/chibios/os/hal/ports/STM32/LLD/TIMv1/hal_gpt_lld.c ****  * @note    The driver GPTD8 allocates the timer TIM8 when enabled.
  96:lib/chibios/os/hal/ports/STM32/LLD/TIMv1/hal_gpt_lld.c ****  */
  97:lib/chibios/os/hal/ports/STM32/LLD/TIMv1/hal_gpt_lld.c **** #if STM32_GPT_USE_TIM8 || defined(__DOXYGEN__)
  98:lib/chibios/os/hal/ports/STM32/LLD/TIMv1/hal_gpt_lld.c **** GPTDriver GPTD8;
  99:lib/chibios/os/hal/ports/STM32/LLD/TIMv1/hal_gpt_lld.c **** #endif
 100:lib/chibios/os/hal/ports/STM32/LLD/TIMv1/hal_gpt_lld.c **** 
 101:lib/chibios/os/hal/ports/STM32/LLD/TIMv1/hal_gpt_lld.c **** /**
 102:lib/chibios/os/hal/ports/STM32/LLD/TIMv1/hal_gpt_lld.c ****  * @brief   GPTD9 driver identifier.
 103:lib/chibios/os/hal/ports/STM32/LLD/TIMv1/hal_gpt_lld.c ****  * @note    The driver GPTD9 allocates the timer TIM9 when enabled.
 104:lib/chibios/os/hal/ports/STM32/LLD/TIMv1/hal_gpt_lld.c ****  */
 105:lib/chibios/os/hal/ports/STM32/LLD/TIMv1/hal_gpt_lld.c **** #if STM32_GPT_USE_TIM9 || defined(__DOXYGEN__)
 106:lib/chibios/os/hal/ports/STM32/LLD/TIMv1/hal_gpt_lld.c **** GPTDriver GPTD9;
 107:lib/chibios/os/hal/ports/STM32/LLD/TIMv1/hal_gpt_lld.c **** #endif
 108:lib/chibios/os/hal/ports/STM32/LLD/TIMv1/hal_gpt_lld.c **** 
 109:lib/chibios/os/hal/ports/STM32/LLD/TIMv1/hal_gpt_lld.c **** /**
 110:lib/chibios/os/hal/ports/STM32/LLD/TIMv1/hal_gpt_lld.c ****  * @brief   GPTD10 driver identifier.
 111:lib/chibios/os/hal/ports/STM32/LLD/TIMv1/hal_gpt_lld.c ****  * @note    The driver GPTD10 allocates the timer TIM10 when enabled.
 112:lib/chibios/os/hal/ports/STM32/LLD/TIMv1/hal_gpt_lld.c ****  */
 113:lib/chibios/os/hal/ports/STM32/LLD/TIMv1/hal_gpt_lld.c **** #if STM32_GPT_USE_TIM10 || defined(__DOXYGEN__)
 114:lib/chibios/os/hal/ports/STM32/LLD/TIMv1/hal_gpt_lld.c **** GPTDriver GPTD10;
 115:lib/chibios/os/hal/ports/STM32/LLD/TIMv1/hal_gpt_lld.c **** #endif
 116:lib/chibios/os/hal/ports/STM32/LLD/TIMv1/hal_gpt_lld.c **** 
 117:lib/chibios/os/hal/ports/STM32/LLD/TIMv1/hal_gpt_lld.c **** /**
 118:lib/chibios/os/hal/ports/STM32/LLD/TIMv1/hal_gpt_lld.c ****  * @brief   GPTD11 driver identifier.
 119:lib/chibios/os/hal/ports/STM32/LLD/TIMv1/hal_gpt_lld.c ****  * @note    The driver GPTD11 allocates the timer TIM11 when enabled.
 120:lib/chibios/os/hal/ports/STM32/LLD/TIMv1/hal_gpt_lld.c ****  */
 121:lib/chibios/os/hal/ports/STM32/LLD/TIMv1/hal_gpt_lld.c **** #if STM32_GPT_USE_TIM11 || defined(__DOXYGEN__)
 122:lib/chibios/os/hal/ports/STM32/LLD/TIMv1/hal_gpt_lld.c **** GPTDriver GPTD11;
 123:lib/chibios/os/hal/ports/STM32/LLD/TIMv1/hal_gpt_lld.c **** #endif
 124:lib/chibios/os/hal/ports/STM32/LLD/TIMv1/hal_gpt_lld.c **** 
 125:lib/chibios/os/hal/ports/STM32/LLD/TIMv1/hal_gpt_lld.c **** /**
 126:lib/chibios/os/hal/ports/STM32/LLD/TIMv1/hal_gpt_lld.c ****  * @brief   GPTD12 driver identifier.
 127:lib/chibios/os/hal/ports/STM32/LLD/TIMv1/hal_gpt_lld.c ****  * @note    The driver GPTD12 allocates the timer TIM12 when enabled.
 128:lib/chibios/os/hal/ports/STM32/LLD/TIMv1/hal_gpt_lld.c ****  */
 129:lib/chibios/os/hal/ports/STM32/LLD/TIMv1/hal_gpt_lld.c **** #if STM32_GPT_USE_TIM12 || defined(__DOXYGEN__)
 130:lib/chibios/os/hal/ports/STM32/LLD/TIMv1/hal_gpt_lld.c **** GPTDriver GPTD12;
 131:lib/chibios/os/hal/ports/STM32/LLD/TIMv1/hal_gpt_lld.c **** #endif
 132:lib/chibios/os/hal/ports/STM32/LLD/TIMv1/hal_gpt_lld.c **** 
 133:lib/chibios/os/hal/ports/STM32/LLD/TIMv1/hal_gpt_lld.c **** /**
 134:lib/chibios/os/hal/ports/STM32/LLD/TIMv1/hal_gpt_lld.c ****  * @brief   GPTD13 driver identifier.
 135:lib/chibios/os/hal/ports/STM32/LLD/TIMv1/hal_gpt_lld.c ****  * @note    The driver GPTD13 allocates the timer TIM13 when enabled.
 136:lib/chibios/os/hal/ports/STM32/LLD/TIMv1/hal_gpt_lld.c ****  */
 137:lib/chibios/os/hal/ports/STM32/LLD/TIMv1/hal_gpt_lld.c **** #if STM32_GPT_USE_TIM13 || defined(__DOXYGEN__)
 138:lib/chibios/os/hal/ports/STM32/LLD/TIMv1/hal_gpt_lld.c **** GPTDriver GPTD13;
 139:lib/chibios/os/hal/ports/STM32/LLD/TIMv1/hal_gpt_lld.c **** #endif
 140:lib/chibios/os/hal/ports/STM32/LLD/TIMv1/hal_gpt_lld.c **** 
 141:lib/chibios/os/hal/ports/STM32/LLD/TIMv1/hal_gpt_lld.c **** /**
 142:lib/chibios/os/hal/ports/STM32/LLD/TIMv1/hal_gpt_lld.c ****  * @brief   GPTD14 driver identifier.
 143:lib/chibios/os/hal/ports/STM32/LLD/TIMv1/hal_gpt_lld.c ****  * @note    The driver GPTD14 allocates the timer TIM14 when enabled.
 144:lib/chibios/os/hal/ports/STM32/LLD/TIMv1/hal_gpt_lld.c ****  */
 145:lib/chibios/os/hal/ports/STM32/LLD/TIMv1/hal_gpt_lld.c **** #if STM32_GPT_USE_TIM14 || defined(__DOXYGEN__)
 146:lib/chibios/os/hal/ports/STM32/LLD/TIMv1/hal_gpt_lld.c **** GPTDriver GPTD14;
 147:lib/chibios/os/hal/ports/STM32/LLD/TIMv1/hal_gpt_lld.c **** #endif
 148:lib/chibios/os/hal/ports/STM32/LLD/TIMv1/hal_gpt_lld.c **** 
 149:lib/chibios/os/hal/ports/STM32/LLD/TIMv1/hal_gpt_lld.c **** /**
 150:lib/chibios/os/hal/ports/STM32/LLD/TIMv1/hal_gpt_lld.c ****  * @brief   GPTD15 driver identifier.
 151:lib/chibios/os/hal/ports/STM32/LLD/TIMv1/hal_gpt_lld.c ****  * @note    The driver GPTD14 allocates the timer TIM14 when enabled.
 152:lib/chibios/os/hal/ports/STM32/LLD/TIMv1/hal_gpt_lld.c ****  */
 153:lib/chibios/os/hal/ports/STM32/LLD/TIMv1/hal_gpt_lld.c **** #if STM32_GPT_USE_TIM15 || defined(__DOXYGEN__)
 154:lib/chibios/os/hal/ports/STM32/LLD/TIMv1/hal_gpt_lld.c **** GPTDriver GPTD15;
 155:lib/chibios/os/hal/ports/STM32/LLD/TIMv1/hal_gpt_lld.c **** #endif
 156:lib/chibios/os/hal/ports/STM32/LLD/TIMv1/hal_gpt_lld.c **** 
 157:lib/chibios/os/hal/ports/STM32/LLD/TIMv1/hal_gpt_lld.c **** /**
 158:lib/chibios/os/hal/ports/STM32/LLD/TIMv1/hal_gpt_lld.c ****  * @brief   GPTD16 driver identifier.
 159:lib/chibios/os/hal/ports/STM32/LLD/TIMv1/hal_gpt_lld.c ****  * @note    The driver GPTD14 allocates the timer TIM14 when enabled.
 160:lib/chibios/os/hal/ports/STM32/LLD/TIMv1/hal_gpt_lld.c ****  */
 161:lib/chibios/os/hal/ports/STM32/LLD/TIMv1/hal_gpt_lld.c **** #if STM32_GPT_USE_TIM16 || defined(__DOXYGEN__)
 162:lib/chibios/os/hal/ports/STM32/LLD/TIMv1/hal_gpt_lld.c **** GPTDriver GPTD16;
 163:lib/chibios/os/hal/ports/STM32/LLD/TIMv1/hal_gpt_lld.c **** #endif
 164:lib/chibios/os/hal/ports/STM32/LLD/TIMv1/hal_gpt_lld.c **** 
 165:lib/chibios/os/hal/ports/STM32/LLD/TIMv1/hal_gpt_lld.c **** /**
 166:lib/chibios/os/hal/ports/STM32/LLD/TIMv1/hal_gpt_lld.c ****  * @brief   GPTD17 driver identifier.
 167:lib/chibios/os/hal/ports/STM32/LLD/TIMv1/hal_gpt_lld.c ****  * @note    The driver GPTD14 allocates the timer TIM14 when enabled.
 168:lib/chibios/os/hal/ports/STM32/LLD/TIMv1/hal_gpt_lld.c ****  */
 169:lib/chibios/os/hal/ports/STM32/LLD/TIMv1/hal_gpt_lld.c **** #if STM32_GPT_USE_TIM17 || defined(__DOXYGEN__)
 170:lib/chibios/os/hal/ports/STM32/LLD/TIMv1/hal_gpt_lld.c **** GPTDriver GPTD17;
 171:lib/chibios/os/hal/ports/STM32/LLD/TIMv1/hal_gpt_lld.c **** #endif
 172:lib/chibios/os/hal/ports/STM32/LLD/TIMv1/hal_gpt_lld.c **** 
 173:lib/chibios/os/hal/ports/STM32/LLD/TIMv1/hal_gpt_lld.c **** /**
 174:lib/chibios/os/hal/ports/STM32/LLD/TIMv1/hal_gpt_lld.c ****  * @brief   GPTD21 driver identifier.
 175:lib/chibios/os/hal/ports/STM32/LLD/TIMv1/hal_gpt_lld.c ****  * @note    The driver GPTD21 allocates the timer TIM21 when enabled.
 176:lib/chibios/os/hal/ports/STM32/LLD/TIMv1/hal_gpt_lld.c ****  */
 177:lib/chibios/os/hal/ports/STM32/LLD/TIMv1/hal_gpt_lld.c **** #if STM32_GPT_USE_TIM21 || defined(__DOXYGEN__)
 178:lib/chibios/os/hal/ports/STM32/LLD/TIMv1/hal_gpt_lld.c **** GPTDriver GPTD21;
 179:lib/chibios/os/hal/ports/STM32/LLD/TIMv1/hal_gpt_lld.c **** #endif
 180:lib/chibios/os/hal/ports/STM32/LLD/TIMv1/hal_gpt_lld.c **** 
 181:lib/chibios/os/hal/ports/STM32/LLD/TIMv1/hal_gpt_lld.c **** /**
 182:lib/chibios/os/hal/ports/STM32/LLD/TIMv1/hal_gpt_lld.c ****  * @brief   GPTD22 driver identifier.
 183:lib/chibios/os/hal/ports/STM32/LLD/TIMv1/hal_gpt_lld.c ****  * @note    The driver GPTD22 allocates the timer TIM22 when enabled.
 184:lib/chibios/os/hal/ports/STM32/LLD/TIMv1/hal_gpt_lld.c ****  */
 185:lib/chibios/os/hal/ports/STM32/LLD/TIMv1/hal_gpt_lld.c **** #if STM32_GPT_USE_TIM22 || defined(__DOXYGEN__)
 186:lib/chibios/os/hal/ports/STM32/LLD/TIMv1/hal_gpt_lld.c **** GPTDriver GPTD22;
 187:lib/chibios/os/hal/ports/STM32/LLD/TIMv1/hal_gpt_lld.c **** #endif
 188:lib/chibios/os/hal/ports/STM32/LLD/TIMv1/hal_gpt_lld.c **** 
 189:lib/chibios/os/hal/ports/STM32/LLD/TIMv1/hal_gpt_lld.c **** /*===========================================================================*/
 190:lib/chibios/os/hal/ports/STM32/LLD/TIMv1/hal_gpt_lld.c **** /* Driver local variables and types.                                         */
 191:lib/chibios/os/hal/ports/STM32/LLD/TIMv1/hal_gpt_lld.c **** /*===========================================================================*/
 192:lib/chibios/os/hal/ports/STM32/LLD/TIMv1/hal_gpt_lld.c **** 
 193:lib/chibios/os/hal/ports/STM32/LLD/TIMv1/hal_gpt_lld.c **** /*===========================================================================*/
 194:lib/chibios/os/hal/ports/STM32/LLD/TIMv1/hal_gpt_lld.c **** /* Driver local functions.                                                   */
 195:lib/chibios/os/hal/ports/STM32/LLD/TIMv1/hal_gpt_lld.c **** /*===========================================================================*/
 196:lib/chibios/os/hal/ports/STM32/LLD/TIMv1/hal_gpt_lld.c **** 
 197:lib/chibios/os/hal/ports/STM32/LLD/TIMv1/hal_gpt_lld.c **** /*===========================================================================*/
 198:lib/chibios/os/hal/ports/STM32/LLD/TIMv1/hal_gpt_lld.c **** /* Driver interrupt handlers.                                                */
 199:lib/chibios/os/hal/ports/STM32/LLD/TIMv1/hal_gpt_lld.c **** /*===========================================================================*/
 200:lib/chibios/os/hal/ports/STM32/LLD/TIMv1/hal_gpt_lld.c **** 
 201:lib/chibios/os/hal/ports/STM32/LLD/TIMv1/hal_gpt_lld.c **** #if STM32_GPT_USE_TIM1 || defined(__DOXYGEN__)
 202:lib/chibios/os/hal/ports/STM32/LLD/TIMv1/hal_gpt_lld.c **** #if !defined(STM32_TIM1_SUPPRESS_ISR)
 203:lib/chibios/os/hal/ports/STM32/LLD/TIMv1/hal_gpt_lld.c **** #if !defined(STM32_TIM1_UP_HANDLER)
 204:lib/chibios/os/hal/ports/STM32/LLD/TIMv1/hal_gpt_lld.c **** #error "STM32_TIM1_UP_HANDLER not defined"
 205:lib/chibios/os/hal/ports/STM32/LLD/TIMv1/hal_gpt_lld.c **** #endif
 206:lib/chibios/os/hal/ports/STM32/LLD/TIMv1/hal_gpt_lld.c **** /**
 207:lib/chibios/os/hal/ports/STM32/LLD/TIMv1/hal_gpt_lld.c ****  * @brief   TIM1 interrupt handler.
 208:lib/chibios/os/hal/ports/STM32/LLD/TIMv1/hal_gpt_lld.c ****  *
 209:lib/chibios/os/hal/ports/STM32/LLD/TIMv1/hal_gpt_lld.c ****  * @isr
 210:lib/chibios/os/hal/ports/STM32/LLD/TIMv1/hal_gpt_lld.c ****  */
 211:lib/chibios/os/hal/ports/STM32/LLD/TIMv1/hal_gpt_lld.c **** OSAL_IRQ_HANDLER(STM32_TIM1_UP_HANDLER) {
 212:lib/chibios/os/hal/ports/STM32/LLD/TIMv1/hal_gpt_lld.c **** 
 213:lib/chibios/os/hal/ports/STM32/LLD/TIMv1/hal_gpt_lld.c ****   OSAL_IRQ_PROLOGUE();
 214:lib/chibios/os/hal/ports/STM32/LLD/TIMv1/hal_gpt_lld.c **** 
 215:lib/chibios/os/hal/ports/STM32/LLD/TIMv1/hal_gpt_lld.c ****   gpt_lld_serve_interrupt(&GPTD1);
 216:lib/chibios/os/hal/ports/STM32/LLD/TIMv1/hal_gpt_lld.c **** 
 217:lib/chibios/os/hal/ports/STM32/LLD/TIMv1/hal_gpt_lld.c ****   OSAL_IRQ_EPILOGUE();
 218:lib/chibios/os/hal/ports/STM32/LLD/TIMv1/hal_gpt_lld.c **** }
 219:lib/chibios/os/hal/ports/STM32/LLD/TIMv1/hal_gpt_lld.c **** #endif /* !defined(STM32_TIM1_SUPPRESS_ISR) */
 220:lib/chibios/os/hal/ports/STM32/LLD/TIMv1/hal_gpt_lld.c **** #endif /* STM32_GPT_USE_TIM1 */
 221:lib/chibios/os/hal/ports/STM32/LLD/TIMv1/hal_gpt_lld.c **** 
 222:lib/chibios/os/hal/ports/STM32/LLD/TIMv1/hal_gpt_lld.c **** #if STM32_GPT_USE_TIM2 || defined(__DOXYGEN__)
 223:lib/chibios/os/hal/ports/STM32/LLD/TIMv1/hal_gpt_lld.c **** #if !defined(STM32_TIM2_SUPPRESS_ISR)
 224:lib/chibios/os/hal/ports/STM32/LLD/TIMv1/hal_gpt_lld.c **** #if !defined(STM32_TIM2_HANDLER)
 225:lib/chibios/os/hal/ports/STM32/LLD/TIMv1/hal_gpt_lld.c **** #error "STM32_TIM2_HANDLER not defined"
 226:lib/chibios/os/hal/ports/STM32/LLD/TIMv1/hal_gpt_lld.c **** #endif
 227:lib/chibios/os/hal/ports/STM32/LLD/TIMv1/hal_gpt_lld.c **** /**
 228:lib/chibios/os/hal/ports/STM32/LLD/TIMv1/hal_gpt_lld.c ****  * @brief   TIM2 interrupt handler.
 229:lib/chibios/os/hal/ports/STM32/LLD/TIMv1/hal_gpt_lld.c ****  *
 230:lib/chibios/os/hal/ports/STM32/LLD/TIMv1/hal_gpt_lld.c ****  * @isr
 231:lib/chibios/os/hal/ports/STM32/LLD/TIMv1/hal_gpt_lld.c ****  */
 232:lib/chibios/os/hal/ports/STM32/LLD/TIMv1/hal_gpt_lld.c **** OSAL_IRQ_HANDLER(STM32_TIM2_HANDLER) {
 233:lib/chibios/os/hal/ports/STM32/LLD/TIMv1/hal_gpt_lld.c **** 
 234:lib/chibios/os/hal/ports/STM32/LLD/TIMv1/hal_gpt_lld.c ****   OSAL_IRQ_PROLOGUE();
 235:lib/chibios/os/hal/ports/STM32/LLD/TIMv1/hal_gpt_lld.c **** 
 236:lib/chibios/os/hal/ports/STM32/LLD/TIMv1/hal_gpt_lld.c ****   gpt_lld_serve_interrupt(&GPTD2);
 237:lib/chibios/os/hal/ports/STM32/LLD/TIMv1/hal_gpt_lld.c **** 
 238:lib/chibios/os/hal/ports/STM32/LLD/TIMv1/hal_gpt_lld.c ****   OSAL_IRQ_EPILOGUE();
 239:lib/chibios/os/hal/ports/STM32/LLD/TIMv1/hal_gpt_lld.c **** }
 240:lib/chibios/os/hal/ports/STM32/LLD/TIMv1/hal_gpt_lld.c **** #endif /* !defined(STM32_TIM2_SUPPRESS_ISR) */
 241:lib/chibios/os/hal/ports/STM32/LLD/TIMv1/hal_gpt_lld.c **** #endif /* STM32_GPT_USE_TIM2 */
 242:lib/chibios/os/hal/ports/STM32/LLD/TIMv1/hal_gpt_lld.c **** 
 243:lib/chibios/os/hal/ports/STM32/LLD/TIMv1/hal_gpt_lld.c **** #if STM32_GPT_USE_TIM3 || defined(__DOXYGEN__)
 244:lib/chibios/os/hal/ports/STM32/LLD/TIMv1/hal_gpt_lld.c **** #if !defined(STM32_TIM3_SUPPRESS_ISR)
 245:lib/chibios/os/hal/ports/STM32/LLD/TIMv1/hal_gpt_lld.c **** #if !defined(STM32_TIM3_HANDLER)
 246:lib/chibios/os/hal/ports/STM32/LLD/TIMv1/hal_gpt_lld.c **** #error "STM32_TIM3_HANDLER not defined"
 247:lib/chibios/os/hal/ports/STM32/LLD/TIMv1/hal_gpt_lld.c **** #endif
 248:lib/chibios/os/hal/ports/STM32/LLD/TIMv1/hal_gpt_lld.c **** /**
 249:lib/chibios/os/hal/ports/STM32/LLD/TIMv1/hal_gpt_lld.c ****  * @brief   TIM3 interrupt handler.
 250:lib/chibios/os/hal/ports/STM32/LLD/TIMv1/hal_gpt_lld.c ****  *
 251:lib/chibios/os/hal/ports/STM32/LLD/TIMv1/hal_gpt_lld.c ****  * @isr
 252:lib/chibios/os/hal/ports/STM32/LLD/TIMv1/hal_gpt_lld.c ****  */
 253:lib/chibios/os/hal/ports/STM32/LLD/TIMv1/hal_gpt_lld.c **** OSAL_IRQ_HANDLER(STM32_TIM3_HANDLER) {
 254:lib/chibios/os/hal/ports/STM32/LLD/TIMv1/hal_gpt_lld.c **** 
 255:lib/chibios/os/hal/ports/STM32/LLD/TIMv1/hal_gpt_lld.c ****   OSAL_IRQ_PROLOGUE();
 256:lib/chibios/os/hal/ports/STM32/LLD/TIMv1/hal_gpt_lld.c **** 
 257:lib/chibios/os/hal/ports/STM32/LLD/TIMv1/hal_gpt_lld.c ****   gpt_lld_serve_interrupt(&GPTD3);
 258:lib/chibios/os/hal/ports/STM32/LLD/TIMv1/hal_gpt_lld.c **** 
 259:lib/chibios/os/hal/ports/STM32/LLD/TIMv1/hal_gpt_lld.c ****   OSAL_IRQ_EPILOGUE();
 260:lib/chibios/os/hal/ports/STM32/LLD/TIMv1/hal_gpt_lld.c **** }
 261:lib/chibios/os/hal/ports/STM32/LLD/TIMv1/hal_gpt_lld.c **** #endif /* !defined(STM32_TIM3_SUPPRESS_ISR) */
 262:lib/chibios/os/hal/ports/STM32/LLD/TIMv1/hal_gpt_lld.c **** #endif /* STM32_GPT_USE_TIM3 */
 263:lib/chibios/os/hal/ports/STM32/LLD/TIMv1/hal_gpt_lld.c **** 
 264:lib/chibios/os/hal/ports/STM32/LLD/TIMv1/hal_gpt_lld.c **** #if STM32_GPT_USE_TIM4 || defined(__DOXYGEN__)
 265:lib/chibios/os/hal/ports/STM32/LLD/TIMv1/hal_gpt_lld.c **** #if !defined(STM32_TIM4_SUPPRESS_ISR)
 266:lib/chibios/os/hal/ports/STM32/LLD/TIMv1/hal_gpt_lld.c **** #if !defined(STM32_TIM4_HANDLER)
 267:lib/chibios/os/hal/ports/STM32/LLD/TIMv1/hal_gpt_lld.c **** #error "STM32_TIM4_HANDLER not defined"
 268:lib/chibios/os/hal/ports/STM32/LLD/TIMv1/hal_gpt_lld.c **** #endif
 269:lib/chibios/os/hal/ports/STM32/LLD/TIMv1/hal_gpt_lld.c **** /**
 270:lib/chibios/os/hal/ports/STM32/LLD/TIMv1/hal_gpt_lld.c ****  * @brief   TIM4 interrupt handler.
 271:lib/chibios/os/hal/ports/STM32/LLD/TIMv1/hal_gpt_lld.c ****  *
 272:lib/chibios/os/hal/ports/STM32/LLD/TIMv1/hal_gpt_lld.c ****  * @isr
 273:lib/chibios/os/hal/ports/STM32/LLD/TIMv1/hal_gpt_lld.c ****  */
 274:lib/chibios/os/hal/ports/STM32/LLD/TIMv1/hal_gpt_lld.c **** OSAL_IRQ_HANDLER(STM32_TIM4_HANDLER) {
 275:lib/chibios/os/hal/ports/STM32/LLD/TIMv1/hal_gpt_lld.c **** 
 276:lib/chibios/os/hal/ports/STM32/LLD/TIMv1/hal_gpt_lld.c ****   OSAL_IRQ_PROLOGUE();
 277:lib/chibios/os/hal/ports/STM32/LLD/TIMv1/hal_gpt_lld.c **** 
 278:lib/chibios/os/hal/ports/STM32/LLD/TIMv1/hal_gpt_lld.c ****   gpt_lld_serve_interrupt(&GPTD4);
 279:lib/chibios/os/hal/ports/STM32/LLD/TIMv1/hal_gpt_lld.c **** 
 280:lib/chibios/os/hal/ports/STM32/LLD/TIMv1/hal_gpt_lld.c ****   OSAL_IRQ_EPILOGUE();
 281:lib/chibios/os/hal/ports/STM32/LLD/TIMv1/hal_gpt_lld.c **** }
 282:lib/chibios/os/hal/ports/STM32/LLD/TIMv1/hal_gpt_lld.c **** #endif /* !defined(STM32_TIM4_SUPPRESS_ISR) */
 283:lib/chibios/os/hal/ports/STM32/LLD/TIMv1/hal_gpt_lld.c **** #endif /* STM32_GPT_USE_TIM4 */
 284:lib/chibios/os/hal/ports/STM32/LLD/TIMv1/hal_gpt_lld.c **** 
 285:lib/chibios/os/hal/ports/STM32/LLD/TIMv1/hal_gpt_lld.c **** #if STM32_GPT_USE_TIM5 || defined(__DOXYGEN__)
 286:lib/chibios/os/hal/ports/STM32/LLD/TIMv1/hal_gpt_lld.c **** #if !defined(STM32_TIM5_SUPPRESS_ISR)
 287:lib/chibios/os/hal/ports/STM32/LLD/TIMv1/hal_gpt_lld.c **** #if !defined(STM32_TIM5_HANDLER)
 288:lib/chibios/os/hal/ports/STM32/LLD/TIMv1/hal_gpt_lld.c **** #error "STM32_TIM5_HANDLER not defined"
 289:lib/chibios/os/hal/ports/STM32/LLD/TIMv1/hal_gpt_lld.c **** #endif
 290:lib/chibios/os/hal/ports/STM32/LLD/TIMv1/hal_gpt_lld.c **** /**
 291:lib/chibios/os/hal/ports/STM32/LLD/TIMv1/hal_gpt_lld.c ****  * @brief   TIM5 interrupt handler.
 292:lib/chibios/os/hal/ports/STM32/LLD/TIMv1/hal_gpt_lld.c ****  *
 293:lib/chibios/os/hal/ports/STM32/LLD/TIMv1/hal_gpt_lld.c ****  * @isr
 294:lib/chibios/os/hal/ports/STM32/LLD/TIMv1/hal_gpt_lld.c ****  */
 295:lib/chibios/os/hal/ports/STM32/LLD/TIMv1/hal_gpt_lld.c **** OSAL_IRQ_HANDLER(STM32_TIM5_HANDLER) {
 296:lib/chibios/os/hal/ports/STM32/LLD/TIMv1/hal_gpt_lld.c **** 
 297:lib/chibios/os/hal/ports/STM32/LLD/TIMv1/hal_gpt_lld.c ****   OSAL_IRQ_PROLOGUE();
 298:lib/chibios/os/hal/ports/STM32/LLD/TIMv1/hal_gpt_lld.c **** 
 299:lib/chibios/os/hal/ports/STM32/LLD/TIMv1/hal_gpt_lld.c ****   gpt_lld_serve_interrupt(&GPTD5);
 300:lib/chibios/os/hal/ports/STM32/LLD/TIMv1/hal_gpt_lld.c **** 
 301:lib/chibios/os/hal/ports/STM32/LLD/TIMv1/hal_gpt_lld.c ****   OSAL_IRQ_EPILOGUE();
 302:lib/chibios/os/hal/ports/STM32/LLD/TIMv1/hal_gpt_lld.c **** }
 303:lib/chibios/os/hal/ports/STM32/LLD/TIMv1/hal_gpt_lld.c **** #endif /* !defined(STM32_TIM5_SUPPRESS_ISR) */
 304:lib/chibios/os/hal/ports/STM32/LLD/TIMv1/hal_gpt_lld.c **** #endif /* STM32_GPT_USE_TIM5 */
 305:lib/chibios/os/hal/ports/STM32/LLD/TIMv1/hal_gpt_lld.c **** 
 306:lib/chibios/os/hal/ports/STM32/LLD/TIMv1/hal_gpt_lld.c **** #if STM32_GPT_USE_TIM6 || defined(__DOXYGEN__)
 307:lib/chibios/os/hal/ports/STM32/LLD/TIMv1/hal_gpt_lld.c **** #if !defined(STM32_TIM6_SUPPRESS_ISR)
 308:lib/chibios/os/hal/ports/STM32/LLD/TIMv1/hal_gpt_lld.c **** #if !defined(STM32_TIM6_HANDLER)
 309:lib/chibios/os/hal/ports/STM32/LLD/TIMv1/hal_gpt_lld.c **** #error "STM32_TIM6_HANDLER not defined"
 310:lib/chibios/os/hal/ports/STM32/LLD/TIMv1/hal_gpt_lld.c **** #endif
 311:lib/chibios/os/hal/ports/STM32/LLD/TIMv1/hal_gpt_lld.c **** /**
 312:lib/chibios/os/hal/ports/STM32/LLD/TIMv1/hal_gpt_lld.c ****  * @brief   TIM6 interrupt handler.
 313:lib/chibios/os/hal/ports/STM32/LLD/TIMv1/hal_gpt_lld.c ****  *
 314:lib/chibios/os/hal/ports/STM32/LLD/TIMv1/hal_gpt_lld.c ****  * @isr
 315:lib/chibios/os/hal/ports/STM32/LLD/TIMv1/hal_gpt_lld.c ****  */
 316:lib/chibios/os/hal/ports/STM32/LLD/TIMv1/hal_gpt_lld.c **** OSAL_IRQ_HANDLER(STM32_TIM6_HANDLER) {
 317:lib/chibios/os/hal/ports/STM32/LLD/TIMv1/hal_gpt_lld.c **** 
 318:lib/chibios/os/hal/ports/STM32/LLD/TIMv1/hal_gpt_lld.c ****   OSAL_IRQ_PROLOGUE();
 319:lib/chibios/os/hal/ports/STM32/LLD/TIMv1/hal_gpt_lld.c **** 
 320:lib/chibios/os/hal/ports/STM32/LLD/TIMv1/hal_gpt_lld.c ****   gpt_lld_serve_interrupt(&GPTD6);
 321:lib/chibios/os/hal/ports/STM32/LLD/TIMv1/hal_gpt_lld.c **** 
 322:lib/chibios/os/hal/ports/STM32/LLD/TIMv1/hal_gpt_lld.c ****   OSAL_IRQ_EPILOGUE();
 323:lib/chibios/os/hal/ports/STM32/LLD/TIMv1/hal_gpt_lld.c **** }
 324:lib/chibios/os/hal/ports/STM32/LLD/TIMv1/hal_gpt_lld.c **** #endif /* !defined(STM32_TIM6_SUPPRESS_ISR) */
 325:lib/chibios/os/hal/ports/STM32/LLD/TIMv1/hal_gpt_lld.c **** #endif /* STM32_GPT_USE_TIM6 */
 326:lib/chibios/os/hal/ports/STM32/LLD/TIMv1/hal_gpt_lld.c **** 
 327:lib/chibios/os/hal/ports/STM32/LLD/TIMv1/hal_gpt_lld.c **** #if STM32_GPT_USE_TIM7 || defined(__DOXYGEN__)
 328:lib/chibios/os/hal/ports/STM32/LLD/TIMv1/hal_gpt_lld.c **** #if !defined(STM32_TIM7_SUPPRESS_ISR)
 329:lib/chibios/os/hal/ports/STM32/LLD/TIMv1/hal_gpt_lld.c **** #if !defined(STM32_TIM7_HANDLER)
 330:lib/chibios/os/hal/ports/STM32/LLD/TIMv1/hal_gpt_lld.c **** #error "STM32_TIM7_HANDLER not defined"
 331:lib/chibios/os/hal/ports/STM32/LLD/TIMv1/hal_gpt_lld.c **** #endif
 332:lib/chibios/os/hal/ports/STM32/LLD/TIMv1/hal_gpt_lld.c **** /**
 333:lib/chibios/os/hal/ports/STM32/LLD/TIMv1/hal_gpt_lld.c ****  * @brief   TIM7 interrupt handler.
 334:lib/chibios/os/hal/ports/STM32/LLD/TIMv1/hal_gpt_lld.c ****  *
 335:lib/chibios/os/hal/ports/STM32/LLD/TIMv1/hal_gpt_lld.c ****  * @isr
 336:lib/chibios/os/hal/ports/STM32/LLD/TIMv1/hal_gpt_lld.c ****  */
 337:lib/chibios/os/hal/ports/STM32/LLD/TIMv1/hal_gpt_lld.c **** OSAL_IRQ_HANDLER(STM32_TIM7_HANDLER) {
 338:lib/chibios/os/hal/ports/STM32/LLD/TIMv1/hal_gpt_lld.c **** 
 339:lib/chibios/os/hal/ports/STM32/LLD/TIMv1/hal_gpt_lld.c ****   OSAL_IRQ_PROLOGUE();
 340:lib/chibios/os/hal/ports/STM32/LLD/TIMv1/hal_gpt_lld.c **** 
 341:lib/chibios/os/hal/ports/STM32/LLD/TIMv1/hal_gpt_lld.c ****   gpt_lld_serve_interrupt(&GPTD7);
 342:lib/chibios/os/hal/ports/STM32/LLD/TIMv1/hal_gpt_lld.c **** 
 343:lib/chibios/os/hal/ports/STM32/LLD/TIMv1/hal_gpt_lld.c ****   OSAL_IRQ_EPILOGUE();
 344:lib/chibios/os/hal/ports/STM32/LLD/TIMv1/hal_gpt_lld.c **** }
 345:lib/chibios/os/hal/ports/STM32/LLD/TIMv1/hal_gpt_lld.c **** #endif /* !defined(STM32_TIM7_SUPPRESS_ISR) */
 346:lib/chibios/os/hal/ports/STM32/LLD/TIMv1/hal_gpt_lld.c **** #endif /* STM32_GPT_USE_TIM7 */
 347:lib/chibios/os/hal/ports/STM32/LLD/TIMv1/hal_gpt_lld.c **** 
 348:lib/chibios/os/hal/ports/STM32/LLD/TIMv1/hal_gpt_lld.c **** #if STM32_GPT_USE_TIM8 || defined(__DOXYGEN__)
 349:lib/chibios/os/hal/ports/STM32/LLD/TIMv1/hal_gpt_lld.c **** #if !defined(STM32_TIM8_SUPPRESS_ISR)
 350:lib/chibios/os/hal/ports/STM32/LLD/TIMv1/hal_gpt_lld.c **** #if !defined(STM32_TIM8_UP_HANDLER)
 351:lib/chibios/os/hal/ports/STM32/LLD/TIMv1/hal_gpt_lld.c **** #error "STM32_TIM8_UP_HANDLER not defined"
 352:lib/chibios/os/hal/ports/STM32/LLD/TIMv1/hal_gpt_lld.c **** #endif
 353:lib/chibios/os/hal/ports/STM32/LLD/TIMv1/hal_gpt_lld.c **** /**
 354:lib/chibios/os/hal/ports/STM32/LLD/TIMv1/hal_gpt_lld.c ****  * @brief   TIM8 interrupt handler.
 355:lib/chibios/os/hal/ports/STM32/LLD/TIMv1/hal_gpt_lld.c ****  *
 356:lib/chibios/os/hal/ports/STM32/LLD/TIMv1/hal_gpt_lld.c ****  * @isr
 357:lib/chibios/os/hal/ports/STM32/LLD/TIMv1/hal_gpt_lld.c ****  */
 358:lib/chibios/os/hal/ports/STM32/LLD/TIMv1/hal_gpt_lld.c **** OSAL_IRQ_HANDLER(STM32_TIM8_UP_HANDLER) {
 359:lib/chibios/os/hal/ports/STM32/LLD/TIMv1/hal_gpt_lld.c **** 
 360:lib/chibios/os/hal/ports/STM32/LLD/TIMv1/hal_gpt_lld.c ****   OSAL_IRQ_PROLOGUE();
 361:lib/chibios/os/hal/ports/STM32/LLD/TIMv1/hal_gpt_lld.c **** 
 362:lib/chibios/os/hal/ports/STM32/LLD/TIMv1/hal_gpt_lld.c ****   gpt_lld_serve_interrupt(&GPTD8);
 363:lib/chibios/os/hal/ports/STM32/LLD/TIMv1/hal_gpt_lld.c **** 
 364:lib/chibios/os/hal/ports/STM32/LLD/TIMv1/hal_gpt_lld.c ****   OSAL_IRQ_EPILOGUE();
 365:lib/chibios/os/hal/ports/STM32/LLD/TIMv1/hal_gpt_lld.c **** }
 366:lib/chibios/os/hal/ports/STM32/LLD/TIMv1/hal_gpt_lld.c **** #endif /* !defined(STM32_TIM8_SUPPRESS_ISR) */
 367:lib/chibios/os/hal/ports/STM32/LLD/TIMv1/hal_gpt_lld.c **** #endif /* STM32_GPT_USE_TIM8 */
 368:lib/chibios/os/hal/ports/STM32/LLD/TIMv1/hal_gpt_lld.c **** 
 369:lib/chibios/os/hal/ports/STM32/LLD/TIMv1/hal_gpt_lld.c **** #if STM32_GPT_USE_TIM9 || defined(__DOXYGEN__)
 370:lib/chibios/os/hal/ports/STM32/LLD/TIMv1/hal_gpt_lld.c **** #if !defined(STM32_TIM9_SUPPRESS_ISR)
 371:lib/chibios/os/hal/ports/STM32/LLD/TIMv1/hal_gpt_lld.c **** #error "TIM9 ISR not defined by platform"
 372:lib/chibios/os/hal/ports/STM32/LLD/TIMv1/hal_gpt_lld.c **** #endif /* !defined(STM32_TIM9_SUPPRESS_ISR) */
 373:lib/chibios/os/hal/ports/STM32/LLD/TIMv1/hal_gpt_lld.c **** #endif /* STM32_GPT_USE_TIM9 */
 374:lib/chibios/os/hal/ports/STM32/LLD/TIMv1/hal_gpt_lld.c **** 
 375:lib/chibios/os/hal/ports/STM32/LLD/TIMv1/hal_gpt_lld.c **** #if STM32_GPT_USE_TIM10 || defined(__DOXYGEN__)
 376:lib/chibios/os/hal/ports/STM32/LLD/TIMv1/hal_gpt_lld.c **** #if !defined(STM32_TIM10_SUPPRESS_ISR)
 377:lib/chibios/os/hal/ports/STM32/LLD/TIMv1/hal_gpt_lld.c **** #error "TIM10 ISR not defined by platform"
 378:lib/chibios/os/hal/ports/STM32/LLD/TIMv1/hal_gpt_lld.c **** #endif /* !defined(STM32_TIM10_SUPPRESS_ISR) */
 379:lib/chibios/os/hal/ports/STM32/LLD/TIMv1/hal_gpt_lld.c **** #endif /* STM32_GPT_USE_TIM10 */
 380:lib/chibios/os/hal/ports/STM32/LLD/TIMv1/hal_gpt_lld.c **** 
 381:lib/chibios/os/hal/ports/STM32/LLD/TIMv1/hal_gpt_lld.c **** #if STM32_GPT_USE_TIM11 || defined(__DOXYGEN__)
 382:lib/chibios/os/hal/ports/STM32/LLD/TIMv1/hal_gpt_lld.c **** #if !defined(STM32_TIM11_SUPPRESS_ISR)
 383:lib/chibios/os/hal/ports/STM32/LLD/TIMv1/hal_gpt_lld.c **** #error "TIM11 ISR not defined by platform"
 384:lib/chibios/os/hal/ports/STM32/LLD/TIMv1/hal_gpt_lld.c **** #endif /* !defined(STM32_TIM11_SUPPRESS_ISR) */
 385:lib/chibios/os/hal/ports/STM32/LLD/TIMv1/hal_gpt_lld.c **** #endif /* STM32_GPT_USE_TIM11 */
 386:lib/chibios/os/hal/ports/STM32/LLD/TIMv1/hal_gpt_lld.c **** 
 387:lib/chibios/os/hal/ports/STM32/LLD/TIMv1/hal_gpt_lld.c **** #if STM32_GPT_USE_TIM12 || defined(__DOXYGEN__)
 388:lib/chibios/os/hal/ports/STM32/LLD/TIMv1/hal_gpt_lld.c **** #if !defined(STM32_TIM12_SUPPRESS_ISR)
 389:lib/chibios/os/hal/ports/STM32/LLD/TIMv1/hal_gpt_lld.c **** #error "TIM12 ISR not defined by platform"
 390:lib/chibios/os/hal/ports/STM32/LLD/TIMv1/hal_gpt_lld.c **** #endif /* !defined(STM32_TIM12_SUPPRESS_ISR) */
 391:lib/chibios/os/hal/ports/STM32/LLD/TIMv1/hal_gpt_lld.c **** #endif /* STM32_GPT_USE_TIM12 */
 392:lib/chibios/os/hal/ports/STM32/LLD/TIMv1/hal_gpt_lld.c **** 
 393:lib/chibios/os/hal/ports/STM32/LLD/TIMv1/hal_gpt_lld.c **** #if STM32_GPT_USE_TIM13 || defined(__DOXYGEN__)
 394:lib/chibios/os/hal/ports/STM32/LLD/TIMv1/hal_gpt_lld.c **** #if !defined(STM32_TIM13_SUPPRESS_ISR)
 395:lib/chibios/os/hal/ports/STM32/LLD/TIMv1/hal_gpt_lld.c **** #error "TIM13 ISR not defined by platform"
 396:lib/chibios/os/hal/ports/STM32/LLD/TIMv1/hal_gpt_lld.c **** #endif /* !defined(STM32_TIM13_SUPPRESS_ISR) */
 397:lib/chibios/os/hal/ports/STM32/LLD/TIMv1/hal_gpt_lld.c **** #endif /* STM32_GPT_USE_TIM13 */
 398:lib/chibios/os/hal/ports/STM32/LLD/TIMv1/hal_gpt_lld.c **** 
 399:lib/chibios/os/hal/ports/STM32/LLD/TIMv1/hal_gpt_lld.c **** #if STM32_GPT_USE_TIM14 || defined(__DOXYGEN__)
 400:lib/chibios/os/hal/ports/STM32/LLD/TIMv1/hal_gpt_lld.c **** #if !defined(STM32_TIM14_SUPPRESS_ISR)
 401:lib/chibios/os/hal/ports/STM32/LLD/TIMv1/hal_gpt_lld.c **** #error "TIM14 ISR not defined by platform"
 402:lib/chibios/os/hal/ports/STM32/LLD/TIMv1/hal_gpt_lld.c **** #endif /* !defined(STM32_TIM14_SUPPRESS_ISR) */
 403:lib/chibios/os/hal/ports/STM32/LLD/TIMv1/hal_gpt_lld.c **** #endif /* STM32_GPT_USE_TIM14 */
 404:lib/chibios/os/hal/ports/STM32/LLD/TIMv1/hal_gpt_lld.c **** 
 405:lib/chibios/os/hal/ports/STM32/LLD/TIMv1/hal_gpt_lld.c **** #if STM32_GPT_USE_TIM15 || defined(__DOXYGEN__)
 406:lib/chibios/os/hal/ports/STM32/LLD/TIMv1/hal_gpt_lld.c **** #if !defined(STM32_TIM15_SUPPRESS_ISR)
 407:lib/chibios/os/hal/ports/STM32/LLD/TIMv1/hal_gpt_lld.c **** #error "TIM15 ISR not defined by platform"
 408:lib/chibios/os/hal/ports/STM32/LLD/TIMv1/hal_gpt_lld.c **** #endif /* !defined(STM32_TIM15_SUPPRESS_ISR) */
 409:lib/chibios/os/hal/ports/STM32/LLD/TIMv1/hal_gpt_lld.c **** #endif /* STM32_GPT_USE_TIM15 */
 410:lib/chibios/os/hal/ports/STM32/LLD/TIMv1/hal_gpt_lld.c **** 
 411:lib/chibios/os/hal/ports/STM32/LLD/TIMv1/hal_gpt_lld.c **** #if STM32_GPT_USE_TIM16 || defined(__DOXYGEN__)
 412:lib/chibios/os/hal/ports/STM32/LLD/TIMv1/hal_gpt_lld.c **** #if !defined(STM32_TIM16_SUPPRESS_ISR)
 413:lib/chibios/os/hal/ports/STM32/LLD/TIMv1/hal_gpt_lld.c **** #error "TIM16 ISR not defined by platform"
 414:lib/chibios/os/hal/ports/STM32/LLD/TIMv1/hal_gpt_lld.c **** #endif /* !defined(STM32_TIM16_SUPPRESS_ISR) */
 415:lib/chibios/os/hal/ports/STM32/LLD/TIMv1/hal_gpt_lld.c **** #endif /* STM32_GPT_USE_TIM16 */
 416:lib/chibios/os/hal/ports/STM32/LLD/TIMv1/hal_gpt_lld.c **** 
 417:lib/chibios/os/hal/ports/STM32/LLD/TIMv1/hal_gpt_lld.c **** #if STM32_GPT_USE_TIM17 || defined(__DOXYGEN__)
 418:lib/chibios/os/hal/ports/STM32/LLD/TIMv1/hal_gpt_lld.c **** #if !defined(STM32_TIM17_SUPPRESS_ISR)
 419:lib/chibios/os/hal/ports/STM32/LLD/TIMv1/hal_gpt_lld.c **** #error "TIM17 ISR not defined by platform"
 420:lib/chibios/os/hal/ports/STM32/LLD/TIMv1/hal_gpt_lld.c **** #endif /* !defined(STM32_TIM17_SUPPRESS_ISR) */
 421:lib/chibios/os/hal/ports/STM32/LLD/TIMv1/hal_gpt_lld.c **** #endif /* STM32_GPT_USE_TIM17 */
 422:lib/chibios/os/hal/ports/STM32/LLD/TIMv1/hal_gpt_lld.c **** 
 423:lib/chibios/os/hal/ports/STM32/LLD/TIMv1/hal_gpt_lld.c **** #if STM32_GPT_USE_TIM21 || defined(__DOXYGEN__)
 424:lib/chibios/os/hal/ports/STM32/LLD/TIMv1/hal_gpt_lld.c **** #if !defined(STM32_TIM21_SUPPRESS_ISR)
 425:lib/chibios/os/hal/ports/STM32/LLD/TIMv1/hal_gpt_lld.c **** #if !defined(STM32_TIM21_HANDLER)
 426:lib/chibios/os/hal/ports/STM32/LLD/TIMv1/hal_gpt_lld.c **** #error "STM32_TIM21_HANDLER not defined"
 427:lib/chibios/os/hal/ports/STM32/LLD/TIMv1/hal_gpt_lld.c **** #endif
 428:lib/chibios/os/hal/ports/STM32/LLD/TIMv1/hal_gpt_lld.c **** /**
 429:lib/chibios/os/hal/ports/STM32/LLD/TIMv1/hal_gpt_lld.c ****  * @brief   TIM21 interrupt handler.
 430:lib/chibios/os/hal/ports/STM32/LLD/TIMv1/hal_gpt_lld.c ****  *
 431:lib/chibios/os/hal/ports/STM32/LLD/TIMv1/hal_gpt_lld.c ****  * @isr
 432:lib/chibios/os/hal/ports/STM32/LLD/TIMv1/hal_gpt_lld.c ****  */
 433:lib/chibios/os/hal/ports/STM32/LLD/TIMv1/hal_gpt_lld.c **** OSAL_IRQ_HANDLER(STM32_TIM21_HANDLER) {
 434:lib/chibios/os/hal/ports/STM32/LLD/TIMv1/hal_gpt_lld.c **** 
 435:lib/chibios/os/hal/ports/STM32/LLD/TIMv1/hal_gpt_lld.c ****   OSAL_IRQ_PROLOGUE();
 436:lib/chibios/os/hal/ports/STM32/LLD/TIMv1/hal_gpt_lld.c **** 
 437:lib/chibios/os/hal/ports/STM32/LLD/TIMv1/hal_gpt_lld.c ****   gpt_lld_serve_interrupt(&GPTD21);
 438:lib/chibios/os/hal/ports/STM32/LLD/TIMv1/hal_gpt_lld.c **** 
 439:lib/chibios/os/hal/ports/STM32/LLD/TIMv1/hal_gpt_lld.c ****   OSAL_IRQ_EPILOGUE();
 440:lib/chibios/os/hal/ports/STM32/LLD/TIMv1/hal_gpt_lld.c **** }
 441:lib/chibios/os/hal/ports/STM32/LLD/TIMv1/hal_gpt_lld.c **** #endif /* !defined(STM32_TIM21_SUPPRESS_ISR) */
 442:lib/chibios/os/hal/ports/STM32/LLD/TIMv1/hal_gpt_lld.c **** #endif /* STM32_GPT_USE_TIM21 */
 443:lib/chibios/os/hal/ports/STM32/LLD/TIMv1/hal_gpt_lld.c **** 
 444:lib/chibios/os/hal/ports/STM32/LLD/TIMv1/hal_gpt_lld.c **** #if STM32_GPT_USE_TIM22 || defined(__DOXYGEN__)
 445:lib/chibios/os/hal/ports/STM32/LLD/TIMv1/hal_gpt_lld.c **** #if !defined(STM32_TIM22_SUPPRESS_ISR)
 446:lib/chibios/os/hal/ports/STM32/LLD/TIMv1/hal_gpt_lld.c **** #if !defined(STM32_TIM22_HANDLER)
 447:lib/chibios/os/hal/ports/STM32/LLD/TIMv1/hal_gpt_lld.c **** #error "STM32_TIM22_HANDLER not defined"
 448:lib/chibios/os/hal/ports/STM32/LLD/TIMv1/hal_gpt_lld.c **** #endif
 449:lib/chibios/os/hal/ports/STM32/LLD/TIMv1/hal_gpt_lld.c **** /**
 450:lib/chibios/os/hal/ports/STM32/LLD/TIMv1/hal_gpt_lld.c ****  * @brief   TIM22 interrupt handler.
 451:lib/chibios/os/hal/ports/STM32/LLD/TIMv1/hal_gpt_lld.c ****  *
 452:lib/chibios/os/hal/ports/STM32/LLD/TIMv1/hal_gpt_lld.c ****  * @isr
 453:lib/chibios/os/hal/ports/STM32/LLD/TIMv1/hal_gpt_lld.c ****  */
 454:lib/chibios/os/hal/ports/STM32/LLD/TIMv1/hal_gpt_lld.c **** OSAL_IRQ_HANDLER(STM32_TIM22_HANDLER) {
 455:lib/chibios/os/hal/ports/STM32/LLD/TIMv1/hal_gpt_lld.c **** 
 456:lib/chibios/os/hal/ports/STM32/LLD/TIMv1/hal_gpt_lld.c ****   OSAL_IRQ_PROLOGUE();
 457:lib/chibios/os/hal/ports/STM32/LLD/TIMv1/hal_gpt_lld.c **** 
 458:lib/chibios/os/hal/ports/STM32/LLD/TIMv1/hal_gpt_lld.c ****   gpt_lld_serve_interrupt(&GPTD22);
 459:lib/chibios/os/hal/ports/STM32/LLD/TIMv1/hal_gpt_lld.c **** 
 460:lib/chibios/os/hal/ports/STM32/LLD/TIMv1/hal_gpt_lld.c ****   OSAL_IRQ_EPILOGUE();
 461:lib/chibios/os/hal/ports/STM32/LLD/TIMv1/hal_gpt_lld.c **** }
 462:lib/chibios/os/hal/ports/STM32/LLD/TIMv1/hal_gpt_lld.c **** #endif /* !defined(STM32_TIM22_SUPPRESS_ISR) */
 463:lib/chibios/os/hal/ports/STM32/LLD/TIMv1/hal_gpt_lld.c **** #endif /* STM32_GPT_USE_TIM22 */
 464:lib/chibios/os/hal/ports/STM32/LLD/TIMv1/hal_gpt_lld.c **** 
 465:lib/chibios/os/hal/ports/STM32/LLD/TIMv1/hal_gpt_lld.c **** /*===========================================================================*/
 466:lib/chibios/os/hal/ports/STM32/LLD/TIMv1/hal_gpt_lld.c **** /* Driver exported functions.                                                */
 467:lib/chibios/os/hal/ports/STM32/LLD/TIMv1/hal_gpt_lld.c **** /*===========================================================================*/
 468:lib/chibios/os/hal/ports/STM32/LLD/TIMv1/hal_gpt_lld.c **** 
 469:lib/chibios/os/hal/ports/STM32/LLD/TIMv1/hal_gpt_lld.c **** /**
 470:lib/chibios/os/hal/ports/STM32/LLD/TIMv1/hal_gpt_lld.c ****  * @brief   Low level GPT driver initialization.
 471:lib/chibios/os/hal/ports/STM32/LLD/TIMv1/hal_gpt_lld.c ****  *
 472:lib/chibios/os/hal/ports/STM32/LLD/TIMv1/hal_gpt_lld.c ****  * @notapi
 473:lib/chibios/os/hal/ports/STM32/LLD/TIMv1/hal_gpt_lld.c ****  */
 474:lib/chibios/os/hal/ports/STM32/LLD/TIMv1/hal_gpt_lld.c **** void gpt_lld_init(void) {
  29              		.loc 1 474 25 view -0
  30              		.cfi_startproc
  31              		@ args = 0, pretend = 0, frame = 0
  32              		@ frame_needed = 0, uses_anonymous_args = 0
 475:lib/chibios/os/hal/ports/STM32/LLD/TIMv1/hal_gpt_lld.c **** 
 476:lib/chibios/os/hal/ports/STM32/LLD/TIMv1/hal_gpt_lld.c **** #if STM32_GPT_USE_TIM1
 477:lib/chibios/os/hal/ports/STM32/LLD/TIMv1/hal_gpt_lld.c ****   /* Driver initialization.*/
 478:lib/chibios/os/hal/ports/STM32/LLD/TIMv1/hal_gpt_lld.c ****   GPTD1.tim = STM32_TIM1;
 479:lib/chibios/os/hal/ports/STM32/LLD/TIMv1/hal_gpt_lld.c ****   gptObjectInit(&GPTD1);
 480:lib/chibios/os/hal/ports/STM32/LLD/TIMv1/hal_gpt_lld.c **** #endif
 481:lib/chibios/os/hal/ports/STM32/LLD/TIMv1/hal_gpt_lld.c **** 
 482:lib/chibios/os/hal/ports/STM32/LLD/TIMv1/hal_gpt_lld.c **** #if STM32_GPT_USE_TIM2
 483:lib/chibios/os/hal/ports/STM32/LLD/TIMv1/hal_gpt_lld.c ****   /* Driver initialization.*/
 484:lib/chibios/os/hal/ports/STM32/LLD/TIMv1/hal_gpt_lld.c ****   GPTD2.tim = STM32_TIM2;
 485:lib/chibios/os/hal/ports/STM32/LLD/TIMv1/hal_gpt_lld.c ****   gptObjectInit(&GPTD2);
 486:lib/chibios/os/hal/ports/STM32/LLD/TIMv1/hal_gpt_lld.c **** #endif
 487:lib/chibios/os/hal/ports/STM32/LLD/TIMv1/hal_gpt_lld.c **** 
 488:lib/chibios/os/hal/ports/STM32/LLD/TIMv1/hal_gpt_lld.c **** #if STM32_GPT_USE_TIM3
 489:lib/chibios/os/hal/ports/STM32/LLD/TIMv1/hal_gpt_lld.c ****   /* Driver initialization.*/
 490:lib/chibios/os/hal/ports/STM32/LLD/TIMv1/hal_gpt_lld.c ****   GPTD3.tim = STM32_TIM3;
 491:lib/chibios/os/hal/ports/STM32/LLD/TIMv1/hal_gpt_lld.c ****   gptObjectInit(&GPTD3);
 492:lib/chibios/os/hal/ports/STM32/LLD/TIMv1/hal_gpt_lld.c **** #endif
 493:lib/chibios/os/hal/ports/STM32/LLD/TIMv1/hal_gpt_lld.c **** 
 494:lib/chibios/os/hal/ports/STM32/LLD/TIMv1/hal_gpt_lld.c **** #if STM32_GPT_USE_TIM4
 495:lib/chibios/os/hal/ports/STM32/LLD/TIMv1/hal_gpt_lld.c ****   /* Driver initialization.*/
 496:lib/chibios/os/hal/ports/STM32/LLD/TIMv1/hal_gpt_lld.c ****   GPTD4.tim = STM32_TIM4;
 497:lib/chibios/os/hal/ports/STM32/LLD/TIMv1/hal_gpt_lld.c ****   gptObjectInit(&GPTD4);
 498:lib/chibios/os/hal/ports/STM32/LLD/TIMv1/hal_gpt_lld.c **** #endif
 499:lib/chibios/os/hal/ports/STM32/LLD/TIMv1/hal_gpt_lld.c **** 
 500:lib/chibios/os/hal/ports/STM32/LLD/TIMv1/hal_gpt_lld.c **** #if STM32_GPT_USE_TIM5
 501:lib/chibios/os/hal/ports/STM32/LLD/TIMv1/hal_gpt_lld.c ****   /* Driver initialization.*/
 502:lib/chibios/os/hal/ports/STM32/LLD/TIMv1/hal_gpt_lld.c ****   GPTD5.tim = STM32_TIM5;
 503:lib/chibios/os/hal/ports/STM32/LLD/TIMv1/hal_gpt_lld.c ****   gptObjectInit(&GPTD5);
 504:lib/chibios/os/hal/ports/STM32/LLD/TIMv1/hal_gpt_lld.c **** #endif
 505:lib/chibios/os/hal/ports/STM32/LLD/TIMv1/hal_gpt_lld.c **** 
 506:lib/chibios/os/hal/ports/STM32/LLD/TIMv1/hal_gpt_lld.c **** #if STM32_GPT_USE_TIM6
 507:lib/chibios/os/hal/ports/STM32/LLD/TIMv1/hal_gpt_lld.c ****   /* Driver initialization.*/
 508:lib/chibios/os/hal/ports/STM32/LLD/TIMv1/hal_gpt_lld.c ****   GPTD6.tim = STM32_TIM6;
  33              		.loc 1 508 3 view .LVU1
  34              		.loc 1 508 13 is_stmt 0 view .LVU2
  35 0000 0B48     		ldr	r0, .L2
 474:lib/chibios/os/hal/ports/STM32/LLD/TIMv1/hal_gpt_lld.c **** 
  36              		.loc 1 474 25 view .LVU3
  37 0002 08B5     		push	{r3, lr}
  38              		.cfi_def_cfa_offset 8
  39              		.cfi_offset 3, -8
  40              		.cfi_offset 14, -4
  41              		.loc 1 508 13 view .LVU4
  42 0004 0B4B     		ldr	r3, .L2+4
  43 0006 C360     		str	r3, [r0, #12]
 509:lib/chibios/os/hal/ports/STM32/LLD/TIMv1/hal_gpt_lld.c ****   gptObjectInit(&GPTD6);
  44              		.loc 1 509 3 is_stmt 1 view .LVU5
  45 0008 FFF7FEFF 		bl	gptObjectInit
  46              	.LVL0:
 510:lib/chibios/os/hal/ports/STM32/LLD/TIMv1/hal_gpt_lld.c **** #endif
 511:lib/chibios/os/hal/ports/STM32/LLD/TIMv1/hal_gpt_lld.c **** 
 512:lib/chibios/os/hal/ports/STM32/LLD/TIMv1/hal_gpt_lld.c **** #if STM32_GPT_USE_TIM7
 513:lib/chibios/os/hal/ports/STM32/LLD/TIMv1/hal_gpt_lld.c ****   /* Driver initialization.*/
 514:lib/chibios/os/hal/ports/STM32/LLD/TIMv1/hal_gpt_lld.c ****   GPTD7.tim = STM32_TIM7;
  47              		.loc 1 514 3 view .LVU6
  48              		.loc 1 514 13 is_stmt 0 view .LVU7
  49 000c 0A48     		ldr	r0, .L2+8
  50 000e 0B4B     		ldr	r3, .L2+12
  51 0010 C360     		str	r3, [r0, #12]
 515:lib/chibios/os/hal/ports/STM32/LLD/TIMv1/hal_gpt_lld.c ****   gptObjectInit(&GPTD7);
  52              		.loc 1 515 3 is_stmt 1 view .LVU8
  53 0012 FFF7FEFF 		bl	gptObjectInit
  54              	.LVL1:
 516:lib/chibios/os/hal/ports/STM32/LLD/TIMv1/hal_gpt_lld.c **** #endif
 517:lib/chibios/os/hal/ports/STM32/LLD/TIMv1/hal_gpt_lld.c **** 
 518:lib/chibios/os/hal/ports/STM32/LLD/TIMv1/hal_gpt_lld.c **** #if STM32_GPT_USE_TIM8
 519:lib/chibios/os/hal/ports/STM32/LLD/TIMv1/hal_gpt_lld.c ****   /* Driver initialization.*/
 520:lib/chibios/os/hal/ports/STM32/LLD/TIMv1/hal_gpt_lld.c ****   GPTD8.tim = STM32_TIM8;
  55              		.loc 1 520 3 view .LVU9
  56              		.loc 1 520 13 is_stmt 0 view .LVU10
  57 0016 0A48     		ldr	r0, .L2+16
  58 0018 0A4B     		ldr	r3, .L2+20
  59 001a C360     		str	r3, [r0, #12]
 521:lib/chibios/os/hal/ports/STM32/LLD/TIMv1/hal_gpt_lld.c ****   gptObjectInit(&GPTD8);
  60              		.loc 1 521 3 is_stmt 1 view .LVU11
  61 001c FFF7FEFF 		bl	gptObjectInit
  62              	.LVL2:
 522:lib/chibios/os/hal/ports/STM32/LLD/TIMv1/hal_gpt_lld.c **** #endif
 523:lib/chibios/os/hal/ports/STM32/LLD/TIMv1/hal_gpt_lld.c **** 
 524:lib/chibios/os/hal/ports/STM32/LLD/TIMv1/hal_gpt_lld.c **** #if STM32_GPT_USE_TIM9
 525:lib/chibios/os/hal/ports/STM32/LLD/TIMv1/hal_gpt_lld.c ****   /* Driver initialization.*/
 526:lib/chibios/os/hal/ports/STM32/LLD/TIMv1/hal_gpt_lld.c ****   GPTD9.tim = STM32_TIM9;
 527:lib/chibios/os/hal/ports/STM32/LLD/TIMv1/hal_gpt_lld.c ****   gptObjectInit(&GPTD9);
 528:lib/chibios/os/hal/ports/STM32/LLD/TIMv1/hal_gpt_lld.c **** #endif
 529:lib/chibios/os/hal/ports/STM32/LLD/TIMv1/hal_gpt_lld.c **** 
 530:lib/chibios/os/hal/ports/STM32/LLD/TIMv1/hal_gpt_lld.c **** #if STM32_GPT_USE_TIM10
 531:lib/chibios/os/hal/ports/STM32/LLD/TIMv1/hal_gpt_lld.c ****   /* Driver initialization.*/
 532:lib/chibios/os/hal/ports/STM32/LLD/TIMv1/hal_gpt_lld.c ****   GPTD10.tim = STM32_TIM10;
 533:lib/chibios/os/hal/ports/STM32/LLD/TIMv1/hal_gpt_lld.c ****   gptObjectInit(&GPTD10);
 534:lib/chibios/os/hal/ports/STM32/LLD/TIMv1/hal_gpt_lld.c **** #endif
 535:lib/chibios/os/hal/ports/STM32/LLD/TIMv1/hal_gpt_lld.c **** 
 536:lib/chibios/os/hal/ports/STM32/LLD/TIMv1/hal_gpt_lld.c **** #if STM32_GPT_USE_TIM11
 537:lib/chibios/os/hal/ports/STM32/LLD/TIMv1/hal_gpt_lld.c ****   /* Driver initialization.*/
 538:lib/chibios/os/hal/ports/STM32/LLD/TIMv1/hal_gpt_lld.c ****   GPTD11.tim = STM32_TIM11;
 539:lib/chibios/os/hal/ports/STM32/LLD/TIMv1/hal_gpt_lld.c ****   gptObjectInit(&GPTD11);
 540:lib/chibios/os/hal/ports/STM32/LLD/TIMv1/hal_gpt_lld.c **** #endif
 541:lib/chibios/os/hal/ports/STM32/LLD/TIMv1/hal_gpt_lld.c **** 
 542:lib/chibios/os/hal/ports/STM32/LLD/TIMv1/hal_gpt_lld.c **** #if STM32_GPT_USE_TIM12
 543:lib/chibios/os/hal/ports/STM32/LLD/TIMv1/hal_gpt_lld.c ****   /* Driver initialization.*/
 544:lib/chibios/os/hal/ports/STM32/LLD/TIMv1/hal_gpt_lld.c ****   GPTD12.tim = STM32_TIM12;
 545:lib/chibios/os/hal/ports/STM32/LLD/TIMv1/hal_gpt_lld.c ****   gptObjectInit(&GPTD12);
 546:lib/chibios/os/hal/ports/STM32/LLD/TIMv1/hal_gpt_lld.c **** #endif
 547:lib/chibios/os/hal/ports/STM32/LLD/TIMv1/hal_gpt_lld.c **** 
 548:lib/chibios/os/hal/ports/STM32/LLD/TIMv1/hal_gpt_lld.c **** #if STM32_GPT_USE_TIM13
 549:lib/chibios/os/hal/ports/STM32/LLD/TIMv1/hal_gpt_lld.c ****   /* Driver initialization.*/
 550:lib/chibios/os/hal/ports/STM32/LLD/TIMv1/hal_gpt_lld.c ****   GPTD13.tim = STM32_TIM13;
 551:lib/chibios/os/hal/ports/STM32/LLD/TIMv1/hal_gpt_lld.c ****   gptObjectInit(&GPTD13);
 552:lib/chibios/os/hal/ports/STM32/LLD/TIMv1/hal_gpt_lld.c **** #endif
 553:lib/chibios/os/hal/ports/STM32/LLD/TIMv1/hal_gpt_lld.c **** 
 554:lib/chibios/os/hal/ports/STM32/LLD/TIMv1/hal_gpt_lld.c **** #if STM32_GPT_USE_TIM14
 555:lib/chibios/os/hal/ports/STM32/LLD/TIMv1/hal_gpt_lld.c ****   /* Driver initialization.*/
 556:lib/chibios/os/hal/ports/STM32/LLD/TIMv1/hal_gpt_lld.c ****   GPTD14.tim = STM32_TIM14;
 557:lib/chibios/os/hal/ports/STM32/LLD/TIMv1/hal_gpt_lld.c ****   gptObjectInit(&GPTD14);
 558:lib/chibios/os/hal/ports/STM32/LLD/TIMv1/hal_gpt_lld.c **** #endif
 559:lib/chibios/os/hal/ports/STM32/LLD/TIMv1/hal_gpt_lld.c **** 
 560:lib/chibios/os/hal/ports/STM32/LLD/TIMv1/hal_gpt_lld.c **** #if STM32_GPT_USE_TIM15
 561:lib/chibios/os/hal/ports/STM32/LLD/TIMv1/hal_gpt_lld.c ****   /* Driver initialization.*/
 562:lib/chibios/os/hal/ports/STM32/LLD/TIMv1/hal_gpt_lld.c ****   GPTD15.tim = STM32_TIM15;
  63              		.loc 1 562 3 view .LVU12
  64              		.loc 1 562 14 is_stmt 0 view .LVU13
  65 0020 0948     		ldr	r0, .L2+24
  66 0022 0A4B     		ldr	r3, .L2+28
  67 0024 C360     		str	r3, [r0, #12]
 563:lib/chibios/os/hal/ports/STM32/LLD/TIMv1/hal_gpt_lld.c ****   gptObjectInit(&GPTD15);
  68              		.loc 1 563 3 is_stmt 1 view .LVU14
 564:lib/chibios/os/hal/ports/STM32/LLD/TIMv1/hal_gpt_lld.c **** #endif
 565:lib/chibios/os/hal/ports/STM32/LLD/TIMv1/hal_gpt_lld.c **** 
 566:lib/chibios/os/hal/ports/STM32/LLD/TIMv1/hal_gpt_lld.c **** #if STM32_GPT_USE_TIM16
 567:lib/chibios/os/hal/ports/STM32/LLD/TIMv1/hal_gpt_lld.c ****   /* Driver initialization.*/
 568:lib/chibios/os/hal/ports/STM32/LLD/TIMv1/hal_gpt_lld.c ****   GPTD16.tim = STM32_TIM16;
 569:lib/chibios/os/hal/ports/STM32/LLD/TIMv1/hal_gpt_lld.c ****   gptObjectInit(&GPTD16);
 570:lib/chibios/os/hal/ports/STM32/LLD/TIMv1/hal_gpt_lld.c **** #endif
 571:lib/chibios/os/hal/ports/STM32/LLD/TIMv1/hal_gpt_lld.c **** 
 572:lib/chibios/os/hal/ports/STM32/LLD/TIMv1/hal_gpt_lld.c **** #if STM32_GPT_USE_TIM17
 573:lib/chibios/os/hal/ports/STM32/LLD/TIMv1/hal_gpt_lld.c ****   /* Driver initialization.*/
 574:lib/chibios/os/hal/ports/STM32/LLD/TIMv1/hal_gpt_lld.c ****   GPTD17.tim = STM32_TIM17;
 575:lib/chibios/os/hal/ports/STM32/LLD/TIMv1/hal_gpt_lld.c ****   gptObjectInit(&GPTD17);
 576:lib/chibios/os/hal/ports/STM32/LLD/TIMv1/hal_gpt_lld.c **** #endif
 577:lib/chibios/os/hal/ports/STM32/LLD/TIMv1/hal_gpt_lld.c **** 
 578:lib/chibios/os/hal/ports/STM32/LLD/TIMv1/hal_gpt_lld.c **** #if STM32_GPT_USE_TIM21
 579:lib/chibios/os/hal/ports/STM32/LLD/TIMv1/hal_gpt_lld.c ****   /* Driver initialization.*/
 580:lib/chibios/os/hal/ports/STM32/LLD/TIMv1/hal_gpt_lld.c ****   GPTD21.tim = STM32_TIM21;
 581:lib/chibios/os/hal/ports/STM32/LLD/TIMv1/hal_gpt_lld.c ****   gptObjectInit(&GPTD21);
 582:lib/chibios/os/hal/ports/STM32/LLD/TIMv1/hal_gpt_lld.c **** #endif
 583:lib/chibios/os/hal/ports/STM32/LLD/TIMv1/hal_gpt_lld.c **** 
 584:lib/chibios/os/hal/ports/STM32/LLD/TIMv1/hal_gpt_lld.c **** #if STM32_GPT_USE_TIM22
 585:lib/chibios/os/hal/ports/STM32/LLD/TIMv1/hal_gpt_lld.c ****   /* Driver initialization.*/
 586:lib/chibios/os/hal/ports/STM32/LLD/TIMv1/hal_gpt_lld.c ****   GPTD22.tim = STM32_TIM22;
 587:lib/chibios/os/hal/ports/STM32/LLD/TIMv1/hal_gpt_lld.c ****   gptObjectInit(&GPTD22);
 588:lib/chibios/os/hal/ports/STM32/LLD/TIMv1/hal_gpt_lld.c **** #endif
 589:lib/chibios/os/hal/ports/STM32/LLD/TIMv1/hal_gpt_lld.c **** }
  69              		.loc 1 589 1 is_stmt 0 view .LVU15
  70 0026 BDE80840 		pop	{r3, lr}
  71              		.cfi_restore 14
  72              		.cfi_restore 3
  73              		.cfi_def_cfa_offset 0
 563:lib/chibios/os/hal/ports/STM32/LLD/TIMv1/hal_gpt_lld.c ****   gptObjectInit(&GPTD15);
  74              		.loc 1 563 3 view .LVU16
  75 002a FFF7FEBF 		b	gptObjectInit
  76              	.LVL3:
  77              	.L3:
  78 002e 00BF     		.align	2
  79              	.L2:
  80 0030 00000000 		.word	GPTD6
  81 0034 00100040 		.word	1073745920
  82 0038 00000000 		.word	GPTD7
  83 003c 00140040 		.word	1073746944
  84 0040 00000000 		.word	GPTD8
  85 0044 00340140 		.word	1073820672
  86 0048 00000000 		.word	GPTD15
  87 004c 00400140 		.word	1073823744
  88              		.cfi_endproc
  89              	.LFE331:
  91              		.section	.text.gpt_lld_start,"ax",%progbits
  92              		.align	1
  93              		.global	gpt_lld_start
  94              		.syntax unified
  95              		.thumb
  96              		.thumb_func
  98              	gpt_lld_start:
  99              	.LVL4:
 100              	.LFB332:
 590:lib/chibios/os/hal/ports/STM32/LLD/TIMv1/hal_gpt_lld.c **** 
 591:lib/chibios/os/hal/ports/STM32/LLD/TIMv1/hal_gpt_lld.c **** /**
 592:lib/chibios/os/hal/ports/STM32/LLD/TIMv1/hal_gpt_lld.c ****  * @brief   Configures and activates the GPT peripheral.
 593:lib/chibios/os/hal/ports/STM32/LLD/TIMv1/hal_gpt_lld.c ****  *
 594:lib/chibios/os/hal/ports/STM32/LLD/TIMv1/hal_gpt_lld.c ****  * @param[in] gptp      pointer to the @p GPTDriver object
 595:lib/chibios/os/hal/ports/STM32/LLD/TIMv1/hal_gpt_lld.c ****  *
 596:lib/chibios/os/hal/ports/STM32/LLD/TIMv1/hal_gpt_lld.c ****  * @notapi
 597:lib/chibios/os/hal/ports/STM32/LLD/TIMv1/hal_gpt_lld.c ****  */
 598:lib/chibios/os/hal/ports/STM32/LLD/TIMv1/hal_gpt_lld.c **** void gpt_lld_start(GPTDriver *gptp) {
 101              		.loc 1 598 37 is_stmt 1 view -0
 102              		.cfi_startproc
 103              		@ args = 0, pretend = 0, frame = 0
 104              		@ frame_needed = 0, uses_anonymous_args = 0
 599:lib/chibios/os/hal/ports/STM32/LLD/TIMv1/hal_gpt_lld.c ****   uint16_t psc;
 105              		.loc 1 599 3 view .LVU18
 600:lib/chibios/os/hal/ports/STM32/LLD/TIMv1/hal_gpt_lld.c **** 
 601:lib/chibios/os/hal/ports/STM32/LLD/TIMv1/hal_gpt_lld.c ****   if (gptp->state == GPT_STOP) {
 106              		.loc 1 601 3 view .LVU19
 598:lib/chibios/os/hal/ports/STM32/LLD/TIMv1/hal_gpt_lld.c ****   uint16_t psc;
 107              		.loc 1 598 37 is_stmt 0 view .LVU20
 108 0000 10B5     		push	{r4, lr}
 109              		.cfi_def_cfa_offset 8
 110              		.cfi_offset 4, -8
 111              		.cfi_offset 14, -4
 112              		.loc 1 601 6 view .LVU21
 113 0002 0378     		ldrb	r3, [r0]	@ zero_extendqisi2
 114 0004 012B     		cmp	r3, #1
 598:lib/chibios/os/hal/ports/STM32/LLD/TIMv1/hal_gpt_lld.c ****   uint16_t psc;
 115              		.loc 1 598 37 view .LVU22
 116 0006 0446     		mov	r4, r0
 117              		.loc 1 601 6 view .LVU23
 118 0008 5BD1     		bne	.L6
 602:lib/chibios/os/hal/ports/STM32/LLD/TIMv1/hal_gpt_lld.c ****     /* Clock activation.*/
 603:lib/chibios/os/hal/ports/STM32/LLD/TIMv1/hal_gpt_lld.c **** #if STM32_GPT_USE_TIM1
 604:lib/chibios/os/hal/ports/STM32/LLD/TIMv1/hal_gpt_lld.c ****     if (&GPTD1 == gptp) {
 605:lib/chibios/os/hal/ports/STM32/LLD/TIMv1/hal_gpt_lld.c ****       rccEnableTIM1(true);
 606:lib/chibios/os/hal/ports/STM32/LLD/TIMv1/hal_gpt_lld.c ****       rccResetTIM1();
 607:lib/chibios/os/hal/ports/STM32/LLD/TIMv1/hal_gpt_lld.c **** #if !defined(STM32_TIM1_SUPPRESS_ISR)
 608:lib/chibios/os/hal/ports/STM32/LLD/TIMv1/hal_gpt_lld.c ****       nvicEnableVector(STM32_TIM1_UP_NUMBER, STM32_GPT_TIM1_IRQ_PRIORITY);
 609:lib/chibios/os/hal/ports/STM32/LLD/TIMv1/hal_gpt_lld.c **** #endif
 610:lib/chibios/os/hal/ports/STM32/LLD/TIMv1/hal_gpt_lld.c **** #if defined(STM32_TIM1CLK)
 611:lib/chibios/os/hal/ports/STM32/LLD/TIMv1/hal_gpt_lld.c ****       gptp->clock = STM32_TIM1CLK;
 612:lib/chibios/os/hal/ports/STM32/LLD/TIMv1/hal_gpt_lld.c **** #else
 613:lib/chibios/os/hal/ports/STM32/LLD/TIMv1/hal_gpt_lld.c ****       gptp->clock = STM32_TIMCLK2;
 614:lib/chibios/os/hal/ports/STM32/LLD/TIMv1/hal_gpt_lld.c **** #endif
 615:lib/chibios/os/hal/ports/STM32/LLD/TIMv1/hal_gpt_lld.c ****     }
 616:lib/chibios/os/hal/ports/STM32/LLD/TIMv1/hal_gpt_lld.c **** #endif
 617:lib/chibios/os/hal/ports/STM32/LLD/TIMv1/hal_gpt_lld.c **** 
 618:lib/chibios/os/hal/ports/STM32/LLD/TIMv1/hal_gpt_lld.c **** #if STM32_GPT_USE_TIM2
 619:lib/chibios/os/hal/ports/STM32/LLD/TIMv1/hal_gpt_lld.c ****     if (&GPTD2 == gptp) {
 620:lib/chibios/os/hal/ports/STM32/LLD/TIMv1/hal_gpt_lld.c ****       rccEnableTIM2(true);
 621:lib/chibios/os/hal/ports/STM32/LLD/TIMv1/hal_gpt_lld.c ****       rccResetTIM2();
 622:lib/chibios/os/hal/ports/STM32/LLD/TIMv1/hal_gpt_lld.c **** #if !defined(STM32_TIM2_SUPPRESS_ISR)
 623:lib/chibios/os/hal/ports/STM32/LLD/TIMv1/hal_gpt_lld.c ****       nvicEnableVector(STM32_TIM2_NUMBER, STM32_GPT_TIM2_IRQ_PRIORITY);
 624:lib/chibios/os/hal/ports/STM32/LLD/TIMv1/hal_gpt_lld.c **** #endif
 625:lib/chibios/os/hal/ports/STM32/LLD/TIMv1/hal_gpt_lld.c **** #if defined(STM32_TIM2CLK)
 626:lib/chibios/os/hal/ports/STM32/LLD/TIMv1/hal_gpt_lld.c ****       gptp->clock = STM32_TIM2CLK;
 627:lib/chibios/os/hal/ports/STM32/LLD/TIMv1/hal_gpt_lld.c **** #else
 628:lib/chibios/os/hal/ports/STM32/LLD/TIMv1/hal_gpt_lld.c ****       gptp->clock = STM32_TIMCLK1;
 629:lib/chibios/os/hal/ports/STM32/LLD/TIMv1/hal_gpt_lld.c **** #endif
 630:lib/chibios/os/hal/ports/STM32/LLD/TIMv1/hal_gpt_lld.c ****     }
 631:lib/chibios/os/hal/ports/STM32/LLD/TIMv1/hal_gpt_lld.c **** #endif
 632:lib/chibios/os/hal/ports/STM32/LLD/TIMv1/hal_gpt_lld.c **** 
 633:lib/chibios/os/hal/ports/STM32/LLD/TIMv1/hal_gpt_lld.c **** #if STM32_GPT_USE_TIM3
 634:lib/chibios/os/hal/ports/STM32/LLD/TIMv1/hal_gpt_lld.c ****     if (&GPTD3 == gptp) {
 635:lib/chibios/os/hal/ports/STM32/LLD/TIMv1/hal_gpt_lld.c ****       rccEnableTIM3(true);
 636:lib/chibios/os/hal/ports/STM32/LLD/TIMv1/hal_gpt_lld.c ****       rccResetTIM3();
 637:lib/chibios/os/hal/ports/STM32/LLD/TIMv1/hal_gpt_lld.c **** #if !defined(STM32_TIM3_SUPPRESS_ISR)
 638:lib/chibios/os/hal/ports/STM32/LLD/TIMv1/hal_gpt_lld.c ****       nvicEnableVector(STM32_TIM3_NUMBER, STM32_GPT_TIM3_IRQ_PRIORITY);
 639:lib/chibios/os/hal/ports/STM32/LLD/TIMv1/hal_gpt_lld.c **** #endif
 640:lib/chibios/os/hal/ports/STM32/LLD/TIMv1/hal_gpt_lld.c **** #if defined(STM32_TIM3CLK)
 641:lib/chibios/os/hal/ports/STM32/LLD/TIMv1/hal_gpt_lld.c ****       gptp->clock = STM32_TIM3CLK;
 642:lib/chibios/os/hal/ports/STM32/LLD/TIMv1/hal_gpt_lld.c **** #else
 643:lib/chibios/os/hal/ports/STM32/LLD/TIMv1/hal_gpt_lld.c ****       gptp->clock = STM32_TIMCLK1;
 644:lib/chibios/os/hal/ports/STM32/LLD/TIMv1/hal_gpt_lld.c **** #endif
 645:lib/chibios/os/hal/ports/STM32/LLD/TIMv1/hal_gpt_lld.c ****     }
 646:lib/chibios/os/hal/ports/STM32/LLD/TIMv1/hal_gpt_lld.c **** #endif
 647:lib/chibios/os/hal/ports/STM32/LLD/TIMv1/hal_gpt_lld.c **** 
 648:lib/chibios/os/hal/ports/STM32/LLD/TIMv1/hal_gpt_lld.c **** #if STM32_GPT_USE_TIM4
 649:lib/chibios/os/hal/ports/STM32/LLD/TIMv1/hal_gpt_lld.c ****     if (&GPTD4 == gptp) {
 650:lib/chibios/os/hal/ports/STM32/LLD/TIMv1/hal_gpt_lld.c ****       rccEnableTIM4(true);
 651:lib/chibios/os/hal/ports/STM32/LLD/TIMv1/hal_gpt_lld.c ****       rccResetTIM4();
 652:lib/chibios/os/hal/ports/STM32/LLD/TIMv1/hal_gpt_lld.c **** #if !defined(STM32_TIM4_SUPPRESS_ISR)
 653:lib/chibios/os/hal/ports/STM32/LLD/TIMv1/hal_gpt_lld.c ****       nvicEnableVector(STM32_TIM4_NUMBER, STM32_GPT_TIM4_IRQ_PRIORITY);
 654:lib/chibios/os/hal/ports/STM32/LLD/TIMv1/hal_gpt_lld.c **** #endif
 655:lib/chibios/os/hal/ports/STM32/LLD/TIMv1/hal_gpt_lld.c **** #if defined(STM32_TIM4CLK)
 656:lib/chibios/os/hal/ports/STM32/LLD/TIMv1/hal_gpt_lld.c ****       gptp->clock = STM32_TIM4CLK;
 657:lib/chibios/os/hal/ports/STM32/LLD/TIMv1/hal_gpt_lld.c **** #else
 658:lib/chibios/os/hal/ports/STM32/LLD/TIMv1/hal_gpt_lld.c ****       gptp->clock = STM32_TIMCLK1;
 659:lib/chibios/os/hal/ports/STM32/LLD/TIMv1/hal_gpt_lld.c **** #endif
 660:lib/chibios/os/hal/ports/STM32/LLD/TIMv1/hal_gpt_lld.c ****     }
 661:lib/chibios/os/hal/ports/STM32/LLD/TIMv1/hal_gpt_lld.c **** #endif
 662:lib/chibios/os/hal/ports/STM32/LLD/TIMv1/hal_gpt_lld.c **** 
 663:lib/chibios/os/hal/ports/STM32/LLD/TIMv1/hal_gpt_lld.c **** #if STM32_GPT_USE_TIM5
 664:lib/chibios/os/hal/ports/STM32/LLD/TIMv1/hal_gpt_lld.c ****     if (&GPTD5 == gptp) {
 665:lib/chibios/os/hal/ports/STM32/LLD/TIMv1/hal_gpt_lld.c ****       rccEnableTIM5(true);
 666:lib/chibios/os/hal/ports/STM32/LLD/TIMv1/hal_gpt_lld.c ****       rccResetTIM5();
 667:lib/chibios/os/hal/ports/STM32/LLD/TIMv1/hal_gpt_lld.c **** #if !defined(STM32_TIM5_SUPPRESS_ISR)
 668:lib/chibios/os/hal/ports/STM32/LLD/TIMv1/hal_gpt_lld.c ****       nvicEnableVector(STM32_TIM5_NUMBER, STM32_GPT_TIM5_IRQ_PRIORITY);
 669:lib/chibios/os/hal/ports/STM32/LLD/TIMv1/hal_gpt_lld.c **** #endif
 670:lib/chibios/os/hal/ports/STM32/LLD/TIMv1/hal_gpt_lld.c **** #if defined(STM32_TIM5CLK)
 671:lib/chibios/os/hal/ports/STM32/LLD/TIMv1/hal_gpt_lld.c ****       gptp->clock = STM32_TIM5CLK;
 672:lib/chibios/os/hal/ports/STM32/LLD/TIMv1/hal_gpt_lld.c **** #else
 673:lib/chibios/os/hal/ports/STM32/LLD/TIMv1/hal_gpt_lld.c ****       gptp->clock = STM32_TIMCLK1;
 674:lib/chibios/os/hal/ports/STM32/LLD/TIMv1/hal_gpt_lld.c **** #endif
 675:lib/chibios/os/hal/ports/STM32/LLD/TIMv1/hal_gpt_lld.c ****     }
 676:lib/chibios/os/hal/ports/STM32/LLD/TIMv1/hal_gpt_lld.c **** #endif
 677:lib/chibios/os/hal/ports/STM32/LLD/TIMv1/hal_gpt_lld.c **** 
 678:lib/chibios/os/hal/ports/STM32/LLD/TIMv1/hal_gpt_lld.c **** #if STM32_GPT_USE_TIM6
 679:lib/chibios/os/hal/ports/STM32/LLD/TIMv1/hal_gpt_lld.c ****     if (&GPTD6 == gptp) {
 119              		.loc 1 679 5 is_stmt 1 view .LVU24
 120              		.loc 1 679 8 is_stmt 0 view .LVU25
 121 000a 374B     		ldr	r3, .L11
 122 000c 9842     		cmp	r0, r3
 123 000e 14D1     		bne	.L7
 680:lib/chibios/os/hal/ports/STM32/LLD/TIMv1/hal_gpt_lld.c ****       rccEnableTIM6(true);
 124              		.loc 1 680 7 is_stmt 1 view .LVU26
 125 0010 364B     		ldr	r3, .L11+4
 126 0012 DA69     		ldr	r2, [r3, #28]
 127 0014 42F01002 		orr	r2, r2, #16
 128 0018 DA61     		str	r2, [r3, #28]
 129              		.loc 1 680 7 view .LVU27
 130 001a DA69     		ldr	r2, [r3, #28]
 131              		.loc 1 680 26 view .LVU28
 681:lib/chibios/os/hal/ports/STM32/LLD/TIMv1/hal_gpt_lld.c ****       rccResetTIM6();
 132              		.loc 1 681 7 view .LVU29
 133 001c 1A69     		ldr	r2, [r3, #16]
 134 001e 42F01002 		orr	r2, r2, #16
 135 0022 1A61     		str	r2, [r3, #16]
 136              		.loc 1 681 7 view .LVU30
 137 0024 1A69     		ldr	r2, [r3, #16]
 138 0026 22F01002 		bic	r2, r2, #16
 139 002a 1A61     		str	r2, [r3, #16]
 140              		.loc 1 681 7 view .LVU31
 682:lib/chibios/os/hal/ports/STM32/LLD/TIMv1/hal_gpt_lld.c **** #if !defined(STM32_TIM6_SUPPRESS_ISR)
 683:lib/chibios/os/hal/ports/STM32/LLD/TIMv1/hal_gpt_lld.c ****       nvicEnableVector(STM32_TIM6_NUMBER, STM32_GPT_TIM6_IRQ_PRIORITY);
 141              		.loc 1 683 7 is_stmt 0 view .LVU32
 142 002c 0721     		movs	r1, #7
 143 002e 3620     		movs	r0, #54
 144              	.LVL5:
 681:lib/chibios/os/hal/ports/STM32/LLD/TIMv1/hal_gpt_lld.c ****       rccResetTIM6();
 145              		.loc 1 681 7 view .LVU33
 146 0030 1B69     		ldr	r3, [r3, #16]
 681:lib/chibios/os/hal/ports/STM32/LLD/TIMv1/hal_gpt_lld.c ****       rccResetTIM6();
 147              		.loc 1 681 21 is_stmt 1 view .LVU34
 148              		.loc 1 683 7 view .LVU35
 149 0032 FFF7FEFF 		bl	nvicEnableVector
 150              	.LVL6:
 684:lib/chibios/os/hal/ports/STM32/LLD/TIMv1/hal_gpt_lld.c **** #endif
 685:lib/chibios/os/hal/ports/STM32/LLD/TIMv1/hal_gpt_lld.c **** #if defined(STM32_TIM6CLK)
 686:lib/chibios/os/hal/ports/STM32/LLD/TIMv1/hal_gpt_lld.c ****       gptp->clock = STM32_TIM6CLK;
 687:lib/chibios/os/hal/ports/STM32/LLD/TIMv1/hal_gpt_lld.c **** #else
 688:lib/chibios/os/hal/ports/STM32/LLD/TIMv1/hal_gpt_lld.c ****       gptp->clock = STM32_TIMCLK1;
 151              		.loc 1 688 7 view .LVU36
 152              		.loc 1 688 19 is_stmt 0 view .LVU37
 153 0036 2E4B     		ldr	r3, .L11+8
 154 0038 A360     		str	r3, [r4, #8]
 155              	.L7:
 689:lib/chibios/os/hal/ports/STM32/LLD/TIMv1/hal_gpt_lld.c **** #endif
 690:lib/chibios/os/hal/ports/STM32/LLD/TIMv1/hal_gpt_lld.c ****     }
 691:lib/chibios/os/hal/ports/STM32/LLD/TIMv1/hal_gpt_lld.c **** #endif
 692:lib/chibios/os/hal/ports/STM32/LLD/TIMv1/hal_gpt_lld.c **** 
 693:lib/chibios/os/hal/ports/STM32/LLD/TIMv1/hal_gpt_lld.c **** #if STM32_GPT_USE_TIM7
 694:lib/chibios/os/hal/ports/STM32/LLD/TIMv1/hal_gpt_lld.c ****     if (&GPTD7 == gptp) {
 156              		.loc 1 694 5 is_stmt 1 view .LVU38
 157              		.loc 1 694 8 is_stmt 0 view .LVU39
 158 003a 2E4B     		ldr	r3, .L11+12
 159 003c 9C42     		cmp	r4, r3
 160 003e 14D1     		bne	.L8
 695:lib/chibios/os/hal/ports/STM32/LLD/TIMv1/hal_gpt_lld.c ****       rccEnableTIM7(true);
 161              		.loc 1 695 7 is_stmt 1 view .LVU40
 162 0040 2A4B     		ldr	r3, .L11+4
 163 0042 DA69     		ldr	r2, [r3, #28]
 164 0044 42F02002 		orr	r2, r2, #32
 165 0048 DA61     		str	r2, [r3, #28]
 166              		.loc 1 695 7 view .LVU41
 167 004a DA69     		ldr	r2, [r3, #28]
 168              		.loc 1 695 26 view .LVU42
 696:lib/chibios/os/hal/ports/STM32/LLD/TIMv1/hal_gpt_lld.c ****       rccResetTIM7();
 169              		.loc 1 696 7 view .LVU43
 170 004c 1A69     		ldr	r2, [r3, #16]
 171 004e 42F02002 		orr	r2, r2, #32
 172 0052 1A61     		str	r2, [r3, #16]
 173              		.loc 1 696 7 view .LVU44
 174 0054 1A69     		ldr	r2, [r3, #16]
 175 0056 22F02002 		bic	r2, r2, #32
 176 005a 1A61     		str	r2, [r3, #16]
 177              		.loc 1 696 7 view .LVU45
 697:lib/chibios/os/hal/ports/STM32/LLD/TIMv1/hal_gpt_lld.c **** #if !defined(STM32_TIM7_SUPPRESS_ISR)
 698:lib/chibios/os/hal/ports/STM32/LLD/TIMv1/hal_gpt_lld.c ****       nvicEnableVector(STM32_TIM7_NUMBER, STM32_GPT_TIM7_IRQ_PRIORITY);
 178              		.loc 1 698 7 is_stmt 0 view .LVU46
 179 005c 0721     		movs	r1, #7
 180 005e 3720     		movs	r0, #55
 696:lib/chibios/os/hal/ports/STM32/LLD/TIMv1/hal_gpt_lld.c ****       rccResetTIM7();
 181              		.loc 1 696 7 view .LVU47
 182 0060 1B69     		ldr	r3, [r3, #16]
 696:lib/chibios/os/hal/ports/STM32/LLD/TIMv1/hal_gpt_lld.c ****       rccResetTIM7();
 183              		.loc 1 696 21 is_stmt 1 view .LVU48
 184              		.loc 1 698 7 view .LVU49
 185 0062 FFF7FEFF 		bl	nvicEnableVector
 186              	.LVL7:
 699:lib/chibios/os/hal/ports/STM32/LLD/TIMv1/hal_gpt_lld.c **** #endif
 700:lib/chibios/os/hal/ports/STM32/LLD/TIMv1/hal_gpt_lld.c **** #if defined(STM32_TIM7CLK)
 701:lib/chibios/os/hal/ports/STM32/LLD/TIMv1/hal_gpt_lld.c ****       gptp->clock = STM32_TIM7CLK;
 702:lib/chibios/os/hal/ports/STM32/LLD/TIMv1/hal_gpt_lld.c **** #else
 703:lib/chibios/os/hal/ports/STM32/LLD/TIMv1/hal_gpt_lld.c ****       gptp->clock = STM32_TIMCLK1;
 187              		.loc 1 703 7 view .LVU50
 188              		.loc 1 703 19 is_stmt 0 view .LVU51
 189 0066 224B     		ldr	r3, .L11+8
 190 0068 A360     		str	r3, [r4, #8]
 191              	.L8:
 704:lib/chibios/os/hal/ports/STM32/LLD/TIMv1/hal_gpt_lld.c **** #endif
 705:lib/chibios/os/hal/ports/STM32/LLD/TIMv1/hal_gpt_lld.c ****     }
 706:lib/chibios/os/hal/ports/STM32/LLD/TIMv1/hal_gpt_lld.c **** #endif
 707:lib/chibios/os/hal/ports/STM32/LLD/TIMv1/hal_gpt_lld.c **** 
 708:lib/chibios/os/hal/ports/STM32/LLD/TIMv1/hal_gpt_lld.c **** #if STM32_GPT_USE_TIM8
 709:lib/chibios/os/hal/ports/STM32/LLD/TIMv1/hal_gpt_lld.c ****     if (&GPTD8 == gptp) {
 192              		.loc 1 709 5 is_stmt 1 view .LVU52
 193              		.loc 1 709 8 is_stmt 0 view .LVU53
 194 006a 234B     		ldr	r3, .L11+16
 195 006c 9C42     		cmp	r4, r3
 196 006e 14D1     		bne	.L9
 710:lib/chibios/os/hal/ports/STM32/LLD/TIMv1/hal_gpt_lld.c ****       rccEnableTIM8(true);
 197              		.loc 1 710 7 is_stmt 1 view .LVU54
 198 0070 1E4B     		ldr	r3, .L11+4
 199 0072 9A69     		ldr	r2, [r3, #24]
 200 0074 42F40052 		orr	r2, r2, #8192
 201 0078 9A61     		str	r2, [r3, #24]
 202              		.loc 1 710 7 view .LVU55
 203 007a 9A69     		ldr	r2, [r3, #24]
 204              		.loc 1 710 26 view .LVU56
 711:lib/chibios/os/hal/ports/STM32/LLD/TIMv1/hal_gpt_lld.c ****       rccResetTIM8();
 205              		.loc 1 711 7 view .LVU57
 206 007c DA68     		ldr	r2, [r3, #12]
 207 007e 42F40052 		orr	r2, r2, #8192
 208 0082 DA60     		str	r2, [r3, #12]
 209              		.loc 1 711 7 view .LVU58
 210 0084 DA68     		ldr	r2, [r3, #12]
 211 0086 22F40052 		bic	r2, r2, #8192
 212 008a DA60     		str	r2, [r3, #12]
 213              		.loc 1 711 7 view .LVU59
 712:lib/chibios/os/hal/ports/STM32/LLD/TIMv1/hal_gpt_lld.c **** #if !defined(STM32_TIM8_SUPPRESS_ISR)
 713:lib/chibios/os/hal/ports/STM32/LLD/TIMv1/hal_gpt_lld.c ****       nvicEnableVector(STM32_TIM8_UP_NUMBER, STM32_GPT_TIM8_IRQ_PRIORITY);
 214              		.loc 1 713 7 is_stmt 0 view .LVU60
 215 008c 0721     		movs	r1, #7
 216 008e 2C20     		movs	r0, #44
 711:lib/chibios/os/hal/ports/STM32/LLD/TIMv1/hal_gpt_lld.c ****       rccResetTIM8();
 217              		.loc 1 711 7 view .LVU61
 218 0090 DB68     		ldr	r3, [r3, #12]
 711:lib/chibios/os/hal/ports/STM32/LLD/TIMv1/hal_gpt_lld.c ****       rccResetTIM8();
 219              		.loc 1 711 21 is_stmt 1 view .LVU62
 220              		.loc 1 713 7 view .LVU63
 221 0092 FFF7FEFF 		bl	nvicEnableVector
 222              	.LVL8:
 714:lib/chibios/os/hal/ports/STM32/LLD/TIMv1/hal_gpt_lld.c **** #endif
 715:lib/chibios/os/hal/ports/STM32/LLD/TIMv1/hal_gpt_lld.c **** #if defined(STM32_TIM8CLK)
 716:lib/chibios/os/hal/ports/STM32/LLD/TIMv1/hal_gpt_lld.c ****       gptp->clock = STM32_TIM8CLK;
 223              		.loc 1 716 7 view .LVU64
 224              		.loc 1 716 19 is_stmt 0 view .LVU65
 225 0096 164B     		ldr	r3, .L11+8
 226 0098 A360     		str	r3, [r4, #8]
 227              	.L9:
 717:lib/chibios/os/hal/ports/STM32/LLD/TIMv1/hal_gpt_lld.c **** #else
 718:lib/chibios/os/hal/ports/STM32/LLD/TIMv1/hal_gpt_lld.c ****       gptp->clock = STM32_TIMCLK2;
 719:lib/chibios/os/hal/ports/STM32/LLD/TIMv1/hal_gpt_lld.c **** #endif
 720:lib/chibios/os/hal/ports/STM32/LLD/TIMv1/hal_gpt_lld.c ****     }
 721:lib/chibios/os/hal/ports/STM32/LLD/TIMv1/hal_gpt_lld.c **** #endif
 722:lib/chibios/os/hal/ports/STM32/LLD/TIMv1/hal_gpt_lld.c **** 
 723:lib/chibios/os/hal/ports/STM32/LLD/TIMv1/hal_gpt_lld.c **** #if STM32_GPT_USE_TIM9
 724:lib/chibios/os/hal/ports/STM32/LLD/TIMv1/hal_gpt_lld.c ****     if (&GPTD9 == gptp) {
 725:lib/chibios/os/hal/ports/STM32/LLD/TIMv1/hal_gpt_lld.c ****       rccEnableTIM9(true);
 726:lib/chibios/os/hal/ports/STM32/LLD/TIMv1/hal_gpt_lld.c ****       rccResetTIM9();
 727:lib/chibios/os/hal/ports/STM32/LLD/TIMv1/hal_gpt_lld.c **** #if !defined(STM32_TIM9_SUPPRESS_ISR)
 728:lib/chibios/os/hal/ports/STM32/LLD/TIMv1/hal_gpt_lld.c ****       nvicEnableVector(STM32_TIM9_NUMBER, STM32_GPT_TIM9_IRQ_PRIORITY);
 729:lib/chibios/os/hal/ports/STM32/LLD/TIMv1/hal_gpt_lld.c **** #endif
 730:lib/chibios/os/hal/ports/STM32/LLD/TIMv1/hal_gpt_lld.c **** #if defined(STM32_TIM9CLK)
 731:lib/chibios/os/hal/ports/STM32/LLD/TIMv1/hal_gpt_lld.c ****       gptp->clock = STM32_TIM9CLK;
 732:lib/chibios/os/hal/ports/STM32/LLD/TIMv1/hal_gpt_lld.c **** #else
 733:lib/chibios/os/hal/ports/STM32/LLD/TIMv1/hal_gpt_lld.c ****       gptp->clock = STM32_TIMCLK2;
 734:lib/chibios/os/hal/ports/STM32/LLD/TIMv1/hal_gpt_lld.c **** #endif
 735:lib/chibios/os/hal/ports/STM32/LLD/TIMv1/hal_gpt_lld.c ****     }
 736:lib/chibios/os/hal/ports/STM32/LLD/TIMv1/hal_gpt_lld.c **** #endif
 737:lib/chibios/os/hal/ports/STM32/LLD/TIMv1/hal_gpt_lld.c **** 
 738:lib/chibios/os/hal/ports/STM32/LLD/TIMv1/hal_gpt_lld.c **** #if STM32_GPT_USE_TIM10
 739:lib/chibios/os/hal/ports/STM32/LLD/TIMv1/hal_gpt_lld.c ****     if (&GPTD10 == gptp) {
 740:lib/chibios/os/hal/ports/STM32/LLD/TIMv1/hal_gpt_lld.c ****       rccEnableTIM10(true);
 741:lib/chibios/os/hal/ports/STM32/LLD/TIMv1/hal_gpt_lld.c ****       rccResetTIM10();
 742:lib/chibios/os/hal/ports/STM32/LLD/TIMv1/hal_gpt_lld.c **** #if !defined(STM32_TIM10_SUPPRESS_ISR)
 743:lib/chibios/os/hal/ports/STM32/LLD/TIMv1/hal_gpt_lld.c ****       nvicEnableVector(STM32_TIM10_NUMBER, STM32_GPT_TIM10_IRQ_PRIORITY);
 744:lib/chibios/os/hal/ports/STM32/LLD/TIMv1/hal_gpt_lld.c **** #endif
 745:lib/chibios/os/hal/ports/STM32/LLD/TIMv1/hal_gpt_lld.c **** #if defined(STM32_TIM10CLK)
 746:lib/chibios/os/hal/ports/STM32/LLD/TIMv1/hal_gpt_lld.c ****       gptp->clock = STM32_TIM10CLK;
 747:lib/chibios/os/hal/ports/STM32/LLD/TIMv1/hal_gpt_lld.c **** #else
 748:lib/chibios/os/hal/ports/STM32/LLD/TIMv1/hal_gpt_lld.c ****       gptp->clock = STM32_TIMCLK2;
 749:lib/chibios/os/hal/ports/STM32/LLD/TIMv1/hal_gpt_lld.c **** #endif
 750:lib/chibios/os/hal/ports/STM32/LLD/TIMv1/hal_gpt_lld.c ****     }
 751:lib/chibios/os/hal/ports/STM32/LLD/TIMv1/hal_gpt_lld.c **** #endif
 752:lib/chibios/os/hal/ports/STM32/LLD/TIMv1/hal_gpt_lld.c **** 
 753:lib/chibios/os/hal/ports/STM32/LLD/TIMv1/hal_gpt_lld.c **** #if STM32_GPT_USE_TIM11
 754:lib/chibios/os/hal/ports/STM32/LLD/TIMv1/hal_gpt_lld.c ****     if (&GPTD11 == gptp) {
 755:lib/chibios/os/hal/ports/STM32/LLD/TIMv1/hal_gpt_lld.c ****       rccEnableTIM11(true);
 756:lib/chibios/os/hal/ports/STM32/LLD/TIMv1/hal_gpt_lld.c ****       rccResetTIM11();
 757:lib/chibios/os/hal/ports/STM32/LLD/TIMv1/hal_gpt_lld.c **** #if !defined(STM32_TIM11_SUPPRESS_ISR)
 758:lib/chibios/os/hal/ports/STM32/LLD/TIMv1/hal_gpt_lld.c ****       nvicEnableVector(STM32_TIM11_NUMBER, STM32_GPT_TIM11_IRQ_PRIORITY);
 759:lib/chibios/os/hal/ports/STM32/LLD/TIMv1/hal_gpt_lld.c **** #endif
 760:lib/chibios/os/hal/ports/STM32/LLD/TIMv1/hal_gpt_lld.c **** #if defined(STM32_TIM11CLK)
 761:lib/chibios/os/hal/ports/STM32/LLD/TIMv1/hal_gpt_lld.c ****       gptp->clock = STM32_TIM11CLK;
 762:lib/chibios/os/hal/ports/STM32/LLD/TIMv1/hal_gpt_lld.c **** #else
 763:lib/chibios/os/hal/ports/STM32/LLD/TIMv1/hal_gpt_lld.c ****       gptp->clock = STM32_TIMCLK2;
 764:lib/chibios/os/hal/ports/STM32/LLD/TIMv1/hal_gpt_lld.c **** #endif
 765:lib/chibios/os/hal/ports/STM32/LLD/TIMv1/hal_gpt_lld.c ****     }
 766:lib/chibios/os/hal/ports/STM32/LLD/TIMv1/hal_gpt_lld.c **** #endif
 767:lib/chibios/os/hal/ports/STM32/LLD/TIMv1/hal_gpt_lld.c **** 
 768:lib/chibios/os/hal/ports/STM32/LLD/TIMv1/hal_gpt_lld.c **** #if STM32_GPT_USE_TIM12
 769:lib/chibios/os/hal/ports/STM32/LLD/TIMv1/hal_gpt_lld.c ****     if (&GPTD12 == gptp) {
 770:lib/chibios/os/hal/ports/STM32/LLD/TIMv1/hal_gpt_lld.c ****       rccEnableTIM12(true);
 771:lib/chibios/os/hal/ports/STM32/LLD/TIMv1/hal_gpt_lld.c ****       rccResetTIM12();
 772:lib/chibios/os/hal/ports/STM32/LLD/TIMv1/hal_gpt_lld.c **** #if !defined(STM32_TIM12_SUPPRESS_ISR)
 773:lib/chibios/os/hal/ports/STM32/LLD/TIMv1/hal_gpt_lld.c ****       nvicEnableVector(STM32_TIM12_NUMBER, STM32_GPT_TIM12_IRQ_PRIORITY);
 774:lib/chibios/os/hal/ports/STM32/LLD/TIMv1/hal_gpt_lld.c **** #endif
 775:lib/chibios/os/hal/ports/STM32/LLD/TIMv1/hal_gpt_lld.c **** #if defined(STM32_TIM12CLK)
 776:lib/chibios/os/hal/ports/STM32/LLD/TIMv1/hal_gpt_lld.c ****       gptp->clock = STM32_TIM12CLK;
 777:lib/chibios/os/hal/ports/STM32/LLD/TIMv1/hal_gpt_lld.c **** #else
 778:lib/chibios/os/hal/ports/STM32/LLD/TIMv1/hal_gpt_lld.c ****       gptp->clock = STM32_TIMCLK1;
 779:lib/chibios/os/hal/ports/STM32/LLD/TIMv1/hal_gpt_lld.c **** #endif
 780:lib/chibios/os/hal/ports/STM32/LLD/TIMv1/hal_gpt_lld.c ****     }
 781:lib/chibios/os/hal/ports/STM32/LLD/TIMv1/hal_gpt_lld.c **** #endif
 782:lib/chibios/os/hal/ports/STM32/LLD/TIMv1/hal_gpt_lld.c **** 
 783:lib/chibios/os/hal/ports/STM32/LLD/TIMv1/hal_gpt_lld.c **** #if STM32_GPT_USE_TIM13
 784:lib/chibios/os/hal/ports/STM32/LLD/TIMv1/hal_gpt_lld.c ****     if (&GPTD13 == gptp) {
 785:lib/chibios/os/hal/ports/STM32/LLD/TIMv1/hal_gpt_lld.c ****       rccEnableTIM13(true);
 786:lib/chibios/os/hal/ports/STM32/LLD/TIMv1/hal_gpt_lld.c ****       rccResetTIM13();
 787:lib/chibios/os/hal/ports/STM32/LLD/TIMv1/hal_gpt_lld.c **** #if !defined(STM32_TIM13_SUPPRESS_ISR)
 788:lib/chibios/os/hal/ports/STM32/LLD/TIMv1/hal_gpt_lld.c ****       nvicEnableVector(STM32_TIM13_NUMBER, STM32_GPT_TIM13_IRQ_PRIORITY);
 789:lib/chibios/os/hal/ports/STM32/LLD/TIMv1/hal_gpt_lld.c **** #endif
 790:lib/chibios/os/hal/ports/STM32/LLD/TIMv1/hal_gpt_lld.c **** #if defined(STM32_TIM13CLK)
 791:lib/chibios/os/hal/ports/STM32/LLD/TIMv1/hal_gpt_lld.c ****       gptp->clock = STM32_TIM13CLK;
 792:lib/chibios/os/hal/ports/STM32/LLD/TIMv1/hal_gpt_lld.c **** #else
 793:lib/chibios/os/hal/ports/STM32/LLD/TIMv1/hal_gpt_lld.c ****       gptp->clock = STM32_TIMCLK1;
 794:lib/chibios/os/hal/ports/STM32/LLD/TIMv1/hal_gpt_lld.c **** #endif
 795:lib/chibios/os/hal/ports/STM32/LLD/TIMv1/hal_gpt_lld.c ****     }
 796:lib/chibios/os/hal/ports/STM32/LLD/TIMv1/hal_gpt_lld.c **** #endif
 797:lib/chibios/os/hal/ports/STM32/LLD/TIMv1/hal_gpt_lld.c **** 
 798:lib/chibios/os/hal/ports/STM32/LLD/TIMv1/hal_gpt_lld.c **** #if STM32_GPT_USE_TIM14
 799:lib/chibios/os/hal/ports/STM32/LLD/TIMv1/hal_gpt_lld.c ****     if (&GPTD14 == gptp) {
 800:lib/chibios/os/hal/ports/STM32/LLD/TIMv1/hal_gpt_lld.c ****       rccEnableTIM14(true);
 801:lib/chibios/os/hal/ports/STM32/LLD/TIMv1/hal_gpt_lld.c ****       rccResetTIM14();
 802:lib/chibios/os/hal/ports/STM32/LLD/TIMv1/hal_gpt_lld.c **** #if !defined(STM32_TIM14_SUPPRESS_ISR)
 803:lib/chibios/os/hal/ports/STM32/LLD/TIMv1/hal_gpt_lld.c ****       nvicEnableVector(STM32_TIM14_NUMBER, STM32_GPT_TIM14_IRQ_PRIORITY);
 804:lib/chibios/os/hal/ports/STM32/LLD/TIMv1/hal_gpt_lld.c **** #endif
 805:lib/chibios/os/hal/ports/STM32/LLD/TIMv1/hal_gpt_lld.c **** #if defined(STM32_TIM14CLK)
 806:lib/chibios/os/hal/ports/STM32/LLD/TIMv1/hal_gpt_lld.c ****       gptp->clock = STM32_TIM14CLK;
 807:lib/chibios/os/hal/ports/STM32/LLD/TIMv1/hal_gpt_lld.c **** #else
 808:lib/chibios/os/hal/ports/STM32/LLD/TIMv1/hal_gpt_lld.c ****       gptp->clock = STM32_TIMCLK1;
 809:lib/chibios/os/hal/ports/STM32/LLD/TIMv1/hal_gpt_lld.c **** #endif
 810:lib/chibios/os/hal/ports/STM32/LLD/TIMv1/hal_gpt_lld.c ****     }
 811:lib/chibios/os/hal/ports/STM32/LLD/TIMv1/hal_gpt_lld.c **** #endif
 812:lib/chibios/os/hal/ports/STM32/LLD/TIMv1/hal_gpt_lld.c **** 
 813:lib/chibios/os/hal/ports/STM32/LLD/TIMv1/hal_gpt_lld.c **** #if STM32_GPT_USE_TIM15
 814:lib/chibios/os/hal/ports/STM32/LLD/TIMv1/hal_gpt_lld.c ****     if (&GPTD15 == gptp) {
 228              		.loc 1 814 5 is_stmt 1 view .LVU66
 229              		.loc 1 814 8 is_stmt 0 view .LVU67
 230 009a 184B     		ldr	r3, .L11+20
 231 009c 9C42     		cmp	r4, r3
 232 009e 10D1     		bne	.L6
 815:lib/chibios/os/hal/ports/STM32/LLD/TIMv1/hal_gpt_lld.c ****       rccEnableTIM15(true);
 233              		.loc 1 815 7 is_stmt 1 view .LVU68
 234 00a0 124B     		ldr	r3, .L11+4
 235 00a2 9A69     		ldr	r2, [r3, #24]
 236 00a4 42F48032 		orr	r2, r2, #65536
 237 00a8 9A61     		str	r2, [r3, #24]
 238              		.loc 1 815 7 view .LVU69
 239 00aa 9A69     		ldr	r2, [r3, #24]
 240              		.loc 1 815 27 view .LVU70
 816:lib/chibios/os/hal/ports/STM32/LLD/TIMv1/hal_gpt_lld.c ****       rccResetTIM15();
 241              		.loc 1 816 7 view .LVU71
 242 00ac DA68     		ldr	r2, [r3, #12]
 243 00ae 42F48032 		orr	r2, r2, #65536
 244 00b2 DA60     		str	r2, [r3, #12]
 245              		.loc 1 816 7 view .LVU72
 246 00b4 DA68     		ldr	r2, [r3, #12]
 247 00b6 22F48032 		bic	r2, r2, #65536
 248 00ba DA60     		str	r2, [r3, #12]
 249              		.loc 1 816 7 view .LVU73
 250 00bc DB68     		ldr	r3, [r3, #12]
 251              		.loc 1 816 22 view .LVU74
 817:lib/chibios/os/hal/ports/STM32/LLD/TIMv1/hal_gpt_lld.c **** #if defined(STM32_TIM15CLK)
 818:lib/chibios/os/hal/ports/STM32/LLD/TIMv1/hal_gpt_lld.c ****       gptp->clock = STM32_TIM15CLK;
 819:lib/chibios/os/hal/ports/STM32/LLD/TIMv1/hal_gpt_lld.c **** #else
 820:lib/chibios/os/hal/ports/STM32/LLD/TIMv1/hal_gpt_lld.c ****       gptp->clock = STM32_TIMCLK2;
 252              		.loc 1 820 7 view .LVU75
 253              		.loc 1 820 19 is_stmt 0 view .LVU76
 254 00be 0C4B     		ldr	r3, .L11+8
 255 00c0 A360     		str	r3, [r4, #8]
 256              	.L6:
 821:lib/chibios/os/hal/ports/STM32/LLD/TIMv1/hal_gpt_lld.c **** #endif
 822:lib/chibios/os/hal/ports/STM32/LLD/TIMv1/hal_gpt_lld.c ****     }
 823:lib/chibios/os/hal/ports/STM32/LLD/TIMv1/hal_gpt_lld.c **** #endif
 824:lib/chibios/os/hal/ports/STM32/LLD/TIMv1/hal_gpt_lld.c **** 
 825:lib/chibios/os/hal/ports/STM32/LLD/TIMv1/hal_gpt_lld.c **** #if STM32_GPT_USE_TIM16
 826:lib/chibios/os/hal/ports/STM32/LLD/TIMv1/hal_gpt_lld.c ****     if (&GPTD16 == gptp) {
 827:lib/chibios/os/hal/ports/STM32/LLD/TIMv1/hal_gpt_lld.c ****       rccEnableTIM16(true);
 828:lib/chibios/os/hal/ports/STM32/LLD/TIMv1/hal_gpt_lld.c ****       rccResetTIM16();
 829:lib/chibios/os/hal/ports/STM32/LLD/TIMv1/hal_gpt_lld.c **** #if defined(STM32_TIM16CLK)
 830:lib/chibios/os/hal/ports/STM32/LLD/TIMv1/hal_gpt_lld.c ****       gptp->clock = STM32_TIM16CLK;
 831:lib/chibios/os/hal/ports/STM32/LLD/TIMv1/hal_gpt_lld.c **** #else
 832:lib/chibios/os/hal/ports/STM32/LLD/TIMv1/hal_gpt_lld.c ****       gptp->clock = STM32_TIMCLK2;
 833:lib/chibios/os/hal/ports/STM32/LLD/TIMv1/hal_gpt_lld.c **** #endif
 834:lib/chibios/os/hal/ports/STM32/LLD/TIMv1/hal_gpt_lld.c ****     }
 835:lib/chibios/os/hal/ports/STM32/LLD/TIMv1/hal_gpt_lld.c **** #endif
 836:lib/chibios/os/hal/ports/STM32/LLD/TIMv1/hal_gpt_lld.c **** 
 837:lib/chibios/os/hal/ports/STM32/LLD/TIMv1/hal_gpt_lld.c **** #if STM32_GPT_USE_TIM17
 838:lib/chibios/os/hal/ports/STM32/LLD/TIMv1/hal_gpt_lld.c ****     if (&GPTD17 == gptp) {
 839:lib/chibios/os/hal/ports/STM32/LLD/TIMv1/hal_gpt_lld.c ****       rccEnableTIM17(true);
 840:lib/chibios/os/hal/ports/STM32/LLD/TIMv1/hal_gpt_lld.c ****       rccResetTIM17();
 841:lib/chibios/os/hal/ports/STM32/LLD/TIMv1/hal_gpt_lld.c **** #if defined(STM32_TIM17CLK)
 842:lib/chibios/os/hal/ports/STM32/LLD/TIMv1/hal_gpt_lld.c ****       gptp->clock = STM32_TIM17CLK;
 843:lib/chibios/os/hal/ports/STM32/LLD/TIMv1/hal_gpt_lld.c **** #else
 844:lib/chibios/os/hal/ports/STM32/LLD/TIMv1/hal_gpt_lld.c ****       gptp->clock = STM32_TIMCLK2;
 845:lib/chibios/os/hal/ports/STM32/LLD/TIMv1/hal_gpt_lld.c **** #endif
 846:lib/chibios/os/hal/ports/STM32/LLD/TIMv1/hal_gpt_lld.c ****     }
 847:lib/chibios/os/hal/ports/STM32/LLD/TIMv1/hal_gpt_lld.c **** #endif
 848:lib/chibios/os/hal/ports/STM32/LLD/TIMv1/hal_gpt_lld.c **** 
 849:lib/chibios/os/hal/ports/STM32/LLD/TIMv1/hal_gpt_lld.c **** #if STM32_GPT_USE_TIM21
 850:lib/chibios/os/hal/ports/STM32/LLD/TIMv1/hal_gpt_lld.c ****     if (&GPTD21 == gptp) {
 851:lib/chibios/os/hal/ports/STM32/LLD/TIMv1/hal_gpt_lld.c ****       rccEnableTIM21(true);
 852:lib/chibios/os/hal/ports/STM32/LLD/TIMv1/hal_gpt_lld.c ****       rccResetTIM21();
 853:lib/chibios/os/hal/ports/STM32/LLD/TIMv1/hal_gpt_lld.c **** #if !defined(STM32_TIM21_SUPPRESS_ISR)
 854:lib/chibios/os/hal/ports/STM32/LLD/TIMv1/hal_gpt_lld.c ****       nvicEnableVector(STM32_TIM21_NUMBER, STM32_GPT_TIM21_IRQ_PRIORITY);
 855:lib/chibios/os/hal/ports/STM32/LLD/TIMv1/hal_gpt_lld.c **** #endif
 856:lib/chibios/os/hal/ports/STM32/LLD/TIMv1/hal_gpt_lld.c **** #if defined(STM32_TIM21CLK)
 857:lib/chibios/os/hal/ports/STM32/LLD/TIMv1/hal_gpt_lld.c ****       gptp->clock = STM32_TIM21CLK;
 858:lib/chibios/os/hal/ports/STM32/LLD/TIMv1/hal_gpt_lld.c **** #else
 859:lib/chibios/os/hal/ports/STM32/LLD/TIMv1/hal_gpt_lld.c ****       gptp->clock = STM32_TIMCLK1;
 860:lib/chibios/os/hal/ports/STM32/LLD/TIMv1/hal_gpt_lld.c **** #endif
 861:lib/chibios/os/hal/ports/STM32/LLD/TIMv1/hal_gpt_lld.c ****     }
 862:lib/chibios/os/hal/ports/STM32/LLD/TIMv1/hal_gpt_lld.c **** #endif
 863:lib/chibios/os/hal/ports/STM32/LLD/TIMv1/hal_gpt_lld.c **** 
 864:lib/chibios/os/hal/ports/STM32/LLD/TIMv1/hal_gpt_lld.c **** #if STM32_GPT_USE_TIM22
 865:lib/chibios/os/hal/ports/STM32/LLD/TIMv1/hal_gpt_lld.c ****     if (&GPTD22 == gptp) {
 866:lib/chibios/os/hal/ports/STM32/LLD/TIMv1/hal_gpt_lld.c ****       rccEnableTIM22(true);
 867:lib/chibios/os/hal/ports/STM32/LLD/TIMv1/hal_gpt_lld.c ****       rccResetTIM22();
 868:lib/chibios/os/hal/ports/STM32/LLD/TIMv1/hal_gpt_lld.c **** #if !defined(STM32_TIM22_SUPPRESS_ISR)
 869:lib/chibios/os/hal/ports/STM32/LLD/TIMv1/hal_gpt_lld.c ****       nvicEnableVector(STM32_TIM22_NUMBER, STM32_GPT_TIM22_IRQ_PRIORITY);
 870:lib/chibios/os/hal/ports/STM32/LLD/TIMv1/hal_gpt_lld.c **** #endif
 871:lib/chibios/os/hal/ports/STM32/LLD/TIMv1/hal_gpt_lld.c **** #if defined(STM32_TIM22CLK)
 872:lib/chibios/os/hal/ports/STM32/LLD/TIMv1/hal_gpt_lld.c ****       gptp->clock = STM32_TIM22CLK;
 873:lib/chibios/os/hal/ports/STM32/LLD/TIMv1/hal_gpt_lld.c **** #else
 874:lib/chibios/os/hal/ports/STM32/LLD/TIMv1/hal_gpt_lld.c ****       gptp->clock = STM32_TIMCLK1;
 875:lib/chibios/os/hal/ports/STM32/LLD/TIMv1/hal_gpt_lld.c **** #endif
 876:lib/chibios/os/hal/ports/STM32/LLD/TIMv1/hal_gpt_lld.c ****     }
 877:lib/chibios/os/hal/ports/STM32/LLD/TIMv1/hal_gpt_lld.c **** #endif
 878:lib/chibios/os/hal/ports/STM32/LLD/TIMv1/hal_gpt_lld.c ****   }
 879:lib/chibios/os/hal/ports/STM32/LLD/TIMv1/hal_gpt_lld.c **** 
 880:lib/chibios/os/hal/ports/STM32/LLD/TIMv1/hal_gpt_lld.c ****   /* Prescaler value calculation.*/
 881:lib/chibios/os/hal/ports/STM32/LLD/TIMv1/hal_gpt_lld.c ****   psc = (uint16_t)((gptp->clock / gptp->config->frequency) - 1);
 257              		.loc 1 881 3 is_stmt 1 view .LVU77
 258              		.loc 1 881 33 is_stmt 0 view .LVU78
 259 00c2 D4E90113 		ldrd	r1, r3, [r4, #4]
 260 00c6 0A68     		ldr	r2, [r1]
 261 00c8 B3FBF2F3 		udiv	r3, r3, r2
 882:lib/chibios/os/hal/ports/STM32/LLD/TIMv1/hal_gpt_lld.c ****   osalDbgAssert(((uint32_t)(psc + 1) * gptp->config->frequency) == gptp->clock,
 883:lib/chibios/os/hal/ports/STM32/LLD/TIMv1/hal_gpt_lld.c ****                 "invalid frequency");
 884:lib/chibios/os/hal/ports/STM32/LLD/TIMv1/hal_gpt_lld.c **** 
 885:lib/chibios/os/hal/ports/STM32/LLD/TIMv1/hal_gpt_lld.c ****   /* Timer configuration.*/
 886:lib/chibios/os/hal/ports/STM32/LLD/TIMv1/hal_gpt_lld.c ****   gptp->tim->CR1  = 0;                          /* Initially stopped.       */
 262              		.loc 1 886 7 view .LVU79
 263 00cc E268     		ldr	r2, [r4, #12]
 887:lib/chibios/os/hal/ports/STM32/LLD/TIMv1/hal_gpt_lld.c ****   gptp->tim->CR2  = gptp->config->cr2;
 264              		.loc 1 887 33 view .LVU80
 265 00ce 8C68     		ldr	r4, [r1, #8]
 266              	.LVL9:
 881:lib/chibios/os/hal/ports/STM32/LLD/TIMv1/hal_gpt_lld.c ****   osalDbgAssert(((uint32_t)(psc + 1) * gptp->config->frequency) == gptp->clock,
 267              		.loc 1 881 7 view .LVU81
 268 00d0 013B     		subs	r3, r3, #1
 269 00d2 9BB2     		uxth	r3, r3
 270              	.LVL10:
 882:lib/chibios/os/hal/ports/STM32/LLD/TIMv1/hal_gpt_lld.c ****   osalDbgAssert(((uint32_t)(psc + 1) * gptp->config->frequency) == gptp->clock,
 271              		.loc 1 882 3 is_stmt 1 view .LVU82
 882:lib/chibios/os/hal/ports/STM32/LLD/TIMv1/hal_gpt_lld.c ****   osalDbgAssert(((uint32_t)(psc + 1) * gptp->config->frequency) == gptp->clock,
 272              		.loc 1 882 3 view .LVU83
 882:lib/chibios/os/hal/ports/STM32/LLD/TIMv1/hal_gpt_lld.c ****   osalDbgAssert(((uint32_t)(psc + 1) * gptp->config->frequency) == gptp->clock,
 273              		.loc 1 882 3 view .LVU84
 886:lib/chibios/os/hal/ports/STM32/LLD/TIMv1/hal_gpt_lld.c ****   gptp->tim->CR2  = gptp->config->cr2;
 274              		.loc 1 886 3 view .LVU85
 886:lib/chibios/os/hal/ports/STM32/LLD/TIMv1/hal_gpt_lld.c ****   gptp->tim->CR2  = gptp->config->cr2;
 275              		.loc 1 886 19 is_stmt 0 view .LVU86
 276 00d4 0020     		movs	r0, #0
 277 00d6 1060     		str	r0, [r2]
 278              		.loc 1 887 3 is_stmt 1 view .LVU87
 279              		.loc 1 887 19 is_stmt 0 view .LVU88
 280 00d8 5460     		str	r4, [r2, #4]
 888:lib/chibios/os/hal/ports/STM32/LLD/TIMv1/hal_gpt_lld.c ****   gptp->tim->PSC  = psc;                        /* Prescaler value.         */
 281              		.loc 1 888 3 is_stmt 1 view .LVU89
 282              		.loc 1 888 19 is_stmt 0 view .LVU90
 283 00da 9362     		str	r3, [r2, #40]
 889:lib/chibios/os/hal/ports/STM32/LLD/TIMv1/hal_gpt_lld.c ****   gptp->tim->SR   = 0;                          /* Clear pending IRQs.      */
 284              		.loc 1 889 3 is_stmt 1 view .LVU91
 890:lib/chibios/os/hal/ports/STM32/LLD/TIMv1/hal_gpt_lld.c ****   gptp->tim->DIER = gptp->config->dier &        /* DMA-related DIER bits.   */
 285              		.loc 1 890 40 is_stmt 0 view .LVU92
 286 00dc CB68     		ldr	r3, [r1, #12]
 287              	.LVL11:
 889:lib/chibios/os/hal/ports/STM32/LLD/TIMv1/hal_gpt_lld.c ****   gptp->tim->SR   = 0;                          /* Clear pending IRQs.      */
 288              		.loc 1 889 19 view .LVU93
 289 00de 1061     		str	r0, [r2, #16]
 290              	.LVL12:
 291              		.loc 1 890 3 is_stmt 1 view .LVU94
 292              		.loc 1 890 40 is_stmt 0 view .LVU95
 293 00e0 23F0FF03 		bic	r3, r3, #255
 294              		.loc 1 890 19 view .LVU96
 295 00e4 D360     		str	r3, [r2, #12]
 891:lib/chibios/os/hal/ports/STM32/LLD/TIMv1/hal_gpt_lld.c ****                     ~STM32_TIM_DIER_IRQ_MASK;
 892:lib/chibios/os/hal/ports/STM32/LLD/TIMv1/hal_gpt_lld.c **** }
 296              		.loc 1 892 1 view .LVU97
 297 00e6 10BD     		pop	{r4, pc}
 298              	.L12:
 299              		.align	2
 300              	.L11:
 301 00e8 00000000 		.word	GPTD6
 302 00ec 00100240 		.word	1073876992
 303 00f0 00A24A04 		.word	72000000
 304 00f4 00000000 		.word	GPTD7
 305 00f8 00000000 		.word	GPTD8
 306 00fc 00000000 		.word	GPTD15
 307              		.cfi_endproc
 308              	.LFE332:
 310              		.section	.text.gpt_lld_stop,"ax",%progbits
 311              		.align	1
 312              		.global	gpt_lld_stop
 313              		.syntax unified
 314              		.thumb
 315              		.thumb_func
 317              	gpt_lld_stop:
 318              	.LVL13:
 319              	.LFB333:
 893:lib/chibios/os/hal/ports/STM32/LLD/TIMv1/hal_gpt_lld.c **** 
 894:lib/chibios/os/hal/ports/STM32/LLD/TIMv1/hal_gpt_lld.c **** /**
 895:lib/chibios/os/hal/ports/STM32/LLD/TIMv1/hal_gpt_lld.c ****  * @brief   Deactivates the GPT peripheral.
 896:lib/chibios/os/hal/ports/STM32/LLD/TIMv1/hal_gpt_lld.c ****  *
 897:lib/chibios/os/hal/ports/STM32/LLD/TIMv1/hal_gpt_lld.c ****  * @param[in] gptp      pointer to the @p GPTDriver object
 898:lib/chibios/os/hal/ports/STM32/LLD/TIMv1/hal_gpt_lld.c ****  *
 899:lib/chibios/os/hal/ports/STM32/LLD/TIMv1/hal_gpt_lld.c ****  * @notapi
 900:lib/chibios/os/hal/ports/STM32/LLD/TIMv1/hal_gpt_lld.c ****  */
 901:lib/chibios/os/hal/ports/STM32/LLD/TIMv1/hal_gpt_lld.c **** void gpt_lld_stop(GPTDriver *gptp) {
 320              		.loc 1 901 36 is_stmt 1 view -0
 321              		.cfi_startproc
 322              		@ args = 0, pretend = 0, frame = 0
 323              		@ frame_needed = 0, uses_anonymous_args = 0
 902:lib/chibios/os/hal/ports/STM32/LLD/TIMv1/hal_gpt_lld.c **** 
 903:lib/chibios/os/hal/ports/STM32/LLD/TIMv1/hal_gpt_lld.c ****   if (gptp->state == GPT_READY) {
 324              		.loc 1 903 3 view .LVU99
 901:lib/chibios/os/hal/ports/STM32/LLD/TIMv1/hal_gpt_lld.c **** 
 325              		.loc 1 901 36 is_stmt 0 view .LVU100
 326 0000 10B5     		push	{r4, lr}
 327              		.cfi_def_cfa_offset 8
 328              		.cfi_offset 4, -8
 329              		.cfi_offset 14, -4
 330              		.loc 1 903 6 view .LVU101
 331 0002 0378     		ldrb	r3, [r0]	@ zero_extendqisi2
 332 0004 022B     		cmp	r3, #2
 901:lib/chibios/os/hal/ports/STM32/LLD/TIMv1/hal_gpt_lld.c **** 
 333              		.loc 1 901 36 view .LVU102
 334 0006 0446     		mov	r4, r0
 335              		.loc 1 903 6 view .LVU103
 336 0008 31D1     		bne	.L13
 904:lib/chibios/os/hal/ports/STM32/LLD/TIMv1/hal_gpt_lld.c ****     gptp->tim->CR1  = 0;                        /* Timer disabled.          */
 337              		.loc 1 904 5 is_stmt 1 view .LVU104
 338              		.loc 1 904 9 is_stmt 0 view .LVU105
 339 000a C368     		ldr	r3, [r0, #12]
 340              		.loc 1 904 21 view .LVU106
 341 000c 0022     		movs	r2, #0
 342 000e 1A60     		str	r2, [r3]
 905:lib/chibios/os/hal/ports/STM32/LLD/TIMv1/hal_gpt_lld.c ****     gptp->tim->DIER = 0;                        /* All IRQs disabled.       */
 343              		.loc 1 905 5 is_stmt 1 view .LVU107
 344              		.loc 1 905 21 is_stmt 0 view .LVU108
 345 0010 DA60     		str	r2, [r3, #12]
 906:lib/chibios/os/hal/ports/STM32/LLD/TIMv1/hal_gpt_lld.c ****     gptp->tim->SR   = 0;                        /* Clear pending IRQs.      */
 346              		.loc 1 906 5 is_stmt 1 view .LVU109
 347              		.loc 1 906 21 is_stmt 0 view .LVU110
 348 0012 1A61     		str	r2, [r3, #16]
 907:lib/chibios/os/hal/ports/STM32/LLD/TIMv1/hal_gpt_lld.c **** 
 908:lib/chibios/os/hal/ports/STM32/LLD/TIMv1/hal_gpt_lld.c **** #if STM32_GPT_USE_TIM1
 909:lib/chibios/os/hal/ports/STM32/LLD/TIMv1/hal_gpt_lld.c ****     if (&GPTD1 == gptp) {
 910:lib/chibios/os/hal/ports/STM32/LLD/TIMv1/hal_gpt_lld.c **** #if !defined(STM32_TIM1_SUPPRESS_ISR)
 911:lib/chibios/os/hal/ports/STM32/LLD/TIMv1/hal_gpt_lld.c ****       nvicDisableVector(STM32_TIM1_UP_NUMBER);
 912:lib/chibios/os/hal/ports/STM32/LLD/TIMv1/hal_gpt_lld.c **** #endif
 913:lib/chibios/os/hal/ports/STM32/LLD/TIMv1/hal_gpt_lld.c ****       rccDisableTIM1();
 914:lib/chibios/os/hal/ports/STM32/LLD/TIMv1/hal_gpt_lld.c ****     }
 915:lib/chibios/os/hal/ports/STM32/LLD/TIMv1/hal_gpt_lld.c **** #endif
 916:lib/chibios/os/hal/ports/STM32/LLD/TIMv1/hal_gpt_lld.c **** 
 917:lib/chibios/os/hal/ports/STM32/LLD/TIMv1/hal_gpt_lld.c **** #if STM32_GPT_USE_TIM2
 918:lib/chibios/os/hal/ports/STM32/LLD/TIMv1/hal_gpt_lld.c ****     if (&GPTD2 == gptp) {
 919:lib/chibios/os/hal/ports/STM32/LLD/TIMv1/hal_gpt_lld.c **** #if !defined(STM32_TIM2_SUPPRESS_ISR)
 920:lib/chibios/os/hal/ports/STM32/LLD/TIMv1/hal_gpt_lld.c ****       nvicDisableVector(STM32_TIM2_NUMBER);
 921:lib/chibios/os/hal/ports/STM32/LLD/TIMv1/hal_gpt_lld.c **** #endif
 922:lib/chibios/os/hal/ports/STM32/LLD/TIMv1/hal_gpt_lld.c ****       rccDisableTIM2();
 923:lib/chibios/os/hal/ports/STM32/LLD/TIMv1/hal_gpt_lld.c ****     }
 924:lib/chibios/os/hal/ports/STM32/LLD/TIMv1/hal_gpt_lld.c **** #endif
 925:lib/chibios/os/hal/ports/STM32/LLD/TIMv1/hal_gpt_lld.c **** 
 926:lib/chibios/os/hal/ports/STM32/LLD/TIMv1/hal_gpt_lld.c **** #if STM32_GPT_USE_TIM3
 927:lib/chibios/os/hal/ports/STM32/LLD/TIMv1/hal_gpt_lld.c ****     if (&GPTD3 == gptp) {
 928:lib/chibios/os/hal/ports/STM32/LLD/TIMv1/hal_gpt_lld.c **** #if !defined(STM32_TIM3_SUPPRESS_ISR)
 929:lib/chibios/os/hal/ports/STM32/LLD/TIMv1/hal_gpt_lld.c ****       nvicDisableVector(STM32_TIM3_NUMBER);
 930:lib/chibios/os/hal/ports/STM32/LLD/TIMv1/hal_gpt_lld.c **** #endif
 931:lib/chibios/os/hal/ports/STM32/LLD/TIMv1/hal_gpt_lld.c ****       rccDisableTIM3();
 932:lib/chibios/os/hal/ports/STM32/LLD/TIMv1/hal_gpt_lld.c ****     }
 933:lib/chibios/os/hal/ports/STM32/LLD/TIMv1/hal_gpt_lld.c **** #endif
 934:lib/chibios/os/hal/ports/STM32/LLD/TIMv1/hal_gpt_lld.c **** 
 935:lib/chibios/os/hal/ports/STM32/LLD/TIMv1/hal_gpt_lld.c **** #if STM32_GPT_USE_TIM4
 936:lib/chibios/os/hal/ports/STM32/LLD/TIMv1/hal_gpt_lld.c ****     if (&GPTD4 == gptp) {
 937:lib/chibios/os/hal/ports/STM32/LLD/TIMv1/hal_gpt_lld.c **** #if !defined(STM32_TIM4_SUPPRESS_ISR)
 938:lib/chibios/os/hal/ports/STM32/LLD/TIMv1/hal_gpt_lld.c ****       nvicDisableVector(STM32_TIM4_NUMBER);
 939:lib/chibios/os/hal/ports/STM32/LLD/TIMv1/hal_gpt_lld.c **** #endif
 940:lib/chibios/os/hal/ports/STM32/LLD/TIMv1/hal_gpt_lld.c ****       rccDisableTIM4();
 941:lib/chibios/os/hal/ports/STM32/LLD/TIMv1/hal_gpt_lld.c ****     }
 942:lib/chibios/os/hal/ports/STM32/LLD/TIMv1/hal_gpt_lld.c **** #endif
 943:lib/chibios/os/hal/ports/STM32/LLD/TIMv1/hal_gpt_lld.c **** 
 944:lib/chibios/os/hal/ports/STM32/LLD/TIMv1/hal_gpt_lld.c **** #if STM32_GPT_USE_TIM5
 945:lib/chibios/os/hal/ports/STM32/LLD/TIMv1/hal_gpt_lld.c ****     if (&GPTD5 == gptp) {
 946:lib/chibios/os/hal/ports/STM32/LLD/TIMv1/hal_gpt_lld.c **** #if !defined(STM32_TIM5_SUPPRESS_ISR)
 947:lib/chibios/os/hal/ports/STM32/LLD/TIMv1/hal_gpt_lld.c ****       nvicDisableVector(STM32_TIM5_NUMBER);
 948:lib/chibios/os/hal/ports/STM32/LLD/TIMv1/hal_gpt_lld.c **** #endif
 949:lib/chibios/os/hal/ports/STM32/LLD/TIMv1/hal_gpt_lld.c ****       rccDisableTIM5();
 950:lib/chibios/os/hal/ports/STM32/LLD/TIMv1/hal_gpt_lld.c ****     }
 951:lib/chibios/os/hal/ports/STM32/LLD/TIMv1/hal_gpt_lld.c **** #endif
 952:lib/chibios/os/hal/ports/STM32/LLD/TIMv1/hal_gpt_lld.c **** 
 953:lib/chibios/os/hal/ports/STM32/LLD/TIMv1/hal_gpt_lld.c **** #if STM32_GPT_USE_TIM6
 954:lib/chibios/os/hal/ports/STM32/LLD/TIMv1/hal_gpt_lld.c ****     if (&GPTD6 == gptp) {
 349              		.loc 1 954 5 is_stmt 1 view .LVU111
 350              		.loc 1 954 8 is_stmt 0 view .LVU112
 351 0014 164B     		ldr	r3, .L20
 352 0016 9842     		cmp	r0, r3
 353 0018 08D1     		bne	.L16
 955:lib/chibios/os/hal/ports/STM32/LLD/TIMv1/hal_gpt_lld.c **** #if !defined(STM32_TIM6_SUPPRESS_ISR)
 956:lib/chibios/os/hal/ports/STM32/LLD/TIMv1/hal_gpt_lld.c ****       nvicDisableVector(STM32_TIM6_NUMBER);
 354              		.loc 1 956 7 is_stmt 1 view .LVU113
 355 001a 3620     		movs	r0, #54
 356              	.LVL14:
 357              		.loc 1 956 7 is_stmt 0 view .LVU114
 358 001c FFF7FEFF 		bl	nvicDisableVector
 359              	.LVL15:
 957:lib/chibios/os/hal/ports/STM32/LLD/TIMv1/hal_gpt_lld.c **** #endif
 958:lib/chibios/os/hal/ports/STM32/LLD/TIMv1/hal_gpt_lld.c ****       rccDisableTIM6();
 360              		.loc 1 958 7 is_stmt 1 view .LVU115
 361 0020 144B     		ldr	r3, .L20+4
 362 0022 DA69     		ldr	r2, [r3, #28]
 363 0024 22F01002 		bic	r2, r2, #16
 364 0028 DA61     		str	r2, [r3, #28]
 365              		.loc 1 958 7 view .LVU116
 366 002a DB69     		ldr	r3, [r3, #28]
 367              	.L16:
 368              		.loc 1 958 23 discriminator 1 view .LVU117
 959:lib/chibios/os/hal/ports/STM32/LLD/TIMv1/hal_gpt_lld.c ****     }
 960:lib/chibios/os/hal/ports/STM32/LLD/TIMv1/hal_gpt_lld.c **** #endif
 961:lib/chibios/os/hal/ports/STM32/LLD/TIMv1/hal_gpt_lld.c **** 
 962:lib/chibios/os/hal/ports/STM32/LLD/TIMv1/hal_gpt_lld.c **** #if STM32_GPT_USE_TIM7
 963:lib/chibios/os/hal/ports/STM32/LLD/TIMv1/hal_gpt_lld.c ****     if (&GPTD7 == gptp) {
 369              		.loc 1 963 5 discriminator 1 view .LVU118
 370              		.loc 1 963 8 is_stmt 0 discriminator 1 view .LVU119
 371 002c 124B     		ldr	r3, .L20+8
 372 002e 9C42     		cmp	r4, r3
 373 0030 08D1     		bne	.L17
 964:lib/chibios/os/hal/ports/STM32/LLD/TIMv1/hal_gpt_lld.c **** #if !defined(STM32_TIM7_SUPPRESS_ISR)
 965:lib/chibios/os/hal/ports/STM32/LLD/TIMv1/hal_gpt_lld.c ****       nvicDisableVector(STM32_TIM7_NUMBER);
 374              		.loc 1 965 7 is_stmt 1 view .LVU120
 375 0032 3720     		movs	r0, #55
 376 0034 FFF7FEFF 		bl	nvicDisableVector
 377              	.LVL16:
 966:lib/chibios/os/hal/ports/STM32/LLD/TIMv1/hal_gpt_lld.c **** #endif
 967:lib/chibios/os/hal/ports/STM32/LLD/TIMv1/hal_gpt_lld.c ****       rccDisableTIM7();
 378              		.loc 1 967 7 view .LVU121
 379 0038 0E4B     		ldr	r3, .L20+4
 380 003a DA69     		ldr	r2, [r3, #28]
 381 003c 22F02002 		bic	r2, r2, #32
 382 0040 DA61     		str	r2, [r3, #28]
 383              		.loc 1 967 7 view .LVU122
 384 0042 DB69     		ldr	r3, [r3, #28]
 385              	.L17:
 386              		.loc 1 967 23 discriminator 1 view .LVU123
 968:lib/chibios/os/hal/ports/STM32/LLD/TIMv1/hal_gpt_lld.c ****     }
 969:lib/chibios/os/hal/ports/STM32/LLD/TIMv1/hal_gpt_lld.c **** #endif
 970:lib/chibios/os/hal/ports/STM32/LLD/TIMv1/hal_gpt_lld.c **** 
 971:lib/chibios/os/hal/ports/STM32/LLD/TIMv1/hal_gpt_lld.c **** #if STM32_GPT_USE_TIM8
 972:lib/chibios/os/hal/ports/STM32/LLD/TIMv1/hal_gpt_lld.c ****     if (&GPTD8 == gptp) {
 387              		.loc 1 972 5 discriminator 1 view .LVU124
 388              		.loc 1 972 8 is_stmt 0 discriminator 1 view .LVU125
 389 0044 0D4B     		ldr	r3, .L20+12
 390 0046 9C42     		cmp	r4, r3
 391 0048 08D1     		bne	.L18
 973:lib/chibios/os/hal/ports/STM32/LLD/TIMv1/hal_gpt_lld.c **** #if !defined(STM32_TIM8_SUPPRESS_ISR)
 974:lib/chibios/os/hal/ports/STM32/LLD/TIMv1/hal_gpt_lld.c ****       nvicDisableVector(STM32_TIM8_UP_NUMBER);
 392              		.loc 1 974 7 is_stmt 1 view .LVU126
 393 004a 2C20     		movs	r0, #44
 394 004c FFF7FEFF 		bl	nvicDisableVector
 395              	.LVL17:
 975:lib/chibios/os/hal/ports/STM32/LLD/TIMv1/hal_gpt_lld.c **** #endif
 976:lib/chibios/os/hal/ports/STM32/LLD/TIMv1/hal_gpt_lld.c ****       rccDisableTIM8();
 396              		.loc 1 976 7 view .LVU127
 397 0050 084B     		ldr	r3, .L20+4
 398 0052 9A69     		ldr	r2, [r3, #24]
 399 0054 22F40052 		bic	r2, r2, #8192
 400 0058 9A61     		str	r2, [r3, #24]
 401              		.loc 1 976 7 view .LVU128
 402 005a 9B69     		ldr	r3, [r3, #24]
 403              	.L18:
 404              		.loc 1 976 23 discriminator 1 view .LVU129
 977:lib/chibios/os/hal/ports/STM32/LLD/TIMv1/hal_gpt_lld.c ****     }
 978:lib/chibios/os/hal/ports/STM32/LLD/TIMv1/hal_gpt_lld.c **** #endif
 979:lib/chibios/os/hal/ports/STM32/LLD/TIMv1/hal_gpt_lld.c **** 
 980:lib/chibios/os/hal/ports/STM32/LLD/TIMv1/hal_gpt_lld.c **** #if STM32_GPT_USE_TIM9
 981:lib/chibios/os/hal/ports/STM32/LLD/TIMv1/hal_gpt_lld.c ****     if (&GPTD9 == gptp) {
 982:lib/chibios/os/hal/ports/STM32/LLD/TIMv1/hal_gpt_lld.c **** #if !defined(STM32_TIM9_SUPPRESS_ISR)
 983:lib/chibios/os/hal/ports/STM32/LLD/TIMv1/hal_gpt_lld.c ****       nvicDisableVector(STM32_TIM9_NUMBER);
 984:lib/chibios/os/hal/ports/STM32/LLD/TIMv1/hal_gpt_lld.c **** #endif
 985:lib/chibios/os/hal/ports/STM32/LLD/TIMv1/hal_gpt_lld.c ****       rccDisableTIM9();
 986:lib/chibios/os/hal/ports/STM32/LLD/TIMv1/hal_gpt_lld.c ****     }
 987:lib/chibios/os/hal/ports/STM32/LLD/TIMv1/hal_gpt_lld.c **** #endif
 988:lib/chibios/os/hal/ports/STM32/LLD/TIMv1/hal_gpt_lld.c **** 
 989:lib/chibios/os/hal/ports/STM32/LLD/TIMv1/hal_gpt_lld.c **** #if STM32_GPT_USE_TIM10
 990:lib/chibios/os/hal/ports/STM32/LLD/TIMv1/hal_gpt_lld.c ****     if (&GPTD10 == gptp) {
 991:lib/chibios/os/hal/ports/STM32/LLD/TIMv1/hal_gpt_lld.c **** #if !defined(STM32_TIM10_SUPPRESS_ISR)
 992:lib/chibios/os/hal/ports/STM32/LLD/TIMv1/hal_gpt_lld.c ****       nvicDisableVector(STM32_TIM10_NUMBER);
 993:lib/chibios/os/hal/ports/STM32/LLD/TIMv1/hal_gpt_lld.c **** #endif
 994:lib/chibios/os/hal/ports/STM32/LLD/TIMv1/hal_gpt_lld.c ****       rccDisableTIM10();
 995:lib/chibios/os/hal/ports/STM32/LLD/TIMv1/hal_gpt_lld.c ****     }
 996:lib/chibios/os/hal/ports/STM32/LLD/TIMv1/hal_gpt_lld.c **** #endif
 997:lib/chibios/os/hal/ports/STM32/LLD/TIMv1/hal_gpt_lld.c **** 
 998:lib/chibios/os/hal/ports/STM32/LLD/TIMv1/hal_gpt_lld.c **** #if STM32_GPT_USE_TIM11
 999:lib/chibios/os/hal/ports/STM32/LLD/TIMv1/hal_gpt_lld.c ****     if (&GPTD11 == gptp) {
1000:lib/chibios/os/hal/ports/STM32/LLD/TIMv1/hal_gpt_lld.c **** #if !defined(STM32_TIM11_SUPPRESS_ISR)
1001:lib/chibios/os/hal/ports/STM32/LLD/TIMv1/hal_gpt_lld.c ****       nvicDisableVector(STM32_TIM11_NUMBER);
1002:lib/chibios/os/hal/ports/STM32/LLD/TIMv1/hal_gpt_lld.c **** #endif
1003:lib/chibios/os/hal/ports/STM32/LLD/TIMv1/hal_gpt_lld.c ****       rccDisableTIM11();
1004:lib/chibios/os/hal/ports/STM32/LLD/TIMv1/hal_gpt_lld.c ****     }
1005:lib/chibios/os/hal/ports/STM32/LLD/TIMv1/hal_gpt_lld.c **** #endif
1006:lib/chibios/os/hal/ports/STM32/LLD/TIMv1/hal_gpt_lld.c **** 
1007:lib/chibios/os/hal/ports/STM32/LLD/TIMv1/hal_gpt_lld.c **** #if STM32_GPT_USE_TIM12
1008:lib/chibios/os/hal/ports/STM32/LLD/TIMv1/hal_gpt_lld.c ****     if (&GPTD12 == gptp) {
1009:lib/chibios/os/hal/ports/STM32/LLD/TIMv1/hal_gpt_lld.c **** #if !defined(STM32_TIM12_SUPPRESS_ISR)
1010:lib/chibios/os/hal/ports/STM32/LLD/TIMv1/hal_gpt_lld.c ****       nvicDisableVector(STM32_TIM12_NUMBER);
1011:lib/chibios/os/hal/ports/STM32/LLD/TIMv1/hal_gpt_lld.c **** #endif
1012:lib/chibios/os/hal/ports/STM32/LLD/TIMv1/hal_gpt_lld.c ****       rccDisableTIM12();
1013:lib/chibios/os/hal/ports/STM32/LLD/TIMv1/hal_gpt_lld.c ****     }
1014:lib/chibios/os/hal/ports/STM32/LLD/TIMv1/hal_gpt_lld.c **** #endif
1015:lib/chibios/os/hal/ports/STM32/LLD/TIMv1/hal_gpt_lld.c **** 
1016:lib/chibios/os/hal/ports/STM32/LLD/TIMv1/hal_gpt_lld.c **** #if STM32_GPT_USE_TIM13
1017:lib/chibios/os/hal/ports/STM32/LLD/TIMv1/hal_gpt_lld.c ****     if (&GPTD13 == gptp) {
1018:lib/chibios/os/hal/ports/STM32/LLD/TIMv1/hal_gpt_lld.c **** #if !defined(STM32_TIM13_SUPPRESS_ISR)
1019:lib/chibios/os/hal/ports/STM32/LLD/TIMv1/hal_gpt_lld.c ****       nvicDisableVector(STM32_TIM13_NUMBER);
1020:lib/chibios/os/hal/ports/STM32/LLD/TIMv1/hal_gpt_lld.c **** #endif
1021:lib/chibios/os/hal/ports/STM32/LLD/TIMv1/hal_gpt_lld.c ****       rccDisableTIM13();
1022:lib/chibios/os/hal/ports/STM32/LLD/TIMv1/hal_gpt_lld.c ****     }
1023:lib/chibios/os/hal/ports/STM32/LLD/TIMv1/hal_gpt_lld.c **** #endif
1024:lib/chibios/os/hal/ports/STM32/LLD/TIMv1/hal_gpt_lld.c **** 
1025:lib/chibios/os/hal/ports/STM32/LLD/TIMv1/hal_gpt_lld.c **** #if STM32_GPT_USE_TIM14
1026:lib/chibios/os/hal/ports/STM32/LLD/TIMv1/hal_gpt_lld.c ****     if (&GPTD14 == gptp) {
1027:lib/chibios/os/hal/ports/STM32/LLD/TIMv1/hal_gpt_lld.c **** #if !defined(STM32_TIM14_SUPPRESS_ISR)
1028:lib/chibios/os/hal/ports/STM32/LLD/TIMv1/hal_gpt_lld.c ****       nvicDisableVector(STM32_TIM14_NUMBER);
1029:lib/chibios/os/hal/ports/STM32/LLD/TIMv1/hal_gpt_lld.c **** #endif
1030:lib/chibios/os/hal/ports/STM32/LLD/TIMv1/hal_gpt_lld.c ****       rccDisableTIM14();
1031:lib/chibios/os/hal/ports/STM32/LLD/TIMv1/hal_gpt_lld.c ****     }
1032:lib/chibios/os/hal/ports/STM32/LLD/TIMv1/hal_gpt_lld.c **** #endif
1033:lib/chibios/os/hal/ports/STM32/LLD/TIMv1/hal_gpt_lld.c **** 
1034:lib/chibios/os/hal/ports/STM32/LLD/TIMv1/hal_gpt_lld.c **** #if STM32_GPT_USE_TIM15
1035:lib/chibios/os/hal/ports/STM32/LLD/TIMv1/hal_gpt_lld.c ****     if (&GPTD15 == gptp) {
 405              		.loc 1 1035 5 discriminator 1 view .LVU130
 406              		.loc 1 1035 8 is_stmt 0 discriminator 1 view .LVU131
 407 005c 084B     		ldr	r3, .L20+16
 408 005e 9C42     		cmp	r4, r3
 409 0060 05D1     		bne	.L13
1036:lib/chibios/os/hal/ports/STM32/LLD/TIMv1/hal_gpt_lld.c ****       rccDisableTIM15();
 410              		.loc 1 1036 7 is_stmt 1 view .LVU132
 411 0062 044B     		ldr	r3, .L20+4
 412 0064 9A69     		ldr	r2, [r3, #24]
 413 0066 22F48032 		bic	r2, r2, #65536
 414 006a 9A61     		str	r2, [r3, #24]
 415              		.loc 1 1036 7 view .LVU133
 416 006c 9B69     		ldr	r3, [r3, #24]
 417              		.loc 1 1036 24 view .LVU134
 418              	.L13:
1037:lib/chibios/os/hal/ports/STM32/LLD/TIMv1/hal_gpt_lld.c ****     }
1038:lib/chibios/os/hal/ports/STM32/LLD/TIMv1/hal_gpt_lld.c **** #endif
1039:lib/chibios/os/hal/ports/STM32/LLD/TIMv1/hal_gpt_lld.c **** 
1040:lib/chibios/os/hal/ports/STM32/LLD/TIMv1/hal_gpt_lld.c **** #if STM32_GPT_USE_TIM16
1041:lib/chibios/os/hal/ports/STM32/LLD/TIMv1/hal_gpt_lld.c ****     if (&GPTD16 == gptp) {
1042:lib/chibios/os/hal/ports/STM32/LLD/TIMv1/hal_gpt_lld.c ****       rccDisableTIM16();
1043:lib/chibios/os/hal/ports/STM32/LLD/TIMv1/hal_gpt_lld.c ****     }
1044:lib/chibios/os/hal/ports/STM32/LLD/TIMv1/hal_gpt_lld.c **** #endif
1045:lib/chibios/os/hal/ports/STM32/LLD/TIMv1/hal_gpt_lld.c **** 
1046:lib/chibios/os/hal/ports/STM32/LLD/TIMv1/hal_gpt_lld.c **** #if STM32_GPT_USE_TIM17
1047:lib/chibios/os/hal/ports/STM32/LLD/TIMv1/hal_gpt_lld.c ****     if (&GPTD17 == gptp) {
1048:lib/chibios/os/hal/ports/STM32/LLD/TIMv1/hal_gpt_lld.c ****       rccDisableTIM17();
1049:lib/chibios/os/hal/ports/STM32/LLD/TIMv1/hal_gpt_lld.c ****     }
1050:lib/chibios/os/hal/ports/STM32/LLD/TIMv1/hal_gpt_lld.c **** #endif
1051:lib/chibios/os/hal/ports/STM32/LLD/TIMv1/hal_gpt_lld.c **** 
1052:lib/chibios/os/hal/ports/STM32/LLD/TIMv1/hal_gpt_lld.c **** #if STM32_GPT_USE_TIM21
1053:lib/chibios/os/hal/ports/STM32/LLD/TIMv1/hal_gpt_lld.c ****     if (&GPTD21 == gptp) {
1054:lib/chibios/os/hal/ports/STM32/LLD/TIMv1/hal_gpt_lld.c **** #if !defined(STM32_TIM21_SUPPRESS_ISR)
1055:lib/chibios/os/hal/ports/STM32/LLD/TIMv1/hal_gpt_lld.c ****       nvicDisableVector(STM32_TIM21_NUMBER);
1056:lib/chibios/os/hal/ports/STM32/LLD/TIMv1/hal_gpt_lld.c **** #endif
1057:lib/chibios/os/hal/ports/STM32/LLD/TIMv1/hal_gpt_lld.c ****       rccDisableTIM21();
1058:lib/chibios/os/hal/ports/STM32/LLD/TIMv1/hal_gpt_lld.c ****     }
1059:lib/chibios/os/hal/ports/STM32/LLD/TIMv1/hal_gpt_lld.c **** #endif
1060:lib/chibios/os/hal/ports/STM32/LLD/TIMv1/hal_gpt_lld.c **** 
1061:lib/chibios/os/hal/ports/STM32/LLD/TIMv1/hal_gpt_lld.c **** #if STM32_GPT_USE_TIM22
1062:lib/chibios/os/hal/ports/STM32/LLD/TIMv1/hal_gpt_lld.c ****     if (&GPTD22 == gptp) {
1063:lib/chibios/os/hal/ports/STM32/LLD/TIMv1/hal_gpt_lld.c **** #if !defined(STM32_TIM22_SUPPRESS_ISR)
1064:lib/chibios/os/hal/ports/STM32/LLD/TIMv1/hal_gpt_lld.c ****       nvicDisableVector(STM32_TIM22_NUMBER);
1065:lib/chibios/os/hal/ports/STM32/LLD/TIMv1/hal_gpt_lld.c **** #endif
1066:lib/chibios/os/hal/ports/STM32/LLD/TIMv1/hal_gpt_lld.c ****       rccDisableTIM22();
1067:lib/chibios/os/hal/ports/STM32/LLD/TIMv1/hal_gpt_lld.c ****     }
1068:lib/chibios/os/hal/ports/STM32/LLD/TIMv1/hal_gpt_lld.c **** #endif
1069:lib/chibios/os/hal/ports/STM32/LLD/TIMv1/hal_gpt_lld.c ****   }
1070:lib/chibios/os/hal/ports/STM32/LLD/TIMv1/hal_gpt_lld.c **** }
 419              		.loc 1 1070 1 is_stmt 0 view .LVU135
 420 006e 10BD     		pop	{r4, pc}
 421              	.LVL18:
 422              	.L21:
 423              		.loc 1 1070 1 view .LVU136
 424              		.align	2
 425              	.L20:
 426 0070 00000000 		.word	GPTD6
 427 0074 00100240 		.word	1073876992
 428 0078 00000000 		.word	GPTD7
 429 007c 00000000 		.word	GPTD8
 430 0080 00000000 		.word	GPTD15
 431              		.cfi_endproc
 432              	.LFE333:
 434              		.section	.text.gpt_lld_start_timer,"ax",%progbits
 435              		.align	1
 436              		.global	gpt_lld_start_timer
 437              		.syntax unified
 438              		.thumb
 439              		.thumb_func
 441              	gpt_lld_start_timer:
 442              	.LVL19:
 443              	.LFB334:
1071:lib/chibios/os/hal/ports/STM32/LLD/TIMv1/hal_gpt_lld.c **** 
1072:lib/chibios/os/hal/ports/STM32/LLD/TIMv1/hal_gpt_lld.c **** /**
1073:lib/chibios/os/hal/ports/STM32/LLD/TIMv1/hal_gpt_lld.c ****  * @brief   Starts the timer in continuous mode.
1074:lib/chibios/os/hal/ports/STM32/LLD/TIMv1/hal_gpt_lld.c ****  *
1075:lib/chibios/os/hal/ports/STM32/LLD/TIMv1/hal_gpt_lld.c ****  * @param[in] gptp      pointer to the @p GPTDriver object
1076:lib/chibios/os/hal/ports/STM32/LLD/TIMv1/hal_gpt_lld.c ****  * @param[in] interval  period in ticks
1077:lib/chibios/os/hal/ports/STM32/LLD/TIMv1/hal_gpt_lld.c ****  *
1078:lib/chibios/os/hal/ports/STM32/LLD/TIMv1/hal_gpt_lld.c ****  * @notapi
1079:lib/chibios/os/hal/ports/STM32/LLD/TIMv1/hal_gpt_lld.c ****  */
1080:lib/chibios/os/hal/ports/STM32/LLD/TIMv1/hal_gpt_lld.c **** void gpt_lld_start_timer(GPTDriver *gptp, gptcnt_t interval) {
 444              		.loc 1 1080 62 is_stmt 1 view -0
 445              		.cfi_startproc
 446              		@ args = 0, pretend = 0, frame = 0
 447              		@ frame_needed = 0, uses_anonymous_args = 0
 448              		@ link register save eliminated.
1081:lib/chibios/os/hal/ports/STM32/LLD/TIMv1/hal_gpt_lld.c **** 
1082:lib/chibios/os/hal/ports/STM32/LLD/TIMv1/hal_gpt_lld.c ****   gptp->tim->ARR = (uint32_t)(interval - 1U);   /* Time constant.           */
 449              		.loc 1 1082 3 view .LVU138
 450              		.loc 1 1082 7 is_stmt 0 view .LVU139
 451 0000 C368     		ldr	r3, [r0, #12]
1083:lib/chibios/os/hal/ports/STM32/LLD/TIMv1/hal_gpt_lld.c ****   gptp->tim->EGR = STM32_TIM_EGR_UG;            /* Update event.            */
 452              		.loc 1 1083 18 view .LVU140
 453 0002 0122     		movs	r2, #1
1082:lib/chibios/os/hal/ports/STM32/LLD/TIMv1/hal_gpt_lld.c ****   gptp->tim->EGR = STM32_TIM_EGR_UG;            /* Update event.            */
 454              		.loc 1 1082 20 view .LVU141
 455 0004 0139     		subs	r1, r1, #1
 456              	.LVL20:
1082:lib/chibios/os/hal/ports/STM32/LLD/TIMv1/hal_gpt_lld.c ****   gptp->tim->EGR = STM32_TIM_EGR_UG;            /* Update event.            */
 457              		.loc 1 1082 18 view .LVU142
 458 0006 D962     		str	r1, [r3, #44]
 459              		.loc 1 1083 3 is_stmt 1 view .LVU143
 460              		.loc 1 1083 18 is_stmt 0 view .LVU144
 461 0008 5A61     		str	r2, [r3, #20]
1084:lib/chibios/os/hal/ports/STM32/LLD/TIMv1/hal_gpt_lld.c ****   gptp->tim->CNT = 0;                           /* Reset counter.           */
 462              		.loc 1 1084 3 is_stmt 1 view .LVU145
 463              		.loc 1 1084 18 is_stmt 0 view .LVU146
 464 000a 0022     		movs	r2, #0
 465 000c 5A62     		str	r2, [r3, #36]
1085:lib/chibios/os/hal/ports/STM32/LLD/TIMv1/hal_gpt_lld.c **** 
1086:lib/chibios/os/hal/ports/STM32/LLD/TIMv1/hal_gpt_lld.c ****   /* NOTE: After generating the UG event it takes several clock cycles before
1087:lib/chibios/os/hal/ports/STM32/LLD/TIMv1/hal_gpt_lld.c ****      SR bit 0 goes to 1. This is why the clearing of CNT has been inserted
1088:lib/chibios/os/hal/ports/STM32/LLD/TIMv1/hal_gpt_lld.c ****      before the clearing of SR, to give it some time.*/
1089:lib/chibios/os/hal/ports/STM32/LLD/TIMv1/hal_gpt_lld.c ****   gptp->tim->SR = 0;                            /* Clear pending IRQs.      */
 466              		.loc 1 1089 3 is_stmt 1 view .LVU147
 467              		.loc 1 1089 17 is_stmt 0 view .LVU148
 468 000e 1A61     		str	r2, [r3, #16]
1090:lib/chibios/os/hal/ports/STM32/LLD/TIMv1/hal_gpt_lld.c ****   if (NULL != gptp->config->callback)
 469              		.loc 1 1090 3 is_stmt 1 view .LVU149
 470              		.loc 1 1090 27 is_stmt 0 view .LVU150
 471 0010 4268     		ldr	r2, [r0, #4]
 472              		.loc 1 1090 6 view .LVU151
 473 0012 5268     		ldr	r2, [r2, #4]
 474 0014 1AB1     		cbz	r2, .L23
1091:lib/chibios/os/hal/ports/STM32/LLD/TIMv1/hal_gpt_lld.c ****     gptp->tim->DIER |= STM32_TIM_DIER_UIE;      /* Update Event IRQ enabled.*/
 475              		.loc 1 1091 5 is_stmt 1 view .LVU152
 476              		.loc 1 1091 14 is_stmt 0 view .LVU153
 477 0016 DA68     		ldr	r2, [r3, #12]
 478              		.loc 1 1091 21 view .LVU154
 479 0018 42F00102 		orr	r2, r2, #1
 480 001c DA60     		str	r2, [r3, #12]
 481              	.L23:
1092:lib/chibios/os/hal/ports/STM32/LLD/TIMv1/hal_gpt_lld.c ****   gptp->tim->CR1 = STM32_TIM_CR1_ARPE | STM32_TIM_CR1_URS | STM32_TIM_CR1_CEN;
 482              		.loc 1 1092 3 is_stmt 1 view .LVU155
 483              		.loc 1 1092 18 is_stmt 0 view .LVU156
 484 001e 8522     		movs	r2, #133
 485 0020 1A60     		str	r2, [r3]
1093:lib/chibios/os/hal/ports/STM32/LLD/TIMv1/hal_gpt_lld.c **** }
 486              		.loc 1 1093 1 view .LVU157
 487 0022 7047     		bx	lr
 488              		.cfi_endproc
 489              	.LFE334:
 491              		.section	.text.gpt_lld_stop_timer,"ax",%progbits
 492              		.align	1
 493              		.global	gpt_lld_stop_timer
 494              		.syntax unified
 495              		.thumb
 496              		.thumb_func
 498              	gpt_lld_stop_timer:
 499              	.LVL21:
 500              	.LFB335:
1094:lib/chibios/os/hal/ports/STM32/LLD/TIMv1/hal_gpt_lld.c **** 
1095:lib/chibios/os/hal/ports/STM32/LLD/TIMv1/hal_gpt_lld.c **** /**
1096:lib/chibios/os/hal/ports/STM32/LLD/TIMv1/hal_gpt_lld.c ****  * @brief   Stops the timer.
1097:lib/chibios/os/hal/ports/STM32/LLD/TIMv1/hal_gpt_lld.c ****  *
1098:lib/chibios/os/hal/ports/STM32/LLD/TIMv1/hal_gpt_lld.c ****  * @param[in] gptp      pointer to the @p GPTDriver object
1099:lib/chibios/os/hal/ports/STM32/LLD/TIMv1/hal_gpt_lld.c ****  *
1100:lib/chibios/os/hal/ports/STM32/LLD/TIMv1/hal_gpt_lld.c ****  * @notapi
1101:lib/chibios/os/hal/ports/STM32/LLD/TIMv1/hal_gpt_lld.c ****  */
1102:lib/chibios/os/hal/ports/STM32/LLD/TIMv1/hal_gpt_lld.c **** void gpt_lld_stop_timer(GPTDriver *gptp) {
 501              		.loc 1 1102 42 is_stmt 1 view -0
 502              		.cfi_startproc
 503              		@ args = 0, pretend = 0, frame = 0
 504              		@ frame_needed = 0, uses_anonymous_args = 0
 505              		@ link register save eliminated.
1103:lib/chibios/os/hal/ports/STM32/LLD/TIMv1/hal_gpt_lld.c **** 
1104:lib/chibios/os/hal/ports/STM32/LLD/TIMv1/hal_gpt_lld.c ****   gptp->tim->CR1 = 0;                           /* Initially stopped.       */
 506              		.loc 1 1104 3 view .LVU159
 507              		.loc 1 1104 7 is_stmt 0 view .LVU160
 508 0000 C368     		ldr	r3, [r0, #12]
 509              		.loc 1 1104 18 view .LVU161
 510 0002 0022     		movs	r2, #0
 511 0004 1A60     		str	r2, [r3]
1105:lib/chibios/os/hal/ports/STM32/LLD/TIMv1/hal_gpt_lld.c ****   gptp->tim->SR = 0;                            /* Clear pending IRQs.      */
 512              		.loc 1 1105 3 is_stmt 1 view .LVU162
 513              		.loc 1 1105 17 is_stmt 0 view .LVU163
 514 0006 1A61     		str	r2, [r3, #16]
1106:lib/chibios/os/hal/ports/STM32/LLD/TIMv1/hal_gpt_lld.c **** 
1107:lib/chibios/os/hal/ports/STM32/LLD/TIMv1/hal_gpt_lld.c ****   /* All interrupts disabled.*/
1108:lib/chibios/os/hal/ports/STM32/LLD/TIMv1/hal_gpt_lld.c ****   gptp->tim->DIER &= ~STM32_TIM_DIER_IRQ_MASK;
 515              		.loc 1 1108 3 is_stmt 1 view .LVU164
 516              		.loc 1 1108 12 is_stmt 0 view .LVU165
 517 0008 DA68     		ldr	r2, [r3, #12]
 518              		.loc 1 1108 19 view .LVU166
 519 000a 22F0FF02 		bic	r2, r2, #255
 520 000e DA60     		str	r2, [r3, #12]
1109:lib/chibios/os/hal/ports/STM32/LLD/TIMv1/hal_gpt_lld.c **** }
 521              		.loc 1 1109 1 view .LVU167
 522 0010 7047     		bx	lr
 523              		.cfi_endproc
 524              	.LFE335:
 526              		.section	.text.gpt_lld_polled_delay,"ax",%progbits
 527              		.align	1
 528              		.global	gpt_lld_polled_delay
 529              		.syntax unified
 530              		.thumb
 531              		.thumb_func
 533              	gpt_lld_polled_delay:
 534              	.LVL22:
 535              	.LFB336:
1110:lib/chibios/os/hal/ports/STM32/LLD/TIMv1/hal_gpt_lld.c **** 
1111:lib/chibios/os/hal/ports/STM32/LLD/TIMv1/hal_gpt_lld.c **** /**
1112:lib/chibios/os/hal/ports/STM32/LLD/TIMv1/hal_gpt_lld.c ****  * @brief   Starts the timer in one shot mode and waits for completion.
1113:lib/chibios/os/hal/ports/STM32/LLD/TIMv1/hal_gpt_lld.c ****  * @details This function specifically polls the timer waiting for completion
1114:lib/chibios/os/hal/ports/STM32/LLD/TIMv1/hal_gpt_lld.c ****  *          in order to not have extra delays caused by interrupt servicing,
1115:lib/chibios/os/hal/ports/STM32/LLD/TIMv1/hal_gpt_lld.c ****  *          this function is only recommended for short delays.
1116:lib/chibios/os/hal/ports/STM32/LLD/TIMv1/hal_gpt_lld.c ****  *
1117:lib/chibios/os/hal/ports/STM32/LLD/TIMv1/hal_gpt_lld.c ****  * @param[in] gptp      pointer to the @p GPTDriver object
1118:lib/chibios/os/hal/ports/STM32/LLD/TIMv1/hal_gpt_lld.c ****  * @param[in] interval  time interval in ticks
1119:lib/chibios/os/hal/ports/STM32/LLD/TIMv1/hal_gpt_lld.c ****  *
1120:lib/chibios/os/hal/ports/STM32/LLD/TIMv1/hal_gpt_lld.c ****  * @notapi
1121:lib/chibios/os/hal/ports/STM32/LLD/TIMv1/hal_gpt_lld.c ****  */
1122:lib/chibios/os/hal/ports/STM32/LLD/TIMv1/hal_gpt_lld.c **** void gpt_lld_polled_delay(GPTDriver *gptp, gptcnt_t interval) {
 536              		.loc 1 1122 63 is_stmt 1 view -0
 537              		.cfi_startproc
 538              		@ args = 0, pretend = 0, frame = 0
 539              		@ frame_needed = 0, uses_anonymous_args = 0
 540              		@ link register save eliminated.
1123:lib/chibios/os/hal/ports/STM32/LLD/TIMv1/hal_gpt_lld.c **** 
1124:lib/chibios/os/hal/ports/STM32/LLD/TIMv1/hal_gpt_lld.c ****   gptp->tim->ARR = (uint32_t)(interval - 1U);   /* Time constant.           */
 541              		.loc 1 1124 3 view .LVU169
 542              		.loc 1 1124 7 is_stmt 0 view .LVU170
 543 0000 C368     		ldr	r3, [r0, #12]
1125:lib/chibios/os/hal/ports/STM32/LLD/TIMv1/hal_gpt_lld.c ****   gptp->tim->EGR = STM32_TIM_EGR_UG;            /* Update event.            */
 544              		.loc 1 1125 18 view .LVU171
 545 0002 0122     		movs	r2, #1
1124:lib/chibios/os/hal/ports/STM32/LLD/TIMv1/hal_gpt_lld.c ****   gptp->tim->EGR = STM32_TIM_EGR_UG;            /* Update event.            */
 546              		.loc 1 1124 20 view .LVU172
 547 0004 0139     		subs	r1, r1, #1
 548              	.LVL23:
1124:lib/chibios/os/hal/ports/STM32/LLD/TIMv1/hal_gpt_lld.c ****   gptp->tim->EGR = STM32_TIM_EGR_UG;            /* Update event.            */
 549              		.loc 1 1124 18 view .LVU173
 550 0006 D962     		str	r1, [r3, #44]
 551              		.loc 1 1125 3 is_stmt 1 view .LVU174
 552              		.loc 1 1125 18 is_stmt 0 view .LVU175
 553 0008 5A61     		str	r2, [r3, #20]
1126:lib/chibios/os/hal/ports/STM32/LLD/TIMv1/hal_gpt_lld.c ****   gptp->tim->SR  = 0;                           /* Clear pending IRQs.      */
 554              		.loc 1 1126 3 is_stmt 1 view .LVU176
 555              		.loc 1 1126 18 is_stmt 0 view .LVU177
 556 000a 0022     		movs	r2, #0
 557 000c 1A61     		str	r2, [r3, #16]
1127:lib/chibios/os/hal/ports/STM32/LLD/TIMv1/hal_gpt_lld.c ****   gptp->tim->CR1 = STM32_TIM_CR1_OPM | STM32_TIM_CR1_URS | STM32_TIM_CR1_CEN;
 558              		.loc 1 1127 3 is_stmt 1 view .LVU178
 559              		.loc 1 1127 18 is_stmt 0 view .LVU179
 560 000e 0D22     		movs	r2, #13
 561 0010 1A60     		str	r2, [r3]
1128:lib/chibios/os/hal/ports/STM32/LLD/TIMv1/hal_gpt_lld.c ****   while (!(gptp->tim->SR & STM32_TIM_SR_UIF))
 562              		.loc 1 1128 3 is_stmt 1 view .LVU180
 563              	.L29:
 564              		.loc 1 1128 10 discriminator 1 view .LVU181
 565              		.loc 1 1128 21 is_stmt 0 discriminator 1 view .LVU182
 566 0012 1A69     		ldr	r2, [r3, #16]
 567              		.loc 1 1128 10 discriminator 1 view .LVU183
 568 0014 D207     		lsls	r2, r2, #31
 569 0016 FCD5     		bpl	.L29
1129:lib/chibios/os/hal/ports/STM32/LLD/TIMv1/hal_gpt_lld.c ****     ;
1130:lib/chibios/os/hal/ports/STM32/LLD/TIMv1/hal_gpt_lld.c ****   gptp->tim->SR = 0;                            /* Clear pending IRQs.      */
 570              		.loc 1 1130 3 is_stmt 1 view .LVU184
 571              		.loc 1 1130 17 is_stmt 0 view .LVU185
 572 0018 0022     		movs	r2, #0
 573 001a 1A61     		str	r2, [r3, #16]
1131:lib/chibios/os/hal/ports/STM32/LLD/TIMv1/hal_gpt_lld.c **** }
 574              		.loc 1 1131 1 view .LVU186
 575 001c 7047     		bx	lr
 576              		.cfi_endproc
 577              	.LFE336:
 579              		.section	.text.gpt_lld_serve_interrupt,"ax",%progbits
 580              		.align	1
 581              		.global	gpt_lld_serve_interrupt
 582              		.syntax unified
 583              		.thumb
 584              		.thumb_func
 586              	gpt_lld_serve_interrupt:
 587              	.LVL24:
 588              	.LFB337:
1132:lib/chibios/os/hal/ports/STM32/LLD/TIMv1/hal_gpt_lld.c **** 
1133:lib/chibios/os/hal/ports/STM32/LLD/TIMv1/hal_gpt_lld.c **** /**
1134:lib/chibios/os/hal/ports/STM32/LLD/TIMv1/hal_gpt_lld.c ****  * @brief   Shared IRQ handler.
1135:lib/chibios/os/hal/ports/STM32/LLD/TIMv1/hal_gpt_lld.c ****  *
1136:lib/chibios/os/hal/ports/STM32/LLD/TIMv1/hal_gpt_lld.c ****  * @param[in] gptp      pointer to a @p GPTDriver object
1137:lib/chibios/os/hal/ports/STM32/LLD/TIMv1/hal_gpt_lld.c ****  *
1138:lib/chibios/os/hal/ports/STM32/LLD/TIMv1/hal_gpt_lld.c ****  * @notapi
1139:lib/chibios/os/hal/ports/STM32/LLD/TIMv1/hal_gpt_lld.c ****  */
1140:lib/chibios/os/hal/ports/STM32/LLD/TIMv1/hal_gpt_lld.c **** void gpt_lld_serve_interrupt(GPTDriver *gptp) {
 589              		.loc 1 1140 47 is_stmt 1 view -0
 590              		.cfi_startproc
 591              		@ args = 0, pretend = 0, frame = 0
 592              		@ frame_needed = 0, uses_anonymous_args = 0
1141:lib/chibios/os/hal/ports/STM32/LLD/TIMv1/hal_gpt_lld.c ****   uint32_t sr;
 593              		.loc 1 1141 3 view .LVU188
1142:lib/chibios/os/hal/ports/STM32/LLD/TIMv1/hal_gpt_lld.c **** 
1143:lib/chibios/os/hal/ports/STM32/LLD/TIMv1/hal_gpt_lld.c ****   sr  = gptp->tim->SR;
 594              		.loc 1 1143 3 view .LVU189
 595              		.loc 1 1143 13 is_stmt 0 view .LVU190
 596 0000 C268     		ldr	r2, [r0, #12]
1140:lib/chibios/os/hal/ports/STM32/LLD/TIMv1/hal_gpt_lld.c ****   uint32_t sr;
 597              		.loc 1 1140 47 view .LVU191
 598 0002 10B5     		push	{r4, lr}
 599              		.cfi_def_cfa_offset 8
 600              		.cfi_offset 4, -8
 601              		.cfi_offset 14, -4
 602              		.loc 1 1143 7 view .LVU192
 603 0004 1469     		ldr	r4, [r2, #16]
 604              	.LVL25:
1144:lib/chibios/os/hal/ports/STM32/LLD/TIMv1/hal_gpt_lld.c ****   sr &= gptp->tim->DIER & STM32_TIM_DIER_IRQ_MASK;
 605              		.loc 1 1144 3 is_stmt 1 view .LVU193
 606              		.loc 1 1144 18 is_stmt 0 view .LVU194
 607 0006 D368     		ldr	r3, [r2, #12]
 608 0008 2340     		ands	r3, r3, r4
 609              	.LVL26:
1145:lib/chibios/os/hal/ports/STM32/LLD/TIMv1/hal_gpt_lld.c ****   gptp->tim->SR = ~sr;
 610              		.loc 1 1145 3 is_stmt 1 view .LVU195
1144:lib/chibios/os/hal/ports/STM32/LLD/TIMv1/hal_gpt_lld.c ****   sr &= gptp->tim->DIER & STM32_TIM_DIER_IRQ_MASK;
 611              		.loc 1 1144 6 is_stmt 0 view .LVU196
 612 000a DCB2     		uxtb	r4, r3
 613              		.loc 1 1145 19 view .LVU197
 614 000c E443     		mvns	r4, r4
1146:lib/chibios/os/hal/ports/STM32/LLD/TIMv1/hal_gpt_lld.c ****   if ((sr & STM32_TIM_SR_UIF) != 0) {
 615              		.loc 1 1146 6 view .LVU198
 616 000e DB07     		lsls	r3, r3, #31
 617              	.LVL27:
1140:lib/chibios/os/hal/ports/STM32/LLD/TIMv1/hal_gpt_lld.c ****   uint32_t sr;
 618              		.loc 1 1140 47 view .LVU199
 619 0010 0146     		mov	r1, r0
1145:lib/chibios/os/hal/ports/STM32/LLD/TIMv1/hal_gpt_lld.c ****   gptp->tim->SR = ~sr;
 620              		.loc 1 1145 17 view .LVU200
 621 0012 1461     		str	r4, [r2, #16]
 622              		.loc 1 1146 3 is_stmt 1 view .LVU201
 623              		.loc 1 1146 6 is_stmt 0 view .LVU202
 624 0014 0DD5     		bpl	.L32
 625              	.LVL28:
 626              	.LBB4:
 627              	.LBI4:
1140:lib/chibios/os/hal/ports/STM32/LLD/TIMv1/hal_gpt_lld.c ****   uint32_t sr;
 628              		.loc 1 1140 6 is_stmt 1 view .LVU203
 629              	.LBB5:
1147:lib/chibios/os/hal/ports/STM32/LLD/TIMv1/hal_gpt_lld.c ****     _gpt_isr_invoke_cb(gptp);
 630              		.loc 1 1147 5 view .LVU204
 631              		.loc 1 1147 5 view .LVU205
 632 0016 0378     		ldrb	r3, [r0]	@ zero_extendqisi2
 633 0018 042B     		cmp	r3, #4
 634 001a 03D1     		bne	.L35
 635              		.loc 1 1147 5 view .LVU206
 636 001c 0223     		movs	r3, #2
 637 001e 0370     		strb	r3, [r0]
 638              		.loc 1 1147 5 view .LVU207
 639 0020 FFF7FEFF 		bl	gpt_lld_stop_timer
 640              	.LVL29:
 641              	.L35:
 642              		.loc 1 1147 5 view .LVU208
 643 0024 4B68     		ldr	r3, [r1, #4]
 644 0026 5B68     		ldr	r3, [r3, #4]
 645 0028 1BB1     		cbz	r3, .L32
 646              		.loc 1 1147 5 view .LVU209
 647              	.LBE5:
 648              	.LBE4:
1148:lib/chibios/os/hal/ports/STM32/LLD/TIMv1/hal_gpt_lld.c ****   }
1149:lib/chibios/os/hal/ports/STM32/LLD/TIMv1/hal_gpt_lld.c **** }
 649              		.loc 1 1149 1 is_stmt 0 view .LVU210
 650 002a BDE81040 		pop	{r4, lr}
 651              		.cfi_remember_state
 652              		.cfi_restore 14
 653              		.cfi_restore 4
 654              		.cfi_def_cfa_offset 0
 655              	.LBB7:
 656              	.LBB6:
1147:lib/chibios/os/hal/ports/STM32/LLD/TIMv1/hal_gpt_lld.c ****     _gpt_isr_invoke_cb(gptp);
 657              		.loc 1 1147 5 view .LVU211
 658 002e 0846     		mov	r0, r1
 659              	.LVL30:
1147:lib/chibios/os/hal/ports/STM32/LLD/TIMv1/hal_gpt_lld.c ****     _gpt_isr_invoke_cb(gptp);
 660              		.loc 1 1147 5 view .LVU212
 661 0030 1847     		bx	r3	@ indirect register sibling call
 662              	.LVL31:
 663              	.L32:
 664              		.cfi_restore_state
1147:lib/chibios/os/hal/ports/STM32/LLD/TIMv1/hal_gpt_lld.c ****     _gpt_isr_invoke_cb(gptp);
 665              		.loc 1 1147 5 view .LVU213
 666              	.LBE6:
 667              	.LBE7:
 668              		.loc 1 1149 1 view .LVU214
 669 0032 10BD     		pop	{r4, pc}
 670              		.cfi_endproc
 671              	.LFE337:
 673              		.section	.text.Vector118,"ax",%progbits
 674              		.align	1
 675              		.global	Vector118
 676              		.syntax unified
 677              		.thumb
 678              		.thumb_func
 680              	Vector118:
 681              	.LFB328:
 316:lib/chibios/os/hal/ports/STM32/LLD/TIMv1/hal_gpt_lld.c **** 
 682              		.loc 1 316 38 is_stmt 1 view -0
 683              		.cfi_startproc
 684              		@ args = 0, pretend = 0, frame = 0
 685              		@ frame_needed = 0, uses_anonymous_args = 0
 318:lib/chibios/os/hal/ports/STM32/LLD/TIMv1/hal_gpt_lld.c **** 
 686              		.loc 1 318 3 view .LVU216
 318:lib/chibios/os/hal/ports/STM32/LLD/TIMv1/hal_gpt_lld.c **** 
 687              		.loc 1 318 3 view .LVU217
 318:lib/chibios/os/hal/ports/STM32/LLD/TIMv1/hal_gpt_lld.c **** 
 688              		.loc 1 318 3 view .LVU218
 318:lib/chibios/os/hal/ports/STM32/LLD/TIMv1/hal_gpt_lld.c **** 
 689              		.loc 1 318 3 view .LVU219
 318:lib/chibios/os/hal/ports/STM32/LLD/TIMv1/hal_gpt_lld.c **** 
 690              		.loc 1 318 3 view .LVU220
 318:lib/chibios/os/hal/ports/STM32/LLD/TIMv1/hal_gpt_lld.c **** 
 691              		.loc 1 318 22 view .LVU221
 320:lib/chibios/os/hal/ports/STM32/LLD/TIMv1/hal_gpt_lld.c **** 
 692              		.loc 1 320 3 view .LVU222
 316:lib/chibios/os/hal/ports/STM32/LLD/TIMv1/hal_gpt_lld.c **** 
 693              		.loc 1 316 38 is_stmt 0 view .LVU223
 694 0000 08B5     		push	{r3, lr}
 695              		.cfi_def_cfa_offset 8
 696              		.cfi_offset 3, -8
 697              		.cfi_offset 14, -4
 320:lib/chibios/os/hal/ports/STM32/LLD/TIMv1/hal_gpt_lld.c **** 
 698              		.loc 1 320 3 view .LVU224
 699 0002 0348     		ldr	r0, .L41
 700 0004 FFF7FEFF 		bl	gpt_lld_serve_interrupt
 701              	.LVL32:
 322:lib/chibios/os/hal/ports/STM32/LLD/TIMv1/hal_gpt_lld.c **** }
 702              		.loc 1 322 3 is_stmt 1 view .LVU225
 322:lib/chibios/os/hal/ports/STM32/LLD/TIMv1/hal_gpt_lld.c **** }
 703              		.loc 1 322 3 view .LVU226
 322:lib/chibios/os/hal/ports/STM32/LLD/TIMv1/hal_gpt_lld.c **** }
 704              		.loc 1 322 3 view .LVU227
 322:lib/chibios/os/hal/ports/STM32/LLD/TIMv1/hal_gpt_lld.c **** }
 705              		.loc 1 322 3 view .LVU228
 322:lib/chibios/os/hal/ports/STM32/LLD/TIMv1/hal_gpt_lld.c **** }
 706              		.loc 1 322 3 view .LVU229
 323:lib/chibios/os/hal/ports/STM32/LLD/TIMv1/hal_gpt_lld.c **** #endif /* !defined(STM32_TIM6_SUPPRESS_ISR) */
 707              		.loc 1 323 1 is_stmt 0 view .LVU230
 708 0008 BDE80840 		pop	{r3, lr}
 709              		.cfi_restore 14
 710              		.cfi_restore 3
 711              		.cfi_def_cfa_offset 0
 322:lib/chibios/os/hal/ports/STM32/LLD/TIMv1/hal_gpt_lld.c **** }
 712              		.loc 1 322 3 view .LVU231
 713 000c FFF7FEBF 		b	_port_irq_epilogue
 714              	.LVL33:
 715              	.L42:
 716              		.align	2
 717              	.L41:
 718 0010 00000000 		.word	GPTD6
 719              		.cfi_endproc
 720              	.LFE328:
 722              		.section	.text.Vector11C,"ax",%progbits
 723              		.align	1
 724              		.global	Vector11C
 725              		.syntax unified
 726              		.thumb
 727              		.thumb_func
 729              	Vector11C:
 730              	.LFB329:
 337:lib/chibios/os/hal/ports/STM32/LLD/TIMv1/hal_gpt_lld.c **** 
 731              		.loc 1 337 38 is_stmt 1 view -0
 732              		.cfi_startproc
 733              		@ args = 0, pretend = 0, frame = 0
 734              		@ frame_needed = 0, uses_anonymous_args = 0
 339:lib/chibios/os/hal/ports/STM32/LLD/TIMv1/hal_gpt_lld.c **** 
 735              		.loc 1 339 3 view .LVU233
 339:lib/chibios/os/hal/ports/STM32/LLD/TIMv1/hal_gpt_lld.c **** 
 736              		.loc 1 339 3 view .LVU234
 339:lib/chibios/os/hal/ports/STM32/LLD/TIMv1/hal_gpt_lld.c **** 
 737              		.loc 1 339 3 view .LVU235
 339:lib/chibios/os/hal/ports/STM32/LLD/TIMv1/hal_gpt_lld.c **** 
 738              		.loc 1 339 3 view .LVU236
 339:lib/chibios/os/hal/ports/STM32/LLD/TIMv1/hal_gpt_lld.c **** 
 739              		.loc 1 339 3 view .LVU237
 339:lib/chibios/os/hal/ports/STM32/LLD/TIMv1/hal_gpt_lld.c **** 
 740              		.loc 1 339 22 view .LVU238
 341:lib/chibios/os/hal/ports/STM32/LLD/TIMv1/hal_gpt_lld.c **** 
 741              		.loc 1 341 3 view .LVU239
 337:lib/chibios/os/hal/ports/STM32/LLD/TIMv1/hal_gpt_lld.c **** 
 742              		.loc 1 337 38 is_stmt 0 view .LVU240
 743 0000 08B5     		push	{r3, lr}
 744              		.cfi_def_cfa_offset 8
 745              		.cfi_offset 3, -8
 746              		.cfi_offset 14, -4
 341:lib/chibios/os/hal/ports/STM32/LLD/TIMv1/hal_gpt_lld.c **** 
 747              		.loc 1 341 3 view .LVU241
 748 0002 0348     		ldr	r0, .L44
 749 0004 FFF7FEFF 		bl	gpt_lld_serve_interrupt
 750              	.LVL34:
 343:lib/chibios/os/hal/ports/STM32/LLD/TIMv1/hal_gpt_lld.c **** }
 751              		.loc 1 343 3 is_stmt 1 view .LVU242
 343:lib/chibios/os/hal/ports/STM32/LLD/TIMv1/hal_gpt_lld.c **** }
 752              		.loc 1 343 3 view .LVU243
 343:lib/chibios/os/hal/ports/STM32/LLD/TIMv1/hal_gpt_lld.c **** }
 753              		.loc 1 343 3 view .LVU244
 343:lib/chibios/os/hal/ports/STM32/LLD/TIMv1/hal_gpt_lld.c **** }
 754              		.loc 1 343 3 view .LVU245
 343:lib/chibios/os/hal/ports/STM32/LLD/TIMv1/hal_gpt_lld.c **** }
 755              		.loc 1 343 3 view .LVU246
 344:lib/chibios/os/hal/ports/STM32/LLD/TIMv1/hal_gpt_lld.c **** #endif /* !defined(STM32_TIM7_SUPPRESS_ISR) */
 756              		.loc 1 344 1 is_stmt 0 view .LVU247
 757 0008 BDE80840 		pop	{r3, lr}
 758              		.cfi_restore 14
 759              		.cfi_restore 3
 760              		.cfi_def_cfa_offset 0
 343:lib/chibios/os/hal/ports/STM32/LLD/TIMv1/hal_gpt_lld.c **** }
 761              		.loc 1 343 3 view .LVU248
 762 000c FFF7FEBF 		b	_port_irq_epilogue
 763              	.LVL35:
 764              	.L45:
 765              		.align	2
 766              	.L44:
 767 0010 00000000 		.word	GPTD7
 768              		.cfi_endproc
 769              	.LFE329:
 771              		.section	.text.VectorF0,"ax",%progbits
 772              		.align	1
 773              		.global	VectorF0
 774              		.syntax unified
 775              		.thumb
 776              		.thumb_func
 778              	VectorF0:
 779              	.LFB330:
 358:lib/chibios/os/hal/ports/STM32/LLD/TIMv1/hal_gpt_lld.c **** 
 780              		.loc 1 358 41 is_stmt 1 view -0
 781              		.cfi_startproc
 782              		@ args = 0, pretend = 0, frame = 0
 783              		@ frame_needed = 0, uses_anonymous_args = 0
 360:lib/chibios/os/hal/ports/STM32/LLD/TIMv1/hal_gpt_lld.c **** 
 784              		.loc 1 360 3 view .LVU250
 360:lib/chibios/os/hal/ports/STM32/LLD/TIMv1/hal_gpt_lld.c **** 
 785              		.loc 1 360 3 view .LVU251
 360:lib/chibios/os/hal/ports/STM32/LLD/TIMv1/hal_gpt_lld.c **** 
 786              		.loc 1 360 3 view .LVU252
 360:lib/chibios/os/hal/ports/STM32/LLD/TIMv1/hal_gpt_lld.c **** 
 787              		.loc 1 360 3 view .LVU253
 360:lib/chibios/os/hal/ports/STM32/LLD/TIMv1/hal_gpt_lld.c **** 
 788              		.loc 1 360 3 view .LVU254
 360:lib/chibios/os/hal/ports/STM32/LLD/TIMv1/hal_gpt_lld.c **** 
 789              		.loc 1 360 22 view .LVU255
 362:lib/chibios/os/hal/ports/STM32/LLD/TIMv1/hal_gpt_lld.c **** 
 790              		.loc 1 362 3 view .LVU256
 358:lib/chibios/os/hal/ports/STM32/LLD/TIMv1/hal_gpt_lld.c **** 
 791              		.loc 1 358 41 is_stmt 0 view .LVU257
 792 0000 08B5     		push	{r3, lr}
 793              		.cfi_def_cfa_offset 8
 794              		.cfi_offset 3, -8
 795              		.cfi_offset 14, -4
 362:lib/chibios/os/hal/ports/STM32/LLD/TIMv1/hal_gpt_lld.c **** 
 796              		.loc 1 362 3 view .LVU258
 797 0002 0348     		ldr	r0, .L47
 798 0004 FFF7FEFF 		bl	gpt_lld_serve_interrupt
 799              	.LVL36:
 364:lib/chibios/os/hal/ports/STM32/LLD/TIMv1/hal_gpt_lld.c **** }
 800              		.loc 1 364 3 is_stmt 1 view .LVU259
 364:lib/chibios/os/hal/ports/STM32/LLD/TIMv1/hal_gpt_lld.c **** }
 801              		.loc 1 364 3 view .LVU260
 364:lib/chibios/os/hal/ports/STM32/LLD/TIMv1/hal_gpt_lld.c **** }
 802              		.loc 1 364 3 view .LVU261
 364:lib/chibios/os/hal/ports/STM32/LLD/TIMv1/hal_gpt_lld.c **** }
 803              		.loc 1 364 3 view .LVU262
 364:lib/chibios/os/hal/ports/STM32/LLD/TIMv1/hal_gpt_lld.c **** }
 804              		.loc 1 364 3 view .LVU263
 365:lib/chibios/os/hal/ports/STM32/LLD/TIMv1/hal_gpt_lld.c **** #endif /* !defined(STM32_TIM8_SUPPRESS_ISR) */
 805              		.loc 1 365 1 is_stmt 0 view .LVU264
 806 0008 BDE80840 		pop	{r3, lr}
 807              		.cfi_restore 14
 808              		.cfi_restore 3
 809              		.cfi_def_cfa_offset 0
 364:lib/chibios/os/hal/ports/STM32/LLD/TIMv1/hal_gpt_lld.c **** }
 810              		.loc 1 364 3 view .LVU265
 811 000c FFF7FEBF 		b	_port_irq_epilogue
 812              	.LVL37:
 813              	.L48:
 814              		.align	2
 815              	.L47:
 816 0010 00000000 		.word	GPTD8
 817              		.cfi_endproc
 818              	.LFE330:
 820              		.comm	GPTD15,16,4
 821              		.comm	GPTD8,16,4
 822              		.comm	GPTD7,16,4
 823              		.comm	GPTD6,16,4
 824              		.text
 825              	.Letext0:
 826              		.file 2 "/usr/lib/gcc/arm-none-eabi/12.2.0/include/stddef.h"
 827              		.file 3 "/usr/arm-none-eabi/include/machine/_default_types.h"
 828              		.file 4 "/usr/arm-none-eabi/include/sys/_stdint.h"
 829              		.file 5 "./lib/chibios/os/common/ext/ST/STM32F3xx/stm32f303xc.h"
 830              		.file 6 "./lib/chibios/os/hal/ports/STM32/LLD/TIMv1/stm32_tim.h"
 831              		.file 7 "./lib/chibios/os/hal/include/hal_gpt.h"
 832              		.file 8 "./lib/chibios/os/hal/ports/STM32/LLD/TIMv1/hal_gpt_lld.h"
 833              		.file 9 "./lib/chibios/os/hal/ports/common/ARMCMx/nvic.h"
 834              		.file 10 "./lib/chibios/os/common/ports/ARMCMx/chcore_v7m.h"