   1              		.cpu cortex-m4
   2              		.eabi_attribute 27, 1
   3              		.eabi_attribute 28, 1
   4              		.eabi_attribute 20, 1
   5              		.eabi_attribute 21, 1
   6              		.eabi_attribute 23, 3
   7              		.eabi_attribute 24, 1
   8              		.eabi_attribute 25, 1
   9              		.eabi_attribute 26, 1
  10              		.eabi_attribute 30, 4
  11              		.eabi_attribute 34, 1
  12              		.eabi_attribute 18, 2
  13              		.file	"keymap.c"
  14              		.text
  15              	.Ltext0:
  16              		.cfi_sections	.debug_frame
  17              		.section	.text.layer_state_set_user,"ax",%progbits
  18              		.align	1
  19              		.global	layer_state_set_user
  20              		.arch armv7e-m
  21              		.syntax unified
  22              		.thumb
  23              		.thumb_func
  24              		.fpu fpv4-sp-d16
  26              	layer_state_set_user:
  27              	.LVL0:
  28              	.LFB341:
  29              		.file 1 "keyboards/planck/keymaps/LohseBoi/keymap.c"
   1:keyboards/planck/keymaps/LohseBoi/keymap.c **** /* Copyright 2015-2021 Jack Humbert
   2:keyboards/planck/keymaps/LohseBoi/keymap.c ****  *
   3:keyboards/planck/keymaps/LohseBoi/keymap.c ****  * This program is free software: you can redistribute it and/or modify
   4:keyboards/planck/keymaps/LohseBoi/keymap.c ****  * it under the terms of the GNU General Public License as published by
   5:keyboards/planck/keymaps/LohseBoi/keymap.c ****  * the Free Software Foundation, either version 2 of the License, or
   6:keyboards/planck/keymaps/LohseBoi/keymap.c ****  * (at your option) any later version.
   7:keyboards/planck/keymaps/LohseBoi/keymap.c ****  *
   8:keyboards/planck/keymaps/LohseBoi/keymap.c ****  * This program is distributed in the hope that it will be useful,
   9:keyboards/planck/keymaps/LohseBoi/keymap.c ****  * but WITHOUT ANY WARRANTY; without even the implied warranty of
  10:keyboards/planck/keymaps/LohseBoi/keymap.c ****  * MERCHANTABILITY or FITNESS FOR A PARTICULAR PURPOSE.  See the
  11:keyboards/planck/keymaps/LohseBoi/keymap.c ****  * GNU General Public License for more details.
  12:keyboards/planck/keymaps/LohseBoi/keymap.c ****  *
  13:keyboards/planck/keymaps/LohseBoi/keymap.c ****  * You should have received a copy of the GNU General Public License
  14:keyboards/planck/keymaps/LohseBoi/keymap.c ****  * along with this program.  If not, see <http://www.gnu.org/licenses/>.
  15:keyboards/planck/keymaps/LohseBoi/keymap.c ****  */
  16:keyboards/planck/keymaps/LohseBoi/keymap.c **** 
  17:keyboards/planck/keymaps/LohseBoi/keymap.c **** #include QMK_KEYBOARD_H
  18:keyboards/planck/keymaps/LohseBoi/keymap.c **** #include "muse.h"
  19:keyboards/planck/keymaps/LohseBoi/keymap.c **** 
  20:keyboards/planck/keymaps/LohseBoi/keymap.c **** //Lower hold/tap
  21:keyboards/planck/keymaps/LohseBoi/keymap.c **** uint16_t lwr_timer = 0;
  22:keyboards/planck/keymaps/LohseBoi/keymap.c **** bool lwr_tapped = false;
  23:keyboards/planck/keymaps/LohseBoi/keymap.c **** //Raise hold/tap
  24:keyboards/planck/keymaps/LohseBoi/keymap.c **** uint16_t rse_timer = 0;
  25:keyboards/planck/keymaps/LohseBoi/keymap.c **** bool rse_tapped = false;
  26:keyboards/planck/keymaps/LohseBoi/keymap.c **** 
  27:keyboards/planck/keymaps/LohseBoi/keymap.c **** //Shift/Caps
  28:keyboards/planck/keymaps/LohseBoi/keymap.c **** #define KC_SFTCL MT(MOD_LSFT, KC_CAPS)
  29:keyboards/planck/keymaps/LohseBoi/keymap.c **** 
  30:keyboards/planck/keymaps/LohseBoi/keymap.c **** //Alt+Tab
  31:keyboards/planck/keymaps/LohseBoi/keymap.c **** #define ALT_TAB KC_ALT_TAB
  32:keyboards/planck/keymaps/LohseBoi/keymap.c **** bool alttab_active = false;
  33:keyboards/planck/keymaps/LohseBoi/keymap.c **** 
  34:keyboards/planck/keymaps/LohseBoi/keymap.c **** //Media macro variables
  35:keyboards/planck/keymaps/LohseBoi/keymap.c **** const uint16_t media_time = 750;
  36:keyboards/planck/keymaps/LohseBoi/keymap.c **** bool is_media_active = false;
  37:keyboards/planck/keymaps/LohseBoi/keymap.c **** uint16_t media_timer = 0;
  38:keyboards/planck/keymaps/LohseBoi/keymap.c **** uint8_t media_counter = 0;
  39:keyboards/planck/keymaps/LohseBoi/keymap.c **** 
  40:keyboards/planck/keymaps/LohseBoi/keymap.c **** enum planck_layers {
  41:keyboards/planck/keymaps/LohseBoi/keymap.c ****   _QWERTY,
  42:keyboards/planck/keymaps/LohseBoi/keymap.c ****   _LOWER,
  43:keyboards/planck/keymaps/LohseBoi/keymap.c ****   _RAISE,
  44:keyboards/planck/keymaps/LohseBoi/keymap.c ****   _ADJUST
  45:keyboards/planck/keymaps/LohseBoi/keymap.c **** };
  46:keyboards/planck/keymaps/LohseBoi/keymap.c **** 
  47:keyboards/planck/keymaps/LohseBoi/keymap.c **** enum planck_keycodes {
  48:keyboards/planck/keymaps/LohseBoi/keymap.c ****   QWERTY = SAFE_RANGE,
  49:keyboards/planck/keymaps/LohseBoi/keymap.c ****   BACKLIT,
  50:keyboards/planck/keymaps/LohseBoi/keymap.c ****   EXT_PLV,
  51:keyboards/planck/keymaps/LohseBoi/keymap.c **** 
  52:keyboards/planck/keymaps/LohseBoi/keymap.c ****   //Homemade Keys
  53:keyboards/planck/keymaps/LohseBoi/keymap.c ****   KC_HLWR,
  54:keyboards/planck/keymaps/LohseBoi/keymap.c ****   KC_HRWR,
  55:keyboards/planck/keymaps/LohseBoi/keymap.c ****   KC_MED,
  56:keyboards/planck/keymaps/LohseBoi/keymap.c ****   KC_ALT_TAB,
  57:keyboards/planck/keymaps/LohseBoi/keymap.c **** };
  58:keyboards/planck/keymaps/LohseBoi/keymap.c **** 
  59:keyboards/planck/keymaps/LohseBoi/keymap.c **** #define LOWER MO(_LOWER)
  60:keyboards/planck/keymaps/LohseBoi/keymap.c **** #define RAISE MO(_RAISE)
  61:keyboards/planck/keymaps/LohseBoi/keymap.c **** 
  62:keyboards/planck/keymaps/LohseBoi/keymap.c **** const uint16_t PROGMEM keymaps[][MATRIX_ROWS][MATRIX_COLS] = {
  63:keyboards/planck/keymaps/LohseBoi/keymap.c **** 
  64:keyboards/planck/keymaps/LohseBoi/keymap.c **** /* Qwerty
  65:keyboards/planck/keymaps/LohseBoi/keymap.c ****  * ,-----------------------------------------------------------------------------------.
  66:keyboards/planck/keymaps/LohseBoi/keymap.c ****  * |  -   |   Q  |   W  |   E  |   R  |   T  |   Y  |   U  |   I  |   O  |   P  |   =  |
  67:keyboards/planck/keymaps/LohseBoi/keymap.c ****  * |------+------+------+------+------+------+------+------+------+------+------+------|
  68:keyboards/planck/keymaps/LohseBoi/keymap.c ****  * |ESC/` |   A  |   S  |   D  |   F  |   G  |   H  |   J  |   K  |   L  |   ;  |   \  |
  69:keyboards/planck/keymaps/LohseBoi/keymap.c ****  * |------+------+------+------+------+------+------+------+------+------+------+------|
  70:keyboards/planck/keymaps/LohseBoi/keymap.c ****  * | TAB  |   Z  |   X  |   C  |   V  |   B  |   N  |   M  |   ,  |   .  |   /  |   '  |
  71:keyboards/planck/keymaps/LohseBoi/keymap.c ****  * |------+------+------+------+------+------+------+------+------+------+------+------|
  72:keyboards/planck/keymaps/LohseBoi/keymap.c ****  * |SHIFT |   [  |Ctrl  | GUI  | LWR  | SPC  |  ENT | RSE  | LAlt |  DEL |   ]  | BSPC |
  73:keyboards/planck/keymaps/LohseBoi/keymap.c ****  * `-----------------------------------------------------------------------------------'
  74:keyboards/planck/keymaps/LohseBoi/keymap.c ****  */
  75:keyboards/planck/keymaps/LohseBoi/keymap.c **** [_QWERTY] = LAYOUT_planck_grid(
  76:keyboards/planck/keymaps/LohseBoi/keymap.c ****     KC_MINS,  KC_Q,    KC_W,    KC_E,    KC_R,    KC_T,    KC_Y,    KC_U,    KC_I,    KC_O,    KC_P
  77:keyboards/planck/keymaps/LohseBoi/keymap.c ****     KC_GESC,  KC_A,    KC_S,    KC_D,    KC_F,    KC_G,    KC_H,    KC_J,    KC_K,    KC_L,    KC_S
  78:keyboards/planck/keymaps/LohseBoi/keymap.c ****     KC_TAB,   KC_Z,    KC_X,    KC_C,    KC_V,    KC_B,    KC_N,    KC_M,    KC_COMM, KC_DOT,  KC_S
  79:keyboards/planck/keymaps/LohseBoi/keymap.c ****     KC_LSFT,  KC_LBRC, KC_LCTL, KC_LGUI, KC_HLWR, KC_SPC,  KC_ENT,  KC_HRWR, KC_LALT, KC_DEL,  KC_R
  80:keyboards/planck/keymaps/LohseBoi/keymap.c **** ),
  81:keyboards/planck/keymaps/LohseBoi/keymap.c **** 
  82:keyboards/planck/keymaps/LohseBoi/keymap.c **** /* Lower
  83:keyboards/planck/keymaps/LohseBoi/keymap.c ****  * ,-----------------------------------------------------------------------------------.
  84:keyboards/planck/keymaps/LohseBoi/keymap.c ****  * |   -  |   1  |   2  |   3  |   4  |   5  |   6  |   7  |   8  |   9  |   0  |  =   |
  85:keyboards/planck/keymaps/LohseBoi/keymap.c ****  * |------+------+------+------+------+------+------+------+------+------+------+------|
  86:keyboards/planck/keymaps/LohseBoi/keymap.c ****  * |  `   |      |      |      |      |      | LEFT | DOWN |  UP  | RIGHT|      |      |
  87:keyboards/planck/keymaps/LohseBoi/keymap.c ****  * |------+------+------+------+------+------+------+------+------+------+------+------|
  88:keyboards/planck/keymaps/LohseBoi/keymap.c ****  * |ALTTAB|  F7  |  F8  |  F9  |  F10 |  F11 |  F12 |      |      |      |      |      |
  89:keyboards/planck/keymaps/LohseBoi/keymap.c ****  * |------+------+------+------+------+------+------+------+------+------+------+------|
  90:keyboards/planck/keymaps/LohseBoi/keymap.c ****  * |SFT/CL|      |      |      | LWR  | SPC  | ENT  | RSE  |      |      |      |      |
  91:keyboards/planck/keymaps/LohseBoi/keymap.c ****  * `-----------------------------------------------------------------------------------'
  92:keyboards/planck/keymaps/LohseBoi/keymap.c ****  */
  93:keyboards/planck/keymaps/LohseBoi/keymap.c **** [_LOWER] = LAYOUT_planck_grid(
  94:keyboards/planck/keymaps/LohseBoi/keymap.c ****     KC_MINS,  KC_1,    KC_2,    KC_3,    KC_4,    KC_5,    KC_6,    KC_7,    KC_8,    KC_9,    KC_0
  95:keyboards/planck/keymaps/LohseBoi/keymap.c ****     KC_GRV,   XXXXXXX, XXXXXXX, XXXXXXX, XXXXXXX, XXXXXXX, KC_LEFT, KC_DOWN, KC_UP,   KC_RGHT, XXXX
  96:keyboards/planck/keymaps/LohseBoi/keymap.c ****     ALT_TAB,  KC_F7,   KC_F8,   KC_F9,   KC_F10,  KC_F11,  KC_F12,  XXXXXXX, XXXXXXX, XXXXXXX, XXXX
  97:keyboards/planck/keymaps/LohseBoi/keymap.c ****     KC_SFTCL, XXXXXXX, XXXXXXX, XXXXXXX, _______, _______, _______, _______, XXXXXXX, XXXXXXX, XXXX
  98:keyboards/planck/keymaps/LohseBoi/keymap.c **** ),
  99:keyboards/planck/keymaps/LohseBoi/keymap.c **** 
 100:keyboards/planck/keymaps/LohseBoi/keymap.c **** /* Raise
 101:keyboards/planck/keymaps/LohseBoi/keymap.c ****  * ,-----------------------------------------------------------------------------------.
 102:keyboards/planck/keymaps/LohseBoi/keymap.c ****  * |   `  |   1  |   Å  |   3  |   4  |   5  |   6  |   7  |   8  |   9  |   0  | Bksp |
 103:keyboards/planck/keymaps/LohseBoi/keymap.c ****  * |------+------+------+------+------+------+------+------+------+------+------+------|
 104:keyboards/planck/keymaps/LohseBoi/keymap.c ****  * |  ~   |      |  F1  |  F2  |  F3  |  F4  |  F5  |  F6  |      |   Ø  |      |      |
 105:keyboards/planck/keymaps/LohseBoi/keymap.c ****  * |------+------+------+------+------+------+------+------+------+------+------+------|
 106:keyboards/planck/keymaps/LohseBoi/keymap.c ****  * | TAB  |  Æ   |  F7  |  F8  |  F9  |  F10 |  F11 |  F12 |      |      |      |      |
 107:keyboards/planck/keymaps/LohseBoi/keymap.c ****  * |------+------+------+------+------+------+------+------+------+------+------+------|
 108:keyboards/planck/keymaps/LohseBoi/keymap.c ****  * |SHIFT |      |      |      |      |      |      |      | Next | Vol- | Vol+ | Play |
 109:keyboards/planck/keymaps/LohseBoi/keymap.c ****  * `-----------------------------------------------------------------------------------'
 110:keyboards/planck/keymaps/LohseBoi/keymap.c ****  */
 111:keyboards/planck/keymaps/LohseBoi/keymap.c **** [_RAISE] = LAYOUT_planck_grid(
 112:keyboards/planck/keymaps/LohseBoi/keymap.c ****     KC_GRV,  KC_1,       RALT(KC_W), KC_3,   KC_4,     KC_5,    KC_6,    KC_7,    KC_8,    KC_9,   
 113:keyboards/planck/keymaps/LohseBoi/keymap.c ****     KC_TILD, XXXXXXX,    KC_F1,      KC_F2,  KC_F3,    KC_F4,   KC_F5,   KC_F6,   XXXXXXX, RALT(KC_
 114:keyboards/planck/keymaps/LohseBoi/keymap.c ****     _______, RALT(KC_Z), KC_F7,      KC_F8,  KC_F9,    KC_F10,  KC_F11,  KC_F12,  XXXXXXX, XXXXXXX,
 115:keyboards/planck/keymaps/LohseBoi/keymap.c ****     _______, XXXXXXX,    XXXXXXX,    XXXXXXX, _______, _______, _______, _______, KC_MNXT, KC_VOLD,
 116:keyboards/planck/keymaps/LohseBoi/keymap.c **** ),
 117:keyboards/planck/keymaps/LohseBoi/keymap.c **** 
 118:keyboards/planck/keymaps/LohseBoi/keymap.c **** 
 119:keyboards/planck/keymaps/LohseBoi/keymap.c **** /* Adjust (Lower + Raise)
 120:keyboards/planck/keymaps/LohseBoi/keymap.c ****  * ,-----------------------------------------------------------------------------------.
 121:keyboards/planck/keymaps/LohseBoi/keymap.c ****  * |      |QWERTY|      |      |      |      |      |      |      |EEPRST| DEBUG| RESET|
 122:keyboards/planck/keymaps/LohseBoi/keymap.c ****  * |------+------+------+------+------+------+------+------+------+------+------+------|
 123:keyboards/planck/keymaps/LohseBoi/keymap.c ****  * |      |      |      |      |      |      |      |      |      |      |      |      |
 124:keyboards/planck/keymaps/LohseBoi/keymap.c ****  * |------+------+------+------+------+------+------+------+------+------+------+------|
 125:keyboards/planck/keymaps/LohseBoi/keymap.c ****  * |      |      |      |      |      |      |      |      |      |      |      |      |
 126:keyboards/planck/keymaps/LohseBoi/keymap.c ****  * |------+------+------+------+------+------+------+------+------+------+------+------|
 127:keyboards/planck/keymaps/LohseBoi/keymap.c ****  * |      |      |      |      | LWR  | SPC  | ENT  | RSE  |      |      |      |      |
 128:keyboards/planck/keymaps/LohseBoi/keymap.c ****  * `-----------------------------------------------------------------------------------'
 129:keyboards/planck/keymaps/LohseBoi/keymap.c ****  */
 130:keyboards/planck/keymaps/LohseBoi/keymap.c **** [_ADJUST] = LAYOUT_planck_grid(
 131:keyboards/planck/keymaps/LohseBoi/keymap.c ****     XXXXXXX, QWERTY,  XXXXXXX, XXXXXXX, XXXXXXX, XXXXXXX, XXXXXXX, XXXXXXX, XXXXXXX, EEP_RST, DEBUG
 132:keyboards/planck/keymaps/LohseBoi/keymap.c ****     XXXXXXX, XXXXXXX, XXXXXXX, XXXXXXX, XXXXXXX, XXXXXXX, XXXXXXX, XXXXXXX, XXXXXXX, XXXXXXX, XXXXX
 133:keyboards/planck/keymaps/LohseBoi/keymap.c ****     XXXXXXX, XXXXXXX, XXXXXXX, XXXXXXX, XXXXXXX, XXXXXXX, XXXXXXX, XXXXXXX, XXXXXXX, XXXXXXX, XXXXX
 134:keyboards/planck/keymaps/LohseBoi/keymap.c ****     XXXXXXX, XXXXXXX, XXXXXXX, XXXXXXX, _______, _______, _______, _______, XXXXXXX, XXXXXXX, XXXXX
 135:keyboards/planck/keymaps/LohseBoi/keymap.c **** )
 136:keyboards/planck/keymaps/LohseBoi/keymap.c **** };
 137:keyboards/planck/keymaps/LohseBoi/keymap.c **** 
 138:keyboards/planck/keymaps/LohseBoi/keymap.c **** #ifdef AUDIO_ENABLE
 139:keyboards/planck/keymaps/LohseBoi/keymap.c ****   float plover_song[][2]     = SONG(PLOVER_SOUND);
 140:keyboards/planck/keymaps/LohseBoi/keymap.c ****   float plover_gb_song[][2]  = SONG(PLOVER_GOODBYE_SOUND);
 141:keyboards/planck/keymaps/LohseBoi/keymap.c **** #endif
 142:keyboards/planck/keymaps/LohseBoi/keymap.c **** 
 143:keyboards/planck/keymaps/LohseBoi/keymap.c **** layer_state_t layer_state_set_user(layer_state_t state) {
  30              		.loc 1 143 57 view -0
  31              		.cfi_startproc
  32              		@ args = 0, pretend = 0, frame = 0
  33              		@ frame_needed = 0, uses_anonymous_args = 0
  34              		@ link register save eliminated.
 144:keyboards/planck/keymaps/LohseBoi/keymap.c ****   return update_tri_layer_state(state, _LOWER, _RAISE, _ADJUST);
  35              		.loc 1 144 3 view .LVU1
  36              		.loc 1 144 10 is_stmt 0 view .LVU2
  37 0000 0323     		movs	r3, #3
  38 0002 0222     		movs	r2, #2
  39 0004 0121     		movs	r1, #1
  40 0006 FFF7FEBF 		b	update_tri_layer_state
  41              	.LVL1:
  42              		.loc 1 144 10 view .LVU3
  43              		.cfi_endproc
  44              	.LFE341:
  46              		.section	.rodata.process_record_user.str1.1,"aMS",%progbits,1
  47              	.LC1:
  48 0000 6D6F6465 		.ascii	"mode just switched to qwerty and this is a huge str"
  48      206A7573 
  48      74207377 
  48      69746368 
  48      65642074 
  49 0033 696E670A 		.ascii	"ing\012\000"
  49      00
  50              	.LC2:
  51 0038 01012B00 		.ascii	"\001\001+\000"
  52              		.section	.text.process_record_user,"ax",%progbits
  53              		.align	1
  54              		.global	process_record_user
  55              		.syntax unified
  56              		.thumb
  57              		.thumb_func
  58              		.fpu fpv4-sp-d16
  60              	process_record_user:
  61              	.LVL2:
  62              	.LFB342:
 145:keyboards/planck/keymaps/LohseBoi/keymap.c **** }
 146:keyboards/planck/keymaps/LohseBoi/keymap.c **** 
 147:keyboards/planck/keymaps/LohseBoi/keymap.c **** bool process_record_user(uint16_t keycode, keyrecord_t *record) {
  63              		.loc 1 147 65 is_stmt 1 view -0
  64              		.cfi_startproc
  65              		@ args = 0, pretend = 0, frame = 0
  66              		@ frame_needed = 0, uses_anonymous_args = 0
 148:keyboards/planck/keymaps/LohseBoi/keymap.c ****   switch (keycode) {
  67              		.loc 1 148 3 view .LVU5
  68 0000 A0F5BA40 		sub	r0, r0, #23808
  69              	.LVL3:
  70              		.loc 1 148 3 is_stmt 0 view .LVU6
  71 0004 6338     		subs	r0, r0, #99
 147:keyboards/planck/keymaps/LohseBoi/keymap.c ****   switch (keycode) {
  72              		.loc 1 147 65 view .LVU7
  73 0006 38B5     		push	{r3, r4, r5, lr}
  74              		.cfi_def_cfa_offset 16
  75              		.cfi_offset 3, -16
  76              		.cfi_offset 4, -12
  77              		.cfi_offset 5, -8
  78              		.cfi_offset 14, -4
  79              		.loc 1 148 3 view .LVU8
  80 0008 0628     		cmp	r0, #6
  81 000a 00F28280 		bhi	.L21
  82 000e DFE800F0 		tbb	[pc, r0]
  83              	.L5:
  84 0012 04       		.byte	(.L11-.L5)/2
  85 0013 0E       		.byte	(.L10-.L5)/2
  86 0014 15       		.byte	(.L9-.L5)/2
  87 0015 39       		.byte	(.L8-.L5)/2
  88 0016 63       		.byte	(.L7-.L5)/2
  89 0017 1D       		.byte	(.L6-.L5)/2
  90 0018 2F       		.byte	(.L4-.L5)/2
  91 0019 00       		.p2align 1
  92              	.L11:
 149:keyboards/planck/keymaps/LohseBoi/keymap.c ****     case QWERTY:
 150:keyboards/planck/keymaps/LohseBoi/keymap.c ****       if (record->event.pressed) {
  93              		.loc 1 150 7 is_stmt 1 view .LVU9
  94              		.loc 1 150 24 is_stmt 0 view .LVU10
  95 001a 8C78     		ldrb	r4, [r1, #2]	@ zero_extendqisi2
  96              		.loc 1 150 10 view .LVU11
  97 001c 34B3     		cbz	r4, .L3
 151:keyboards/planck/keymaps/LohseBoi/keymap.c ****         print("mode just switched to qwerty and this is a huge string\n");
  98              		.loc 1 151 9 is_stmt 1 view .LVU12
  99 001e 3E48     		ldr	r0, .L40
 100 0020 FFF7FEFF 		bl	printf_
 101              	.LVL4:
 152:keyboards/planck/keymaps/LohseBoi/keymap.c ****         set_single_persistent_default_layer(_QWERTY);
 102              		.loc 1 152 9 view .LVU13
 103 0024 0020     		movs	r0, #0
 104 0026 FFF7FEFF 		bl	set_single_persistent_default_layer
 105              	.LVL5:
 106              	.L37:
 153:keyboards/planck/keymaps/LohseBoi/keymap.c ****       }
 154:keyboards/planck/keymaps/LohseBoi/keymap.c ****       return false;
 155:keyboards/planck/keymaps/LohseBoi/keymap.c ****       break;
 156:keyboards/planck/keymaps/LohseBoi/keymap.c ****     case BACKLIT:
 157:keyboards/planck/keymaps/LohseBoi/keymap.c ****       if (record->event.pressed) {
 158:keyboards/planck/keymaps/LohseBoi/keymap.c ****         register_code(KC_RSFT);
 159:keyboards/planck/keymaps/LohseBoi/keymap.c ****         #ifdef BACKLIGHT_ENABLE
 160:keyboards/planck/keymaps/LohseBoi/keymap.c ****           backlight_step();
 161:keyboards/planck/keymaps/LohseBoi/keymap.c ****         #endif
 162:keyboards/planck/keymaps/LohseBoi/keymap.c ****         #ifdef KEYBOARD_planck_rev5
 163:keyboards/planck/keymaps/LohseBoi/keymap.c ****           writePinLow(E6);
 164:keyboards/planck/keymaps/LohseBoi/keymap.c ****         #endif
 165:keyboards/planck/keymaps/LohseBoi/keymap.c ****       } else {
 166:keyboards/planck/keymaps/LohseBoi/keymap.c ****         unregister_code(KC_RSFT);
 167:keyboards/planck/keymaps/LohseBoi/keymap.c ****         #ifdef KEYBOARD_planck_rev5
 168:keyboards/planck/keymaps/LohseBoi/keymap.c ****           writePinHigh(E6);
 169:keyboards/planck/keymaps/LohseBoi/keymap.c ****         #endif
 170:keyboards/planck/keymaps/LohseBoi/keymap.c ****       }
 171:keyboards/planck/keymaps/LohseBoi/keymap.c ****       return false;
 172:keyboards/planck/keymaps/LohseBoi/keymap.c ****       break;
 173:keyboards/planck/keymaps/LohseBoi/keymap.c ****     case EXT_PLV:
 174:keyboards/planck/keymaps/LohseBoi/keymap.c ****       if (record->event.pressed) {
 175:keyboards/planck/keymaps/LohseBoi/keymap.c ****         #ifdef AUDIO_ENABLE
 176:keyboards/planck/keymaps/LohseBoi/keymap.c ****           PLAY_SONG(plover_gb_song);
 177:keyboards/planck/keymaps/LohseBoi/keymap.c ****         #endif
 178:keyboards/planck/keymaps/LohseBoi/keymap.c ****       }
 179:keyboards/planck/keymaps/LohseBoi/keymap.c ****       return false;
 180:keyboards/planck/keymaps/LohseBoi/keymap.c ****       break;
 181:keyboards/planck/keymaps/LohseBoi/keymap.c ****     case KC_MED:
 182:keyboards/planck/keymaps/LohseBoi/keymap.c ****         if (record->event.pressed) {
 183:keyboards/planck/keymaps/LohseBoi/keymap.c ****             if (!is_media_active)
 184:keyboards/planck/keymaps/LohseBoi/keymap.c ****                 media_timer = timer_read(); //Timer starts
 185:keyboards/planck/keymaps/LohseBoi/keymap.c ****     
 186:keyboards/planck/keymaps/LohseBoi/keymap.c ****             is_media_active = true; 
 187:keyboards/planck/keymaps/LohseBoi/keymap.c ****             media_counter++;
 188:keyboards/planck/keymaps/LohseBoi/keymap.c ****         } else {
 189:keyboards/planck/keymaps/LohseBoi/keymap.c ****             //Do nothing on release
 190:keyboards/planck/keymaps/LohseBoi/keymap.c ****         }
 191:keyboards/planck/keymaps/LohseBoi/keymap.c ****         break;
 192:keyboards/planck/keymaps/LohseBoi/keymap.c ****     case KC_ALT_TAB:
 193:keyboards/planck/keymaps/LohseBoi/keymap.c ****         if (record->event.pressed) {
 194:keyboards/planck/keymaps/LohseBoi/keymap.c ****             //alttab_active = true;
 195:keyboards/planck/keymaps/LohseBoi/keymap.c ****             register_code(KC_LALT);
 196:keyboards/planck/keymaps/LohseBoi/keymap.c ****             SEND_STRING(SS_TAP(X_TAB));
 197:keyboards/planck/keymaps/LohseBoi/keymap.c ****         } else {
 198:keyboards/planck/keymaps/LohseBoi/keymap.c ****             //Do nothing on release
 199:keyboards/planck/keymaps/LohseBoi/keymap.c ****         }
 200:keyboards/planck/keymaps/LohseBoi/keymap.c ****         return false;
 201:keyboards/planck/keymaps/LohseBoi/keymap.c ****     case KC_HLWR:
 202:keyboards/planck/keymaps/LohseBoi/keymap.c ****         if (record->event.pressed) {
 203:keyboards/planck/keymaps/LohseBoi/keymap.c ****             layer_on(_LOWER);
 204:keyboards/planck/keymaps/LohseBoi/keymap.c ****             update_tri_layer(_LOWER, _RAISE, _ADJUST);
 205:keyboards/planck/keymaps/LohseBoi/keymap.c ****             lwr_timer = timer_read();
 206:keyboards/planck/keymaps/LohseBoi/keymap.c **** 
 207:keyboards/planck/keymaps/LohseBoi/keymap.c ****         } else {
 208:keyboards/planck/keymaps/LohseBoi/keymap.c ****             if (timer_elapsed(lwr_timer) < 100) {
 209:keyboards/planck/keymaps/LohseBoi/keymap.c ****                 lwr_tapped = !lwr_tapped;
 210:keyboards/planck/keymaps/LohseBoi/keymap.c ****                 lwr_tapped ? layer_on(_LOWER) : layer_off(_LOWER);
 211:keyboards/planck/keymaps/LohseBoi/keymap.c ****             } else {
 212:keyboards/planck/keymaps/LohseBoi/keymap.c ****                 layer_off(_LOWER);
 213:keyboards/planck/keymaps/LohseBoi/keymap.c ****             }
 214:keyboards/planck/keymaps/LohseBoi/keymap.c **** 
 215:keyboards/planck/keymaps/LohseBoi/keymap.c ****             update_tri_layer(_LOWER, _RAISE, _ADJUST);
 216:keyboards/planck/keymaps/LohseBoi/keymap.c ****             unregister_code(KC_LALT);
 217:keyboards/planck/keymaps/LohseBoi/keymap.c ****         }
 218:keyboards/planck/keymaps/LohseBoi/keymap.c ****         return false;
 107              		.loc 1 218 16 is_stmt 0 view .LVU14
 108 002a 0024     		movs	r4, #0
 109 002c 1EE0     		b	.L3
 110              	.LVL6:
 111              	.L10:
 155:keyboards/planck/keymaps/LohseBoi/keymap.c ****     case BACKLIT:
 112              		.loc 1 155 7 is_stmt 1 view .LVU15
 157:keyboards/planck/keymaps/LohseBoi/keymap.c ****         register_code(KC_RSFT);
 113              		.loc 1 157 7 view .LVU16
 157:keyboards/planck/keymaps/LohseBoi/keymap.c ****         register_code(KC_RSFT);
 114              		.loc 1 157 24 is_stmt 0 view .LVU17
 115 002e 8C78     		ldrb	r4, [r1, #2]	@ zero_extendqisi2
 158:keyboards/planck/keymaps/LohseBoi/keymap.c ****         #ifdef BACKLIGHT_ENABLE
 116              		.loc 1 158 9 view .LVU18
 117 0030 E520     		movs	r0, #229
 157:keyboards/planck/keymaps/LohseBoi/keymap.c ****         register_code(KC_RSFT);
 118              		.loc 1 157 10 view .LVU19
 119 0032 002C     		cmp	r4, #0
 120 0034 4AD0     		beq	.L38
 158:keyboards/planck/keymaps/LohseBoi/keymap.c ****         #ifdef BACKLIGHT_ENABLE
 121              		.loc 1 158 9 is_stmt 1 view .LVU20
 122 0036 FFF7FEFF 		bl	register_code
 123              	.LVL7:
 158:keyboards/planck/keymaps/LohseBoi/keymap.c ****         #ifdef BACKLIGHT_ENABLE
 124              		.loc 1 158 9 is_stmt 0 view .LVU21
 125 003a F6E7     		b	.L37
 126              	.LVL8:
 127              	.L9:
 172:keyboards/planck/keymaps/LohseBoi/keymap.c ****     case EXT_PLV:
 128              		.loc 1 172 7 is_stmt 1 view .LVU22
 174:keyboards/planck/keymaps/LohseBoi/keymap.c ****         #ifdef AUDIO_ENABLE
 129              		.loc 1 174 7 view .LVU23
 174:keyboards/planck/keymaps/LohseBoi/keymap.c ****         #ifdef AUDIO_ENABLE
 130              		.loc 1 174 24 is_stmt 0 view .LVU24
 131 003c 8C78     		ldrb	r4, [r1, #2]	@ zero_extendqisi2
 174:keyboards/planck/keymaps/LohseBoi/keymap.c ****         #ifdef AUDIO_ENABLE
 132              		.loc 1 174 10 view .LVU25
 133 003e ACB1     		cbz	r4, .L3
 176:keyboards/planck/keymaps/LohseBoi/keymap.c ****         #endif
 134              		.loc 1 176 11 is_stmt 1 view .LVU26
 135 0040 3648     		ldr	r0, .L40+4
 136 0042 0022     		movs	r2, #0
 137 0044 0621     		movs	r1, #6
 138              	.LVL9:
 176:keyboards/planck/keymaps/LohseBoi/keymap.c ****         #endif
 139              		.loc 1 176 11 is_stmt 0 view .LVU27
 140 0046 FFF7FEFF 		bl	audio_play_melody
 141              	.LVL10:
 142 004a EEE7     		b	.L37
 143              	.LVL11:
 144              	.L6:
 180:keyboards/planck/keymaps/LohseBoi/keymap.c ****     case KC_MED:
 145              		.loc 1 180 7 is_stmt 1 view .LVU28
 182:keyboards/planck/keymaps/LohseBoi/keymap.c ****             if (!is_media_active)
 146              		.loc 1 182 9 view .LVU29
 182:keyboards/planck/keymaps/LohseBoi/keymap.c ****             if (!is_media_active)
 147              		.loc 1 182 26 is_stmt 0 view .LVU30
 148 004c 8C78     		ldrb	r4, [r1, #2]	@ zero_extendqisi2
 182:keyboards/planck/keymaps/LohseBoi/keymap.c ****             if (!is_media_active)
 149              		.loc 1 182 12 view .LVU31
 150 004e 002C     		cmp	r4, #0
 151 0050 5FD0     		beq	.L21
 183:keyboards/planck/keymaps/LohseBoi/keymap.c ****                 media_timer = timer_read(); //Timer starts
 152              		.loc 1 183 13 is_stmt 1 view .LVU32
 183:keyboards/planck/keymaps/LohseBoi/keymap.c ****                 media_timer = timer_read(); //Timer starts
 153              		.loc 1 183 17 is_stmt 0 view .LVU33
 154 0052 334D     		ldr	r5, .L40+8
 183:keyboards/planck/keymaps/LohseBoi/keymap.c ****                 media_timer = timer_read(); //Timer starts
 155              		.loc 1 183 16 view .LVU34
 156 0054 2B78     		ldrb	r3, [r5]	@ zero_extendqisi2
 157 0056 1BB9     		cbnz	r3, .L13
 184:keyboards/planck/keymaps/LohseBoi/keymap.c ****     
 158              		.loc 1 184 17 is_stmt 1 view .LVU35
 184:keyboards/planck/keymaps/LohseBoi/keymap.c ****     
 159              		.loc 1 184 31 is_stmt 0 view .LVU36
 160 0058 FFF7FEFF 		bl	timer_read
 161              	.LVL12:
 184:keyboards/planck/keymaps/LohseBoi/keymap.c ****     
 162              		.loc 1 184 29 view .LVU37
 163 005c 314B     		ldr	r3, .L40+12
 164 005e 1880     		strh	r0, [r3]	@ movhi
 165              	.L13:
 186:keyboards/planck/keymaps/LohseBoi/keymap.c ****             media_counter++;
 166              		.loc 1 186 13 is_stmt 1 view .LVU38
 187:keyboards/planck/keymaps/LohseBoi/keymap.c ****         } else {
 167              		.loc 1 187 26 is_stmt 0 view .LVU39
 168 0060 314A     		ldr	r2, .L40+16
 186:keyboards/planck/keymaps/LohseBoi/keymap.c ****             media_counter++;
 169              		.loc 1 186 29 view .LVU40
 170 0062 0123     		movs	r3, #1
 171 0064 2B70     		strb	r3, [r5]
 187:keyboards/planck/keymaps/LohseBoi/keymap.c ****         } else {
 172              		.loc 1 187 13 is_stmt 1 view .LVU41
 187:keyboards/planck/keymaps/LohseBoi/keymap.c ****         } else {
 173              		.loc 1 187 26 is_stmt 0 view .LVU42
 174 0066 1378     		ldrb	r3, [r2]	@ zero_extendqisi2
 175 0068 0133     		adds	r3, r3, #1
 176 006a 1370     		strb	r3, [r2]
 177              	.L3:
 219:keyboards/planck/keymaps/LohseBoi/keymap.c ****     case KC_HRWR:
 220:keyboards/planck/keymaps/LohseBoi/keymap.c ****         if (record->event.pressed) {
 221:keyboards/planck/keymaps/LohseBoi/keymap.c ****             layer_on(_RAISE);
 222:keyboards/planck/keymaps/LohseBoi/keymap.c ****             update_tri_layer(_LOWER, _RAISE, _ADJUST);
 223:keyboards/planck/keymaps/LohseBoi/keymap.c ****             rse_timer = timer_read();
 224:keyboards/planck/keymaps/LohseBoi/keymap.c **** 
 225:keyboards/planck/keymaps/LohseBoi/keymap.c ****         } else {
 226:keyboards/planck/keymaps/LohseBoi/keymap.c ****             if (timer_elapsed(rse_timer) < 100) {
 227:keyboards/planck/keymaps/LohseBoi/keymap.c ****                 rse_tapped = !rse_tapped;
 228:keyboards/planck/keymaps/LohseBoi/keymap.c ****                 rse_tapped ? layer_on(_RAISE) : layer_off(_RAISE);
 229:keyboards/planck/keymaps/LohseBoi/keymap.c ****             } else {
 230:keyboards/planck/keymaps/LohseBoi/keymap.c ****                 layer_off(_RAISE);
 231:keyboards/planck/keymaps/LohseBoi/keymap.c ****             }
 232:keyboards/planck/keymaps/LohseBoi/keymap.c **** 
 233:keyboards/planck/keymaps/LohseBoi/keymap.c ****             update_tri_layer(_LOWER, _RAISE, _ADJUST);
 234:keyboards/planck/keymaps/LohseBoi/keymap.c ****         }
 235:keyboards/planck/keymaps/LohseBoi/keymap.c ****         return false;
 236:keyboards/planck/keymaps/LohseBoi/keymap.c ****   }
 237:keyboards/planck/keymaps/LohseBoi/keymap.c ****   return true;
 238:keyboards/planck/keymaps/LohseBoi/keymap.c **** }
 178              		.loc 1 238 1 view .LVU43
 179 006c 2046     		mov	r0, r4
 180 006e 38BD     		pop	{r3, r4, r5, pc}
 181              	.LVL13:
 182              	.L4:
 193:keyboards/planck/keymaps/LohseBoi/keymap.c ****             //alttab_active = true;
 183              		.loc 1 193 9 is_stmt 1 view .LVU44
 193:keyboards/planck/keymaps/LohseBoi/keymap.c ****             //alttab_active = true;
 184              		.loc 1 193 26 is_stmt 0 view .LVU45
 185 0070 8C78     		ldrb	r4, [r1, #2]	@ zero_extendqisi2
 193:keyboards/planck/keymaps/LohseBoi/keymap.c ****             //alttab_active = true;
 186              		.loc 1 193 12 view .LVU46
 187 0072 002C     		cmp	r4, #0
 188 0074 FAD0     		beq	.L3
 195:keyboards/planck/keymaps/LohseBoi/keymap.c ****             SEND_STRING(SS_TAP(X_TAB));
 189              		.loc 1 195 13 is_stmt 1 view .LVU47
 190 0076 E220     		movs	r0, #226
 191 0078 FFF7FEFF 		bl	register_code
 192              	.LVL14:
 196:keyboards/planck/keymaps/LohseBoi/keymap.c ****         } else {
 193              		.loc 1 196 13 view .LVU48
 194 007c 2B48     		ldr	r0, .L40+20
 195 007e FFF7FEFF 		bl	send_string_P
 196              	.LVL15:
 197 0082 D2E7     		b	.L37
 198              	.LVL16:
 199              	.L8:
 202:keyboards/planck/keymaps/LohseBoi/keymap.c ****             layer_on(_LOWER);
 200              		.loc 1 202 9 view .LVU49
 202:keyboards/planck/keymaps/LohseBoi/keymap.c ****             layer_on(_LOWER);
 201              		.loc 1 202 26 is_stmt 0 view .LVU50
 202 0084 8C78     		ldrb	r4, [r1, #2]	@ zero_extendqisi2
 203 0086 2A4D     		ldr	r5, .L40+24
 202:keyboards/planck/keymaps/LohseBoi/keymap.c ****             layer_on(_LOWER);
 204              		.loc 1 202 12 view .LVU51
 205 0088 5CB1     		cbz	r4, .L14
 203:keyboards/planck/keymaps/LohseBoi/keymap.c ****             update_tri_layer(_LOWER, _RAISE, _ADJUST);
 206              		.loc 1 203 13 is_stmt 1 view .LVU52
 207 008a 0120     		movs	r0, #1
 208              	.L39:
 203:keyboards/planck/keymaps/LohseBoi/keymap.c ****             update_tri_layer(_LOWER, _RAISE, _ADJUST);
 209              		.loc 1 203 13 is_stmt 0 view .LVU53
 210 008c FFF7FEFF 		bl	layer_on
 211              	.LVL17:
 204:keyboards/planck/keymaps/LohseBoi/keymap.c ****             lwr_timer = timer_read();
 212              		.loc 1 204 13 is_stmt 1 view .LVU54
 213 0090 0322     		movs	r2, #3
 214 0092 0221     		movs	r1, #2
 215 0094 0120     		movs	r0, #1
 216 0096 FFF7FEFF 		bl	update_tri_layer
 217              	.LVL18:
 205:keyboards/planck/keymaps/LohseBoi/keymap.c **** 
 218              		.loc 1 205 13 view .LVU55
 205:keyboards/planck/keymaps/LohseBoi/keymap.c **** 
 219              		.loc 1 205 25 is_stmt 0 view .LVU56
 220 009a FFF7FEFF 		bl	timer_read
 221              	.LVL19:
 205:keyboards/planck/keymaps/LohseBoi/keymap.c **** 
 222              		.loc 1 205 23 view .LVU57
 223 009e 2880     		strh	r0, [r5]	@ movhi
 224 00a0 C3E7     		b	.L37
 225              	.LVL20:
 226              	.L14:
 208:keyboards/planck/keymaps/LohseBoi/keymap.c ****                 lwr_tapped = !lwr_tapped;
 227              		.loc 1 208 13 is_stmt 1 view .LVU58
 208:keyboards/planck/keymaps/LohseBoi/keymap.c ****                 lwr_tapped = !lwr_tapped;
 228              		.loc 1 208 17 is_stmt 0 view .LVU59
 229 00a2 2888     		ldrh	r0, [r5]
 230 00a4 FFF7FEFF 		bl	timer_elapsed
 231              	.LVL21:
 208:keyboards/planck/keymaps/LohseBoi/keymap.c ****                 lwr_tapped = !lwr_tapped;
 232              		.loc 1 208 16 view .LVU60
 233 00a8 6328     		cmp	r0, #99
 210:keyboards/planck/keymaps/LohseBoi/keymap.c ****             } else {
 234              		.loc 1 210 30 view .LVU61
 235 00aa 4FF00100 		mov	r0, #1
 208:keyboards/planck/keymaps/LohseBoi/keymap.c ****                 lwr_tapped = !lwr_tapped;
 236              		.loc 1 208 16 view .LVU62
 237 00ae 10D8     		bhi	.L15
 209:keyboards/planck/keymaps/LohseBoi/keymap.c ****                 lwr_tapped ? layer_on(_LOWER) : layer_off(_LOWER);
 238              		.loc 1 209 17 is_stmt 1 view .LVU63
 239 00b0 204A     		ldr	r2, .L40+28
 240 00b2 1378     		ldrb	r3, [r2]	@ zero_extendqisi2
 241 00b4 83F00103 		eor	r3, r3, #1
 209:keyboards/planck/keymaps/LohseBoi/keymap.c ****                 lwr_tapped ? layer_on(_LOWER) : layer_off(_LOWER);
 242              		.loc 1 209 28 is_stmt 0 view .LVU64
 243 00b8 1370     		strb	r3, [r2]
 210:keyboards/planck/keymaps/LohseBoi/keymap.c ****             } else {
 244              		.loc 1 210 17 is_stmt 1 view .LVU65
 210:keyboards/planck/keymaps/LohseBoi/keymap.c ****             } else {
 245              		.loc 1 210 47 is_stmt 0 view .LVU66
 246 00ba 53B1     		cbz	r3, .L15
 210:keyboards/planck/keymaps/LohseBoi/keymap.c ****             } else {
 247              		.loc 1 210 30 discriminator 1 view .LVU67
 248 00bc FFF7FEFF 		bl	layer_on
 249              	.LVL22:
 250              	.L16:
 215:keyboards/planck/keymaps/LohseBoi/keymap.c ****             unregister_code(KC_LALT);
 251              		.loc 1 215 13 is_stmt 1 view .LVU68
 252 00c0 0120     		movs	r0, #1
 253 00c2 0322     		movs	r2, #3
 254 00c4 0221     		movs	r1, #2
 255 00c6 FFF7FEFF 		bl	update_tri_layer
 256              	.LVL23:
 216:keyboards/planck/keymaps/LohseBoi/keymap.c ****         }
 257              		.loc 1 216 13 view .LVU69
 258 00ca E220     		movs	r0, #226
 259              	.L38:
 216:keyboards/planck/keymaps/LohseBoi/keymap.c ****         }
 260              		.loc 1 216 13 is_stmt 0 view .LVU70
 261 00cc FFF7FEFF 		bl	unregister_code
 262              	.LVL24:
 263 00d0 CCE7     		b	.L3
 264              	.L15:
 210:keyboards/planck/keymaps/LohseBoi/keymap.c ****             } else {
 265              		.loc 1 210 49 discriminator 2 view .LVU71
 266 00d2 FFF7FEFF 		bl	layer_off
 267              	.LVL25:
 268 00d6 F3E7     		b	.L16
 269              	.LVL26:
 270              	.L7:
 220:keyboards/planck/keymaps/LohseBoi/keymap.c ****             layer_on(_RAISE);
 271              		.loc 1 220 9 is_stmt 1 view .LVU72
 220:keyboards/planck/keymaps/LohseBoi/keymap.c ****             layer_on(_RAISE);
 272              		.loc 1 220 26 is_stmt 0 view .LVU73
 273 00d8 8C78     		ldrb	r4, [r1, #2]	@ zero_extendqisi2
 274 00da 174D     		ldr	r5, .L40+32
 220:keyboards/planck/keymaps/LohseBoi/keymap.c ****             layer_on(_RAISE);
 275              		.loc 1 220 12 view .LVU74
 276 00dc 0CB1     		cbz	r4, .L17
 221:keyboards/planck/keymaps/LohseBoi/keymap.c ****             update_tri_layer(_LOWER, _RAISE, _ADJUST);
 277              		.loc 1 221 13 is_stmt 1 view .LVU75
 278 00de 0220     		movs	r0, #2
 279 00e0 D4E7     		b	.L39
 280              	.L17:
 226:keyboards/planck/keymaps/LohseBoi/keymap.c ****                 rse_tapped = !rse_tapped;
 281              		.loc 1 226 13 view .LVU76
 226:keyboards/planck/keymaps/LohseBoi/keymap.c ****                 rse_tapped = !rse_tapped;
 282              		.loc 1 226 17 is_stmt 0 view .LVU77
 283 00e2 2888     		ldrh	r0, [r5]
 284 00e4 FFF7FEFF 		bl	timer_elapsed
 285              	.LVL27:
 226:keyboards/planck/keymaps/LohseBoi/keymap.c ****                 rse_tapped = !rse_tapped;
 286              		.loc 1 226 16 view .LVU78
 287 00e8 6328     		cmp	r0, #99
 228:keyboards/planck/keymaps/LohseBoi/keymap.c ****             } else {
 288              		.loc 1 228 30 view .LVU79
 289 00ea 4FF00200 		mov	r0, #2
 226:keyboards/planck/keymaps/LohseBoi/keymap.c ****                 rse_tapped = !rse_tapped;
 290              		.loc 1 226 16 view .LVU80
 291 00ee 0DD8     		bhi	.L18
 227:keyboards/planck/keymaps/LohseBoi/keymap.c ****                 rse_tapped ? layer_on(_RAISE) : layer_off(_RAISE);
 292              		.loc 1 227 17 is_stmt 1 view .LVU81
 293 00f0 124A     		ldr	r2, .L40+36
 294 00f2 1378     		ldrb	r3, [r2]	@ zero_extendqisi2
 295 00f4 83F00103 		eor	r3, r3, #1
 227:keyboards/planck/keymaps/LohseBoi/keymap.c ****                 rse_tapped ? layer_on(_RAISE) : layer_off(_RAISE);
 296              		.loc 1 227 28 is_stmt 0 view .LVU82
 297 00f8 1370     		strb	r3, [r2]
 228:keyboards/planck/keymaps/LohseBoi/keymap.c ****             } else {
 298              		.loc 1 228 17 is_stmt 1 view .LVU83
 228:keyboards/planck/keymaps/LohseBoi/keymap.c ****             } else {
 299              		.loc 1 228 47 is_stmt 0 view .LVU84
 300 00fa 3BB1     		cbz	r3, .L18
 228:keyboards/planck/keymaps/LohseBoi/keymap.c ****             } else {
 301              		.loc 1 228 30 discriminator 1 view .LVU85
 302 00fc FFF7FEFF 		bl	layer_on
 303              	.LVL28:
 304              	.L19:
 233:keyboards/planck/keymaps/LohseBoi/keymap.c ****         }
 305              		.loc 1 233 13 is_stmt 1 view .LVU86
 306 0100 0322     		movs	r2, #3
 307 0102 0221     		movs	r1, #2
 308 0104 0120     		movs	r0, #1
 309 0106 FFF7FEFF 		bl	update_tri_layer
 310              	.LVL29:
 311 010a AFE7     		b	.L3
 312              	.L18:
 228:keyboards/planck/keymaps/LohseBoi/keymap.c ****             } else {
 313              		.loc 1 228 49 is_stmt 0 discriminator 2 view .LVU87
 314 010c FFF7FEFF 		bl	layer_off
 315              	.LVL30:
 316 0110 F6E7     		b	.L19
 317              	.LVL31:
 318              	.L21:
 237:keyboards/planck/keymaps/LohseBoi/keymap.c **** }
 319              		.loc 1 237 10 view .LVU88
 320 0112 0124     		movs	r4, #1
 321 0114 AAE7     		b	.L3
 322              	.L41:
 323 0116 00BF     		.align	2
 324              	.L40:
 325 0118 00000000 		.word	.LC1
 326 011c 00000000 		.word	.LANCHOR0
 327 0120 00000000 		.word	.LANCHOR1
 328 0124 00000000 		.word	.LANCHOR2
 329 0128 00000000 		.word	.LANCHOR3
 330 012c 38000000 		.word	.LC2
 331 0130 00000000 		.word	.LANCHOR4
 332 0134 00000000 		.word	.LANCHOR5
 333 0138 00000000 		.word	.LANCHOR6
 334 013c 00000000 		.word	.LANCHOR7
 335              		.cfi_endproc
 336              	.LFE342:
 338              		.section	.text.encoder_update_user,"ax",%progbits
 339              		.align	1
 340              		.global	encoder_update_user
 341              		.syntax unified
 342              		.thumb
 343              		.thumb_func
 344              		.fpu fpv4-sp-d16
 346              	encoder_update_user:
 347              	.LVL32:
 348              	.LFB343:
 239:keyboards/planck/keymaps/LohseBoi/keymap.c **** 
 240:keyboards/planck/keymaps/LohseBoi/keymap.c **** bool muse_mode = false;
 241:keyboards/planck/keymaps/LohseBoi/keymap.c **** uint8_t last_muse_note = 0;
 242:keyboards/planck/keymaps/LohseBoi/keymap.c **** uint16_t muse_counter = 0;
 243:keyboards/planck/keymaps/LohseBoi/keymap.c **** uint8_t muse_offset = 70;
 244:keyboards/planck/keymaps/LohseBoi/keymap.c **** uint16_t muse_tempo = 50;
 245:keyboards/planck/keymaps/LohseBoi/keymap.c **** 
 246:keyboards/planck/keymaps/LohseBoi/keymap.c **** bool encoder_update_user(uint8_t index, bool clockwise) {
 349              		.loc 1 246 57 is_stmt 1 view -0
 350              		.cfi_startproc
 351              		@ args = 0, pretend = 0, frame = 0
 352              		@ frame_needed = 0, uses_anonymous_args = 0
 247:keyboards/planck/keymaps/LohseBoi/keymap.c ****   if (muse_mode) {
 353              		.loc 1 247 3 view .LVU90
 354              		.loc 1 247 7 is_stmt 0 view .LVU91
 355 0000 104B     		ldr	r3, .L52
 356              		.loc 1 247 6 view .LVU92
 357 0002 1B78     		ldrb	r3, [r3]	@ zero_extendqisi2
 246:keyboards/planck/keymaps/LohseBoi/keymap.c ****   if (muse_mode) {
 358              		.loc 1 246 57 view .LVU93
 359 0004 10B5     		push	{r4, lr}
 360              		.cfi_def_cfa_offset 8
 361              		.cfi_offset 4, -8
 362              		.cfi_offset 14, -4
 246:keyboards/planck/keymaps/LohseBoi/keymap.c ****   if (muse_mode) {
 363              		.loc 1 246 57 view .LVU94
 364 0006 0C46     		mov	r4, r1
 365              		.loc 1 247 6 view .LVU95
 366 0008 A3B1     		cbz	r3, .L43
 248:keyboards/planck/keymaps/LohseBoi/keymap.c ****     if (IS_LAYER_ON(_RAISE)) {
 367              		.loc 1 248 5 is_stmt 1 view .LVU96
 368              		.loc 1 248 9 is_stmt 0 view .LVU97
 369 000a 0220     		movs	r0, #2
 370              	.LVL33:
 371              		.loc 1 248 9 view .LVU98
 372 000c FFF7FEFF 		bl	layer_state_is
 373              	.LVL34:
 374              		.loc 1 248 8 view .LVU99
 375 0010 40B1     		cbz	r0, .L44
 249:keyboards/planck/keymaps/LohseBoi/keymap.c ****       if (clockwise) {
 376              		.loc 1 249 7 is_stmt 1 view .LVU100
 250:keyboards/planck/keymaps/LohseBoi/keymap.c ****         muse_offset++;
 377              		.loc 1 250 20 is_stmt 0 view .LVU101
 378 0012 0D4A     		ldr	r2, .L52+4
 379 0014 1378     		ldrb	r3, [r2]	@ zero_extendqisi2
 249:keyboards/planck/keymaps/LohseBoi/keymap.c ****       if (clockwise) {
 380              		.loc 1 249 10 view .LVU102
 381 0016 1CB1     		cbz	r4, .L45
 382              		.loc 1 250 9 is_stmt 1 view .LVU103
 383              		.loc 1 250 20 is_stmt 0 view .LVU104
 384 0018 0133     		adds	r3, r3, #1
 385              	.L49:
 251:keyboards/planck/keymaps/LohseBoi/keymap.c ****       } else {
 252:keyboards/planck/keymaps/LohseBoi/keymap.c ****         muse_offset--;
 386              		.loc 1 252 20 view .LVU105
 387 001a 1370     		strb	r3, [r2]
 388              	.L46:
 253:keyboards/planck/keymaps/LohseBoi/keymap.c ****       }
 254:keyboards/planck/keymaps/LohseBoi/keymap.c ****     } else {
 255:keyboards/planck/keymaps/LohseBoi/keymap.c ****       if (clockwise) {
 256:keyboards/planck/keymaps/LohseBoi/keymap.c ****         muse_tempo+=1;
 257:keyboards/planck/keymaps/LohseBoi/keymap.c ****       } else {
 258:keyboards/planck/keymaps/LohseBoi/keymap.c ****         muse_tempo-=1;
 259:keyboards/planck/keymaps/LohseBoi/keymap.c ****       }
 260:keyboards/planck/keymaps/LohseBoi/keymap.c ****     }
 261:keyboards/planck/keymaps/LohseBoi/keymap.c ****   } else {
 262:keyboards/planck/keymaps/LohseBoi/keymap.c ****     if (clockwise) {
 263:keyboards/planck/keymaps/LohseBoi/keymap.c ****       #ifdef MOUSEKEY_ENABLE
 264:keyboards/planck/keymaps/LohseBoi/keymap.c ****         tap_code(KC_MS_WH_DOWN);
 265:keyboards/planck/keymaps/LohseBoi/keymap.c ****       #else
 266:keyboards/planck/keymaps/LohseBoi/keymap.c ****         tap_code(KC_PGDN);
 267:keyboards/planck/keymaps/LohseBoi/keymap.c ****       #endif
 268:keyboards/planck/keymaps/LohseBoi/keymap.c ****     } else {
 269:keyboards/planck/keymaps/LohseBoi/keymap.c ****       #ifdef MOUSEKEY_ENABLE
 270:keyboards/planck/keymaps/LohseBoi/keymap.c ****         tap_code(KC_MS_WH_UP);
 271:keyboards/planck/keymaps/LohseBoi/keymap.c ****       #else
 272:keyboards/planck/keymaps/LohseBoi/keymap.c ****         tap_code(KC_PGUP);
 273:keyboards/planck/keymaps/LohseBoi/keymap.c ****       #endif
 274:keyboards/planck/keymaps/LohseBoi/keymap.c ****     }
 275:keyboards/planck/keymaps/LohseBoi/keymap.c ****   }
 276:keyboards/planck/keymaps/LohseBoi/keymap.c ****     return true;
 389              		.loc 1 276 5 is_stmt 1 view .LVU106
 277:keyboards/planck/keymaps/LohseBoi/keymap.c **** }
 390              		.loc 1 277 1 is_stmt 0 view .LVU107
 391 001c 0120     		movs	r0, #1
 392 001e 10BD     		pop	{r4, pc}
 393              	.L45:
 252:keyboards/planck/keymaps/LohseBoi/keymap.c ****       }
 394              		.loc 1 252 9 is_stmt 1 view .LVU108
 252:keyboards/planck/keymaps/LohseBoi/keymap.c ****       }
 395              		.loc 1 252 20 is_stmt 0 view .LVU109
 396 0020 013B     		subs	r3, r3, #1
 397 0022 FAE7     		b	.L49
 398              	.L44:
 255:keyboards/planck/keymaps/LohseBoi/keymap.c ****         muse_tempo+=1;
 399              		.loc 1 255 7 is_stmt 1 view .LVU110
 256:keyboards/planck/keymaps/LohseBoi/keymap.c ****       } else {
 400              		.loc 1 256 19 is_stmt 0 view .LVU111
 401 0024 094A     		ldr	r2, .L52+8
 402 0026 1388     		ldrh	r3, [r2]
 255:keyboards/planck/keymaps/LohseBoi/keymap.c ****         muse_tempo+=1;
 403              		.loc 1 255 10 view .LVU112
 404 0028 14B1     		cbz	r4, .L47
 256:keyboards/planck/keymaps/LohseBoi/keymap.c ****       } else {
 405              		.loc 1 256 9 is_stmt 1 view .LVU113
 256:keyboards/planck/keymaps/LohseBoi/keymap.c ****       } else {
 406              		.loc 1 256 19 is_stmt 0 view .LVU114
 407 002a 0133     		adds	r3, r3, #1
 408              	.L51:
 258:keyboards/planck/keymaps/LohseBoi/keymap.c ****       }
 409              		.loc 1 258 19 view .LVU115
 410 002c 1380     		strh	r3, [r2]	@ movhi
 411 002e F5E7     		b	.L46
 412              	.L47:
 258:keyboards/planck/keymaps/LohseBoi/keymap.c ****       }
 413              		.loc 1 258 9 is_stmt 1 view .LVU116
 258:keyboards/planck/keymaps/LohseBoi/keymap.c ****       }
 414              		.loc 1 258 19 is_stmt 0 view .LVU117
 415 0030 013B     		subs	r3, r3, #1
 416 0032 FBE7     		b	.L51
 417              	.LVL35:
 418              	.L43:
 262:keyboards/planck/keymaps/LohseBoi/keymap.c ****       #ifdef MOUSEKEY_ENABLE
 419              		.loc 1 262 5 is_stmt 1 view .LVU118
 262:keyboards/planck/keymaps/LohseBoi/keymap.c ****       #ifdef MOUSEKEY_ENABLE
 420              		.loc 1 262 8 is_stmt 0 view .LVU119
 421 0034 19B1     		cbz	r1, .L48
 264:keyboards/planck/keymaps/LohseBoi/keymap.c ****       #else
 422              		.loc 1 264 9 is_stmt 1 view .LVU120
 423 0036 FA20     		movs	r0, #250
 424              	.LVL36:
 425              	.L50:
 270:keyboards/planck/keymaps/LohseBoi/keymap.c ****       #else
 426              		.loc 1 270 9 is_stmt 0 view .LVU121
 427 0038 FFF7FEFF 		bl	tap_code
 428              	.LVL37:
 270:keyboards/planck/keymaps/LohseBoi/keymap.c ****       #else
 429              		.loc 1 270 9 view .LVU122
 430 003c EEE7     		b	.L46
 431              	.LVL38:
 432              	.L48:
 270:keyboards/planck/keymaps/LohseBoi/keymap.c ****       #else
 433              		.loc 1 270 9 is_stmt 1 view .LVU123
 434 003e F920     		movs	r0, #249
 435              	.LVL39:
 270:keyboards/planck/keymaps/LohseBoi/keymap.c ****       #else
 436              		.loc 1 270 9 is_stmt 0 view .LVU124
 437 0040 FAE7     		b	.L50
 438              	.L53:
 439 0042 00BF     		.align	2
 440              	.L52:
 441 0044 00000000 		.word	.LANCHOR8
 442 0048 00000000 		.word	.LANCHOR9
 443 004c 00000000 		.word	.LANCHOR10
 444              		.cfi_endproc
 445              	.LFE343:
 447              		.section	.text.dip_switch_update_user,"ax",%progbits
 448              		.align	1
 449              		.global	dip_switch_update_user
 450              		.syntax unified
 451              		.thumb
 452              		.thumb_func
 453              		.fpu fpv4-sp-d16
 455              	dip_switch_update_user:
 456              	.LVL40:
 457              	.LFB344:
 278:keyboards/planck/keymaps/LohseBoi/keymap.c **** 
 279:keyboards/planck/keymaps/LohseBoi/keymap.c **** bool dip_switch_update_user(uint8_t index, bool active) {
 458              		.loc 1 279 57 is_stmt 1 view -0
 459              		.cfi_startproc
 460              		@ args = 0, pretend = 0, frame = 0
 461              		@ frame_needed = 0, uses_anonymous_args = 0
 280:keyboards/planck/keymaps/LohseBoi/keymap.c ****     switch (index) {
 462              		.loc 1 280 5 view .LVU126
 279:keyboards/planck/keymaps/LohseBoi/keymap.c ****     switch (index) {
 463              		.loc 1 279 57 is_stmt 0 view .LVU127
 464 0000 10B5     		push	{r4, lr}
 465              		.cfi_def_cfa_offset 8
 466              		.cfi_offset 4, -8
 467              		.cfi_offset 14, -4
 468              		.loc 1 280 5 view .LVU128
 469 0002 0246     		mov	r2, r0
 470 0004 18B1     		cbz	r0, .L55
 471 0006 0128     		cmp	r0, #1
 472 0008 19D0     		beq	.L56
 473              	.LVL41:
 474              	.L57:
 281:keyboards/planck/keymaps/LohseBoi/keymap.c ****         case 0: {
 282:keyboards/planck/keymaps/LohseBoi/keymap.c **** #ifdef AUDIO_ENABLE
 283:keyboards/planck/keymaps/LohseBoi/keymap.c ****             static bool play_sound = false;
 284:keyboards/planck/keymaps/LohseBoi/keymap.c **** #endif
 285:keyboards/planck/keymaps/LohseBoi/keymap.c ****             if (active) {
 286:keyboards/planck/keymaps/LohseBoi/keymap.c **** #ifdef AUDIO_ENABLE
 287:keyboards/planck/keymaps/LohseBoi/keymap.c ****                 if (play_sound) { PLAY_SONG(plover_song); }
 288:keyboards/planck/keymaps/LohseBoi/keymap.c **** #endif
 289:keyboards/planck/keymaps/LohseBoi/keymap.c ****                 layer_on(_ADJUST);
 290:keyboards/planck/keymaps/LohseBoi/keymap.c ****             } else {
 291:keyboards/planck/keymaps/LohseBoi/keymap.c **** #ifdef AUDIO_ENABLE
 292:keyboards/planck/keymaps/LohseBoi/keymap.c ****                 if (play_sound) { PLAY_SONG(plover_gb_song); }
 293:keyboards/planck/keymaps/LohseBoi/keymap.c **** #endif
 294:keyboards/planck/keymaps/LohseBoi/keymap.c ****                 layer_off(_ADJUST);
 295:keyboards/planck/keymaps/LohseBoi/keymap.c ****             }
 296:keyboards/planck/keymaps/LohseBoi/keymap.c **** #ifdef AUDIO_ENABLE
 297:keyboards/planck/keymaps/LohseBoi/keymap.c ****             play_sound = true;
 298:keyboards/planck/keymaps/LohseBoi/keymap.c **** #endif
 299:keyboards/planck/keymaps/LohseBoi/keymap.c ****             break;
 300:keyboards/planck/keymaps/LohseBoi/keymap.c ****         }
 301:keyboards/planck/keymaps/LohseBoi/keymap.c ****         case 1:
 302:keyboards/planck/keymaps/LohseBoi/keymap.c ****             if (active) {
 303:keyboards/planck/keymaps/LohseBoi/keymap.c ****                 muse_mode = true;
 304:keyboards/planck/keymaps/LohseBoi/keymap.c ****             } else {
 305:keyboards/planck/keymaps/LohseBoi/keymap.c ****                 muse_mode = false;
 306:keyboards/planck/keymaps/LohseBoi/keymap.c ****             }
 307:keyboards/planck/keymaps/LohseBoi/keymap.c ****     }
 308:keyboards/planck/keymaps/LohseBoi/keymap.c ****     return true;
 475              		.loc 1 308 5 is_stmt 1 view .LVU129
 309:keyboards/planck/keymaps/LohseBoi/keymap.c **** }
 476              		.loc 1 309 1 is_stmt 0 view .LVU130
 477 000a 0120     		movs	r0, #1
 478 000c 10BD     		pop	{r4, pc}
 479              	.LVL42:
 480              	.L55:
 481              	.LBB2:
 283:keyboards/planck/keymaps/LohseBoi/keymap.c **** #endif
 482              		.loc 1 283 13 is_stmt 1 view .LVU131
 285:keyboards/planck/keymaps/LohseBoi/keymap.c **** #ifdef AUDIO_ENABLE
 483              		.loc 1 285 13 view .LVU132
 287:keyboards/planck/keymaps/LohseBoi/keymap.c **** #endif
 484              		.loc 1 287 21 is_stmt 0 view .LVU133
 485 000e 0F4C     		ldr	r4, .L69
 486 0010 2378     		ldrb	r3, [r4]	@ zero_extendqisi2
 285:keyboards/planck/keymaps/LohseBoi/keymap.c **** #ifdef AUDIO_ENABLE
 487              		.loc 1 285 16 view .LVU134
 488 0012 51B1     		cbz	r1, .L58
 287:keyboards/planck/keymaps/LohseBoi/keymap.c **** #endif
 489              		.loc 1 287 17 is_stmt 1 view .LVU135
 287:keyboards/planck/keymaps/LohseBoi/keymap.c **** #endif
 490              		.loc 1 287 20 is_stmt 0 view .LVU136
 491 0014 1BB1     		cbz	r3, .L59
 287:keyboards/planck/keymaps/LohseBoi/keymap.c **** #endif
 492              		.loc 1 287 35 is_stmt 1 discriminator 1 view .LVU137
 493 0016 0E48     		ldr	r0, .L69+4
 494              	.LVL43:
 287:keyboards/planck/keymaps/LohseBoi/keymap.c **** #endif
 495              		.loc 1 287 35 is_stmt 0 discriminator 1 view .LVU138
 496 0018 0621     		movs	r1, #6
 497              	.LVL44:
 287:keyboards/planck/keymaps/LohseBoi/keymap.c **** #endif
 498              		.loc 1 287 35 discriminator 1 view .LVU139
 499 001a FFF7FEFF 		bl	audio_play_melody
 500              	.LVL45:
 501              	.L59:
 289:keyboards/planck/keymaps/LohseBoi/keymap.c ****             } else {
 502              		.loc 1 289 17 is_stmt 1 view .LVU140
 503 001e 0320     		movs	r0, #3
 504 0020 FFF7FEFF 		bl	layer_on
 505              	.LVL46:
 506              	.L60:
 297:keyboards/planck/keymaps/LohseBoi/keymap.c **** #endif
 507              		.loc 1 297 13 view .LVU141
 297:keyboards/planck/keymaps/LohseBoi/keymap.c **** #endif
 508              		.loc 1 297 24 is_stmt 0 view .LVU142
 509 0024 0123     		movs	r3, #1
 510 0026 2370     		strb	r3, [r4]
 299:keyboards/planck/keymaps/LohseBoi/keymap.c ****         }
 511              		.loc 1 299 13 is_stmt 1 view .LVU143
 512 0028 EFE7     		b	.L57
 513              	.LVL47:
 514              	.L58:
 292:keyboards/planck/keymaps/LohseBoi/keymap.c **** #endif
 515              		.loc 1 292 17 view .LVU144
 292:keyboards/planck/keymaps/LohseBoi/keymap.c **** #endif
 516              		.loc 1 292 20 is_stmt 0 view .LVU145
 517 002a 23B1     		cbz	r3, .L61
 292:keyboards/planck/keymaps/LohseBoi/keymap.c **** #endif
 518              		.loc 1 292 35 is_stmt 1 discriminator 1 view .LVU146
 519 002c 0A46     		mov	r2, r1
 520 002e 0948     		ldr	r0, .L69+8
 521              	.LVL48:
 292:keyboards/planck/keymaps/LohseBoi/keymap.c **** #endif
 522              		.loc 1 292 35 is_stmt 0 discriminator 1 view .LVU147
 523 0030 0621     		movs	r1, #6
 524              	.LVL49:
 292:keyboards/planck/keymaps/LohseBoi/keymap.c **** #endif
 525              		.loc 1 292 35 discriminator 1 view .LVU148
 526 0032 FFF7FEFF 		bl	audio_play_melody
 527              	.LVL50:
 528              	.L61:
 294:keyboards/planck/keymaps/LohseBoi/keymap.c ****             }
 529              		.loc 1 294 17 is_stmt 1 view .LVU149
 530 0036 0320     		movs	r0, #3
 531 0038 FFF7FEFF 		bl	layer_off
 532              	.LVL51:
 533 003c F2E7     		b	.L60
 534              	.LVL52:
 535              	.L56:
 294:keyboards/planck/keymaps/LohseBoi/keymap.c ****             }
 536              		.loc 1 294 17 is_stmt 0 view .LVU150
 537              	.LBE2:
 302:keyboards/planck/keymaps/LohseBoi/keymap.c ****                 muse_mode = true;
 538              		.loc 1 302 13 is_stmt 1 view .LVU151
 303:keyboards/planck/keymaps/LohseBoi/keymap.c ****             } else {
 539              		.loc 1 303 27 is_stmt 0 view .LVU152
 540 003e 0029     		cmp	r1, #0
 541 0040 054B     		ldr	r3, .L69+12
 542 0042 0CBF     		ite	eq
 543 0044 0846     		moveq	r0, r1
 544              	.LVL53:
 303:keyboards/planck/keymaps/LohseBoi/keymap.c ****             } else {
 545              		.loc 1 303 27 view .LVU153
 546 0046 1046     		movne	r0, r2
 547 0048 1870     		strb	r0, [r3]
 548 004a DEE7     		b	.L57
 549              	.L70:
 550              		.align	2
 551              	.L69:
 552 004c 00000000 		.word	.LANCHOR11
 553 0050 00000000 		.word	.LANCHOR12
 554 0054 00000000 		.word	.LANCHOR0
 555 0058 00000000 		.word	.LANCHOR8
 556              		.cfi_endproc
 557              	.LFE344:
 559              		.section	.rodata.matrix_scan_user.str1.1,"aMS",%progbits,1
 560              	.LC3:
 561 0000 0101AE00 		.ascii	"\001\001\256\000"
 562              	.LC4:
 563 0004 0101AB00 		.ascii	"\001\001\253\000"
 564              	.LC5:
 565 0008 0101AC00 		.ascii	"\001\001\254\000"
 566              		.section	.text.matrix_scan_user,"ax",%progbits
 567              		.align	1
 568              		.global	matrix_scan_user
 569              		.syntax unified
 570              		.thumb
 571              		.thumb_func
 572              		.fpu fpv4-sp-d16
 574              	matrix_scan_user:
 575              	.LFB345:
 310:keyboards/planck/keymaps/LohseBoi/keymap.c **** 
 311:keyboards/planck/keymaps/LohseBoi/keymap.c **** void matrix_scan_user(void) {
 576              		.loc 1 311 29 is_stmt 1 view -0
 577              		.cfi_startproc
 578              		@ args = 0, pretend = 0, frame = 40
 579              		@ frame_needed = 0, uses_anonymous_args = 0
 312:keyboards/planck/keymaps/LohseBoi/keymap.c ****     if (is_media_active) {  //If the media key has been pressed
 580              		.loc 1 312 5 view .LVU155
 311:keyboards/planck/keymaps/LohseBoi/keymap.c ****     if (is_media_active) {  //If the media key has been pressed
 581              		.loc 1 311 29 is_stmt 0 view .LVU156
 582 0000 70B5     		push	{r4, r5, r6, lr}
 583              		.cfi_def_cfa_offset 16
 584              		.cfi_offset 4, -16
 585              		.cfi_offset 5, -12
 586              		.cfi_offset 6, -8
 587              		.cfi_offset 14, -4
 588              		.loc 1 312 9 view .LVU157
 589 0002 2F4C     		ldr	r4, .L90
 590              		.loc 1 312 8 view .LVU158
 591 0004 2378     		ldrb	r3, [r4]	@ zero_extendqisi2
 311:keyboards/planck/keymaps/LohseBoi/keymap.c ****     if (is_media_active) {  //If the media key has been pressed
 592              		.loc 1 311 29 view .LVU159
 593 0006 8AB0     		sub	sp, sp, #40
 594              		.cfi_def_cfa_offset 56
 595              		.loc 1 312 8 view .LVU160
 596 0008 ABB1     		cbz	r3, .L73
 313:keyboards/planck/keymaps/LohseBoi/keymap.c ****         if (timer_elapsed(media_timer) > media_time) {  //If the time is up
 597              		.loc 1 313 9 is_stmt 1 view .LVU161
 598              		.loc 1 313 13 is_stmt 0 view .LVU162
 599 000a 2E4B     		ldr	r3, .L90+4
 600 000c 1888     		ldrh	r0, [r3]
 601 000e FFF7FEFF 		bl	timer_elapsed
 602              	.LVL54:
 603              		.loc 1 313 12 view .LVU163
 604 0012 40F2EE23 		movw	r3, #750
 605 0016 9842     		cmp	r0, r3
 606 0018 0DD9     		bls	.L73
 314:keyboards/planck/keymaps/LohseBoi/keymap.c ****             
 315:keyboards/planck/keymaps/LohseBoi/keymap.c ****             switch (media_counter) {  //Number of times pressed in given timeframe
 607              		.loc 1 315 13 is_stmt 1 view .LVU164
 608 001a 2B4D     		ldr	r5, .L90+8
 609 001c 2B78     		ldrb	r3, [r5]	@ zero_extendqisi2
 610 001e 012B     		cmp	r3, #1
 611 0020 03D0     		beq	.L75
 612 0022 022B     		cmp	r3, #2
 613 0024 43D0     		beq	.L76
 316:keyboards/planck/keymaps/LohseBoi/keymap.c ****                 case 1:
 317:keyboards/planck/keymaps/LohseBoi/keymap.c ****                     SEND_STRING(SS_TAP(X_MPLY));  //Play/Pause
 318:keyboards/planck/keymaps/LohseBoi/keymap.c ****                     break;
 319:keyboards/planck/keymaps/LohseBoi/keymap.c ****                 case 2:
 320:keyboards/planck/keymaps/LohseBoi/keymap.c ****                     SEND_STRING(SS_TAP(X_MNXT));  //Next track
 321:keyboards/planck/keymaps/LohseBoi/keymap.c ****                     break;
 322:keyboards/planck/keymaps/LohseBoi/keymap.c ****                 case 3: default:
 323:keyboards/planck/keymaps/LohseBoi/keymap.c ****                     SEND_STRING(SS_TAP(X_MPRV));  //Previous track
 614              		.loc 1 323 21 view .LVU165
 615 0026 2948     		ldr	r0, .L90+12
 616 0028 00E0     		b	.L89
 617              	.L75:
 317:keyboards/planck/keymaps/LohseBoi/keymap.c ****                     break;
 618              		.loc 1 317 21 view .LVU166
 619 002a 2948     		ldr	r0, .L90+16
 620              	.L89:
 621              		.loc 1 323 21 is_stmt 0 view .LVU167
 622 002c FFF7FEFF 		bl	send_string_P
 623              	.LVL55:
 324:keyboards/planck/keymaps/LohseBoi/keymap.c ****                     break;
 624              		.loc 1 324 21 is_stmt 1 view .LVU168
 325:keyboards/planck/keymaps/LohseBoi/keymap.c ****             }
 326:keyboards/planck/keymaps/LohseBoi/keymap.c ****             //Resets variables
 327:keyboards/planck/keymaps/LohseBoi/keymap.c ****             media_counter = 0;
 625              		.loc 1 327 13 view .LVU169
 626              		.loc 1 327 27 is_stmt 0 view .LVU170
 627 0030 0023     		movs	r3, #0
 628 0032 2B70     		strb	r3, [r5]
 328:keyboards/planck/keymaps/LohseBoi/keymap.c ****             is_media_active = false;
 629              		.loc 1 328 13 is_stmt 1 view .LVU171
 630              		.loc 1 328 29 is_stmt 0 view .LVU172
 631 0034 2370     		strb	r3, [r4]
 632              	.L73:
 329:keyboards/planck/keymaps/LohseBoi/keymap.c ****         }
 330:keyboards/planck/keymaps/LohseBoi/keymap.c ****     }
 331:keyboards/planck/keymaps/LohseBoi/keymap.c **** 
 332:keyboards/planck/keymaps/LohseBoi/keymap.c **** #ifdef AUDIO_ENABLE
 333:keyboards/planck/keymaps/LohseBoi/keymap.c ****     if (muse_mode) {
 633              		.loc 1 333 5 is_stmt 1 view .LVU173
 634              		.loc 1 333 9 is_stmt 0 view .LVU174
 635 0036 274A     		ldr	r2, .L90+20
 334:keyboards/planck/keymaps/LohseBoi/keymap.c ****         if (muse_counter == 0) {
 636              		.loc 1 334 26 view .LVU175
 637 0038 274D     		ldr	r5, .L90+24
 333:keyboards/planck/keymaps/LohseBoi/keymap.c ****         if (muse_counter == 0) {
 638              		.loc 1 333 8 view .LVU176
 639 003a 1478     		ldrb	r4, [r2]	@ zero_extendqisi2
 640              		.loc 1 334 26 view .LVU177
 641 003c 2B88     		ldrh	r3, [r5]
 333:keyboards/planck/keymaps/LohseBoi/keymap.c ****         if (muse_counter == 0) {
 642              		.loc 1 333 8 view .LVU178
 643 003e 002C     		cmp	r4, #0
 644 0040 37D0     		beq	.L79
 645              		.loc 1 334 9 is_stmt 1 view .LVU179
 646              		.loc 1 334 12 is_stmt 0 view .LVU180
 647 0042 4BBB     		cbnz	r3, .L80
 648              	.LBB3:
 335:keyboards/planck/keymaps/LohseBoi/keymap.c ****             uint8_t muse_note = muse_offset + SCALE[muse_clock_pulse()];
 649              		.loc 1 335 13 is_stmt 1 view .LVU181
 650              		.loc 1 335 47 is_stmt 0 view .LVU182
 651 0044 254B     		ldr	r3, .L90+28
 652 0046 01AA     		add	r2, sp, #4
 653 0048 03F12006 		add	r6, r3, #32
 654              	.L81:
 655 004c 1868     		ldr	r0, [r3]	@ unaligned
 656 004e 5968     		ldr	r1, [r3, #4]	@ unaligned
 657 0050 1446     		mov	r4, r2
 658 0052 03C4     		stmia	r4!, {r0, r1}
 659 0054 0833     		adds	r3, r3, #8
 660 0056 B342     		cmp	r3, r6
 661 0058 2246     		mov	r2, r4
 662 005a F7D1     		bne	.L81
 663 005c 1988     		ldrh	r1, [r3]	@ unaligned
 664 005e 9B78     		ldrb	r3, [r3, #2]	@ zero_extendqisi2
 665 0060 A370     		strb	r3, [r4, #2]
 666 0062 2180     		strh	r1, [r4]	@ unaligned
 667              		.loc 1 335 53 view .LVU183
 668 0064 FFF7FEFF 		bl	muse_clock_pulse
 669              	.LVL56:
 670              		.loc 1 335 52 view .LVU184
 671 0068 00F12803 		add	r3, r0, #40
 672 006c 0DEB0300 		add	r0, sp, r3
 673              		.loc 1 335 21 view .LVU185
 674 0070 1B4B     		ldr	r3, .L90+32
 675 0072 10F8244C 		ldrb	r4, [r0, #-36]	@ zero_extendqisi2
 676 0076 1B78     		ldrb	r3, [r3]	@ zero_extendqisi2
 336:keyboards/planck/keymaps/LohseBoi/keymap.c ****             if (muse_note != last_muse_note) {
 677              		.loc 1 336 27 view .LVU186
 678 0078 1A4E     		ldr	r6, .L90+36
 335:keyboards/planck/keymaps/LohseBoi/keymap.c ****             uint8_t muse_note = muse_offset + SCALE[muse_clock_pulse()];
 679              		.loc 1 335 21 view .LVU187
 680 007a 1C44     		add	r4, r4, r3
 681              		.loc 1 336 27 view .LVU188
 682 007c 3078     		ldrb	r0, [r6]	@ zero_extendqisi2
 335:keyboards/planck/keymaps/LohseBoi/keymap.c ****             uint8_t muse_note = muse_offset + SCALE[muse_clock_pulse()];
 683              		.loc 1 335 21 view .LVU189
 684 007e E4B2     		uxtb	r4, r4
 685              	.LVL57:
 686              		.loc 1 336 13 is_stmt 1 view .LVU190
 687              		.loc 1 336 16 is_stmt 0 view .LVU191
 688 0080 A042     		cmp	r0, r4
 689 0082 09D0     		beq	.L80
 337:keyboards/planck/keymaps/LohseBoi/keymap.c ****                 stop_note(compute_freq_for_midi_note(last_muse_note));
 690              		.loc 1 337 17 is_stmt 1 view .LVU192
 691 0084 FFF7FEFF 		bl	compute_freq_for_midi_note
 692              	.LVL58:
 693 0088 FFF7FEFF 		bl	audio_stop_tone
 694              	.LVL59:
 338:keyboards/planck/keymaps/LohseBoi/keymap.c ****                 play_note(compute_freq_for_midi_note(muse_note), 0xF);
 695              		.loc 1 338 17 view .LVU193
 696 008c 2046     		mov	r0, r4
 697 008e FFF7FEFF 		bl	compute_freq_for_midi_note
 698              	.LVL60:
 699 0092 FFF7FEFF 		bl	audio_play_tone
 700              	.LVL61:
 339:keyboards/planck/keymaps/LohseBoi/keymap.c ****                 last_muse_note = muse_note;
 701              		.loc 1 339 17 view .LVU194
 702              		.loc 1 339 32 is_stmt 0 view .LVU195
 703 0096 3470     		strb	r4, [r6]
 704              	.LVL62:
 705              	.L80:
 706              		.loc 1 339 32 view .LVU196
 707              	.LBE3:
 340:keyboards/planck/keymaps/LohseBoi/keymap.c ****             }
 341:keyboards/planck/keymaps/LohseBoi/keymap.c ****         }
 342:keyboards/planck/keymaps/LohseBoi/keymap.c ****         muse_counter = (muse_counter + 1) % muse_tempo;
 708              		.loc 1 342 9 is_stmt 1 view .LVU197
 709              		.loc 1 342 43 is_stmt 0 view .LVU198
 710 0098 134A     		ldr	r2, .L90+40
 711              		.loc 1 342 38 view .LVU199
 712 009a 2B88     		ldrh	r3, [r5]
 713              		.loc 1 342 43 view .LVU200
 714 009c 1288     		ldrh	r2, [r2]
 715              		.loc 1 342 38 view .LVU201
 716 009e 0133     		adds	r3, r3, #1
 717              		.loc 1 342 43 view .LVU202
 718 00a0 B3FBF2F1 		udiv	r1, r3, r2
 719 00a4 02FB1133 		mls	r3, r2, r1, r3
 720              		.loc 1 342 22 view .LVU203
 721 00a8 2B80     		strh	r3, [r5]	@ movhi
 722              	.L71:
 343:keyboards/planck/keymaps/LohseBoi/keymap.c ****     } else {
 344:keyboards/planck/keymaps/LohseBoi/keymap.c ****         if (muse_counter) {
 345:keyboards/planck/keymaps/LohseBoi/keymap.c ****             stop_all_notes();
 346:keyboards/planck/keymaps/LohseBoi/keymap.c ****             muse_counter = 0;
 347:keyboards/planck/keymaps/LohseBoi/keymap.c ****         }
 348:keyboards/planck/keymaps/LohseBoi/keymap.c ****     }
 349:keyboards/planck/keymaps/LohseBoi/keymap.c **** #endif
 350:keyboards/planck/keymaps/LohseBoi/keymap.c **** }
 723              		.loc 1 350 1 view .LVU204
 724 00aa 0AB0     		add	sp, sp, #40
 725              		.cfi_remember_state
 726              		.cfi_def_cfa_offset 16
 727              		@ sp needed
 728 00ac 70BD     		pop	{r4, r5, r6, pc}
 729              	.L76:
 730              		.cfi_restore_state
 320:keyboards/planck/keymaps/LohseBoi/keymap.c ****                     break;
 731              		.loc 1 320 21 is_stmt 1 view .LVU205
 732 00ae 0F48     		ldr	r0, .L90+44
 733 00b0 BCE7     		b	.L89
 734              	.L79:
 344:keyboards/planck/keymaps/LohseBoi/keymap.c ****             stop_all_notes();
 735              		.loc 1 344 9 view .LVU206
 344:keyboards/planck/keymaps/LohseBoi/keymap.c ****             stop_all_notes();
 736              		.loc 1 344 12 is_stmt 0 view .LVU207
 737 00b2 002B     		cmp	r3, #0
 738 00b4 F9D0     		beq	.L71
 345:keyboards/planck/keymaps/LohseBoi/keymap.c ****             muse_counter = 0;
 739              		.loc 1 345 13 is_stmt 1 view .LVU208
 740 00b6 FFF7FEFF 		bl	audio_stop_all
 741              	.LVL63:
 346:keyboards/planck/keymaps/LohseBoi/keymap.c ****         }
 742              		.loc 1 346 13 view .LVU209
 346:keyboards/planck/keymaps/LohseBoi/keymap.c ****         }
 743              		.loc 1 346 26 is_stmt 0 view .LVU210
 744 00ba 2C80     		strh	r4, [r5]	@ movhi
 745              		.loc 1 350 1 view .LVU211
 746 00bc F5E7     		b	.L71
 747              	.L91:
 748 00be 00BF     		.align	2
 749              	.L90:
 750 00c0 00000000 		.word	.LANCHOR1
 751 00c4 00000000 		.word	.LANCHOR2
 752 00c8 00000000 		.word	.LANCHOR3
 753 00cc 08000000 		.word	.LC5
 754 00d0 00000000 		.word	.LC3
 755 00d4 00000000 		.word	.LANCHOR8
 756 00d8 00000000 		.word	.LANCHOR13
 757 00dc 00000000 		.word	.LANCHOR14
 758 00e0 00000000 		.word	.LANCHOR9
 759 00e4 00000000 		.word	.LANCHOR15
 760 00e8 00000000 		.word	.LANCHOR10
 761 00ec 04000000 		.word	.LC4
 762              		.cfi_endproc
 763              	.LFE345:
 765              		.section	.text.music_mask_user,"ax",%progbits
 766              		.align	1
 767              		.global	music_mask_user
 768              		.syntax unified
 769              		.thumb
 770              		.thumb_func
 771              		.fpu fpv4-sp-d16
 773              	music_mask_user:
 774              	.LVL64:
 775              	.LFB346:
 351:keyboards/planck/keymaps/LohseBoi/keymap.c **** 
 352:keyboards/planck/keymaps/LohseBoi/keymap.c **** bool music_mask_user(uint16_t keycode) {
 776              		.loc 1 352 40 is_stmt 1 view -0
 777              		.cfi_startproc
 778              		@ args = 0, pretend = 0, frame = 0
 779              		@ frame_needed = 0, uses_anonymous_args = 0
 780              		@ link register save eliminated.
 353:keyboards/planck/keymaps/LohseBoi/keymap.c ****   switch (keycode) {
 781              		.loc 1 353 3 view .LVU213
 782 0000 A0F5A240 		sub	r0, r0, #20736
 783              	.LVL65:
 784              		.loc 1 353 3 is_stmt 0 view .LVU214
 785 0004 0138     		subs	r0, r0, #1
 354:keyboards/planck/keymaps/LohseBoi/keymap.c ****     case RAISE:
 355:keyboards/planck/keymaps/LohseBoi/keymap.c ****     case LOWER:
 356:keyboards/planck/keymaps/LohseBoi/keymap.c ****       return false;
 357:keyboards/planck/keymaps/LohseBoi/keymap.c ****     default:
 358:keyboards/planck/keymaps/LohseBoi/keymap.c ****       return true;
 359:keyboards/planck/keymaps/LohseBoi/keymap.c ****   }
 360:keyboards/planck/keymaps/LohseBoi/keymap.c **** }
 786              		.loc 1 360 1 view .LVU215
 787 0006 0128     		cmp	r0, #1
 788 0008 94BF     		ite	ls
 789 000a 0020     		movls	r0, #0
 790 000c 0120     		movhi	r0, #1
 791 000e 7047     		bx	lr
 792              		.cfi_endproc
 793              	.LFE346:
 795              		.global	muse_tempo
 796              		.global	muse_offset
 797              		.global	muse_counter
 798              		.global	last_muse_note
 799              		.global	muse_mode
 800              		.global	plover_gb_song
 801              		.global	plover_song
 802              		.global	keymaps
 803              		.global	media_counter
 804              		.global	media_timer
 805              		.global	is_media_active
 806              		.global	media_time
 807              		.global	alttab_active
 808              		.global	rse_tapped
 809              		.global	rse_timer
 810              		.global	lwr_tapped
 811              		.global	lwr_timer
 812              		.section	.rodata
 813              		.set	.LANCHOR14,. + 0
 814              	.LC0:
 815 0000 00       		.byte	0
 816 0001 02       		.byte	2
 817 0002 04       		.byte	4
 818 0003 05       		.byte	5
 819 0004 07       		.byte	7
 820 0005 09       		.byte	9
 821 0006 0B       		.byte	11
 822 0007 0C       		.byte	12
 823 0008 0E       		.byte	14
 824 0009 10       		.byte	16
 825 000a 11       		.byte	17
 826 000b 13       		.byte	19
 827 000c 15       		.byte	21
 828 000d 17       		.byte	23
 829 000e 18       		.byte	24
 830 000f 1A       		.byte	26
 831 0010 1C       		.byte	28
 832 0011 1D       		.byte	29
 833 0012 1F       		.byte	31
 834 0013 21       		.byte	33
 835 0014 23       		.byte	35
 836 0015 24       		.byte	36
 837 0016 26       		.byte	38
 838 0017 28       		.byte	40
 839 0018 29       		.byte	41
 840 0019 2B       		.byte	43
 841 001a 2D       		.byte	45
 842 001b 2F       		.byte	47
 843 001c 30       		.byte	48
 844 001d 32       		.byte	50
 845 001e 34       		.byte	52
 846 001f 35       		.byte	53
 847 0020 37       		.byte	55
 848 0021 39       		.byte	57
 849 0022 3B       		.byte	59
 850              		.section	.bss.alttab_active,"aw",%nobits
 853              	alttab_active:
 854 0000 00       		.space	1
 855              		.section	.bss.is_media_active,"aw",%nobits
 856              		.set	.LANCHOR1,. + 0
 859              	is_media_active:
 860 0000 00       		.space	1
 861              		.section	.bss.last_muse_note,"aw",%nobits
 862              		.set	.LANCHOR15,. + 0
 865              	last_muse_note:
 866 0000 00       		.space	1
 867              		.section	.bss.lwr_tapped,"aw",%nobits
 868              		.set	.LANCHOR5,. + 0
 871              	lwr_tapped:
 872 0000 00       		.space	1
 873              		.section	.bss.lwr_timer,"aw",%nobits
 874              		.align	1
 875              		.set	.LANCHOR4,. + 0
 878              	lwr_timer:
 879 0000 0000     		.space	2
 880              		.section	.bss.media_counter,"aw",%nobits
 881              		.set	.LANCHOR3,. + 0
 884              	media_counter:
 885 0000 00       		.space	1
 886              		.section	.bss.media_timer,"aw",%nobits
 887              		.align	1
 888              		.set	.LANCHOR2,. + 0
 891              	media_timer:
 892 0000 0000     		.space	2
 893              		.section	.bss.muse_counter,"aw",%nobits
 894              		.align	1
 895              		.set	.LANCHOR13,. + 0
 898              	muse_counter:
 899 0000 0000     		.space	2
 900              		.section	.bss.muse_mode,"aw",%nobits
 901              		.set	.LANCHOR8,. + 0
 904              	muse_mode:
 905 0000 00       		.space	1
 906              		.section	.bss.play_sound.0,"aw",%nobits
 907              		.set	.LANCHOR11,. + 0
 910              	play_sound.0:
 911 0000 00       		.space	1
 912              		.section	.bss.rse_tapped,"aw",%nobits
 913              		.set	.LANCHOR7,. + 0
 916              	rse_tapped:
 917 0000 00       		.space	1
 918              		.section	.bss.rse_timer,"aw",%nobits
 919              		.align	1
 920              		.set	.LANCHOR6,. + 0
 923              	rse_timer:
 924 0000 0000     		.space	2
 925              		.section	.data.muse_offset,"aw"
 926              		.set	.LANCHOR9,. + 0
 929              	muse_offset:
 930 0000 46       		.byte	70
 931              		.section	.data.muse_tempo,"aw"
 932              		.align	1
 933              		.set	.LANCHOR10,. + 0
 936              	muse_tempo:
 937 0000 3200     		.short	50
 938              		.section	.data.plover_gb_song,"aw"
 939              		.align	2
 940              		.set	.LANCHOR0,. + 0
 943              	plover_gb_song:
 944 0000 0AA7CF44 		.word	1154459402
 945 0004 00000041 		.word	1090519040
 946 0008 0000DC44 		.word	1155268608
 947 000c 00000041 		.word	1090519040
 948 0010 00000000 		.word	0
 949 0014 00008040 		.word	1082130432
 950 0018 00005C45 		.word	1163657216
 951 001c 00004041 		.word	1094713344
 952 0020 00000000 		.word	0
 953 0024 00008040 		.word	1082130432
 954 0028 52D02445 		.word	1160040530
 955 002c 00004041 		.word	1094713344
 956              		.section	.data.plover_song,"aw"
 957              		.align	2
 958              		.set	.LANCHOR12,. + 0
 961              	plover_song:
 962 0000 0AA7CF44 		.word	1154459402
 963 0004 00000041 		.word	1090519040
 964 0008 0000DC44 		.word	1155268608
 965 000c 00000041 		.word	1090519040
 966 0010 00000000 		.word	0
 967 0014 00008040 		.word	1082130432
 968 0018 52D02445 		.word	1160040530
 969 001c 00004041 		.word	1094713344
 970 0020 00000000 		.word	0
 971 0024 00008040 		.word	1082130432
 972 0028 00005C45 		.word	1163657216
 973 002c 00004041 		.word	1094713344
 974              		.section	.rodata.keymaps,"a"
 975              		.align	1
 978              	keymaps:
 979 0000 2D00     		.short	45
 980 0002 1400     		.short	20
 981 0004 1A00     		.short	26
 982 0006 0800     		.short	8
 983 0008 1500     		.short	21
 984 000a 1700     		.short	23
 985 000c 165C     		.short	23574
 986 000e 0400     		.short	4
 987 0010 1600     		.short	22
 988 0012 0700     		.short	7
 989 0014 0900     		.short	9
 990 0016 0A00     		.short	10
 991 0018 2B00     		.short	43
 992 001a 1D00     		.short	29
 993 001c 1B00     		.short	27
 994 001e 0600     		.short	6
 995 0020 1900     		.short	25
 996 0022 0500     		.short	5
 997 0024 E100     		.short	225
 998 0026 2F00     		.short	47
 999 0028 E000     		.short	224
 1000 002a 4C00     		.short	76
 1001 002c 3000     		.short	48
 1002 002e 2A00     		.short	42
 1003 0030 1C00     		.short	28
 1004 0032 1800     		.short	24
 1005 0034 0C00     		.short	12
 1006 0036 1200     		.short	18
 1007 0038 1300     		.short	19
 1008 003a 2E00     		.short	46
 1009 003c 0B00     		.short	11
 1010 003e 0D00     		.short	13
 1011 0040 0E00     		.short	14
 1012 0042 0F00     		.short	15
 1013 0044 3300     		.short	51
 1014 0046 3100     		.short	49
 1015 0048 1100     		.short	17
 1016 004a 1000     		.short	16
 1017 004c 3600     		.short	54
 1018 004e 3700     		.short	55
 1019 0050 3800     		.short	56
 1020 0052 3400     		.short	52
 1021 0054 2800     		.short	40
 1022 0056 675D     		.short	23911
 1023 0058 E200     		.short	226
 1024 005a E300     		.short	227
 1025 005c 665D     		.short	23910
 1026 005e 2C00     		.short	44
 1027 0060 2D00     		.short	45
 1028 0062 1E00     		.short	30
 1029 0064 1F00     		.short	31
 1030 0066 2000     		.short	32
 1031 0068 2100     		.short	33
 1032 006a 2200     		.short	34
 1033 006c 3500     		.short	53
 1034 006e 0000     		.short	0
 1035 0070 0000     		.short	0
 1036 0072 0000     		.short	0
 1037 0074 0000     		.short	0
 1038 0076 0000     		.short	0
 1039 0078 695D     		.short	23913
 1040 007a 4000     		.short	64
 1041 007c 4100     		.short	65
 1042 007e 4200     		.short	66
 1043 0080 4300     		.short	67
 1044 0082 4400     		.short	68
 1045 0084 3962     		.short	25145
 1046 0086 0000     		.short	0
 1047 0088 0000     		.short	0
 1048 008a 0000     		.short	0
 1049 008c 0000     		.short	0
 1050 008e 0000     		.short	0
 1051 0090 2300     		.short	35
 1052 0092 2400     		.short	36
 1053 0094 2500     		.short	37
 1054 0096 2600     		.short	38
 1055 0098 2700     		.short	39
 1056 009a 2E00     		.short	46
 1057 009c 5000     		.short	80
 1058 009e 5100     		.short	81
 1059 00a0 5200     		.short	82
 1060 00a2 4F00     		.short	79
 1061 00a4 0000     		.short	0
 1062 00a6 0000     		.short	0
 1063 00a8 4500     		.short	69
 1064 00aa 0000     		.short	0
 1065 00ac 0000     		.short	0
 1066 00ae 0000     		.short	0
 1067 00b0 0000     		.short	0
 1068 00b2 0000     		.short	0
 1069 00b4 0100     		.short	1
 1070 00b6 0100     		.short	1
 1071 00b8 0000     		.short	0
 1072 00ba 0000     		.short	0
 1073 00bc 0100     		.short	1
 1074 00be 0100     		.short	1
 1075 00c0 3500     		.short	53
 1076 00c2 1E00     		.short	30
 1077 00c4 1A14     		.short	5146
 1078 00c6 2000     		.short	32
 1079 00c8 2100     		.short	33
 1080 00ca 2200     		.short	34
 1081 00cc 3502     		.short	565
 1082 00ce 0000     		.short	0
 1083 00d0 3A00     		.short	58
 1084 00d2 3B00     		.short	59
 1085 00d4 3C00     		.short	60
 1086 00d6 3D00     		.short	61
 1087 00d8 0100     		.short	1
 1088 00da 1D14     		.short	5149
 1089 00dc 4000     		.short	64
 1090 00de 4100     		.short	65
 1091 00e0 4200     		.short	66
 1092 00e2 4300     		.short	67
 1093 00e4 0100     		.short	1
 1094 00e6 0000     		.short	0
 1095 00e8 0000     		.short	0
 1096 00ea AA00     		.short	170
 1097 00ec A900     		.short	169
 1098 00ee AE00     		.short	174
 1099 00f0 2300     		.short	35
 1100 00f2 2400     		.short	36
 1101 00f4 2500     		.short	37
 1102 00f6 2600     		.short	38
 1103 00f8 2700     		.short	39
 1104 00fa 2A00     		.short	42
 1105 00fc 3E00     		.short	62
 1106 00fe 3F00     		.short	63
 1107 0100 0000     		.short	0
 1108 0102 0F14     		.short	5135
 1109 0104 0000     		.short	0
 1110 0106 0000     		.short	0
 1111 0108 4400     		.short	68
 1112 010a 4500     		.short	69
 1113 010c 0000     		.short	0
 1114 010e 0000     		.short	0
 1115 0110 0000     		.short	0
 1116 0112 0000     		.short	0
 1117 0114 0100     		.short	1
 1118 0116 0100     		.short	1
 1119 0118 AB00     		.short	171
 1120 011a 0000     		.short	0
 1121 011c 0100     		.short	1
 1122 011e 0100     		.short	1
 1123 0120 0000     		.short	0
 1124 0122 635D     		.short	23907
 1125 0124 0000     		.short	0
 1126 0126 0000     		.short	0
 1127 0128 0000     		.short	0
 1128 012a 0000     		.short	0
 1129 012c 0000     		.short	0
 1130 012e 0000     		.short	0
 1131 0130 0000     		.short	0
 1132 0132 0000     		.short	0
 1133 0134 0000     		.short	0
 1134 0136 0000     		.short	0
 1135 0138 0000     		.short	0
 1136 013a 0000     		.short	0
 1137 013c 0000     		.short	0
 1138 013e 0000     		.short	0
 1139 0140 0000     		.short	0
 1140 0142 0000     		.short	0
 1141 0144 0000     		.short	0
 1142 0146 0000     		.short	0
 1143 0148 0000     		.short	0
 1144 014a 0000     		.short	0
 1145 014c 0000     		.short	0
 1146 014e 0000     		.short	0
 1147 0150 0000     		.short	0
 1148 0152 0000     		.short	0
 1149 0154 0000     		.short	0
 1150 0156 DF5C     		.short	23775
 1151 0158 015C     		.short	23553
 1152 015a 005C     		.short	23552
 1153 015c 0000     		.short	0
 1154 015e 0000     		.short	0
 1155 0160 0000     		.short	0
 1156 0162 0000     		.short	0
 1157 0164 0000     		.short	0
 1158 0166 0000     		.short	0
 1159 0168 0000     		.short	0
 1160 016a 0000     		.short	0
 1161 016c 0000     		.short	0
 1162 016e 0000     		.short	0
 1163 0170 0000     		.short	0
 1164 0172 0000     		.short	0
 1165 0174 0100     		.short	1
 1166 0176 0100     		.short	1
 1167 0178 0000     		.short	0
 1168 017a 0000     		.short	0
 1169 017c 0100     		.short	1
 1170 017e 0100     		.short	1
 1171              		.section	.rodata.media_time,"a"
 1172              		.align	1
 1175              	media_time:
 1176 0000 EE02     		.short	750
 1177              		.text
 1178              	.Letext0:
 1179              		.file 2 "/usr/lib/gcc/arm-none-eabi/11.2.0/include/stddef.h"
 1180              		.file 3 "/usr/arm-none-eabi/include/machine/_default_types.h"
 1181              		.file 4 "/usr/arm-none-eabi/include/sys/_stdint.h"
 1182              		.file 5 "quantum/keyboard.h"
 1183              		.file 6 "quantum/keycode.h"
 1184              		.file 7 "quantum/action_code.h"
 1185              		.file 8 "quantum/action.h"
 1186              		.file 9 "quantum/quantum_keycodes.h"
 1187              		.file 10 "quantum/action_layer.h"
 1188              		.file 11 "quantum/keymap.h"
 1189              		.file 12 "quantum/audio/audio.h"
 1190              		.file 13 "quantum/process_keycode/process_audio.h"
 1191              		.file 14 "tmk_core/common/timer.h"
 1192              		.file 15 "quantum/quantum.h"
 1193              		.file 16 "quantum/send_string.h"
 1194              		.file 17 "quantum/audio/muse.h"
 1195              		.file 18 "lib/printf/printf.h"
 1196              		.file 19 "quantum/sequencer/sequencer.h"
DEFINED SYMBOLS
                            *ABS*:0000000000000000 keymap.c
     /tmp/ccy4oJhO.s:18     .text.layer_state_set_user:0000000000000000 $t
     /tmp/ccy4oJhO.s:26     .text.layer_state_set_user:0000000000000000 layer_state_set_user
     /tmp/ccy4oJhO.s:53     .text.process_record_user:0000000000000000 $t
     /tmp/ccy4oJhO.s:60     .text.process_record_user:0000000000000000 process_record_user
     /tmp/ccy4oJhO.s:84     .text.process_record_user:0000000000000012 $d
     /tmp/ccy4oJhO.s:325    .text.process_record_user:0000000000000118 $d
     /tmp/ccy4oJhO.s:339    .text.encoder_update_user:0000000000000000 $t
     /tmp/ccy4oJhO.s:346    .text.encoder_update_user:0000000000000000 encoder_update_user
     /tmp/ccy4oJhO.s:441    .text.encoder_update_user:0000000000000044 $d
     /tmp/ccy4oJhO.s:448    .text.dip_switch_update_user:0000000000000000 $t
     /tmp/ccy4oJhO.s:455    .text.dip_switch_update_user:0000000000000000 dip_switch_update_user
     /tmp/ccy4oJhO.s:552    .text.dip_switch_update_user:000000000000004c $d
     /tmp/ccy4oJhO.s:567    .text.matrix_scan_user:0000000000000000 $t
     /tmp/ccy4oJhO.s:574    .text.matrix_scan_user:0000000000000000 matrix_scan_user
     /tmp/ccy4oJhO.s:750    .text.matrix_scan_user:00000000000000c0 $d
     /tmp/ccy4oJhO.s:766    .text.music_mask_user:0000000000000000 $t
     /tmp/ccy4oJhO.s:773    .text.music_mask_user:0000000000000000 music_mask_user
     /tmp/ccy4oJhO.s:936    .data.muse_tempo:0000000000000000 muse_tempo
     /tmp/ccy4oJhO.s:929    .data.muse_offset:0000000000000000 muse_offset
     /tmp/ccy4oJhO.s:898    .bss.muse_counter:0000000000000000 muse_counter
     /tmp/ccy4oJhO.s:865    .bss.last_muse_note:0000000000000000 last_muse_note
     /tmp/ccy4oJhO.s:904    .bss.muse_mode:0000000000000000 muse_mode
     /tmp/ccy4oJhO.s:943    .data.plover_gb_song:0000000000000000 plover_gb_song
     /tmp/ccy4oJhO.s:961    .data.plover_song:0000000000000000 plover_song
     /tmp/ccy4oJhO.s:978    .rodata.keymaps:0000000000000000 keymaps
     /tmp/ccy4oJhO.s:884    .bss.media_counter:0000000000000000 media_counter
     /tmp/ccy4oJhO.s:891    .bss.media_timer:0000000000000000 media_timer
     /tmp/ccy4oJhO.s:859    .bss.is_media_active:0000000000000000 is_media_active
     /tmp/ccy4oJhO.s:1175   .rodata.media_time:0000000000000000 media_time
     /tmp/ccy4oJhO.s:853    .bss.alttab_active:0000000000000000 alttab_active
     /tmp/ccy4oJhO.s:916    .bss.rse_tapped:0000000000000000 rse_tapped
     /tmp/ccy4oJhO.s:923    .bss.rse_timer:0000000000000000 rse_timer
     /tmp/ccy4oJhO.s:871    .bss.lwr_tapped:0000000000000000 lwr_tapped
     /tmp/ccy4oJhO.s:878    .bss.lwr_timer:0000000000000000 lwr_timer
     /tmp/ccy4oJhO.s:854    .bss.alttab_active:0000000000000000 $d
     /tmp/ccy4oJhO.s:860    .bss.is_media_active:0000000000000000 $d
     /tmp/ccy4oJhO.s:866    .bss.last_muse_note:0000000000000000 $d
     /tmp/ccy4oJhO.s:872    .bss.lwr_tapped:0000000000000000 $d
     /tmp/ccy4oJhO.s:874    .bss.lwr_timer:0000000000000000 $d
     /tmp/ccy4oJhO.s:885    .bss.media_counter:0000000000000000 $d
     /tmp/ccy4oJhO.s:887    .bss.media_timer:0000000000000000 $d
     /tmp/ccy4oJhO.s:894    .bss.muse_counter:0000000000000000 $d
     /tmp/ccy4oJhO.s:905    .bss.muse_mode:0000000000000000 $d
     /tmp/ccy4oJhO.s:910    .bss.play_sound.0:0000000000000000 play_sound.0
     /tmp/ccy4oJhO.s:911    .bss.play_sound.0:0000000000000000 $d
     /tmp/ccy4oJhO.s:917    .bss.rse_tapped:0000000000000000 $d
     /tmp/ccy4oJhO.s:919    .bss.rse_timer:0000000000000000 $d
     /tmp/ccy4oJhO.s:932    .data.muse_tempo:0000000000000000 $d
     /tmp/ccy4oJhO.s:939    .data.plover_gb_song:0000000000000000 $d
     /tmp/ccy4oJhO.s:957    .data.plover_song:0000000000000000 $d
     /tmp/ccy4oJhO.s:975    .rodata.keymaps:0000000000000000 $d
     /tmp/ccy4oJhO.s:1172   .rodata.media_time:0000000000000000 $d
     /tmp/ccy4oJhO.s:91     .text.process_record_user:0000000000000019 $d
     /tmp/ccy4oJhO.s:91     .text.process_record_user:000000000000001a $t

UNDEFINED SYMBOLS
update_tri_layer_state
printf_
set_single_persistent_default_layer
register_code
audio_play_melody
timer_read
send_string_P
layer_on
update_tri_layer
timer_elapsed
unregister_code
layer_off
layer_state_is
tap_code
muse_clock_pulse
compute_freq_for_midi_note
audio_stop_tone
audio_play_tone
audio_stop_all
