   1               		.file	"keymap.c"
   2               	__SP_H__ = 0x3e
   3               	__SP_L__ = 0x3d
   4               	__SREG__ = 0x3f
   5               	__tmp_reg__ = 0
   6               	__zero_reg__ = 1
   7               		.text
   8               	.Ltext0:
   9               		.cfi_sections	.debug_frame
  10               		.section	.text.oled_init_user,"ax",@progbits
  11               	.global	oled_init_user
  13               	oled_init_user:
  14               	.LVL0:
  15               	.LFB29:
  16               		.file 1 "keyboards/sofle/keymaps/LohseBoi/keymap.c"
   1:keyboards/sofle/keymaps/LohseBoi/keymap.c **** //#include <stdio.h>
   2:keyboards/sofle/keymaps/LohseBoi/keymap.c **** #include QMK_KEYBOARD_H
   3:keyboards/sofle/keymaps/LohseBoi/keymap.c **** 
   4:keyboards/sofle/keymaps/LohseBoi/keymap.c **** //WPM
   5:keyboards/sofle/keymaps/LohseBoi/keymap.c **** static void to_string(char*, uint8_t);
   6:keyboards/sofle/keymaps/LohseBoi/keymap.c **** uint16_t wpm_timer = 0;
   7:keyboards/sofle/keymaps/LohseBoi/keymap.c **** 
   8:keyboards/sofle/keymaps/LohseBoi/keymap.c **** //Shift/Caps
   9:keyboards/sofle/keymaps/LohseBoi/keymap.c **** #define KC_SFTCL MT(MOD_LSFT, KC_CAPS)
  10:keyboards/sofle/keymaps/LohseBoi/keymap.c **** 
  11:keyboards/sofle/keymaps/LohseBoi/keymap.c **** //Alt+Tab
  12:keyboards/sofle/keymaps/LohseBoi/keymap.c **** #define ALT_TAB KC_ALT_TAB
  13:keyboards/sofle/keymaps/LohseBoi/keymap.c **** bool alttab_active = false;
  14:keyboards/sofle/keymaps/LohseBoi/keymap.c **** 
  15:keyboards/sofle/keymaps/LohseBoi/keymap.c **** //Lower hold/tap
  16:keyboards/sofle/keymaps/LohseBoi/keymap.c **** uint16_t lwr_timer = 0;
  17:keyboards/sofle/keymaps/LohseBoi/keymap.c **** bool lwr_tapped = false;
  18:keyboards/sofle/keymaps/LohseBoi/keymap.c **** 
  19:keyboards/sofle/keymaps/LohseBoi/keymap.c **** //Media macro variables
  20:keyboards/sofle/keymaps/LohseBoi/keymap.c **** const uint16_t media_time = 750;
  21:keyboards/sofle/keymaps/LohseBoi/keymap.c **** bool is_media_active = false;
  22:keyboards/sofle/keymaps/LohseBoi/keymap.c **** uint16_t media_timer = 0;
  23:keyboards/sofle/keymaps/LohseBoi/keymap.c **** uint8_t media_counter = 0;
  24:keyboards/sofle/keymaps/LohseBoi/keymap.c **** 
  25:keyboards/sofle/keymaps/LohseBoi/keymap.c **** //Encoder turning counter
  26:keyboards/sofle/keymaps/LohseBoi/keymap.c **** uint8_t turner[2] = {0, 0};
  27:keyboards/sofle/keymaps/LohseBoi/keymap.c **** 
  28:keyboards/sofle/keymaps/LohseBoi/keymap.c **** /*  TODO
  29:keyboards/sofle/keymaps/LohseBoi/keymap.c ****  *      _LOWER
  30:keyboards/sofle/keymaps/LohseBoi/keymap.c ****  *      _RAISE
  31:keyboards/sofle/keymaps/LohseBoi/keymap.c ****  *      _ADJUST
  32:keyboards/sofle/keymaps/LohseBoi/keymap.c ****  *      _GAMER
  33:keyboards/sofle/keymaps/LohseBoi/keymap.c ****  *      Perhaps arrow layer (WASD and HJKL) for dual play (Encoders could be directions as well - R
  34:keyboards/sofle/keymaps/LohseBoi/keymap.c ****  *      More macros
  35:keyboards/sofle/keymaps/LohseBoi/keymap.c ****  *      Secondary Screen Info - Ideas:
  36:keyboards/sofle/keymaps/LohseBoi/keymap.c ****  *          - Date?
  37:keyboards/sofle/keymaps/LohseBoi/keymap.c ****  *          - Time?
  38:keyboards/sofle/keymaps/LohseBoi/keymap.c ****  *          - Noted cmd for bad memory (IE Server)
  39:keyboards/sofle/keymaps/LohseBoi/keymap.c ****  */
  40:keyboards/sofle/keymaps/LohseBoi/keymap.c **** 
  41:keyboards/sofle/keymaps/LohseBoi/keymap.c **** 
  42:keyboards/sofle/keymaps/LohseBoi/keymap.c **** /*  Potential macros:
  43:keyboards/sofle/keymaps/LohseBoi/keymap.c ****  *      Ctrl+F and use encoder to scroll through (print search status on oled)
  44:keyboards/sofle/keymaps/LohseBoi/keymap.c ****  *      PrintScreen (Screenshot)
  45:keyboards/sofle/keymaps/LohseBoi/keymap.c ****  */
  46:keyboards/sofle/keymaps/LohseBoi/keymap.c **** 
  47:keyboards/sofle/keymaps/LohseBoi/keymap.c **** 
  48:keyboards/sofle/keymaps/LohseBoi/keymap.c **** enum sofle_layers {
  49:keyboards/sofle/keymaps/LohseBoi/keymap.c ****     /* _M_XYZ = Mac Os, _W_XYZ = Win/Linux */
  50:keyboards/sofle/keymaps/LohseBoi/keymap.c ****     _QWERTY,
  51:keyboards/sofle/keymaps/LohseBoi/keymap.c ****     _GAMER,
  52:keyboards/sofle/keymaps/LohseBoi/keymap.c **** 
  53:keyboards/sofle/keymaps/LohseBoi/keymap.c ****     _LOWER,
  54:keyboards/sofle/keymaps/LohseBoi/keymap.c ****     _RAISE,
  55:keyboards/sofle/keymaps/LohseBoi/keymap.c ****     _ADJUST
  56:keyboards/sofle/keymaps/LohseBoi/keymap.c **** };
  57:keyboards/sofle/keymaps/LohseBoi/keymap.c **** 
  58:keyboards/sofle/keymaps/LohseBoi/keymap.c **** enum custom_keycodes {
  59:keyboards/sofle/keymaps/LohseBoi/keymap.c ****     KC_QWERTY = SAFE_RANGE,
  60:keyboards/sofle/keymaps/LohseBoi/keymap.c ****     KC_LOWER,
  61:keyboards/sofle/keymaps/LohseBoi/keymap.c ****     KC_RAISE,
  62:keyboards/sofle/keymaps/LohseBoi/keymap.c ****     KC_ADJUST,
  63:keyboards/sofle/keymaps/LohseBoi/keymap.c ****     KC_GAMER, //Homemade
  64:keyboards/sofle/keymaps/LohseBoi/keymap.c **** 
  65:keyboards/sofle/keymaps/LohseBoi/keymap.c ****     //Homemade keycodes
  66:keyboards/sofle/keymaps/LohseBoi/keymap.c ****     KC_MED,
  67:keyboards/sofle/keymaps/LohseBoi/keymap.c ****     KC_ALT_TAB,
  68:keyboards/sofle/keymaps/LohseBoi/keymap.c ****     KC_HLWR,
  69:keyboards/sofle/keymaps/LohseBoi/keymap.c **** };
  70:keyboards/sofle/keymaps/LohseBoi/keymap.c **** 
  71:keyboards/sofle/keymaps/LohseBoi/keymap.c **** 
  72:keyboards/sofle/keymaps/LohseBoi/keymap.c **** const uint16_t PROGMEM keymaps[][MATRIX_ROWS][MATRIX_COLS] = {
  73:keyboards/sofle/keymaps/LohseBoi/keymap.c **** /*
  74:keyboards/sofle/keymaps/LohseBoi/keymap.c ****  * QWERTY (DONE) - TG(layer) for toggle --- lctrl and win/super is switch cuz error I guess
  75:keyboards/sofle/keymaps/LohseBoi/keymap.c ****  * ,-----------------------------------------.                    ,--------------------------------
  76:keyboards/sofle/keymaps/LohseBoi/keymap.c ****  * |   -  |   1  |   2  |   3  |   4  |   5  |                    |   6  |   7  |   8  |   9  |   0
  77:keyboards/sofle/keymaps/LohseBoi/keymap.c ****  * |------+------+------+------+------+------|                    |------+------+------+------+----
  78:keyboards/sofle/keymaps/LohseBoi/keymap.c ****  * | ESC/`|   Q  |   W  |   E  |   R  |   T  |                    |   Y  |   U  |   I  |   O  |   P
  79:keyboards/sofle/keymaps/LohseBoi/keymap.c ****  * |------+------+------+------+------+------|                    |------+------+------+------+----
  80:keyboards/sofle/keymaps/LohseBoi/keymap.c ****  * |  TAB |   A  |   S  |   D  |   F  |   G  |-------.    ,-------|   H  |   J  |   K  |   L  |   ;
  81:keyboards/sofle/keymaps/LohseBoi/keymap.c ****  * |------+------+------+------+------+------| MUTE  |    | Media |------+------+------+------+----
  82:keyboards/sofle/keymaps/LohseBoi/keymap.c ****  * |LSHIFT|   Z  |   X  |   C  |   V  |   B  |-------|    |-------|   N  |   M  |   ,  |   .  |   /
  83:keyboards/sofle/keymaps/LohseBoi/keymap.c ****  * `-----------------------------------------/       /    \       \--------------------------------
  84:keyboards/sofle/keymaps/LohseBoi/keymap.c ****  *            |  [   | LCTRL| WIN/ |LOWER/| / Space /      \ Enter \  | RAISE| Lalt | Del  |   ]  |
  85:keyboards/sofle/keymaps/LohseBoi/keymap.c ****  *            |      |      | SUPER|  FN  |/       /        \       \ |      |      |      |      |
  86:keyboards/sofle/keymaps/LohseBoi/keymap.c ****  *            `-----------------------------------'          '-------`'---------------------------'
  87:keyboards/sofle/keymaps/LohseBoi/keymap.c ****  */
  88:keyboards/sofle/keymaps/LohseBoi/keymap.c **** [_QWERTY] = LAYOUT( \
  89:keyboards/sofle/keymaps/LohseBoi/keymap.c ****   KC_MINS,  KC_1,   KC_2,    KC_3,    KC_4,    KC_5,                     KC_6,    KC_7,    KC_8,   
  90:keyboards/sofle/keymaps/LohseBoi/keymap.c ****   KC_GESC,  KC_Q,   KC_W,    KC_E,    KC_R,    KC_T,                     KC_Y,    KC_U,    KC_I,   
  91:keyboards/sofle/keymaps/LohseBoi/keymap.c ****   KC_TAB,   KC_A,   KC_S,    KC_D,    KC_F,    KC_G,                     KC_H,    KC_J,    KC_K,   
  92:keyboards/sofle/keymaps/LohseBoi/keymap.c ****   KC_LSFT,  KC_Z,   KC_X,    KC_C,    KC_V,    KC_B, KC_MUTE,    KC_MED,KC_N,    KC_M, KC_COMM,  KC
  93:keyboards/sofle/keymaps/LohseBoi/keymap.c ****                  KC_LBRC, KC_LCTL, KC_LGUI, KC_HLWR, KC_SPC,      KC_ENT,  KC_RAISE, KC_LALT, KC_DE
  94:keyboards/sofle/keymaps/LohseBoi/keymap.c **** ),
  95:keyboards/sofle/keymaps/LohseBoi/keymap.c **** 
  96:keyboards/sofle/keymaps/LohseBoi/keymap.c **** /* RAISE (NOT DONE - Macros like Alt+F4, and such)
  97:keyboards/sofle/keymaps/LohseBoi/keymap.c ****  * ,-----------------------------------------.                    ,--------------------------------
  98:keyboards/sofle/keymaps/LohseBoi/keymap.c ****  * |   -  |   1  |   2  |   3  |   4  |   5  |                    |   6  |   7  |   8  |   9  |   0
  99:keyboards/sofle/keymaps/LohseBoi/keymap.c ****  * |------+------+------+------+------+------|                    |------+------+------+------+----
 100:keyboards/sofle/keymaps/LohseBoi/keymap.c ****  * |  `   |      |  Å   |      |      |      |                    |      |      |      |      |   
 101:keyboards/sofle/keymaps/LohseBoi/keymap.c ****  * |------+------+------+------+------+------|                    |------+------+------+------+----
 102:keyboards/sofle/keymaps/LohseBoi/keymap.c ****  * | TAB  |      |      |      |      |      |-------.    ,-------|      |      |      |   Ø  |   
 103:keyboards/sofle/keymaps/LohseBoi/keymap.c ****  * |------+------+------+------+------+------| MUTE  |    | Media |------+------+------+------+----
 104:keyboards/sofle/keymaps/LohseBoi/keymap.c ****  * |SHIFT |  Æ   |      |      |      |      |-------|    |-------|      |      |      |      |   
 105:keyboards/sofle/keymaps/LohseBoi/keymap.c ****  * `-----------------------------------------/       /    \       \--------------------------------
 106:keyboards/sofle/keymaps/LohseBoi/keymap.c ****  *            |      | LCTRL| WIN/ |LOWER/| / Space /      \ Enter \  | RAISE| Lalt | Del  |      |
 107:keyboards/sofle/keymaps/LohseBoi/keymap.c ****  *            |      |      | SUPER|  FN  |/       /        \       \ |      |      |      |      |
 108:keyboards/sofle/keymaps/LohseBoi/keymap.c ****  *            `-----------------------------------'          '-------`'---------------------------'
 109:keyboards/sofle/keymaps/LohseBoi/keymap.c ****  */
 110:keyboards/sofle/keymaps/LohseBoi/keymap.c **** [_RAISE] = LAYOUT( \
 111:keyboards/sofle/keymaps/LohseBoi/keymap.c ****   _______, _______, _______, _______, _______, _______,                        _______, _______, __
 112:keyboards/sofle/keymaps/LohseBoi/keymap.c ****   KC_GRAVE, XXXXXXX, RALT(KC_W), XXXXXXX, XXXXXXX, XXXXXXX,                         XXXXXXX, XXXXXX
 113:keyboards/sofle/keymaps/LohseBoi/keymap.c ****   _______, XXXXXXX, XXXXXXX, XXXXXXX, XXXXXXX, XXXXXXX,                         XXXXXXX, XXXXXXX, X
 114:keyboards/sofle/keymaps/LohseBoi/keymap.c ****   KC_LSFT, RALT(KC_Z), XXXXXXX, XXXXXXX, XXXXXXX, XXXXXXX, _______,           _______, XXXXXXX, XXX
 115:keyboards/sofle/keymaps/LohseBoi/keymap.c **** 
 116:keyboards/sofle/keymaps/LohseBoi/keymap.c ****                     XXXXXXX, _______, _______, _______, _______,           _______, _______, ______
 117:keyboards/sofle/keymaps/LohseBoi/keymap.c **** ),
 118:keyboards/sofle/keymaps/LohseBoi/keymap.c **** 
 119:keyboards/sofle/keymaps/LohseBoi/keymap.c **** /* LOWER (NOT DONE - fn, PgUp/Down, etc.)
 120:keyboards/sofle/keymaps/LohseBoi/keymap.c ****  * ,----------------------------------------.                    ,---------------------------------
 121:keyboards/sofle/keymaps/LohseBoi/keymap.c ****  * |  F1  |  F2  |  F3  |  F4  |  F5  |  F6  |                    |  F7  |  F8  |  F9  |  F10 |  F1
 122:keyboards/sofle/keymaps/LohseBoi/keymap.c ****  * |------+------+------+------+------+------|                    |------+------+------+------+----
 123:keyboards/sofle/keymaps/LohseBoi/keymap.c ****  * |   `  |      |      |      |      |      |                    |      |      |      |      |    
 124:keyboards/sofle/keymaps/LohseBoi/keymap.c ****  * |------+------+------+------+------+------|                    |------+------+------+------+----
 125:keyboards/sofle/keymaps/LohseBoi/keymap.c ****  * |ALTTAB|      |      |      |      |      |-------.    ,-------| Left | Down |  Up  | Right|    
 126:keyboards/sofle/keymaps/LohseBoi/keymap.c ****  * |------+------+------+------+------+------| MUTE  |    | Media |------+------+------+------+----
 127:keyboards/sofle/keymaps/LohseBoi/keymap.c ****  * | S/CL |      |      |      |      |      |-------|    |-------|      ||     |      |      |    
 128:keyboards/sofle/keymaps/LohseBoi/keymap.c ****  * `-----------------------------------------/       /    \       \--------------------------------
 129:keyboards/sofle/keymaps/LohseBoi/keymap.c ****  *            |      | LCTRL| WIN/ |LOWER/| / Space /      \ Enter \  | RAISE| Lalt | Del  |      |
 130:keyboards/sofle/keymaps/LohseBoi/keymap.c ****  *            |      |      | SUPER|  FN  |/       /        \       \ |      |      |      |      |
 131:keyboards/sofle/keymaps/LohseBoi/keymap.c ****  *            `-----------------------------------'          '-------`'---------------------------'
 132:keyboards/sofle/keymaps/LohseBoi/keymap.c ****  */
 133:keyboards/sofle/keymaps/LohseBoi/keymap.c **** [_LOWER] = LAYOUT( \
 134:keyboards/sofle/keymaps/LohseBoi/keymap.c ****   KC_F1,   KC_F2,   KC_F3,    KC_F4,   KC_F5,   KC_F6,                           KC_F7,   KC_F8,   
 135:keyboards/sofle/keymaps/LohseBoi/keymap.c ****   KC_GRAVE, XXXXXXX, XXXXXXX, XXXXXXX,  XXXXXXX, XXXXXXX,                       XXXXXXX, XXXXXXX, X
 136:keyboards/sofle/keymaps/LohseBoi/keymap.c ****   ALT_TAB,  XXXXXXX, XXXXXXX, XXXXXXX,  XXXXXXX, XXXXXXX,                       KC_LEFT, KC_DOWN, K
 137:keyboards/sofle/keymaps/LohseBoi/keymap.c ****   KC_SFTCL, XXXXXXX, XXXXXXX, XXXXXXX, XXXXXXX, XXXXXXX, _______,       _______, XXXXXXX, XXXXXXX, 
 138:keyboards/sofle/keymaps/LohseBoi/keymap.c ****                      XXXXXXX, _______, _______, _______, _______,       _______, _______, _______, 
 139:keyboards/sofle/keymaps/LohseBoi/keymap.c **** ),
 140:keyboards/sofle/keymaps/LohseBoi/keymap.c **** 
 141:keyboards/sofle/keymaps/LohseBoi/keymap.c **** /* ADJUST (NOT DONE - perhaps macros)
 142:keyboards/sofle/keymaps/LohseBoi/keymap.c ****  * ,-----------------------------------------.                    ,--------------------------------
 143:keyboards/sofle/keymaps/LohseBoi/keymap.c ****  * |      |      |      |      |      |      |                    |      |      |      |      |    
 144:keyboards/sofle/keymaps/LohseBoi/keymap.c ****  * |------+------+------+------+------+------|                    |------+------+------+------+----
 145:keyboards/sofle/keymaps/LohseBoi/keymap.c ****  * |      |QWERTY|      |      |      |      |                    |      |      |      |      |    
 146:keyboards/sofle/keymaps/LohseBoi/keymap.c ****  * |------+------+------+------+------+------|                    |------+------+------+------+----
 147:keyboards/sofle/keymaps/LohseBoi/keymap.c ****  * |      |      |MACWIN|      |      |GAMER |-------.    ,-------|      | VOLDO| MUTE | VOLUP|    
 148:keyboards/sofle/keymaps/LohseBoi/keymap.c ****  * |------+------+------+------+------+------|  MUTE |    |       |------+------+------+------+----
 149:keyboards/sofle/keymaps/LohseBoi/keymap.c ****  * |SHIFT |      |      |      |      |      |-------|    |-------|      | PREV | PLAY | NEXT |    
 150:keyboards/sofle/keymaps/LohseBoi/keymap.c ****  * `-----------------------------------------/       /    \       \--------------------------------
 151:keyboards/sofle/keymaps/LohseBoi/keymap.c ****  *            |      | LCTRL| WIN/ |LOWER/| / Space /      \ Enter \  | RAISE| Ralt | Del  |      |
 152:keyboards/sofle/keymaps/LohseBoi/keymap.c ****  *            |      |      | SUPER|  FN  |/       /        \       \ |      |      |      |      |
 153:keyboards/sofle/keymaps/LohseBoi/keymap.c ****  *            `-----------------------------------'          '-------`'---------------------------'
 154:keyboards/sofle/keymaps/LohseBoi/keymap.c ****  */
 155:keyboards/sofle/keymaps/LohseBoi/keymap.c **** [_ADJUST] = LAYOUT( \
 156:keyboards/sofle/keymaps/LohseBoi/keymap.c ****   XXXXXXX , XXXXXXX,  XXXXXXX ,  XXXXXXX , XXXXXXX, XXXXXXX,                     XXXXXXX, XXXXXXX, 
 157:keyboards/sofle/keymaps/LohseBoi/keymap.c ****   XXXXXXX , KC_QWERTY,XXXXXXX, XXXXXXX ,XXXXXXX,XXXXXXX,                     XXXXXXX, XXXXXXX, XXXX
 158:keyboards/sofle/keymaps/LohseBoi/keymap.c ****   XXXXXXX , XXXXXXX,CG_TOGG, XXXXXXX,    XXXXXXX,  KC_GAMER,                     XXXXXXX, KC_VOLD, 
 159:keyboards/sofle/keymaps/LohseBoi/keymap.c ****   _______ , XXXXXXX, XXXXXXX, XXXXXXX,    XXXXXXX,  XXXXXXX, XXXXXXX,     XXXXXXX, XXXXXXX, KC_MPRV
 160:keyboards/sofle/keymaps/LohseBoi/keymap.c ****                    XXXXXXX, _______, _______, _______, _______,     _______, _______, _______, ____
 161:keyboards/sofle/keymaps/LohseBoi/keymap.c **** ),
 162:keyboards/sofle/keymaps/LohseBoi/keymap.c **** 
 163:keyboards/sofle/keymaps/LohseBoi/keymap.c **** /*
 164:keyboards/sofle/keymaps/LohseBoi/keymap.c ****  * GAMER (NOT DONE)
 165:keyboards/sofle/keymaps/LohseBoi/keymap.c ****  * ,-----------------------------------------.                    ,--------------------------------
 166:keyboards/sofle/keymaps/LohseBoi/keymap.c ****  * | ESC  |   1  |   2  |   3  |   4  |   5  |                    |   6  |   7  |   8  |   9  |   0
 167:keyboards/sofle/keymaps/LohseBoi/keymap.c ****  * |------+------+------+------+------+------|                    |------+------+------+------+----
 168:keyboards/sofle/keymaps/LohseBoi/keymap.c ****  * | TAB  |   Q  |   W  |   E  |   R  |   T  |                    |   Y  |   U  |   I  |   O  |   P
 169:keyboards/sofle/keymaps/LohseBoi/keymap.c ****  * |------+------+------+------+------+------|                    |------+------+------+------+----
 170:keyboards/sofle/keymaps/LohseBoi/keymap.c ****  * | CTRL |   A  |   S  |   D  |   F  |   G  |-------.    ,-------|   H  |   J  |   K  |   L  |   ;
 171:keyboards/sofle/keymaps/LohseBoi/keymap.c ****  * |------+------+------+------+------+------| MUTE  |    | Media |------+------+------+------+----
 172:keyboards/sofle/keymaps/LohseBoi/keymap.c ****  * |LSHIFT|   Z  |   X  |   C  |   V  |   B  |-------|    |-------|   N  |   M  |   ,  |   .  |   /
 173:keyboards/sofle/keymaps/LohseBoi/keymap.c ****  * `-----------------------------------------/       /    \       \--------------------------------
 174:keyboards/sofle/keymaps/LohseBoi/keymap.c ****  *            |LOWER |I(nv) |M(ap) | ALT  | / Space /      \ Enter \  | RAISE| Ralt | Del  |ADJUST|
 175:keyboards/sofle/keymaps/LohseBoi/keymap.c ****  *            |      |      |      |      |/       /        \       \ |      |      |      |      |
 176:keyboards/sofle/keymaps/LohseBoi/keymap.c ****  *            `-----------------------------------'          '-------`'---------------------------'
 177:keyboards/sofle/keymaps/LohseBoi/keymap.c ****  */
 178:keyboards/sofle/keymaps/LohseBoi/keymap.c **** [_GAMER] = LAYOUT( \
 179:keyboards/sofle/keymaps/LohseBoi/keymap.c ****   KC_ESC,   KC_1,   KC_2,    KC_3,    KC_4,    KC_5,                     KC_6,    KC_7,    KC_8,   
 180:keyboards/sofle/keymaps/LohseBoi/keymap.c ****   KC_TAB,   KC_Q,   KC_W,    KC_E,    KC_R,    KC_T,                     KC_Y,    KC_U,    KC_I,   
 181:keyboards/sofle/keymaps/LohseBoi/keymap.c ****   KC_LCTRL, KC_A,   KC_S,    KC_D,    KC_F,    KC_G,                     KC_H,    KC_J,    KC_K,   
 182:keyboards/sofle/keymaps/LohseBoi/keymap.c ****   KC_LSFT,  KC_Z,   KC_X,    KC_C,    KC_V,    KC_B, KC_MUTE,    KC_MED, KC_N,    KC_M,    KC_COMM,
 183:keyboards/sofle/keymaps/LohseBoi/keymap.c ****                       KC_LOWER, KC_I, KC_M, KC_LALT, _______,    _______, KC_RAISE, KC_LALT, KC_DEL
 184:keyboards/sofle/keymaps/LohseBoi/keymap.c ****   )
 185:keyboards/sofle/keymaps/LohseBoi/keymap.c **** };
 186:keyboards/sofle/keymaps/LohseBoi/keymap.c **** 
 187:keyboards/sofle/keymaps/LohseBoi/keymap.c **** //#ifdef OLED_DRIVER_ENABLE
 188:keyboards/sofle/keymaps/LohseBoi/keymap.c **** 
 189:keyboards/sofle/keymaps/LohseBoi/keymap.c **** static void render_logo(void) {
 190:keyboards/sofle/keymaps/LohseBoi/keymap.c ****     /*
 191:keyboards/sofle/keymaps/LohseBoi/keymap.c ****     static const char PROGMEM logo[] = {  //archHub
 192:keyboards/sofle/keymaps/LohseBoi/keymap.c ****         0x00, 0x00, 0x00, 0x00, 0x00, 0x00, 0x00, 0x00, 0x00, 0x00, 0x00, 0x00, 0x00, 0x00, 0x00, 0
 193:keyboards/sofle/keymaps/LohseBoi/keymap.c ****         0x00, 0x00, 0x00, 0x00, 0x00, 0x00, 0x00, 0x00, 0x00, 0x00, 0x00, 0x00, 0x00, 0x00, 0x00, 0
 194:keyboards/sofle/keymaps/LohseBoi/keymap.c ****         0x00, 0x00, 0x00, 0x00, 0x00, 0x00, 0x00, 0x00, 0x00, 0x00, 0x00, 0x00, 0x00, 0x00, 0x00, 0
 195:keyboards/sofle/keymaps/LohseBoi/keymap.c ****         0x00, 0x00, 0x00, 0x00, 0x00, 0x00, 0x00, 0x00, 0x00, 0x00, 0x00, 0x00, 0x00, 0xfc, 0xfc, 0
 196:keyboards/sofle/keymaps/LohseBoi/keymap.c ****         0xfe, 0xfe, 0xfe, 0xfe, 0xfe, 0xfe, 0xfe, 0xfe, 0xfe, 0xfe, 0xfe, 0xfe, 0xfe, 0xfe, 0xfe, 0
 197:keyboards/sofle/keymaps/LohseBoi/keymap.c ****         0xfe, 0xfe, 0xfe, 0xfe, 0xfe, 0xfe, 0xfe, 0xfe, 0xfe, 0xfe, 0xfe, 0xfe, 0xfe, 0xfe, 0xfe, 0
 198:keyboards/sofle/keymaps/LohseBoi/keymap.c ****         0xfe, 0xfe, 0xfe, 0xfe, 0xfe, 0xfe, 0xfe, 0xfe, 0xfe, 0xfe, 0xfe, 0xfe, 0xfe, 0xfe, 0xfe, 0
 199:keyboards/sofle/keymaps/LohseBoi/keymap.c ****         0xfe, 0xfe, 0xf8, 0x00, 0x00, 0x00, 0x00, 0x00, 0x00, 0x00, 0x00, 0x00, 0x00, 0x00, 0x00, 0
 200:keyboards/sofle/keymaps/LohseBoi/keymap.c ****         0x00, 0x00, 0x00, 0x00, 0x00, 0x00, 0x00, 0x00, 0x00, 0x00, 0x00, 0x00, 0x00, 0x00, 0x00, 0
 201:keyboards/sofle/keymaps/LohseBoi/keymap.c ****         0x00, 0x00, 0x00, 0x00, 0xc0, 0xf8, 0x1c, 0x1c, 0xf8, 0xc0, 0x00, 0x00, 0x00, 0x00, 0x00, 0
 202:keyboards/sofle/keymaps/LohseBoi/keymap.c ****         0xc0, 0xc0, 0x80, 0x80, 0xc0, 0xc0, 0x00, 0x00, 0x00, 0x80, 0xc0, 0xc0, 0xc0, 0x40, 0xc0, 0
 203:keyboards/sofle/keymaps/LohseBoi/keymap.c ****         0x00, 0x00, 0xfe, 0xfe, 0x80, 0xc0, 0x40, 0x40, 0xc0, 0xc0, 0x80, 0x00, 0x00, 0xff, 0xff, 0
 204:keyboards/sofle/keymaps/LohseBoi/keymap.c ****         0x01, 0xff, 0xff, 0xff, 0xff, 0xff, 0xff, 0xff, 0xf3, 0x21, 0x21, 0xf3, 0xff, 0xff, 0x3f, 0
 205:keyboards/sofle/keymaps/LohseBoi/keymap.c ****         0x3f, 0x7f, 0x3f, 0x3f, 0x3f, 0x3f, 0x7f, 0xff, 0xff, 0xff, 0x3f, 0x3f, 0x3f, 0xff, 0xff, 0
 206:keyboards/sofle/keymaps/LohseBoi/keymap.c ****         0xff, 0x3f, 0x3f, 0x3f, 0xff, 0xff, 0xbf, 0x3f, 0x3f, 0x7f, 0xff, 0xff, 0x7f, 0x3f, 0x3f, 0
 207:keyboards/sofle/keymaps/LohseBoi/keymap.c ****         0xff, 0xff, 0xff, 0x00, 0x00, 0x00, 0x00, 0x00, 0x00, 0x00, 0x00, 0x00, 0x00, 0x00, 0x00, 0
 208:keyboards/sofle/keymaps/LohseBoi/keymap.c ****         0x00, 0x00, 0x00, 0x00, 0x00, 0x00, 0x00, 0x00, 0x00, 0x00, 0x00, 0x00, 0x00, 0x00, 0x00, 0
 209:keyboards/sofle/keymaps/LohseBoi/keymap.c ****         0x00, 0xc0, 0xf8, 0x3f, 0x0f, 0x08, 0x08, 0x08, 0x08, 0x0f, 0x3f, 0xf8, 0xc0, 0x00, 0x00, 0
 210:keyboards/sofle/keymaps/LohseBoi/keymap.c ****         0xff, 0xff, 0x03, 0x00, 0x00, 0x00, 0x00, 0x00, 0x3f, 0x7f, 0xe1, 0xc0, 0xc0, 0x80, 0xc0, 0
 211:keyboards/sofle/keymaps/LohseBoi/keymap.c ****         0x00, 0x00, 0xff, 0xff, 0x01, 0x00, 0x00, 0x00, 0x00, 0xff, 0xff, 0x00, 0x00, 0xff, 0xff, 0
 212:keyboards/sofle/keymaps/LohseBoi/keymap.c ****         0x00, 0x3f, 0x3f, 0x3f, 0x3f, 0x3f, 0xff, 0xff, 0xff, 0x00, 0x00, 0xff, 0xff, 0xff, 0x00, 0
 213:keyboards/sofle/keymaps/LohseBoi/keymap.c ****         0x00, 0xfe, 0xff, 0xff, 0xff, 0x00, 0x00, 0x00, 0xff, 0xff, 0xe0, 0x80, 0x00, 0x1f, 0x3f, 0
 214:keyboards/sofle/keymaps/LohseBoi/keymap.c ****         0x3f, 0x00, 0x00, 0x00, 0xff, 0xff, 0x7f, 0x3f, 0x0c, 0x80, 0xe1, 0xe1, 0x80, 0x0c, 0x3f, 0
 215:keyboards/sofle/keymaps/LohseBoi/keymap.c ****         0xff, 0xff, 0xff, 0x00, 0x00, 0x00, 0x00, 0x00, 0x00, 0x00, 0x00, 0x00, 0x00, 0x00, 0x00, 0
 216:keyboards/sofle/keymaps/LohseBoi/keymap.c ****         0x00, 0x00, 0x00, 0x00, 0x00, 0x00, 0x00, 0x00, 0x00, 0x00, 0x00, 0x00, 0x00, 0x00, 0x00, 0
 217:keyboards/sofle/keymaps/LohseBoi/keymap.c ****         0x00, 0x00, 0x00, 0x00, 0x00, 0x00, 0x00, 0x00, 0x00, 0x00, 0x00, 0x00, 0x00, 0x00, 0x00, 0
 218:keyboards/sofle/keymaps/LohseBoi/keymap.c ****         0x00, 0x00, 0x00, 0x00, 0x00, 0x00, 0x00, 0x00, 0x00, 0x00, 0x00, 0x00, 0x00, 0x00, 0x00, 0
 219:keyboards/sofle/keymaps/LohseBoi/keymap.c ****         0x00, 0x00, 0x00, 0x00, 0x00, 0x00, 0x00, 0x00, 0x00, 0x00, 0x00, 0x00, 0x00, 0x3f, 0x7f, 0
 220:keyboards/sofle/keymaps/LohseBoi/keymap.c ****         0x7f, 0x7f, 0x7f, 0x7f, 0x7f, 0x7f, 0x7f, 0x7f, 0x7f, 0x7f, 0x7f, 0x7f, 0x7f, 0x7f, 0x7f, 0
 221:keyboards/sofle/keymaps/LohseBoi/keymap.c ****         0x7f, 0x7f, 0x7f, 0x7f, 0x7f, 0x7f, 0x7f, 0x7f, 0x7f, 0x7f, 0x7f, 0x7f, 0x7f, 0x7f, 0x7f, 0
 222:keyboards/sofle/keymaps/LohseBoi/keymap.c ****         0x7f, 0x7f, 0x7f, 0x7f, 0x7f, 0x7f, 0x7f, 0x7f, 0x7f, 0x7f, 0x7f, 0x7f, 0x7f, 0x7f, 0x7f, 0
 223:keyboards/sofle/keymaps/LohseBoi/keymap.c ****         0x7f, 0x7f, 0x1f, 0x00, 0x00, 0x00, 0x00, 0x00, 0x00, 0x00, 0x00, 0x00, 0x00, 0x00, 0x00, 0
 224:keyboards/sofle/keymaps/LohseBoi/keymap.c ****     };
 225:keyboards/sofle/keymaps/LohseBoi/keymap.c ****     oled_write_raw_P(logo, sizeof(logo));
 226:keyboards/sofle/keymaps/LohseBoi/keymap.c ****     */
 227:keyboards/sofle/keymaps/LohseBoi/keymap.c ****     
 228:keyboards/sofle/keymaps/LohseBoi/keymap.c ****     oled_write_P(PSTR("\n\n"), false);
 229:keyboards/sofle/keymaps/LohseBoi/keymap.c ****     oled_write_ln_P(PSTR(" WPM"), false);
 230:keyboards/sofle/keymaps/LohseBoi/keymap.c ****     //oled_write_ln_P(PSTR("NUM\n"), true); //True, when WPM is above a certain range
 231:keyboards/sofle/keymaps/LohseBoi/keymap.c ****     char str[7] = {' ', ' ', ' ', ' ', ' ', '\n', 0};
 232:keyboards/sofle/keymaps/LohseBoi/keymap.c ****     uint8_t wpm = get_current_wpm();
 233:keyboards/sofle/keymaps/LohseBoi/keymap.c ****     to_string(str+1, wpm);
 234:keyboards/sofle/keymaps/LohseBoi/keymap.c ****     oled_write_ln(str, wpm > 69);
 235:keyboards/sofle/keymaps/LohseBoi/keymap.c ****     oled_write_ln_P(PSTR("More\nShit\n1234567890"), false);
 236:keyboards/sofle/keymaps/LohseBoi/keymap.c ****     if (wpm == 0 && wpm_timer == 0 && is_oled_on())
 237:keyboards/sofle/keymaps/LohseBoi/keymap.c ****         wpm_timer = timer_read();
 238:keyboards/sofle/keymaps/LohseBoi/keymap.c ****     else if (wpm > 0)
 239:keyboards/sofle/keymaps/LohseBoi/keymap.c ****         wpm_timer = 0;
 240:keyboards/sofle/keymaps/LohseBoi/keymap.c ****     else if (timer_elapsed(wpm_timer) >= OLED_TIMEOUT) {
 241:keyboards/sofle/keymaps/LohseBoi/keymap.c ****         oled_off();
 242:keyboards/sofle/keymaps/LohseBoi/keymap.c ****         wpm_timer = 0;
 243:keyboards/sofle/keymaps/LohseBoi/keymap.c ****     }
 244:keyboards/sofle/keymaps/LohseBoi/keymap.c **** }
 245:keyboards/sofle/keymaps/LohseBoi/keymap.c **** 
 246:keyboards/sofle/keymaps/LohseBoi/keymap.c **** static void to_string(char* str, uint8_t num) {
 247:keyboards/sofle/keymaps/LohseBoi/keymap.c ****     bool prev = false;
 248:keyboards/sofle/keymaps/LohseBoi/keymap.c ****     if (num >= 100) {
 249:keyboards/sofle/keymaps/LohseBoi/keymap.c ****         *str = ((num - (num % 100)) / 100) + 48;
 250:keyboards/sofle/keymaps/LohseBoi/keymap.c ****         str = str+1;
 251:keyboards/sofle/keymaps/LohseBoi/keymap.c ****         num = num % 100;
 252:keyboards/sofle/keymaps/LohseBoi/keymap.c ****         prev = true;
 253:keyboards/sofle/keymaps/LohseBoi/keymap.c ****     }
 254:keyboards/sofle/keymaps/LohseBoi/keymap.c **** 
 255:keyboards/sofle/keymaps/LohseBoi/keymap.c ****     if (num >= 10) {
 256:keyboards/sofle/keymaps/LohseBoi/keymap.c ****         *str = ((num - (num % 10)) / 10) + 48;
 257:keyboards/sofle/keymaps/LohseBoi/keymap.c ****         str = str+1;
 258:keyboards/sofle/keymaps/LohseBoi/keymap.c ****         num = num % 10;
 259:keyboards/sofle/keymaps/LohseBoi/keymap.c ****         prev = true;
 260:keyboards/sofle/keymaps/LohseBoi/keymap.c ****     }
 261:keyboards/sofle/keymaps/LohseBoi/keymap.c ****     else if (prev == true) {
 262:keyboards/sofle/keymaps/LohseBoi/keymap.c ****         *str = '0';
 263:keyboards/sofle/keymaps/LohseBoi/keymap.c ****         str = str+1;
 264:keyboards/sofle/keymaps/LohseBoi/keymap.c ****     }
 265:keyboards/sofle/keymaps/LohseBoi/keymap.c **** 
 266:keyboards/sofle/keymaps/LohseBoi/keymap.c ****     *str = num + 48;
 267:keyboards/sofle/keymaps/LohseBoi/keymap.c ****     //*(str+1) = '\n';
 268:keyboards/sofle/keymaps/LohseBoi/keymap.c ****     //*(str+2) = 0;
 269:keyboards/sofle/keymaps/LohseBoi/keymap.c **** 
 270:keyboards/sofle/keymaps/LohseBoi/keymap.c **** }
 271:keyboards/sofle/keymaps/LohseBoi/keymap.c **** 
 272:keyboards/sofle/keymaps/LohseBoi/keymap.c **** static void print_status_narrow(void) {
 273:keyboards/sofle/keymaps/LohseBoi/keymap.c ****     // Print current mode
 274:keyboards/sofle/keymaps/LohseBoi/keymap.c ****     oled_write_P(PSTR("\n\n"), false);
 275:keyboards/sofle/keymaps/LohseBoi/keymap.c ****     oled_write_ln_P(PSTR("MODE"), false);
 276:keyboards/sofle/keymaps/LohseBoi/keymap.c ****     oled_write_ln_P(PSTR(""), false);
 277:keyboards/sofle/keymaps/LohseBoi/keymap.c ****     if (keymap_config.swap_lctl_lgui) {
 278:keyboards/sofle/keymaps/LohseBoi/keymap.c ****         oled_write_ln_P(PSTR("MAC"), false);
 279:keyboards/sofle/keymaps/LohseBoi/keymap.c ****     } else {
 280:keyboards/sofle/keymaps/LohseBoi/keymap.c ****         oled_write_ln_P(PSTR("WIN"), false);
 281:keyboards/sofle/keymaps/LohseBoi/keymap.c ****     }
 282:keyboards/sofle/keymaps/LohseBoi/keymap.c **** 
 283:keyboards/sofle/keymaps/LohseBoi/keymap.c ****     switch (get_highest_layer(default_layer_state)) {
 284:keyboards/sofle/keymaps/LohseBoi/keymap.c ****         case _QWERTY:
 285:keyboards/sofle/keymaps/LohseBoi/keymap.c ****             oled_write_ln_P(PSTR("Qwrt\n"), false);
 286:keyboards/sofle/keymaps/LohseBoi/keymap.c ****             break;
 287:keyboards/sofle/keymaps/LohseBoi/keymap.c ****         case _GAMER:
 288:keyboards/sofle/keymaps/LohseBoi/keymap.c ****             oled_write_ln_P(PSTR("GAMER"), false);
 289:keyboards/sofle/keymaps/LohseBoi/keymap.c ****             break;
 290:keyboards/sofle/keymaps/LohseBoi/keymap.c ****         default:
 291:keyboards/sofle/keymaps/LohseBoi/keymap.c ****             oled_write_P(PSTR("Undef"), false);
 292:keyboards/sofle/keymaps/LohseBoi/keymap.c ****     }
 293:keyboards/sofle/keymaps/LohseBoi/keymap.c ****     oled_write_P(PSTR("\n\n"), false);
 294:keyboards/sofle/keymaps/LohseBoi/keymap.c ****     // Print current layer
 295:keyboards/sofle/keymaps/LohseBoi/keymap.c ****     oled_write_ln_P(PSTR("LAYER"), false);
 296:keyboards/sofle/keymaps/LohseBoi/keymap.c ****     switch (get_highest_layer(layer_state)) {
 297:keyboards/sofle/keymaps/LohseBoi/keymap.c ****         case _QWERTY:
 298:keyboards/sofle/keymaps/LohseBoi/keymap.c ****             oled_write_P(PSTR("BASE\n"), false);
 299:keyboards/sofle/keymaps/LohseBoi/keymap.c ****             break;
 300:keyboards/sofle/keymaps/LohseBoi/keymap.c ****         case _GAMER:
 301:keyboards/sofle/keymaps/LohseBoi/keymap.c ****             oled_write_P(PSTR("GAMER\n"), false);
 302:keyboards/sofle/keymaps/LohseBoi/keymap.c ****             break;
 303:keyboards/sofle/keymaps/LohseBoi/keymap.c **** 
 304:keyboards/sofle/keymaps/LohseBoi/keymap.c ****         case _RAISE:
 305:keyboards/sofle/keymaps/LohseBoi/keymap.c ****             oled_write_P(PSTR("RSE\n"), false);
 306:keyboards/sofle/keymaps/LohseBoi/keymap.c ****             break;
 307:keyboards/sofle/keymaps/LohseBoi/keymap.c ****         case _LOWER:
 308:keyboards/sofle/keymaps/LohseBoi/keymap.c ****             oled_write_P(PSTR("LWR\n"), false);
 309:keyboards/sofle/keymaps/LohseBoi/keymap.c ****             break;
 310:keyboards/sofle/keymaps/LohseBoi/keymap.c ****         case _ADJUST:
 311:keyboards/sofle/keymaps/LohseBoi/keymap.c ****             oled_write_P(PSTR("ADJ\n"), false);
 312:keyboards/sofle/keymaps/LohseBoi/keymap.c ****             break;
 313:keyboards/sofle/keymaps/LohseBoi/keymap.c ****         default:
 314:keyboards/sofle/keymaps/LohseBoi/keymap.c ****             oled_write_ln_P(PSTR("Undef\n"), false);
 315:keyboards/sofle/keymaps/LohseBoi/keymap.c ****     }
 316:keyboards/sofle/keymaps/LohseBoi/keymap.c ****     oled_write_P(PSTR("\n\n\n"), false);
 317:keyboards/sofle/keymaps/LohseBoi/keymap.c ****     led_t led_usb_state = host_keyboard_led_state();
 318:keyboards/sofle/keymaps/LohseBoi/keymap.c ****     oled_write_ln_P(PSTR("CPSLK"), led_usb_state.caps_lock);
 319:keyboards/sofle/keymaps/LohseBoi/keymap.c **** }
 320:keyboards/sofle/keymaps/LohseBoi/keymap.c **** 
 321:keyboards/sofle/keymaps/LohseBoi/keymap.c **** oled_rotation_t oled_init_user(oled_rotation_t rotation) {
  17               		.loc 1 321 58 view -0
  18               		.cfi_startproc
  19               	/* prologue: function */
  20               	/* frame size = 0 */
  21               	/* stack size = 0 */
  22               	.L__stack_usage = 0
 322:keyboards/sofle/keymaps/LohseBoi/keymap.c ****     //if (is_keyboard_master()) {
 323:keyboards/sofle/keymaps/LohseBoi/keymap.c ****       //  return OLED_ROTATION_270;
 324:keyboards/sofle/keymaps/LohseBoi/keymap.c ****     //}
 325:keyboards/sofle/keymaps/LohseBoi/keymap.c **** 
 326:keyboards/sofle/keymaps/LohseBoi/keymap.c ****     return OLED_ROTATION_270;
  23               		.loc 1 326 5 view .LVU1
 327:keyboards/sofle/keymaps/LohseBoi/keymap.c ****     return rotation;
 328:keyboards/sofle/keymaps/LohseBoi/keymap.c **** }
  24               		.loc 1 328 1 is_stmt 0 view .LVU2
  25 0000 83E0      		ldi r24,lo8(3)
  26               	.LVL1:
  27               	/* epilogue start */
  28               		.loc 1 328 1 view .LVU3
  29 0002 0895      		ret
  30               		.cfi_endproc
  31               	.LFE29:
  33               		.section	.rodata
  34               	.LC0:
  35 0000 20        		.byte	32
  36 0001 20        		.byte	32
  37 0002 20        		.byte	32
  38 0003 20        		.byte	32
  39 0004 20        		.byte	32
  40 0005 0A        		.byte	10
  41 0006 00        		.byte	0
  42               		.section	.text.oled_task_user,"ax",@progbits
  43               	.global	oled_task_user
  45               	oled_task_user:
  46               	.LFB30:
 329:keyboards/sofle/keymaps/LohseBoi/keymap.c **** 
 330:keyboards/sofle/keymaps/LohseBoi/keymap.c **** void oled_task_user(void) {
  47               		.loc 1 330 27 is_stmt 1 view -0
  48               		.cfi_startproc
  49 0000 1F93      		push r17
  50               	.LCFI0:
  51               		.cfi_def_cfa_offset 3
  52               		.cfi_offset 17, -2
  53 0002 CF93      		push r28
  54               	.LCFI1:
  55               		.cfi_def_cfa_offset 4
  56               		.cfi_offset 28, -3
  57 0004 DF93      		push r29
  58               	.LCFI2:
  59               		.cfi_def_cfa_offset 5
  60               		.cfi_offset 29, -4
  61 0006 00D0      		rcall .
  62 0008 00D0      		rcall .
  63 000a 00D0      		rcall .
  64 000c 0F92      		push __tmp_reg__
  65               	.LCFI3:
  66               		.cfi_def_cfa_offset 12
  67 000e CDB7      		in r28,__SP_L__
  68 0010 DEB7      		in r29,__SP_H__
  69               	.LCFI4:
  70               		.cfi_def_cfa_register 28
  71               	/* prologue: function */
  72               	/* frame size = 7 */
  73               	/* stack size = 10 */
  74               	.L__stack_usage = 10
 331:keyboards/sofle/keymaps/LohseBoi/keymap.c ****     if (is_keyboard_master()) {
  75               		.loc 1 331 5 view .LVU5
  76               		.loc 1 331 9 is_stmt 0 view .LVU6
  77 0012 0E94 0000 		call is_keyboard_master
  78               	.LVL2:
  79               	.LBB29:
  80               	.LBB30:
 274:keyboards/sofle/keymaps/LohseBoi/keymap.c ****     oled_write_ln_P(PSTR("MODE"), false);
  81               		.loc 1 274 5 view .LVU7
  82 0016 60E0      		ldi r22,0
  83               	.LBE30:
  84               	.LBE29:
  85               		.loc 1 331 8 view .LVU8
  86 0018 8823      		tst r24
  87 001a 01F4      		brne .+2
  88 001c 00C0      		rjmp .L3
 332:keyboards/sofle/keymaps/LohseBoi/keymap.c ****         print_status_narrow();
  89               		.loc 1 332 9 is_stmt 1 view .LVU9
  90               	.LBB51:
  91               	.LBI29:
 272:keyboards/sofle/keymaps/LohseBoi/keymap.c ****     // Print current mode
  92               		.loc 1 272 13 view .LVU10
  93               	.LBB31:
 274:keyboards/sofle/keymaps/LohseBoi/keymap.c ****     oled_write_ln_P(PSTR("MODE"), false);
  94               		.loc 1 274 5 view .LVU11
  95               	.LBE31:
  96               	.LBE51:
 274:keyboards/sofle/keymaps/LohseBoi/keymap.c ****     oled_write_ln_P(PSTR("MODE"), false);
  97               		.loc 1 274 18 view .LVU12
 274:keyboards/sofle/keymaps/LohseBoi/keymap.c ****     oled_write_ln_P(PSTR("MODE"), false);
  98               		.loc 1 274 18 view .LVU13
  99               	.LBB52:
 100               	.LBB32:
 274:keyboards/sofle/keymaps/LohseBoi/keymap.c ****     oled_write_ln_P(PSTR("MODE"), false);
 101               		.loc 1 274 5 is_stmt 0 view .LVU14
 102 001e 80E0      		ldi r24,lo8(__c.3890)
 103 0020 90E0      		ldi r25,hi8(__c.3890)
 104 0022 0E94 0000 		call oled_write_P
 105               	.LVL3:
 275:keyboards/sofle/keymaps/LohseBoi/keymap.c ****     oled_write_ln_P(PSTR(""), false);
 106               		.loc 1 275 5 is_stmt 1 view .LVU15
 107               	.LBE32:
 108               	.LBE52:
 275:keyboards/sofle/keymaps/LohseBoi/keymap.c ****     oled_write_ln_P(PSTR(""), false);
 109               		.loc 1 275 21 view .LVU16
 275:keyboards/sofle/keymaps/LohseBoi/keymap.c ****     oled_write_ln_P(PSTR(""), false);
 110               		.loc 1 275 21 view .LVU17
 111               	.LBB53:
 112               	.LBB33:
 275:keyboards/sofle/keymaps/LohseBoi/keymap.c ****     oled_write_ln_P(PSTR(""), false);
 113               		.loc 1 275 5 is_stmt 0 view .LVU18
 114 0026 60E0      		ldi r22,0
 115 0028 80E0      		ldi r24,lo8(__c.3892)
 116 002a 90E0      		ldi r25,hi8(__c.3892)
 117 002c 0E94 0000 		call oled_write_ln_P
 118               	.LVL4:
 276:keyboards/sofle/keymaps/LohseBoi/keymap.c ****     if (keymap_config.swap_lctl_lgui) {
 119               		.loc 1 276 5 is_stmt 1 view .LVU19
 120               	.LBE33:
 121               	.LBE53:
 276:keyboards/sofle/keymaps/LohseBoi/keymap.c ****     if (keymap_config.swap_lctl_lgui) {
 122               		.loc 1 276 21 view .LVU20
 276:keyboards/sofle/keymaps/LohseBoi/keymap.c ****     if (keymap_config.swap_lctl_lgui) {
 123               		.loc 1 276 21 view .LVU21
 124               	.LBB54:
 125               	.LBB34:
 276:keyboards/sofle/keymaps/LohseBoi/keymap.c ****     if (keymap_config.swap_lctl_lgui) {
 126               		.loc 1 276 5 is_stmt 0 view .LVU22
 127 0030 60E0      		ldi r22,0
 128 0032 80E0      		ldi r24,lo8(__c.3894)
 129 0034 90E0      		ldi r25,hi8(__c.3894)
 130 0036 0E94 0000 		call oled_write_ln_P
 131               	.LVL5:
 277:keyboards/sofle/keymaps/LohseBoi/keymap.c ****         oled_write_ln_P(PSTR("MAC"), false);
 132               		.loc 1 277 5 is_stmt 1 view .LVU23
 277:keyboards/sofle/keymaps/LohseBoi/keymap.c ****         oled_write_ln_P(PSTR("MAC"), false);
 133               		.loc 1 277 9 is_stmt 0 view .LVU24
 134 003a 8091 0000 		lds r24,keymap_config+1
 278:keyboards/sofle/keymaps/LohseBoi/keymap.c ****     } else {
 135               		.loc 1 278 9 view .LVU25
 136 003e 60E0      		ldi r22,0
 277:keyboards/sofle/keymaps/LohseBoi/keymap.c ****         oled_write_ln_P(PSTR("MAC"), false);
 137               		.loc 1 277 8 view .LVU26
 138 0040 80FF      		sbrs r24,0
 139 0042 00C0      		rjmp .L4
 278:keyboards/sofle/keymaps/LohseBoi/keymap.c ****     } else {
 140               		.loc 1 278 9 is_stmt 1 view .LVU27
 141               	.LBE34:
 142               	.LBE54:
 278:keyboards/sofle/keymaps/LohseBoi/keymap.c ****     } else {
 143               		.loc 1 278 25 view .LVU28
 278:keyboards/sofle/keymaps/LohseBoi/keymap.c ****     } else {
 144               		.loc 1 278 25 view .LVU29
 145               	.LBB55:
 146               	.LBB35:
 278:keyboards/sofle/keymaps/LohseBoi/keymap.c ****     } else {
 147               		.loc 1 278 9 is_stmt 0 view .LVU30
 148 0044 80E0      		ldi r24,lo8(__c.3896)
 149 0046 90E0      		ldi r25,hi8(__c.3896)
 150               	.L33:
 280:keyboards/sofle/keymaps/LohseBoi/keymap.c ****     }
 151               		.loc 1 280 9 view .LVU31
 152 0048 0E94 0000 		call oled_write_ln_P
 153               	.LVL6:
 283:keyboards/sofle/keymaps/LohseBoi/keymap.c ****         case _QWERTY:
 154               		.loc 1 283 5 is_stmt 1 view .LVU32
 283:keyboards/sofle/keymaps/LohseBoi/keymap.c ****         case _QWERTY:
 155               		.loc 1 283 13 is_stmt 0 view .LVU33
 156 004c 6091 0000 		lds r22,default_layer_state
 157 0050 7091 0000 		lds r23,default_layer_state+1
 158 0054 8091 0000 		lds r24,default_layer_state+2
 159 0058 9091 0000 		lds r25,default_layer_state+3
 160 005c 0E94 0000 		call biton32
 161               	.LVL7:
 283:keyboards/sofle/keymaps/LohseBoi/keymap.c ****         case _QWERTY:
 162               		.loc 1 283 5 view .LVU34
 163 0060 8823      		tst r24
 164 0062 01F0      		breq .L6
 165 0064 8130      		cpi r24,lo8(1)
 166 0066 01F0      		breq .L7
 291:keyboards/sofle/keymaps/LohseBoi/keymap.c ****     }
 167               		.loc 1 291 13 is_stmt 1 view .LVU35
 168               	.LBE35:
 169               	.LBE55:
 291:keyboards/sofle/keymaps/LohseBoi/keymap.c ****     }
 170               		.loc 1 291 26 view .LVU36
 291:keyboards/sofle/keymaps/LohseBoi/keymap.c ****     }
 171               		.loc 1 291 26 view .LVU37
 172               	.LBB56:
 173               	.LBB36:
 291:keyboards/sofle/keymaps/LohseBoi/keymap.c ****     }
 174               		.loc 1 291 13 is_stmt 0 view .LVU38
 175 0068 60E0      		ldi r22,0
 176 006a 80E0      		ldi r24,lo8(__c.3908)
 177 006c 90E0      		ldi r25,hi8(__c.3908)
 178 006e 0E94 0000 		call oled_write_P
 179               	.LVL8:
 180 0072 00C0      		rjmp .L9
 181               	.L4:
 280:keyboards/sofle/keymaps/LohseBoi/keymap.c ****     }
 182               		.loc 1 280 9 is_stmt 1 view .LVU39
 183               	.LBE36:
 184               	.LBE56:
 280:keyboards/sofle/keymaps/LohseBoi/keymap.c ****     }
 185               		.loc 1 280 25 view .LVU40
 280:keyboards/sofle/keymaps/LohseBoi/keymap.c ****     }
 186               		.loc 1 280 25 view .LVU41
 187               	.LBB57:
 188               	.LBB37:
 280:keyboards/sofle/keymaps/LohseBoi/keymap.c ****     }
 189               		.loc 1 280 9 is_stmt 0 view .LVU42
 190 0074 80E0      		ldi r24,lo8(__c.3898)
 191 0076 90E0      		ldi r25,hi8(__c.3898)
 192 0078 00C0      		rjmp .L33
 193               	.L6:
 285:keyboards/sofle/keymaps/LohseBoi/keymap.c ****             break;
 194               		.loc 1 285 13 is_stmt 1 view .LVU43
 195               	.LBE37:
 196               	.LBE57:
 285:keyboards/sofle/keymaps/LohseBoi/keymap.c ****             break;
 197               		.loc 1 285 29 view .LVU44
 285:keyboards/sofle/keymaps/LohseBoi/keymap.c ****             break;
 198               		.loc 1 285 29 view .LVU45
 199               	.LBB58:
 200               	.LBB38:
 285:keyboards/sofle/keymaps/LohseBoi/keymap.c ****             break;
 201               		.loc 1 285 13 is_stmt 0 view .LVU46
 202 007a 60E0      		ldi r22,0
 203 007c 80E0      		ldi r24,lo8(__c.3901)
 204 007e 90E0      		ldi r25,hi8(__c.3901)
 205               	.L34:
 288:keyboards/sofle/keymaps/LohseBoi/keymap.c ****             break;
 206               		.loc 1 288 13 view .LVU47
 207 0080 0E94 0000 		call oled_write_ln_P
 208               	.LVL9:
 289:keyboards/sofle/keymaps/LohseBoi/keymap.c ****         default:
 209               		.loc 1 289 13 is_stmt 1 view .LVU48
 210               	.L9:
 293:keyboards/sofle/keymaps/LohseBoi/keymap.c ****     // Print current layer
 211               		.loc 1 293 5 view .LVU49
 212               	.LBE38:
 213               	.LBE58:
 293:keyboards/sofle/keymaps/LohseBoi/keymap.c ****     // Print current layer
 214               		.loc 1 293 18 view .LVU50
 293:keyboards/sofle/keymaps/LohseBoi/keymap.c ****     // Print current layer
 215               		.loc 1 293 18 view .LVU51
 216               	.LBB59:
 217               	.LBB39:
 293:keyboards/sofle/keymaps/LohseBoi/keymap.c ****     // Print current layer
 218               		.loc 1 293 5 is_stmt 0 view .LVU52
 219 0084 60E0      		ldi r22,0
 220 0086 80E0      		ldi r24,lo8(__c.3910)
 221 0088 90E0      		ldi r25,hi8(__c.3910)
 222 008a 0E94 0000 		call oled_write_P
 223               	.LVL10:
 295:keyboards/sofle/keymaps/LohseBoi/keymap.c ****     switch (get_highest_layer(layer_state)) {
 224               		.loc 1 295 5 is_stmt 1 view .LVU53
 225               	.LBE39:
 226               	.LBE59:
 295:keyboards/sofle/keymaps/LohseBoi/keymap.c ****     switch (get_highest_layer(layer_state)) {
 227               		.loc 1 295 21 view .LVU54
 295:keyboards/sofle/keymaps/LohseBoi/keymap.c ****     switch (get_highest_layer(layer_state)) {
 228               		.loc 1 295 21 view .LVU55
 229               	.LBB60:
 230               	.LBB40:
 295:keyboards/sofle/keymaps/LohseBoi/keymap.c ****     switch (get_highest_layer(layer_state)) {
 231               		.loc 1 295 5 is_stmt 0 view .LVU56
 232 008e 60E0      		ldi r22,0
 233 0090 80E0      		ldi r24,lo8(__c.3912)
 234 0092 90E0      		ldi r25,hi8(__c.3912)
 235 0094 0E94 0000 		call oled_write_ln_P
 236               	.LVL11:
 296:keyboards/sofle/keymaps/LohseBoi/keymap.c ****         case _QWERTY:
 237               		.loc 1 296 5 is_stmt 1 view .LVU57
 296:keyboards/sofle/keymaps/LohseBoi/keymap.c ****         case _QWERTY:
 238               		.loc 1 296 13 is_stmt 0 view .LVU58
 239 0098 6091 0000 		lds r22,layer_state
 240 009c 7091 0000 		lds r23,layer_state+1
 241 00a0 8091 0000 		lds r24,layer_state+2
 242 00a4 9091 0000 		lds r25,layer_state+3
 243 00a8 0E94 0000 		call biton32
 244               	.LVL12:
 296:keyboards/sofle/keymaps/LohseBoi/keymap.c ****         case _QWERTY:
 245               		.loc 1 296 5 view .LVU59
 246 00ac 8230      		cpi r24,lo8(2)
 247 00ae 01F0      		breq .L10
 248 00b0 00F4      		brsh .L11
 249 00b2 8823      		tst r24
 250 00b4 01F0      		breq .L12
 251 00b6 8130      		cpi r24,lo8(1)
 252 00b8 01F0      		breq .L13
 253               	.L14:
 314:keyboards/sofle/keymaps/LohseBoi/keymap.c ****     }
 254               		.loc 1 314 13 is_stmt 1 view .LVU60
 255               	.LBE40:
 256               	.LBE60:
 314:keyboards/sofle/keymaps/LohseBoi/keymap.c ****     }
 257               		.loc 1 314 29 view .LVU61
 314:keyboards/sofle/keymaps/LohseBoi/keymap.c ****     }
 258               		.loc 1 314 29 view .LVU62
 259               	.LBB61:
 260               	.LBB41:
 314:keyboards/sofle/keymaps/LohseBoi/keymap.c ****     }
 261               		.loc 1 314 13 is_stmt 0 view .LVU63
 262 00ba 60E0      		ldi r22,0
 263 00bc 80E0      		ldi r24,lo8(__c.3931)
 264 00be 90E0      		ldi r25,hi8(__c.3931)
 265 00c0 0E94 0000 		call oled_write_ln_P
 266               	.LVL13:
 267 00c4 00C0      		rjmp .L17
 268               	.L7:
 288:keyboards/sofle/keymaps/LohseBoi/keymap.c ****             break;
 269               		.loc 1 288 13 is_stmt 1 view .LVU64
 270               	.LBE41:
 271               	.LBE61:
 288:keyboards/sofle/keymaps/LohseBoi/keymap.c ****             break;
 272               		.loc 1 288 29 view .LVU65
 288:keyboards/sofle/keymaps/LohseBoi/keymap.c ****             break;
 273               		.loc 1 288 29 view .LVU66
 274               	.LBB62:
 275               	.LBB42:
 288:keyboards/sofle/keymaps/LohseBoi/keymap.c ****             break;
 276               		.loc 1 288 13 is_stmt 0 view .LVU67
 277 00c6 60E0      		ldi r22,0
 278 00c8 80E0      		ldi r24,lo8(__c.3905)
 279 00ca 90E0      		ldi r25,hi8(__c.3905)
 280 00cc 00C0      		rjmp .L34
 281               	.L11:
 296:keyboards/sofle/keymaps/LohseBoi/keymap.c ****         case _QWERTY:
 282               		.loc 1 296 5 view .LVU68
 283 00ce 8330      		cpi r24,lo8(3)
 284 00d0 01F0      		breq .L15
 285 00d2 8430      		cpi r24,lo8(4)
 286 00d4 01F4      		brne .L14
 311:keyboards/sofle/keymaps/LohseBoi/keymap.c ****             break;
 287               		.loc 1 311 13 is_stmt 1 view .LVU69
 288               	.LBE42:
 289               	.LBE62:
 311:keyboards/sofle/keymaps/LohseBoi/keymap.c ****             break;
 290               		.loc 1 311 26 view .LVU70
 311:keyboards/sofle/keymaps/LohseBoi/keymap.c ****             break;
 291               		.loc 1 311 26 view .LVU71
 292               	.LBB63:
 293               	.LBB43:
 311:keyboards/sofle/keymaps/LohseBoi/keymap.c ****             break;
 294               		.loc 1 311 13 is_stmt 0 view .LVU72
 295 00d6 60E0      		ldi r22,0
 296 00d8 80E0      		ldi r24,lo8(__c.3928)
 297 00da 90E0      		ldi r25,hi8(__c.3928)
 298 00dc 00C0      		rjmp .L35
 299               	.L12:
 298:keyboards/sofle/keymaps/LohseBoi/keymap.c ****             break;
 300               		.loc 1 298 13 is_stmt 1 view .LVU73
 301               	.LBE43:
 302               	.LBE63:
 298:keyboards/sofle/keymaps/LohseBoi/keymap.c ****             break;
 303               		.loc 1 298 26 view .LVU74
 298:keyboards/sofle/keymaps/LohseBoi/keymap.c ****             break;
 304               		.loc 1 298 26 view .LVU75
 305               	.LBB64:
 306               	.LBB44:
 298:keyboards/sofle/keymaps/LohseBoi/keymap.c ****             break;
 307               		.loc 1 298 13 is_stmt 0 view .LVU76
 308 00de 60E0      		ldi r22,0
 309 00e0 80E0      		ldi r24,lo8(__c.3915)
 310 00e2 90E0      		ldi r25,hi8(__c.3915)
 311               	.L35:
 301:keyboards/sofle/keymaps/LohseBoi/keymap.c ****             break;
 312               		.loc 1 301 13 view .LVU77
 313 00e4 0E94 0000 		call oled_write_P
 314               	.LVL14:
 302:keyboards/sofle/keymaps/LohseBoi/keymap.c **** 
 315               		.loc 1 302 13 is_stmt 1 view .LVU78
 316               	.L17:
 316:keyboards/sofle/keymaps/LohseBoi/keymap.c ****     led_t led_usb_state = host_keyboard_led_state();
 317               		.loc 1 316 5 view .LVU79
 318               	.LBE44:
 319               	.LBE64:
 316:keyboards/sofle/keymaps/LohseBoi/keymap.c ****     led_t led_usb_state = host_keyboard_led_state();
 320               		.loc 1 316 18 view .LVU80
 316:keyboards/sofle/keymaps/LohseBoi/keymap.c ****     led_t led_usb_state = host_keyboard_led_state();
 321               		.loc 1 316 18 view .LVU81
 322               	.LBB65:
 323               	.LBB45:
 316:keyboards/sofle/keymaps/LohseBoi/keymap.c ****     led_t led_usb_state = host_keyboard_led_state();
 324               		.loc 1 316 5 is_stmt 0 view .LVU82
 325 00e8 60E0      		ldi r22,0
 326 00ea 80E0      		ldi r24,lo8(__c.3933)
 327 00ec 90E0      		ldi r25,hi8(__c.3933)
 328 00ee 0E94 0000 		call oled_write_P
 329               	.LVL15:
 317:keyboards/sofle/keymaps/LohseBoi/keymap.c ****     oled_write_ln_P(PSTR("CPSLK"), led_usb_state.caps_lock);
 330               		.loc 1 317 5 is_stmt 1 view .LVU83
 317:keyboards/sofle/keymaps/LohseBoi/keymap.c ****     oled_write_ln_P(PSTR("CPSLK"), led_usb_state.caps_lock);
 331               		.loc 1 317 27 is_stmt 0 view .LVU84
 332 00f2 0E94 0000 		call host_keyboard_led_state
 333               	.LVL16:
 318:keyboards/sofle/keymaps/LohseBoi/keymap.c **** }
 334               		.loc 1 318 5 is_stmt 1 view .LVU85
 335               	.LBE45:
 336               	.LBE65:
 318:keyboards/sofle/keymaps/LohseBoi/keymap.c **** }
 337               		.loc 1 318 21 view .LVU86
 318:keyboards/sofle/keymaps/LohseBoi/keymap.c **** }
 338               		.loc 1 318 21 view .LVU87
 339               	.LBB66:
 340               	.LBB46:
 318:keyboards/sofle/keymaps/LohseBoi/keymap.c **** }
 341               		.loc 1 318 5 is_stmt 0 view .LVU88
 342 00f6 81FB      		bst r24,1
 343 00f8 6627      		clr r22
 344 00fa 60F9      		bld r22,0
 345 00fc 80E0      		ldi r24,lo8(__c.3936)
 346 00fe 90E0      		ldi r25,hi8(__c.3936)
 347 0100 0E94 0000 		call oled_write_ln_P
 348               	.LVL17:
 349               	.L2:
 350               	/* epilogue start */
 351               	.LBE46:
 352               	.LBE66:
 333:keyboards/sofle/keymaps/LohseBoi/keymap.c ****     } else {
 334:keyboards/sofle/keymaps/LohseBoi/keymap.c ****         render_logo();
 335:keyboards/sofle/keymaps/LohseBoi/keymap.c ****     }
 336:keyboards/sofle/keymaps/LohseBoi/keymap.c **** }
 353               		.loc 1 336 1 view .LVU89
 354 0104 2796      		adiw r28,7
 355 0106 0FB6      		in __tmp_reg__,__SREG__
 356 0108 F894      		cli
 357 010a DEBF      		out __SP_H__,r29
 358 010c 0FBE      		out __SREG__,__tmp_reg__
 359 010e CDBF      		out __SP_L__,r28
 360 0110 DF91      		pop r29
 361 0112 CF91      		pop r28
 362 0114 1F91      		pop r17
 363 0116 0895      		ret
 364               	.L13:
 365               	.LBB67:
 366               	.LBB47:
 301:keyboards/sofle/keymaps/LohseBoi/keymap.c ****             break;
 367               		.loc 1 301 13 is_stmt 1 view .LVU90
 368               	.LBE47:
 369               	.LBE67:
 301:keyboards/sofle/keymaps/LohseBoi/keymap.c ****             break;
 370               		.loc 1 301 26 view .LVU91
 301:keyboards/sofle/keymaps/LohseBoi/keymap.c ****             break;
 371               		.loc 1 301 26 view .LVU92
 372               	.LBB68:
 373               	.LBB48:
 301:keyboards/sofle/keymaps/LohseBoi/keymap.c ****             break;
 374               		.loc 1 301 13 is_stmt 0 view .LVU93
 375 0118 60E0      		ldi r22,0
 376 011a 80E0      		ldi r24,lo8(__c.3919)
 377 011c 90E0      		ldi r25,hi8(__c.3919)
 378 011e 00C0      		rjmp .L35
 379               	.L15:
 305:keyboards/sofle/keymaps/LohseBoi/keymap.c ****             break;
 380               		.loc 1 305 13 is_stmt 1 view .LVU94
 381               	.LBE48:
 382               	.LBE68:
 305:keyboards/sofle/keymaps/LohseBoi/keymap.c ****             break;
 383               		.loc 1 305 26 view .LVU95
 305:keyboards/sofle/keymaps/LohseBoi/keymap.c ****             break;
 384               		.loc 1 305 26 view .LVU96
 385               	.LBB69:
 386               	.LBB49:
 305:keyboards/sofle/keymaps/LohseBoi/keymap.c ****             break;
 387               		.loc 1 305 13 is_stmt 0 view .LVU97
 388 0120 60E0      		ldi r22,0
 389 0122 80E0      		ldi r24,lo8(__c.3922)
 390 0124 90E0      		ldi r25,hi8(__c.3922)
 391 0126 00C0      		rjmp .L35
 392               	.L10:
 308:keyboards/sofle/keymaps/LohseBoi/keymap.c ****             break;
 393               		.loc 1 308 13 is_stmt 1 view .LVU98
 394               	.LBE49:
 395               	.LBE69:
 308:keyboards/sofle/keymaps/LohseBoi/keymap.c ****             break;
 396               		.loc 1 308 26 view .LVU99
 308:keyboards/sofle/keymaps/LohseBoi/keymap.c ****             break;
 397               		.loc 1 308 26 view .LVU100
 398               	.LBB70:
 399               	.LBB50:
 308:keyboards/sofle/keymaps/LohseBoi/keymap.c ****             break;
 400               		.loc 1 308 13 is_stmt 0 view .LVU101
 401 0128 60E0      		ldi r22,0
 402 012a 80E0      		ldi r24,lo8(__c.3925)
 403 012c 90E0      		ldi r25,hi8(__c.3925)
 404 012e 00C0      		rjmp .L35
 405               	.L3:
 406               	.LBE50:
 407               	.LBE70:
 334:keyboards/sofle/keymaps/LohseBoi/keymap.c ****     }
 408               		.loc 1 334 9 is_stmt 1 view .LVU102
 409               	.LBB71:
 410               	.LBI71:
 189:keyboards/sofle/keymaps/LohseBoi/keymap.c ****     /*
 411               		.loc 1 189 13 view .LVU103
 412               	.LBB72:
 228:keyboards/sofle/keymaps/LohseBoi/keymap.c ****     oled_write_ln_P(PSTR(" WPM"), false);
 413               		.loc 1 228 5 view .LVU104
 414               	.LBE72:
 415               	.LBE71:
 228:keyboards/sofle/keymaps/LohseBoi/keymap.c ****     oled_write_ln_P(PSTR(" WPM"), false);
 416               		.loc 1 228 18 view .LVU105
 228:keyboards/sofle/keymaps/LohseBoi/keymap.c ****     oled_write_ln_P(PSTR(" WPM"), false);
 417               		.loc 1 228 18 view .LVU106
 418               	.LBB82:
 419               	.LBB79:
 228:keyboards/sofle/keymaps/LohseBoi/keymap.c ****     oled_write_ln_P(PSTR(" WPM"), false);
 420               		.loc 1 228 5 is_stmt 0 view .LVU107
 421 0130 80E0      		ldi r24,lo8(__c.3874)
 422 0132 90E0      		ldi r25,hi8(__c.3874)
 423 0134 0E94 0000 		call oled_write_P
 424               	.LVL18:
 229:keyboards/sofle/keymaps/LohseBoi/keymap.c ****     //oled_write_ln_P(PSTR("NUM\n"), true); //True, when WPM is above a certain range
 425               		.loc 1 229 5 is_stmt 1 view .LVU108
 426               	.LBE79:
 427               	.LBE82:
 229:keyboards/sofle/keymaps/LohseBoi/keymap.c ****     //oled_write_ln_P(PSTR("NUM\n"), true); //True, when WPM is above a certain range
 428               		.loc 1 229 21 view .LVU109
 229:keyboards/sofle/keymaps/LohseBoi/keymap.c ****     //oled_write_ln_P(PSTR("NUM\n"), true); //True, when WPM is above a certain range
 429               		.loc 1 229 21 view .LVU110
 430               	.LBB83:
 431               	.LBB80:
 229:keyboards/sofle/keymaps/LohseBoi/keymap.c ****     //oled_write_ln_P(PSTR("NUM\n"), true); //True, when WPM is above a certain range
 432               		.loc 1 229 5 is_stmt 0 view .LVU111
 433 0138 60E0      		ldi r22,0
 434 013a 80E0      		ldi r24,lo8(__c.3876)
 435 013c 90E0      		ldi r25,hi8(__c.3876)
 436 013e 0E94 0000 		call oled_write_ln_P
 437               	.LVL19:
 231:keyboards/sofle/keymaps/LohseBoi/keymap.c ****     uint8_t wpm = get_current_wpm();
 438               		.loc 1 231 5 is_stmt 1 view .LVU112
 231:keyboards/sofle/keymaps/LohseBoi/keymap.c ****     uint8_t wpm = get_current_wpm();
 439               		.loc 1 231 10 is_stmt 0 view .LVU113
 440 0142 87E0      		ldi r24,lo8(7)
 441 0144 E0E0      		ldi r30,lo8(.LC0)
 442 0146 F0E0      		ldi r31,hi8(.LC0)
 443 0148 DE01      		movw r26,r28
 444 014a 1196      		adiw r26,1
 445               		0:
 446 014c 0190      		ld r0,Z+
 447 014e 0D92      		st X+,r0
 448 0150 8A95      		dec r24
 449 0152 01F4      		brne 0b
 232:keyboards/sofle/keymaps/LohseBoi/keymap.c ****     to_string(str+1, wpm);
 450               		.loc 1 232 5 is_stmt 1 view .LVU114
 232:keyboards/sofle/keymaps/LohseBoi/keymap.c ****     to_string(str+1, wpm);
 451               		.loc 1 232 19 is_stmt 0 view .LVU115
 452 0154 0E94 0000 		call get_current_wpm
 453               	.LVL20:
 454 0158 182F      		mov r17,r24
 455               	.LVL21:
 233:keyboards/sofle/keymaps/LohseBoi/keymap.c ****     oled_write_ln(str, wpm > 69);
 456               		.loc 1 233 5 is_stmt 1 view .LVU116
 457               	.LBB73:
 458               	.LBI73:
 246:keyboards/sofle/keymaps/LohseBoi/keymap.c ****     bool prev = false;
 459               		.loc 1 246 13 view .LVU117
 460               	.LBB74:
 247:keyboards/sofle/keymaps/LohseBoi/keymap.c ****     if (num >= 100) {
 461               		.loc 1 247 5 view .LVU118
 248:keyboards/sofle/keymaps/LohseBoi/keymap.c ****         *str = ((num - (num % 100)) / 100) + 48;
 462               		.loc 1 248 5 view .LVU119
 248:keyboards/sofle/keymaps/LohseBoi/keymap.c ****         *str = ((num - (num % 100)) / 100) + 48;
 463               		.loc 1 248 8 is_stmt 0 view .LVU120
 464 015a 8436      		cpi r24,lo8(100)
 465 015c 00F4      		brsh .+2
 466 015e 00C0      		rjmp .L19
 249:keyboards/sofle/keymaps/LohseBoi/keymap.c ****         str = str+1;
 467               		.loc 1 249 9 is_stmt 1 view .LVU121
 249:keyboards/sofle/keymaps/LohseBoi/keymap.c ****         str = str+1;
 468               		.loc 1 249 29 is_stmt 0 view .LVU122
 469 0160 64E6      		ldi r22,lo8(100)
 470 0162 0E94 0000 		call __udivmodqi4
 471 0166 292F      		mov r18,r25
 249:keyboards/sofle/keymaps/LohseBoi/keymap.c ****         str = str+1;
 472               		.loc 1 249 22 view .LVU123
 473 0168 412F      		mov r20,r17
 474 016a 491B      		sub r20,r25
 475 016c 550B      		sbc r21,r21
 476 016e CA01      		movw r24,r20
 249:keyboards/sofle/keymaps/LohseBoi/keymap.c ****         str = str+1;
 477               		.loc 1 249 37 view .LVU124
 478 0170 64E6      		ldi r22,lo8(100)
 479 0172 70E0      		ldi r23,0
 480 0174 0E94 0000 		call __divmodhi4
 249:keyboards/sofle/keymaps/LohseBoi/keymap.c ****         str = str+1;
 481               		.loc 1 249 44 view .LVU125
 482 0178 605D      		subi r22,lo8(-(48))
 249:keyboards/sofle/keymaps/LohseBoi/keymap.c ****         str = str+1;
 483               		.loc 1 249 14 view .LVU126
 484 017a 6A83      		std Y+2,r22
 250:keyboards/sofle/keymaps/LohseBoi/keymap.c ****         num = num % 100;
 485               		.loc 1 250 9 is_stmt 1 view .LVU127
 251:keyboards/sofle/keymaps/LohseBoi/keymap.c ****         prev = true;
 486               		.loc 1 251 9 view .LVU128
 487               	.LVL22:
 252:keyboards/sofle/keymaps/LohseBoi/keymap.c ****     }
 488               		.loc 1 252 9 view .LVU129
 255:keyboards/sofle/keymaps/LohseBoi/keymap.c ****         *str = ((num - (num % 10)) / 10) + 48;
 489               		.loc 1 255 5 view .LVU130
 255:keyboards/sofle/keymaps/LohseBoi/keymap.c ****         *str = ((num - (num % 10)) / 10) + 48;
 490               		.loc 1 255 8 is_stmt 0 view .LVU131
 491 017c 2A30      		cpi r18,lo8(10)
 492 017e 00F0      		brlo .L20
 250:keyboards/sofle/keymaps/LohseBoi/keymap.c ****         num = num % 100;
 493               		.loc 1 250 13 view .LVU132
 494 0180 FE01      		movw r30,r28
 495 0182 3396      		adiw r30,3
 496               	.LVL23:
 497               	.L27:
 256:keyboards/sofle/keymaps/LohseBoi/keymap.c ****         str = str+1;
 498               		.loc 1 256 9 is_stmt 1 view .LVU133
 256:keyboards/sofle/keymaps/LohseBoi/keymap.c ****         str = str+1;
 499               		.loc 1 256 22 is_stmt 0 view .LVU134
 500 0184 422F      		mov r20,r18
 501 0186 50E0      		ldi r21,0
 256:keyboards/sofle/keymaps/LohseBoi/keymap.c ****         str = str+1;
 502               		.loc 1 256 29 view .LVU135
 503 0188 822F      		mov r24,r18
 504 018a 6AE0      		ldi r22,lo8(10)
 505 018c 0E94 0000 		call __udivmodqi4
 506 0190 292F      		mov r18,r25
 256:keyboards/sofle/keymaps/LohseBoi/keymap.c ****         str = str+1;
 507               		.loc 1 256 22 view .LVU136
 508 0192 CA01      		movw r24,r20
 509 0194 821B      		sub r24,r18
 510 0196 9109      		sbc r25,__zero_reg__
 256:keyboards/sofle/keymaps/LohseBoi/keymap.c ****         str = str+1;
 511               		.loc 1 256 36 view .LVU137
 512 0198 6AE0      		ldi r22,lo8(10)
 513 019a 70E0      		ldi r23,0
 514 019c 0E94 0000 		call __divmodhi4
 256:keyboards/sofle/keymaps/LohseBoi/keymap.c ****         str = str+1;
 515               		.loc 1 256 42 view .LVU138
 516 01a0 605D      		subi r22,lo8(-(48))
 256:keyboards/sofle/keymaps/LohseBoi/keymap.c ****         str = str+1;
 517               		.loc 1 256 14 view .LVU139
 518 01a2 6193      		st Z+,r22
 257:keyboards/sofle/keymaps/LohseBoi/keymap.c ****         num = num % 10;
 519               		.loc 1 257 9 is_stmt 1 view .LVU140
 520               	.LVL24:
 258:keyboards/sofle/keymaps/LohseBoi/keymap.c ****         prev = true;
 521               		.loc 1 258 9 view .LVU141
 259:keyboards/sofle/keymaps/LohseBoi/keymap.c ****     }
 522               		.loc 1 259 9 view .LVU142
 523               	.L21:
 266:keyboards/sofle/keymaps/LohseBoi/keymap.c ****     //*(str+1) = '\n';
 524               		.loc 1 266 5 view .LVU143
 266:keyboards/sofle/keymaps/LohseBoi/keymap.c ****     //*(str+1) = '\n';
 525               		.loc 1 266 16 is_stmt 0 view .LVU144
 526 01a4 205D      		subi r18,lo8(-(48))
 527               	.LVL25:
 266:keyboards/sofle/keymaps/LohseBoi/keymap.c ****     //*(str+1) = '\n';
 528               		.loc 1 266 10 view .LVU145
 529 01a6 2083      		st Z,r18
 530               	.LVL26:
 266:keyboards/sofle/keymaps/LohseBoi/keymap.c ****     //*(str+1) = '\n';
 531               		.loc 1 266 10 view .LVU146
 532               	.LBE74:
 533               	.LBE73:
 234:keyboards/sofle/keymaps/LohseBoi/keymap.c ****     oled_write_ln_P(PSTR("More\nShit\n1234567890"), false);
 534               		.loc 1 234 5 is_stmt 1 view .LVU147
 535 01a8 61E0      		ldi r22,lo8(1)
 536 01aa 1634      		cpi r17,lo8(70)
 537 01ac 00F4      		brsh .L22
 538 01ae 60E0      		ldi r22,0
 539               	.L22:
 540 01b0 CE01      		movw r24,r28
 541 01b2 0196      		adiw r24,1
 542 01b4 0E94 0000 		call oled_write_ln
 543               	.LVL27:
 235:keyboards/sofle/keymaps/LohseBoi/keymap.c ****     if (wpm == 0 && wpm_timer == 0 && is_oled_on())
 544               		.loc 1 235 5 view .LVU148
 545               	.LBE80:
 546               	.LBE83:
 235:keyboards/sofle/keymaps/LohseBoi/keymap.c ****     if (wpm == 0 && wpm_timer == 0 && is_oled_on())
 547               		.loc 1 235 21 view .LVU149
 235:keyboards/sofle/keymaps/LohseBoi/keymap.c ****     if (wpm == 0 && wpm_timer == 0 && is_oled_on())
 548               		.loc 1 235 21 view .LVU150
 549               	.LBB84:
 550               	.LBB81:
 235:keyboards/sofle/keymaps/LohseBoi/keymap.c ****     if (wpm == 0 && wpm_timer == 0 && is_oled_on())
 551               		.loc 1 235 5 is_stmt 0 view .LVU151
 552 01b8 60E0      		ldi r22,0
 553 01ba 80E0      		ldi r24,lo8(__c.3880)
 554 01bc 90E0      		ldi r25,hi8(__c.3880)
 555 01be 0E94 0000 		call oled_write_ln_P
 556               	.LVL28:
 236:keyboards/sofle/keymaps/LohseBoi/keymap.c ****         wpm_timer = timer_read();
 557               		.loc 1 236 5 is_stmt 1 view .LVU152
 236:keyboards/sofle/keymaps/LohseBoi/keymap.c ****         wpm_timer = timer_read();
 558               		.loc 1 236 8 is_stmt 0 view .LVU153
 559 01c2 1111      		cpse r17,__zero_reg__
 560 01c4 00C0      		rjmp .L23
 236:keyboards/sofle/keymaps/LohseBoi/keymap.c ****         wpm_timer = timer_read();
 561               		.loc 1 236 18 view .LVU154
 562 01c6 8091 0000 		lds r24,wpm_timer
 563 01ca 9091 0000 		lds r25,wpm_timer+1
 564 01ce 892B      		or r24,r25
 565 01d0 01F4      		brne .L24
 236:keyboards/sofle/keymaps/LohseBoi/keymap.c ****         wpm_timer = timer_read();
 566               		.loc 1 236 39 view .LVU155
 567 01d2 0E94 0000 		call is_oled_on
 568               	.LVL29:
 236:keyboards/sofle/keymaps/LohseBoi/keymap.c ****         wpm_timer = timer_read();
 569               		.loc 1 236 36 view .LVU156
 570 01d6 8823      		tst r24
 571 01d8 01F0      		breq .L24
 237:keyboards/sofle/keymaps/LohseBoi/keymap.c ****     else if (wpm > 0)
 572               		.loc 1 237 9 is_stmt 1 view .LVU157
 237:keyboards/sofle/keymaps/LohseBoi/keymap.c ****     else if (wpm > 0)
 573               		.loc 1 237 21 is_stmt 0 view .LVU158
 574 01da 0E94 0000 		call timer_read
 575               	.LVL30:
 237:keyboards/sofle/keymaps/LohseBoi/keymap.c ****     else if (wpm > 0)
 576               		.loc 1 237 19 view .LVU159
 577 01de 9093 0000 		sts wpm_timer+1,r25
 578 01e2 8093 0000 		sts wpm_timer,r24
 579 01e6 00C0      		rjmp .L2
 580               	.LVL31:
 581               	.L20:
 582               	.LBB77:
 583               	.LBB75:
 261:keyboards/sofle/keymaps/LohseBoi/keymap.c ****         *str = '0';
 584               		.loc 1 261 10 is_stmt 1 view .LVU160
 262:keyboards/sofle/keymaps/LohseBoi/keymap.c ****         str = str+1;
 585               		.loc 1 262 9 view .LVU161
 262:keyboards/sofle/keymaps/LohseBoi/keymap.c ****         str = str+1;
 586               		.loc 1 262 14 is_stmt 0 view .LVU162
 587 01e8 80E3      		ldi r24,lo8(48)
 588 01ea 8B83      		std Y+3,r24
 263:keyboards/sofle/keymaps/LohseBoi/keymap.c ****     }
 589               		.loc 1 263 9 is_stmt 1 view .LVU163
 590               	.LVL32:
 263:keyboards/sofle/keymaps/LohseBoi/keymap.c ****     }
 591               		.loc 1 263 13 is_stmt 0 view .LVU164
 592 01ec FE01      		movw r30,r28
 593 01ee 3496      		adiw r30,4
 594 01f0 00C0      		rjmp .L21
 595               	.LVL33:
 596               	.L24:
 263:keyboards/sofle/keymaps/LohseBoi/keymap.c ****     }
 597               		.loc 1 263 13 view .LVU165
 598               	.LBE75:
 599               	.LBE77:
 238:keyboards/sofle/keymaps/LohseBoi/keymap.c ****         wpm_timer = 0;
 600               		.loc 1 238 10 is_stmt 1 view .LVU166
 240:keyboards/sofle/keymaps/LohseBoi/keymap.c ****         oled_off();
 601               		.loc 1 240 10 view .LVU167
 240:keyboards/sofle/keymaps/LohseBoi/keymap.c ****         oled_off();
 602               		.loc 1 240 14 is_stmt 0 view .LVU168
 603 01f2 8091 0000 		lds r24,wpm_timer
 604 01f6 9091 0000 		lds r25,wpm_timer+1
 605 01fa 0E94 0000 		call timer_elapsed
 606               	.LVL34:
 240:keyboards/sofle/keymaps/LohseBoi/keymap.c ****         oled_off();
 607               		.loc 1 240 13 view .LVU169
 608 01fe 8036      		cpi r24,96
 609 0200 9A4E      		sbci r25,-22
 610 0202 00F4      		brsh .+2
 611 0204 00C0      		rjmp .L2
 241:keyboards/sofle/keymaps/LohseBoi/keymap.c ****         wpm_timer = 0;
 612               		.loc 1 241 9 is_stmt 1 view .LVU170
 613 0206 0E94 0000 		call oled_off
 614               	.LVL35:
 242:keyboards/sofle/keymaps/LohseBoi/keymap.c ****     }
 615               		.loc 1 242 9 view .LVU171
 616               	.L23:
 238:keyboards/sofle/keymaps/LohseBoi/keymap.c ****         wpm_timer = 0;
 617               		.loc 1 238 10 view .LVU172
 239:keyboards/sofle/keymaps/LohseBoi/keymap.c ****     else if (timer_elapsed(wpm_timer) >= OLED_TIMEOUT) {
 618               		.loc 1 239 9 view .LVU173
 239:keyboards/sofle/keymaps/LohseBoi/keymap.c ****     else if (timer_elapsed(wpm_timer) >= OLED_TIMEOUT) {
 619               		.loc 1 239 19 is_stmt 0 view .LVU174
 620 020a 1092 0000 		sts wpm_timer+1,__zero_reg__
 621 020e 1092 0000 		sts wpm_timer,__zero_reg__
 622 0212 00C0      		rjmp .L2
 623               	.LVL36:
 624               	.L19:
 625               	.LBB78:
 626               	.LBB76:
 255:keyboards/sofle/keymaps/LohseBoi/keymap.c ****         *str = ((num - (num % 10)) / 10) + 48;
 627               		.loc 1 255 5 is_stmt 1 view .LVU175
 255:keyboards/sofle/keymaps/LohseBoi/keymap.c ****         *str = ((num - (num % 10)) / 10) + 48;
 628               		.loc 1 255 8 is_stmt 0 view .LVU176
 629 0214 282F      		mov r18,r24
 630 0216 FE01      		movw r30,r28
 631 0218 3296      		adiw r30,2
 632 021a 8A30      		cpi r24,lo8(10)
 633 021c 00F0      		brlo .L21
 255:keyboards/sofle/keymaps/LohseBoi/keymap.c ****         *str = ((num - (num % 10)) / 10) + 48;
 634               		.loc 1 255 8 view .LVU177
 635 021e 00C0      		rjmp .L27
 636               	.LBE76:
 637               	.LBE78:
 638               	.LBE81:
 639               	.LBE84:
 640               		.cfi_endproc
 641               	.LFE30:
 643               		.section	.text.process_record_user,"ax",@progbits
 644               	.global	process_record_user
 646               	process_record_user:
 647               	.LVL37:
 648               	.LFB31:
 337:keyboards/sofle/keymaps/LohseBoi/keymap.c **** 
 338:keyboards/sofle/keymaps/LohseBoi/keymap.c **** //#endif
 339:keyboards/sofle/keymaps/LohseBoi/keymap.c **** 
 340:keyboards/sofle/keymaps/LohseBoi/keymap.c **** bool process_record_user(uint16_t keycode, keyrecord_t *record) {
 649               		.loc 1 340 65 is_stmt 1 view -0
 650               		.cfi_startproc
 651               		.loc 1 340 65 is_stmt 0 view .LVU179
 652 0000 0F93      		push r16
 653               	.LCFI5:
 654               		.cfi_def_cfa_offset 3
 655               		.cfi_offset 16, -2
 656 0002 1F93      		push r17
 657               	.LCFI6:
 658               		.cfi_def_cfa_offset 4
 659               		.cfi_offset 17, -3
 660 0004 CF93      		push r28
 661               	.LCFI7:
 662               		.cfi_def_cfa_offset 5
 663               		.cfi_offset 28, -4
 664 0006 DF93      		push r29
 665               	.LCFI8:
 666               		.cfi_def_cfa_offset 6
 667               		.cfi_offset 29, -5
 668               	/* prologue: function */
 669               	/* frame size = 0 */
 670               	/* stack size = 4 */
 671               	.L__stack_usage = 4
 672 0008 EC01      		movw r28,r24
 673 000a 8B01      		movw r16,r22
 341:keyboards/sofle/keymaps/LohseBoi/keymap.c ****     oled_on();
 674               		.loc 1 341 5 is_stmt 1 view .LVU180
 675 000c 0E94 0000 		call oled_on
 676               	.LVL38:
 342:keyboards/sofle/keymaps/LohseBoi/keymap.c ****     switch (keycode) {
 677               		.loc 1 342 5 view .LVU181
 678 0010 FE01      		movw r30,r28
 679 0012 E356      		subi r30,99
 680 0014 FD45      		sbci r31,93
 681 0016 E830      		cpi r30,8
 682 0018 F105      		cpc r31,__zero_reg__
 683 001a 00F0      		brlo .+2
 684 001c 00C0      		rjmp .L55
 685 001e E050      		subi r30,lo8(-(gs(.L39)))
 686 0020 F040      		sbci r31,hi8(-(gs(.L39)))
 687 0022 D801      		movw r26,r16
 688 0024 1296      		adiw r26,2
 689 0026 CC91      		ld r28,X
 690               	.LVL39:
 691               		.loc 1 342 5 is_stmt 0 view .LVU182
 692 0028 0C94 0000 		jmp __tablejump2__
 693               		.section	.jumptables.gcc.process_record_user,"a",@progbits
 694               		.p2align	1
 695               	.L39:
 696 0000 0000      		.word gs(.L46)
 697 0002 0000      		.word gs(.L45)
 698 0004 0000      		.word gs(.L44)
 699 0006 0000      		.word gs(.L43)
 700 0008 0000      		.word gs(.L42)
 701 000a 0000      		.word gs(.L41)
 702 000c 0000      		.word gs(.L40)
 703 000e 0000      		.word gs(.L38)
 704               		.section	.text.process_record_user
 705               	.L46:
 343:keyboards/sofle/keymaps/LohseBoi/keymap.c ****         case KC_QWERTY:
 344:keyboards/sofle/keymaps/LohseBoi/keymap.c ****             if (record->event.pressed) {
 706               		.loc 1 344 13 is_stmt 1 view .LVU183
 345:keyboards/sofle/keymaps/LohseBoi/keymap.c ****                 set_single_persistent_default_layer(_QWERTY);
 707               		.loc 1 345 17 is_stmt 0 view .LVU184
 708 002c 80E0      		ldi r24,0
 344:keyboards/sofle/keymaps/LohseBoi/keymap.c ****                 set_single_persistent_default_layer(_QWERTY);
 709               		.loc 1 344 16 view .LVU185
 710 002e C111      		cpse r28,__zero_reg__
 711 0030 00C0      		rjmp .L65
 712               	.L36:
 346:keyboards/sofle/keymaps/LohseBoi/keymap.c ****             }
 347:keyboards/sofle/keymaps/LohseBoi/keymap.c ****             return false;
 348:keyboards/sofle/keymaps/LohseBoi/keymap.c ****         case KC_GAMER:
 349:keyboards/sofle/keymaps/LohseBoi/keymap.c ****             if (record->event.pressed) {
 350:keyboards/sofle/keymaps/LohseBoi/keymap.c ****                 set_single_persistent_default_layer(_GAMER);
 351:keyboards/sofle/keymaps/LohseBoi/keymap.c ****             }
 352:keyboards/sofle/keymaps/LohseBoi/keymap.c ****             return false;
 353:keyboards/sofle/keymaps/LohseBoi/keymap.c ****        
 354:keyboards/sofle/keymaps/LohseBoi/keymap.c ****         case KC_LOWER:
 355:keyboards/sofle/keymaps/LohseBoi/keymap.c ****             if (record->event.pressed) {
 356:keyboards/sofle/keymaps/LohseBoi/keymap.c ****                 layer_on(_LOWER);
 357:keyboards/sofle/keymaps/LohseBoi/keymap.c ****                 update_tri_layer(_LOWER, _RAISE, _ADJUST);
 358:keyboards/sofle/keymaps/LohseBoi/keymap.c ****             } else {
 359:keyboards/sofle/keymaps/LohseBoi/keymap.c ****                 layer_off(_LOWER);
 360:keyboards/sofle/keymaps/LohseBoi/keymap.c ****                 update_tri_layer(_LOWER, _RAISE, _ADJUST);
 361:keyboards/sofle/keymaps/LohseBoi/keymap.c ****                 unregister_code(KC_LALT);
 362:keyboards/sofle/keymaps/LohseBoi/keymap.c ****                 //alttab_active = false;
 363:keyboards/sofle/keymaps/LohseBoi/keymap.c ****             }
 364:keyboards/sofle/keymaps/LohseBoi/keymap.c ****             return false;
 365:keyboards/sofle/keymaps/LohseBoi/keymap.c ****         case KC_RAISE:
 366:keyboards/sofle/keymaps/LohseBoi/keymap.c ****             if (record->event.pressed) {
 367:keyboards/sofle/keymaps/LohseBoi/keymap.c ****                 layer_on(_RAISE);
 368:keyboards/sofle/keymaps/LohseBoi/keymap.c ****                 update_tri_layer(_LOWER, _RAISE, _ADJUST);
 369:keyboards/sofle/keymaps/LohseBoi/keymap.c ****             } else {
 370:keyboards/sofle/keymaps/LohseBoi/keymap.c ****                 layer_off(_RAISE);
 371:keyboards/sofle/keymaps/LohseBoi/keymap.c ****                 update_tri_layer(_LOWER, _RAISE, _ADJUST);
 372:keyboards/sofle/keymaps/LohseBoi/keymap.c ****             }
 373:keyboards/sofle/keymaps/LohseBoi/keymap.c ****             return false;
 374:keyboards/sofle/keymaps/LohseBoi/keymap.c ****         case KC_ADJUST:
 375:keyboards/sofle/keymaps/LohseBoi/keymap.c ****             if (record->event.pressed) {
 376:keyboards/sofle/keymaps/LohseBoi/keymap.c ****                 layer_on(_ADJUST);
 377:keyboards/sofle/keymaps/LohseBoi/keymap.c ****             } else {
 378:keyboards/sofle/keymaps/LohseBoi/keymap.c ****                 layer_off(_ADJUST);
 379:keyboards/sofle/keymaps/LohseBoi/keymap.c ****             }
 380:keyboards/sofle/keymaps/LohseBoi/keymap.c ****             return false;
 381:keyboards/sofle/keymaps/LohseBoi/keymap.c ****         case KC_MED:
 382:keyboards/sofle/keymaps/LohseBoi/keymap.c ****             if (record->event.pressed) {
 383:keyboards/sofle/keymaps/LohseBoi/keymap.c ****                 if (!is_media_active)
 384:keyboards/sofle/keymaps/LohseBoi/keymap.c ****                     media_timer = timer_read(); //Timer starts
 385:keyboards/sofle/keymaps/LohseBoi/keymap.c ****         
 386:keyboards/sofle/keymaps/LohseBoi/keymap.c ****                 is_media_active = true; 
 387:keyboards/sofle/keymaps/LohseBoi/keymap.c ****                 media_counter++;
 388:keyboards/sofle/keymaps/LohseBoi/keymap.c ****             } else {
 389:keyboards/sofle/keymaps/LohseBoi/keymap.c ****                 //Do nothing on release
 390:keyboards/sofle/keymaps/LohseBoi/keymap.c ****             }
 391:keyboards/sofle/keymaps/LohseBoi/keymap.c ****             break;
 392:keyboards/sofle/keymaps/LohseBoi/keymap.c ****         case KC_ALT_TAB:
 393:keyboards/sofle/keymaps/LohseBoi/keymap.c ****             if (record->event.pressed) {
 394:keyboards/sofle/keymaps/LohseBoi/keymap.c ****                 //alttab_active = true;
 395:keyboards/sofle/keymaps/LohseBoi/keymap.c ****                 register_code(KC_LALT);
 396:keyboards/sofle/keymaps/LohseBoi/keymap.c ****                 SEND_STRING(SS_TAP(X_TAB));
 397:keyboards/sofle/keymaps/LohseBoi/keymap.c ****             } else {
 398:keyboards/sofle/keymaps/LohseBoi/keymap.c ****                 //Do nothing on release
 399:keyboards/sofle/keymaps/LohseBoi/keymap.c ****             }
 400:keyboards/sofle/keymaps/LohseBoi/keymap.c ****             return false;
 401:keyboards/sofle/keymaps/LohseBoi/keymap.c ****         case KC_HLWR:
 402:keyboards/sofle/keymaps/LohseBoi/keymap.c ****             if (record->event.pressed) {
 403:keyboards/sofle/keymaps/LohseBoi/keymap.c ****                 layer_on(_LOWER);
 404:keyboards/sofle/keymaps/LohseBoi/keymap.c ****                 update_tri_layer(_LOWER, _RAISE, _ADJUST);
 405:keyboards/sofle/keymaps/LohseBoi/keymap.c ****                 lwr_timer = timer_read();
 406:keyboards/sofle/keymaps/LohseBoi/keymap.c **** 
 407:keyboards/sofle/keymaps/LohseBoi/keymap.c ****             } else {
 408:keyboards/sofle/keymaps/LohseBoi/keymap.c ****                 if (timer_elapsed(lwr_timer) < 100) {
 409:keyboards/sofle/keymaps/LohseBoi/keymap.c ****                     lwr_tapped = !lwr_tapped;
 410:keyboards/sofle/keymaps/LohseBoi/keymap.c ****                     lwr_tapped ? layer_on(_LOWER) : layer_off(_LOWER);
 411:keyboards/sofle/keymaps/LohseBoi/keymap.c ****                 } else {
 412:keyboards/sofle/keymaps/LohseBoi/keymap.c ****                     layer_off(_LOWER);
 413:keyboards/sofle/keymaps/LohseBoi/keymap.c ****                 }
 414:keyboards/sofle/keymaps/LohseBoi/keymap.c **** 
 415:keyboards/sofle/keymaps/LohseBoi/keymap.c ****                 update_tri_layer(_LOWER, _RAISE, _ADJUST);
 416:keyboards/sofle/keymaps/LohseBoi/keymap.c ****                 unregister_code(KC_LALT);
 417:keyboards/sofle/keymaps/LohseBoi/keymap.c ****             }
 418:keyboards/sofle/keymaps/LohseBoi/keymap.c ****             return false;
 419:keyboards/sofle/keymaps/LohseBoi/keymap.c ****     }
 420:keyboards/sofle/keymaps/LohseBoi/keymap.c ****     return true;
 421:keyboards/sofle/keymaps/LohseBoi/keymap.c **** }
 713               		.loc 1 421 1 view .LVU186
 714 0032 8C2F      		mov r24,r28
 715               	/* epilogue start */
 716 0034 DF91      		pop r29
 717 0036 CF91      		pop r28
 718 0038 1F91      		pop r17
 719 003a 0F91      		pop r16
 720               	.LVL40:
 721               		.loc 1 421 1 view .LVU187
 722 003c 0895      		ret
 723               	.LVL41:
 724               	.L42:
 349:keyboards/sofle/keymaps/LohseBoi/keymap.c ****                 set_single_persistent_default_layer(_GAMER);
 725               		.loc 1 349 13 is_stmt 1 view .LVU188
 349:keyboards/sofle/keymaps/LohseBoi/keymap.c ****                 set_single_persistent_default_layer(_GAMER);
 726               		.loc 1 349 16 is_stmt 0 view .LVU189
 727 003e CC23      		tst r28
 728 0040 01F0      		breq .L36
 350:keyboards/sofle/keymaps/LohseBoi/keymap.c ****             }
 729               		.loc 1 350 17 is_stmt 1 view .LVU190
 730 0042 81E0      		ldi r24,lo8(1)
 731               	.L65:
 732 0044 0E94 0000 		call set_single_persistent_default_layer
 733               	.LVL42:
 734               	.L66:
 352:keyboards/sofle/keymaps/LohseBoi/keymap.c ****        
 735               		.loc 1 352 20 is_stmt 0 view .LVU191
 736 0048 C0E0      		ldi r28,0
 737 004a 00C0      		rjmp .L36
 738               	.L45:
 355:keyboards/sofle/keymaps/LohseBoi/keymap.c ****                 layer_on(_LOWER);
 739               		.loc 1 355 13 is_stmt 1 view .LVU192
 356:keyboards/sofle/keymaps/LohseBoi/keymap.c ****                 update_tri_layer(_LOWER, _RAISE, _ADJUST);
 740               		.loc 1 356 17 is_stmt 0 view .LVU193
 741 004c 82E0      		ldi r24,lo8(2)
 355:keyboards/sofle/keymaps/LohseBoi/keymap.c ****                 layer_on(_LOWER);
 742               		.loc 1 355 16 view .LVU194
 743 004e CC23      		tst r28
 744 0050 01F4      		brne .+2
 745 0052 00C0      		rjmp .L67
 746               	.L68:
 367:keyboards/sofle/keymaps/LohseBoi/keymap.c ****                 update_tri_layer(_LOWER, _RAISE, _ADJUST);
 747               		.loc 1 367 17 is_stmt 1 view .LVU195
 748 0054 0E94 0000 		call layer_on
 749               	.LVL43:
 368:keyboards/sofle/keymaps/LohseBoi/keymap.c ****             } else {
 750               		.loc 1 368 17 view .LVU196
 751 0058 44E0      		ldi r20,lo8(4)
 752 005a 63E0      		ldi r22,lo8(3)
 753 005c 82E0      		ldi r24,lo8(2)
 754 005e 0E94 0000 		call update_tri_layer
 755               	.LVL44:
 756 0062 00C0      		rjmp .L66
 757               	.L44:
 366:keyboards/sofle/keymaps/LohseBoi/keymap.c ****                 layer_on(_RAISE);
 758               		.loc 1 366 13 view .LVU197
 367:keyboards/sofle/keymaps/LohseBoi/keymap.c ****                 update_tri_layer(_LOWER, _RAISE, _ADJUST);
 759               		.loc 1 367 17 is_stmt 0 view .LVU198
 760 0064 83E0      		ldi r24,lo8(3)
 366:keyboards/sofle/keymaps/LohseBoi/keymap.c ****                 layer_on(_RAISE);
 761               		.loc 1 366 16 view .LVU199
 762 0066 C111      		cpse r28,__zero_reg__
 763 0068 00C0      		rjmp .L68
 370:keyboards/sofle/keymaps/LohseBoi/keymap.c ****                 update_tri_layer(_LOWER, _RAISE, _ADJUST);
 764               		.loc 1 370 17 is_stmt 1 view .LVU200
 765 006a 0E94 0000 		call layer_off
 766               	.LVL45:
 371:keyboards/sofle/keymaps/LohseBoi/keymap.c ****             }
 767               		.loc 1 371 17 view .LVU201
 768 006e 44E0      		ldi r20,lo8(4)
 769 0070 63E0      		ldi r22,lo8(3)
 770 0072 82E0      		ldi r24,lo8(2)
 771 0074 0E94 0000 		call update_tri_layer
 772               	.LVL46:
 773 0078 00C0      		rjmp .L36
 774               	.L43:
 375:keyboards/sofle/keymaps/LohseBoi/keymap.c ****                 layer_on(_ADJUST);
 775               		.loc 1 375 13 view .LVU202
 376:keyboards/sofle/keymaps/LohseBoi/keymap.c ****             } else {
 776               		.loc 1 376 17 is_stmt 0 view .LVU203
 777 007a 84E0      		ldi r24,lo8(4)
 375:keyboards/sofle/keymaps/LohseBoi/keymap.c ****                 layer_on(_ADJUST);
 778               		.loc 1 375 16 view .LVU204
 779 007c CC23      		tst r28
 780 007e 01F0      		breq .L49
 376:keyboards/sofle/keymaps/LohseBoi/keymap.c ****             } else {
 781               		.loc 1 376 17 is_stmt 1 view .LVU205
 782 0080 0E94 0000 		call layer_on
 783               	.LVL47:
 784 0084 00C0      		rjmp .L66
 785               	.L49:
 378:keyboards/sofle/keymaps/LohseBoi/keymap.c ****             }
 786               		.loc 1 378 17 view .LVU206
 787 0086 0E94 0000 		call layer_off
 788               	.LVL48:
 789 008a 00C0      		rjmp .L36
 790               	.L41:
 382:keyboards/sofle/keymaps/LohseBoi/keymap.c ****                 if (!is_media_active)
 791               		.loc 1 382 13 view .LVU207
 382:keyboards/sofle/keymaps/LohseBoi/keymap.c ****                 if (!is_media_active)
 792               		.loc 1 382 16 is_stmt 0 view .LVU208
 793 008c CC23      		tst r28
 794 008e 01F4      		brne .+2
 795 0090 00C0      		rjmp .L55
 383:keyboards/sofle/keymaps/LohseBoi/keymap.c ****                     media_timer = timer_read(); //Timer starts
 796               		.loc 1 383 17 is_stmt 1 view .LVU209
 383:keyboards/sofle/keymaps/LohseBoi/keymap.c ****                     media_timer = timer_read(); //Timer starts
 797               		.loc 1 383 20 is_stmt 0 view .LVU210
 798 0092 8091 0000 		lds r24,is_media_active
 799 0096 8111      		cpse r24,__zero_reg__
 800 0098 00C0      		rjmp .L50
 384:keyboards/sofle/keymaps/LohseBoi/keymap.c ****         
 801               		.loc 1 384 21 is_stmt 1 view .LVU211
 384:keyboards/sofle/keymaps/LohseBoi/keymap.c ****         
 802               		.loc 1 384 35 is_stmt 0 view .LVU212
 803 009a 0E94 0000 		call timer_read
 804               	.LVL49:
 384:keyboards/sofle/keymaps/LohseBoi/keymap.c ****         
 805               		.loc 1 384 33 view .LVU213
 806 009e 9093 0000 		sts media_timer+1,r25
 807 00a2 8093 0000 		sts media_timer,r24
 808               	.L50:
 386:keyboards/sofle/keymaps/LohseBoi/keymap.c ****                 media_counter++;
 809               		.loc 1 386 17 is_stmt 1 view .LVU214
 386:keyboards/sofle/keymaps/LohseBoi/keymap.c ****                 media_counter++;
 810               		.loc 1 386 33 is_stmt 0 view .LVU215
 811 00a6 81E0      		ldi r24,lo8(1)
 812 00a8 8093 0000 		sts is_media_active,r24
 387:keyboards/sofle/keymaps/LohseBoi/keymap.c ****             } else {
 813               		.loc 1 387 17 is_stmt 1 view .LVU216
 387:keyboards/sofle/keymaps/LohseBoi/keymap.c ****             } else {
 814               		.loc 1 387 30 is_stmt 0 view .LVU217
 815 00ac 8091 0000 		lds r24,media_counter
 816 00b0 8F5F      		subi r24,lo8(-(1))
 817 00b2 8093 0000 		sts media_counter,r24
 818 00b6 00C0      		rjmp .L36
 819               	.L40:
 393:keyboards/sofle/keymaps/LohseBoi/keymap.c ****                 //alttab_active = true;
 820               		.loc 1 393 13 is_stmt 1 view .LVU218
 393:keyboards/sofle/keymaps/LohseBoi/keymap.c ****                 //alttab_active = true;
 821               		.loc 1 393 16 is_stmt 0 view .LVU219
 822 00b8 CC23      		tst r28
 823 00ba 01F4      		brne .+2
 824 00bc 00C0      		rjmp .L36
 395:keyboards/sofle/keymaps/LohseBoi/keymap.c ****                 SEND_STRING(SS_TAP(X_TAB));
 825               		.loc 1 395 17 is_stmt 1 view .LVU220
 826 00be 82EE      		ldi r24,lo8(-30)
 827 00c0 0E94 0000 		call register_code
 828               	.LVL50:
 396:keyboards/sofle/keymaps/LohseBoi/keymap.c ****             } else {
 829               		.loc 1 396 17 view .LVU221
 830               	.LBB85:
 396:keyboards/sofle/keymaps/LohseBoi/keymap.c ****             } else {
 831               		.loc 1 396 17 view .LVU222
 396:keyboards/sofle/keymaps/LohseBoi/keymap.c ****             } else {
 832               		.loc 1 396 17 view .LVU223
 833               	.LBE85:
 834 00c4 80E0      		ldi r24,lo8(__c.3956)
 835 00c6 90E0      		ldi r25,hi8(__c.3956)
 836 00c8 0E94 0000 		call send_string_P
 837               	.LVL51:
 838 00cc 00C0      		rjmp .L66
 839               	.L38:
 402:keyboards/sofle/keymaps/LohseBoi/keymap.c ****                 layer_on(_LOWER);
 840               		.loc 1 402 13 view .LVU224
 402:keyboards/sofle/keymaps/LohseBoi/keymap.c ****                 layer_on(_LOWER);
 841               		.loc 1 402 16 is_stmt 0 view .LVU225
 842 00ce CC23      		tst r28
 843 00d0 01F0      		breq .L51
 403:keyboards/sofle/keymaps/LohseBoi/keymap.c ****                 update_tri_layer(_LOWER, _RAISE, _ADJUST);
 844               		.loc 1 403 17 is_stmt 1 view .LVU226
 845 00d2 82E0      		ldi r24,lo8(2)
 846 00d4 0E94 0000 		call layer_on
 847               	.LVL52:
 404:keyboards/sofle/keymaps/LohseBoi/keymap.c ****                 lwr_timer = timer_read();
 848               		.loc 1 404 17 view .LVU227
 849 00d8 44E0      		ldi r20,lo8(4)
 850 00da 63E0      		ldi r22,lo8(3)
 851 00dc 82E0      		ldi r24,lo8(2)
 852 00de 0E94 0000 		call update_tri_layer
 853               	.LVL53:
 405:keyboards/sofle/keymaps/LohseBoi/keymap.c **** 
 854               		.loc 1 405 17 view .LVU228
 405:keyboards/sofle/keymaps/LohseBoi/keymap.c **** 
 855               		.loc 1 405 29 is_stmt 0 view .LVU229
 856 00e2 0E94 0000 		call timer_read
 857               	.LVL54:
 405:keyboards/sofle/keymaps/LohseBoi/keymap.c **** 
 858               		.loc 1 405 27 view .LVU230
 859 00e6 9093 0000 		sts lwr_timer+1,r25
 860 00ea 8093 0000 		sts lwr_timer,r24
 861 00ee 00C0      		rjmp .L66
 862               	.L51:
 408:keyboards/sofle/keymaps/LohseBoi/keymap.c ****                     lwr_tapped = !lwr_tapped;
 863               		.loc 1 408 17 is_stmt 1 view .LVU231
 408:keyboards/sofle/keymaps/LohseBoi/keymap.c ****                     lwr_tapped = !lwr_tapped;
 864               		.loc 1 408 21 is_stmt 0 view .LVU232
 865 00f0 8091 0000 		lds r24,lwr_timer
 866 00f4 9091 0000 		lds r25,lwr_timer+1
 867 00f8 0E94 0000 		call timer_elapsed
 868               	.LVL55:
 408:keyboards/sofle/keymaps/LohseBoi/keymap.c ****                     lwr_tapped = !lwr_tapped;
 869               		.loc 1 408 20 view .LVU233
 870 00fc 8436      		cpi r24,100
 871 00fe 9105      		cpc r25,__zero_reg__
 872 0100 00F4      		brsh .L52
 409:keyboards/sofle/keymaps/LohseBoi/keymap.c ****                     lwr_tapped ? layer_on(_LOWER) : layer_off(_LOWER);
 873               		.loc 1 409 21 is_stmt 1 view .LVU234
 874 0102 8091 0000 		lds r24,lwr_tapped
 875 0106 91E0      		ldi r25,lo8(1)
 876 0108 8927      		eor r24,r25
 409:keyboards/sofle/keymaps/LohseBoi/keymap.c ****                     lwr_tapped ? layer_on(_LOWER) : layer_off(_LOWER);
 877               		.loc 1 409 32 is_stmt 0 view .LVU235
 878 010a 8093 0000 		sts lwr_tapped,r24
 410:keyboards/sofle/keymaps/LohseBoi/keymap.c ****                 } else {
 879               		.loc 1 410 21 is_stmt 1 view .LVU236
 410:keyboards/sofle/keymaps/LohseBoi/keymap.c ****                 } else {
 880               		.loc 1 410 51 is_stmt 0 view .LVU237
 881 010e 8823      		tst r24
 882 0110 01F0      		breq .L52
 410:keyboards/sofle/keymaps/LohseBoi/keymap.c ****                 } else {
 883               		.loc 1 410 34 discriminator 1 view .LVU238
 884 0112 82E0      		ldi r24,lo8(2)
 885 0114 0E94 0000 		call layer_on
 886               	.LVL56:
 887               	.L53:
 415:keyboards/sofle/keymaps/LohseBoi/keymap.c ****                 unregister_code(KC_LALT);
 888               		.loc 1 415 17 is_stmt 1 view .LVU239
 889 0118 44E0      		ldi r20,lo8(4)
 890 011a 63E0      		ldi r22,lo8(3)
 891 011c 82E0      		ldi r24,lo8(2)
 892 011e 0E94 0000 		call update_tri_layer
 893               	.LVL57:
 416:keyboards/sofle/keymaps/LohseBoi/keymap.c ****             }
 894               		.loc 1 416 17 view .LVU240
 895 0122 82EE      		ldi r24,lo8(-30)
 896 0124 0E94 0000 		call unregister_code
 897               	.LVL58:
 898 0128 00C0      		rjmp .L36
 899               	.L52:
 410:keyboards/sofle/keymaps/LohseBoi/keymap.c ****                 } else {
 900               		.loc 1 410 53 is_stmt 0 discriminator 2 view .LVU241
 901 012a 82E0      		ldi r24,lo8(2)
 902               	.L67:
 903 012c 0E94 0000 		call layer_off
 904               	.LVL59:
 905 0130 00C0      		rjmp .L53
 906               	.L55:
 420:keyboards/sofle/keymaps/LohseBoi/keymap.c **** }
 907               		.loc 1 420 12 view .LVU242
 908 0132 C1E0      		ldi r28,lo8(1)
 909 0134 00C0      		rjmp .L36
 910               		.cfi_endproc
 911               	.LFE31:
 913               		.section	.text.matrix_scan_user,"ax",@progbits
 914               	.global	matrix_scan_user
 916               	matrix_scan_user:
 917               	.LFB32:
 422:keyboards/sofle/keymaps/LohseBoi/keymap.c **** 
 423:keyboards/sofle/keymaps/LohseBoi/keymap.c **** void matrix_scan_user(void) {
 918               		.loc 1 423 29 is_stmt 1 view -0
 919               		.cfi_startproc
 920               	/* prologue: function */
 921               	/* frame size = 0 */
 922               	/* stack size = 0 */
 923               	.L__stack_usage = 0
 424:keyboards/sofle/keymaps/LohseBoi/keymap.c ****     if (is_media_active) {  //If the media key has been pressed
 924               		.loc 1 424 5 view .LVU244
 925               		.loc 1 424 8 is_stmt 0 view .LVU245
 926 0000 8091 0000 		lds r24,is_media_active
 927 0004 8823      		tst r24
 928 0006 01F0      		breq .L69
 425:keyboards/sofle/keymaps/LohseBoi/keymap.c ****         if (timer_elapsed(media_timer) > media_time) {  //If the time is up
 929               		.loc 1 425 9 is_stmt 1 view .LVU246
 930               		.loc 1 425 13 is_stmt 0 view .LVU247
 931 0008 8091 0000 		lds r24,media_timer
 932 000c 9091 0000 		lds r25,media_timer+1
 933 0010 0E94 0000 		call timer_elapsed
 934               	.LVL60:
 935               		.loc 1 425 12 view .LVU248
 936 0014 8F3E      		cpi r24,-17
 937 0016 9240      		sbci r25,2
 938 0018 00F0      		brlo .L69
 426:keyboards/sofle/keymaps/LohseBoi/keymap.c ****             
 427:keyboards/sofle/keymaps/LohseBoi/keymap.c ****             switch (media_counter) {  //Number of times pressed in given timeframe
 939               		.loc 1 427 13 is_stmt 1 view .LVU249
 940 001a 8091 0000 		lds r24,media_counter
 941 001e 8130      		cpi r24,lo8(1)
 942 0020 01F0      		breq .L73
 943 0022 8230      		cpi r24,lo8(2)
 944 0024 01F0      		breq .L74
 428:keyboards/sofle/keymaps/LohseBoi/keymap.c ****                 case 1:
 429:keyboards/sofle/keymaps/LohseBoi/keymap.c ****                     SEND_STRING(SS_TAP(X_MPLY));  //Play/Pause
 430:keyboards/sofle/keymaps/LohseBoi/keymap.c ****                     break;
 431:keyboards/sofle/keymaps/LohseBoi/keymap.c ****                 case 2:
 432:keyboards/sofle/keymaps/LohseBoi/keymap.c ****                     SEND_STRING(SS_TAP(X_MNXT));  //Next track
 433:keyboards/sofle/keymaps/LohseBoi/keymap.c ****                     break;
 434:keyboards/sofle/keymaps/LohseBoi/keymap.c ****                 case 3: default:
 435:keyboards/sofle/keymaps/LohseBoi/keymap.c ****                     SEND_STRING(SS_TAP(X_MPRV));  //Previous track
 945               		.loc 1 435 21 view .LVU250
 946               	.LBB86:
 947               		.loc 1 435 21 view .LVU251
 948               		.loc 1 435 21 view .LVU252
 949               	.LBE86:
 950 0026 80E0      		ldi r24,lo8(__c.3971)
 951 0028 90E0      		ldi r25,hi8(__c.3971)
 952 002a 00C0      		rjmp .L78
 953               	.L73:
 429:keyboards/sofle/keymaps/LohseBoi/keymap.c ****                     break;
 954               		.loc 1 429 21 view .LVU253
 955               	.LBB87:
 429:keyboards/sofle/keymaps/LohseBoi/keymap.c ****                     break;
 956               		.loc 1 429 21 view .LVU254
 429:keyboards/sofle/keymaps/LohseBoi/keymap.c ****                     break;
 957               		.loc 1 429 21 view .LVU255
 958               	.LBE87:
 959 002c 80E0      		ldi r24,lo8(__c.3963)
 960 002e 90E0      		ldi r25,hi8(__c.3963)
 961               	.L78:
 962               		.loc 1 435 21 is_stmt 0 view .LVU256
 963 0030 0E94 0000 		call send_string_P
 964               	.LVL61:
 436:keyboards/sofle/keymaps/LohseBoi/keymap.c ****                     break;
 965               		.loc 1 436 21 is_stmt 1 view .LVU257
 437:keyboards/sofle/keymaps/LohseBoi/keymap.c ****             }
 438:keyboards/sofle/keymaps/LohseBoi/keymap.c ****             //Resets variables
 439:keyboards/sofle/keymaps/LohseBoi/keymap.c ****             media_counter = 0;
 966               		.loc 1 439 13 view .LVU258
 967               		.loc 1 439 27 is_stmt 0 view .LVU259
 968 0034 1092 0000 		sts media_counter,__zero_reg__
 440:keyboards/sofle/keymaps/LohseBoi/keymap.c ****             is_media_active = false;
 969               		.loc 1 440 13 is_stmt 1 view .LVU260
 970               		.loc 1 440 29 is_stmt 0 view .LVU261
 971 0038 1092 0000 		sts is_media_active,__zero_reg__
 972               	.L69:
 973               	/* epilogue start */
 441:keyboards/sofle/keymaps/LohseBoi/keymap.c ****         }
 442:keyboards/sofle/keymaps/LohseBoi/keymap.c ****     }
 443:keyboards/sofle/keymaps/LohseBoi/keymap.c **** }
 974               		.loc 1 443 1 view .LVU262
 975 003c 0895      		ret
 976               	.L74:
 432:keyboards/sofle/keymaps/LohseBoi/keymap.c ****                     break;
 977               		.loc 1 432 21 is_stmt 1 view .LVU263
 978               	.LBB88:
 432:keyboards/sofle/keymaps/LohseBoi/keymap.c ****                     break;
 979               		.loc 1 432 21 view .LVU264
 432:keyboards/sofle/keymaps/LohseBoi/keymap.c ****                     break;
 980               		.loc 1 432 21 view .LVU265
 981               	.LBE88:
 982 003e 80E0      		ldi r24,lo8(__c.3967)
 983 0040 90E0      		ldi r25,hi8(__c.3967)
 984 0042 00C0      		rjmp .L78
 985               		.cfi_endproc
 986               	.LFE32:
 988               		.section	.text.encoder_update_user,"ax",@progbits
 989               	.global	encoder_update_user
 991               	encoder_update_user:
 992               	.LVL62:
 993               	.LFB33:
 444:keyboards/sofle/keymaps/LohseBoi/keymap.c **** 
 445:keyboards/sofle/keymaps/LohseBoi/keymap.c **** #ifdef ENCODER_ENABLE
 446:keyboards/sofle/keymaps/LohseBoi/keymap.c **** 
 447:keyboards/sofle/keymaps/LohseBoi/keymap.c **** bool encoder_update_user(uint8_t index, bool clockwise) {
 994               		.loc 1 447 57 view -0
 995               		.cfi_startproc
 996               		.loc 1 447 57 is_stmt 0 view .LVU267
 997 0000 CF93      		push r28
 998               	.LCFI9:
 999               		.cfi_def_cfa_offset 3
 1000               		.cfi_offset 28, -2
 1001               	/* prologue: function */
 1002               	/* frame size = 0 */
 1003               	/* stack size = 1 */
 1004               	.L__stack_usage = 1
 1005 0002 C82F      		mov r28,r24
 448:keyboards/sofle/keymaps/LohseBoi/keymap.c ****     clockwise = !clockwise;
 1006               		.loc 1 448 5 is_stmt 1 view .LVU268
 1007 0004 81E0      		ldi r24,lo8(1)
 1008               	.LVL63:
 1009               		.loc 1 448 5 is_stmt 0 view .LVU269
 1010 0006 6827      		eor r22,r24
 1011               	.LVL64:
 449:keyboards/sofle/keymaps/LohseBoi/keymap.c ****     if (index == 0) { //left encoder
 1012               		.loc 1 449 5 is_stmt 1 view .LVU270
 1013               		.loc 1 449 8 is_stmt 0 view .LVU271
 1014 0008 C111      		cpse r28,__zero_reg__
 1015 000a 00C0      		rjmp .L80
 450:keyboards/sofle/keymaps/LohseBoi/keymap.c ****         if (turner[index] == 1) {
 1016               		.loc 1 450 9 is_stmt 1 view .LVU272
 1017               		.loc 1 450 12 is_stmt 0 view .LVU273
 1018 000c 8091 0000 		lds r24,turner
 1019 0010 8130      		cpi r24,lo8(1)
 1020 0012 01F4      		brne .L81
 451:keyboards/sofle/keymaps/LohseBoi/keymap.c ****             if (clockwise)
 1021               		.loc 1 451 13 is_stmt 1 view .LVU274
 452:keyboards/sofle/keymaps/LohseBoi/keymap.c ****                 tap_code(KC_BRIU);
 1022               		.loc 1 452 17 is_stmt 0 view .LVU275
 1023 0014 8DEB      		ldi r24,lo8(-67)
 451:keyboards/sofle/keymaps/LohseBoi/keymap.c ****             if (clockwise)
 1024               		.loc 1 451 16 view .LVU276
 1025 0016 6111      		cpse r22,__zero_reg__
 1026 0018 00C0      		rjmp .L85
 453:keyboards/sofle/keymaps/LohseBoi/keymap.c ****                 //tap_code(KC_WH_D);  //Mouse wheel - Scroll (WORKING)
 454:keyboards/sofle/keymaps/LohseBoi/keymap.c ****             else
 455:keyboards/sofle/keymaps/LohseBoi/keymap.c ****                 tap_code(KC_BRID);
 1027               		.loc 1 455 17 is_stmt 1 view .LVU277
 1028 001a 8EEB      		ldi r24,lo8(-66)
 1029               	.L85:
 456:keyboards/sofle/keymaps/LohseBoi/keymap.c ****                 //tap_code(KC_WH_U);
 457:keyboards/sofle/keymaps/LohseBoi/keymap.c ****         }
 458:keyboards/sofle/keymaps/LohseBoi/keymap.c ****     } else if (index == 1) { //right encoder
 459:keyboards/sofle/keymaps/LohseBoi/keymap.c ****         if (turner[index] == 1) {
 460:keyboards/sofle/keymaps/LohseBoi/keymap.c ****             if (clockwise)
 461:keyboards/sofle/keymaps/LohseBoi/keymap.c ****                 tap_code(KC_VOLU);  //Volume
 462:keyboards/sofle/keymaps/LohseBoi/keymap.c ****             else
 463:keyboards/sofle/keymaps/LohseBoi/keymap.c ****                 tap_code(KC_VOLD);
 1030               		.loc 1 463 17 is_stmt 0 view .LVU278
 1031 001c 0E94 0000 		call tap_code
 1032               	.LVL65:
 1033               	.L81:
 464:keyboards/sofle/keymaps/LohseBoi/keymap.c ****         }
 465:keyboards/sofle/keymaps/LohseBoi/keymap.c ****     }
 466:keyboards/sofle/keymaps/LohseBoi/keymap.c ****     turner[index] = turner[index] == 1 ? 0 : 1;
 1034               		.loc 1 466 5 is_stmt 1 view .LVU279
 1035               		.loc 1 466 27 is_stmt 0 view .LVU280
 1036 0020 EC2F      		mov r30,r28
 1037 0022 F0E0      		ldi r31,0
 1038               		.loc 1 466 19 view .LVU281
 1039 0024 E050      		subi r30,lo8(-(turner))
 1040 0026 F040      		sbci r31,hi8(-(turner))
 1041               		.loc 1 466 44 view .LVU282
 1042 0028 81E0      		ldi r24,lo8(1)
 1043               	.LVL66:
 1044               		.loc 1 466 44 view .LVU283
 1045 002a 9081      		ld r25,Z
 1046 002c 9130      		cpi r25,lo8(1)
 1047 002e 01F4      		brne .L84
 1048 0030 80E0      		ldi r24,0
 1049               	.LVL67:
 1050               	.L84:
 1051               		.loc 1 466 19 view .LVU284
 1052 0032 8083      		st Z,r24
 467:keyboards/sofle/keymaps/LohseBoi/keymap.c ****     return true;
 1053               		.loc 1 467 5 is_stmt 1 view .LVU285
 468:keyboards/sofle/keymaps/LohseBoi/keymap.c **** }
 1054               		.loc 1 468 1 is_stmt 0 view .LVU286
 1055 0034 81E0      		ldi r24,lo8(1)
 1056               	.LVL68:
 1057               	/* epilogue start */
 1058               		.loc 1 468 1 view .LVU287
 1059 0036 CF91      		pop r28
 1060               	.LVL69:
 1061               		.loc 1 468 1 view .LVU288
 1062 0038 0895      		ret
 1063               	.LVL70:
 1064               	.L80:
 458:keyboards/sofle/keymaps/LohseBoi/keymap.c ****         if (turner[index] == 1) {
 1065               		.loc 1 458 12 is_stmt 1 view .LVU289
 458:keyboards/sofle/keymaps/LohseBoi/keymap.c ****         if (turner[index] == 1) {
 1066               		.loc 1 458 15 is_stmt 0 view .LVU290
 1067 003a C130      		cpi r28,lo8(1)
 1068 003c 01F4      		brne .L81
 459:keyboards/sofle/keymaps/LohseBoi/keymap.c ****             if (clockwise)
 1069               		.loc 1 459 9 is_stmt 1 view .LVU291
 459:keyboards/sofle/keymaps/LohseBoi/keymap.c ****             if (clockwise)
 1070               		.loc 1 459 12 is_stmt 0 view .LVU292
 1071 003e 8091 0000 		lds r24,turner+1
 1072 0042 8130      		cpi r24,lo8(1)
 1073 0044 01F4      		brne .L81
 460:keyboards/sofle/keymaps/LohseBoi/keymap.c ****                 tap_code(KC_VOLU);  //Volume
 1074               		.loc 1 460 13 is_stmt 1 view .LVU293
 461:keyboards/sofle/keymaps/LohseBoi/keymap.c ****             else
 1075               		.loc 1 461 17 is_stmt 0 view .LVU294
 1076 0046 89EA      		ldi r24,lo8(-87)
 460:keyboards/sofle/keymaps/LohseBoi/keymap.c ****                 tap_code(KC_VOLU);  //Volume
 1077               		.loc 1 460 16 view .LVU295
 1078 0048 6111      		cpse r22,__zero_reg__
 1079 004a 00C0      		rjmp .L85
 463:keyboards/sofle/keymaps/LohseBoi/keymap.c ****         }
 1080               		.loc 1 463 17 is_stmt 1 view .LVU296
 1081 004c 8AEA      		ldi r24,lo8(-86)
 1082 004e 00C0      		rjmp .L85
 1083               		.cfi_endproc
 1084               	.LFE33:
 1086               		.section	.progmem.data.__c.3971,"a"
 1089               	__c.3971:
 1090 0000 0101 AC00 		.string	"\001\001\254"
 1091               		.section	.progmem.data.__c.3967,"a"
 1094               	__c.3967:
 1095 0000 0101 AB00 		.string	"\001\001\253"
 1096               		.section	.progmem.data.__c.3963,"a"
 1099               	__c.3963:
 1100 0000 0101 AE00 		.string	"\001\001\256"
 1101               		.section	.progmem.data.__c.3956,"a"
 1104               	__c.3956:
 1105 0000 0101 2B00 		.string	"\001\001+"
 1106               		.section	.progmem.data.__c.3880,"a"
 1109               	__c.3880:
 1110 0000 4D6F 7265 		.string	"More\nShit\n1234567890"
 1110      0A53 6869 
 1110      740A 3132 
 1110      3334 3536 
 1110      3738 3930 
 1111               		.section	.progmem.data.__c.3876,"a"
 1114               	__c.3876:
 1115 0000 2057 504D 		.string	" WPM"
 1115      00
 1116               		.section	.progmem.data.__c.3874,"a"
 1119               	__c.3874:
 1120 0000 0A0A 00   		.string	"\n\n"
 1121               		.section	.progmem.data.__c.3936,"a"
 1124               	__c.3936:
 1125 0000 4350 534C 		.string	"CPSLK"
 1125      4B00 
 1126               		.section	.progmem.data.__c.3933,"a"
 1129               	__c.3933:
 1130 0000 0A0A 0A00 		.string	"\n\n\n"
 1131               		.section	.progmem.data.__c.3931,"a"
 1134               	__c.3931:
 1135 0000 556E 6465 		.string	"Undef\n"
 1135      660A 00
 1136               		.section	.progmem.data.__c.3928,"a"
 1139               	__c.3928:
 1140 0000 4144 4A0A 		.string	"ADJ\n"
 1140      00
 1141               		.section	.progmem.data.__c.3925,"a"
 1144               	__c.3925:
 1145 0000 4C57 520A 		.string	"LWR\n"
 1145      00
 1146               		.section	.progmem.data.__c.3922,"a"
 1149               	__c.3922:
 1150 0000 5253 450A 		.string	"RSE\n"
 1150      00
 1151               		.section	.progmem.data.__c.3919,"a"
 1154               	__c.3919:
 1155 0000 4741 4D45 		.string	"GAMER\n"
 1155      520A 00
 1156               		.section	.progmem.data.__c.3915,"a"
 1159               	__c.3915:
 1160 0000 4241 5345 		.string	"BASE\n"
 1160      0A00 
 1161               		.section	.progmem.data.__c.3912,"a"
 1164               	__c.3912:
 1165 0000 4C41 5945 		.string	"LAYER"
 1165      5200 
 1166               		.section	.progmem.data.__c.3910,"a"
 1169               	__c.3910:
 1170 0000 0A0A 00   		.string	"\n\n"
 1171               		.section	.progmem.data.__c.3908,"a"
 1174               	__c.3908:
 1175 0000 556E 6465 		.string	"Undef"
 1175      6600 
 1176               		.section	.progmem.data.__c.3905,"a"
 1179               	__c.3905:
 1180 0000 4741 4D45 		.string	"GAMER"
 1180      5200 
 1181               		.section	.progmem.data.__c.3901,"a"
 1184               	__c.3901:
 1185 0000 5177 7274 		.string	"Qwrt\n"
 1185      0A00 
 1186               		.section	.progmem.data.__c.3898,"a"
 1189               	__c.3898:
 1190 0000 5749 4E00 		.string	"WIN"
 1191               		.section	.progmem.data.__c.3896,"a"
 1194               	__c.3896:
 1195 0000 4D41 4300 		.string	"MAC"
 1196               		.section	.progmem.data.__c.3894,"a"
 1199               	__c.3894:
 1200 0000 00        		.zero	1
 1201               		.section	.progmem.data.__c.3892,"a"
 1204               	__c.3892:
 1205 0000 4D4F 4445 		.string	"MODE"
 1205      00
 1206               		.section	.progmem.data.__c.3890,"a"
 1209               	__c.3890:
 1210 0000 0A0A 00   		.string	"\n\n"
 1211               	.global	keymaps
 1212               		.section	.progmem.data.keymaps,"a"
 1215               	keymaps:
 1216 0000 2D00      		.word	45
 1217 0002 1E00      		.word	30
 1218 0004 1F00      		.word	31
 1219 0006 2000      		.word	32
 1220 0008 2100      		.word	33
 1221 000a 2200      		.word	34
 1222 000c 165C      		.word	23574
 1223 000e 1400      		.word	20
 1224 0010 1A00      		.word	26
 1225 0012 0800      		.word	8
 1226 0014 1500      		.word	21
 1227 0016 1700      		.word	23
 1228 0018 2B00      		.word	43
 1229 001a 0400      		.word	4
 1230 001c 1600      		.word	22
 1231 001e 0700      		.word	7
 1232 0020 0900      		.word	9
 1233 0022 0A00      		.word	10
 1234 0024 E100      		.word	225
 1235 0026 1D00      		.word	29
 1236 0028 1B00      		.word	27
 1237 002a 0600      		.word	6
 1238 002c 1900      		.word	25
 1239 002e 0500      		.word	5
 1240 0030 2F00      		.word	47
 1241 0032 E000      		.word	224
 1242 0034 E300      		.word	227
 1243 0036 6A5D      		.word	23914
 1244 0038 2C00      		.word	44
 1245 003a A800      		.word	168
 1246 003c 2E00      		.word	46
 1247 003e 2700      		.word	39
 1248 0040 2600      		.word	38
 1249 0042 2500      		.word	37
 1250 0044 2400      		.word	36
 1251 0046 2300      		.word	35
 1252 0048 3100      		.word	49
 1253 004a 1300      		.word	19
 1254 004c 1200      		.word	18
 1255 004e 0C00      		.word	12
 1256 0050 1800      		.word	24
 1257 0052 1C00      		.word	28
 1258 0054 3400      		.word	52
 1259 0056 3300      		.word	51
 1260 0058 0F00      		.word	15
 1261 005a 0E00      		.word	14
 1262 005c 0D00      		.word	13
 1263 005e 0B00      		.word	11
 1264 0060 2A00      		.word	42
 1265 0062 3800      		.word	56
 1266 0064 3700      		.word	55
 1267 0066 3600      		.word	54
 1268 0068 1000      		.word	16
 1269 006a 1100      		.word	17
 1270 006c 3000      		.word	48
 1271 006e 4C00      		.word	76
 1272 0070 E200      		.word	226
 1273 0072 655D      		.word	23909
 1274 0074 2800      		.word	40
 1275 0076 685D      		.word	23912
 1276 0078 2900      		.word	41
 1277 007a 1E00      		.word	30
 1278 007c 1F00      		.word	31
 1279 007e 2000      		.word	32
 1280 0080 2100      		.word	33
 1281 0082 2200      		.word	34
 1282 0084 2B00      		.word	43
 1283 0086 1400      		.word	20
 1284 0088 1A00      		.word	26
 1285 008a 0800      		.word	8
 1286 008c 1500      		.word	21
 1287 008e 1700      		.word	23
 1288 0090 E000      		.word	224
 1289 0092 0400      		.word	4
 1290 0094 1600      		.word	22
 1291 0096 0700      		.word	7
 1292 0098 0900      		.word	9
 1293 009a 0A00      		.word	10
 1294 009c E100      		.word	225
 1295 009e 1D00      		.word	29
 1296 00a0 1B00      		.word	27
 1297 00a2 0600      		.word	6
 1298 00a4 1900      		.word	25
 1299 00a6 0500      		.word	5
 1300 00a8 645D      		.word	23908
 1301 00aa 0C00      		.word	12
 1302 00ac 1000      		.word	16
 1303 00ae E200      		.word	226
 1304 00b0 0100      		.word	1
 1305 00b2 A800      		.word	168
 1306 00b4 2E00      		.word	46
 1307 00b6 2700      		.word	39
 1308 00b8 2600      		.word	38
 1309 00ba 2500      		.word	37
 1310 00bc 2400      		.word	36
 1311 00be 2300      		.word	35
 1312 00c0 3100      		.word	49
 1313 00c2 1300      		.word	19
 1314 00c4 1200      		.word	18
 1315 00c6 0C00      		.word	12
 1316 00c8 1800      		.word	24
 1317 00ca 1C00      		.word	28
 1318 00cc 3400      		.word	52
 1319 00ce 3300      		.word	51
 1320 00d0 0F00      		.word	15
 1321 00d2 0E00      		.word	14
 1322 00d4 0D00      		.word	13
 1323 00d6 0B00      		.word	11
 1324 00d8 2A00      		.word	42
 1325 00da 3800      		.word	56
 1326 00dc 3700      		.word	55
 1327 00de 3600      		.word	54
 1328 00e0 1000      		.word	16
 1329 00e2 1100      		.word	17
 1330 00e4 665D      		.word	23910
 1331 00e6 4C00      		.word	76
 1332 00e8 E200      		.word	226
 1333 00ea 655D      		.word	23909
 1334 00ec 0100      		.word	1
 1335 00ee 685D      		.word	23912
 1336 00f0 3A00      		.word	58
 1337 00f2 3B00      		.word	59
 1338 00f4 3C00      		.word	60
 1339 00f6 3D00      		.word	61
 1340 00f8 3E00      		.word	62
 1341 00fa 3F00      		.word	63
 1342 00fc 3500      		.word	53
 1343 00fe 0000      		.word	0
 1344 0100 0000      		.word	0
 1345 0102 0000      		.word	0
 1346 0104 0000      		.word	0
 1347 0106 0000      		.word	0
 1348 0108 695D      		.word	23913
 1349 010a 0000      		.word	0
 1350 010c 0000      		.word	0
 1351 010e 0000      		.word	0
 1352 0110 0000      		.word	0
 1353 0112 0000      		.word	0
 1354 0114 3962      		.word	25145
 1355 0116 0000      		.word	0
 1356 0118 0000      		.word	0
 1357 011a 0000      		.word	0
 1358 011c 0000      		.word	0
 1359 011e 0000      		.word	0
 1360 0120 0000      		.word	0
 1361 0122 0100      		.word	1
 1362 0124 0100      		.word	1
 1363 0126 0100      		.word	1
 1364 0128 0100      		.word	1
 1365 012a 0100      		.word	1
 1366 012c 4500      		.word	69
 1367 012e 4400      		.word	68
 1368 0130 4300      		.word	67
 1369 0132 4200      		.word	66
 1370 0134 4100      		.word	65
 1371 0136 4000      		.word	64
 1372 0138 0000      		.word	0
 1373 013a 0000      		.word	0
 1374 013c 0000      		.word	0
 1375 013e 0000      		.word	0
 1376 0140 0000      		.word	0
 1377 0142 0000      		.word	0
 1378 0144 0000      		.word	0
 1379 0146 0000      		.word	0
 1380 0148 4F00      		.word	79
 1381 014a 5200      		.word	82
 1382 014c 5100      		.word	81
 1383 014e 5000      		.word	80
 1384 0150 0100      		.word	1
 1385 0152 0000      		.word	0
 1386 0154 0000      		.word	0
 1387 0156 0000      		.word	0
 1388 0158 0000      		.word	0
 1389 015a 0000      		.word	0
 1390 015c 0000      		.word	0
 1391 015e 0100      		.word	1
 1392 0160 0100      		.word	1
 1393 0162 0100      		.word	1
 1394 0164 0100      		.word	1
 1395 0166 0100      		.word	1
 1396 0168 0100      		.word	1
 1397 016a 0100      		.word	1
 1398 016c 0100      		.word	1
 1399 016e 0100      		.word	1
 1400 0170 0100      		.word	1
 1401 0172 0100      		.word	1
 1402 0174 3500      		.word	53
 1403 0176 0000      		.word	0
 1404 0178 1A14      		.word	5146
 1405 017a 0000      		.word	0
 1406 017c 0000      		.word	0
 1407 017e 0000      		.word	0
 1408 0180 0100      		.word	1
 1409 0182 0000      		.word	0
 1410 0184 0000      		.word	0
 1411 0186 0000      		.word	0
 1412 0188 0000      		.word	0
 1413 018a 0000      		.word	0
 1414 018c E100      		.word	225
 1415 018e 1D14      		.word	5149
 1416 0190 0000      		.word	0
 1417 0192 0000      		.word	0
 1418 0194 0000      		.word	0
 1419 0196 0000      		.word	0
 1420 0198 0000      		.word	0
 1421 019a 0100      		.word	1
 1422 019c 0100      		.word	1
 1423 019e 0100      		.word	1
 1424 01a0 0100      		.word	1
 1425 01a2 0100      		.word	1
 1426 01a4 0100      		.word	1
 1427 01a6 0100      		.word	1
 1428 01a8 0100      		.word	1
 1429 01aa 0100      		.word	1
 1430 01ac 0100      		.word	1
 1431 01ae 0100      		.word	1
 1432 01b0 0000      		.word	0
 1433 01b2 0000      		.word	0
 1434 01b4 0000      		.word	0
 1435 01b6 0000      		.word	0
 1436 01b8 0000      		.word	0
 1437 01ba 0000      		.word	0
 1438 01bc 0000      		.word	0
 1439 01be 0000      		.word	0
 1440 01c0 0F14      		.word	5135
 1441 01c2 0000      		.word	0
 1442 01c4 0000      		.word	0
 1443 01c6 0000      		.word	0
 1444 01c8 2A00      		.word	42
 1445 01ca 0000      		.word	0
 1446 01cc 0000      		.word	0
 1447 01ce 0000      		.word	0
 1448 01d0 0000      		.word	0
 1449 01d2 0000      		.word	0
 1450 01d4 0000      		.word	0
 1451 01d6 0100      		.word	1
 1452 01d8 0100      		.word	1
 1453 01da 0100      		.word	1
 1454 01dc 0100      		.word	1
 1455 01de 0100      		.word	1
 1456 01e0 0000      		.word	0
 1457 01e2 0000      		.word	0
 1458 01e4 0000      		.word	0
 1459 01e6 0000      		.word	0
 1460 01e8 0000      		.word	0
 1461 01ea 0000      		.word	0
 1462 01ec 0000      		.word	0
 1463 01ee 635D      		.word	23907
 1464 01f0 0000      		.word	0
 1465 01f2 0000      		.word	0
 1466 01f4 0000      		.word	0
 1467 01f6 0000      		.word	0
 1468 01f8 0000      		.word	0
 1469 01fa 0000      		.word	0
 1470 01fc 015D      		.word	23809
 1471 01fe 0000      		.word	0
 1472 0200 0000      		.word	0
 1473 0202 675D      		.word	23911
 1474 0204 0100      		.word	1
 1475 0206 0000      		.word	0
 1476 0208 0000      		.word	0
 1477 020a 0000      		.word	0
 1478 020c 0000      		.word	0
 1479 020e 0000      		.word	0
 1480 0210 0000      		.word	0
 1481 0212 0100      		.word	1
 1482 0214 0100      		.word	1
 1483 0216 0100      		.word	1
 1484 0218 0100      		.word	1
 1485 021a 0000      		.word	0
 1486 021c 005C      		.word	23552
 1487 021e 0000      		.word	0
 1488 0220 0000      		.word	0
 1489 0222 0000      		.word	0
 1490 0224 0000      		.word	0
 1491 0226 0000      		.word	0
 1492 0228 0000      		.word	0
 1493 022a 0000      		.word	0
 1494 022c 0000      		.word	0
 1495 022e 0000      		.word	0
 1496 0230 0000      		.word	0
 1497 0232 0000      		.word	0
 1498 0234 0000      		.word	0
 1499 0236 0000      		.word	0
 1500 0238 A900      		.word	169
 1501 023a A800      		.word	168
 1502 023c AA00      		.word	170
 1503 023e 0000      		.word	0
 1504 0240 0100      		.word	1
 1505 0242 0000      		.word	0
 1506 0244 AB00      		.word	171
 1507 0246 AE00      		.word	174
 1508 0248 AC00      		.word	172
 1509 024a 0000      		.word	0
 1510 024c 0000      		.word	0
 1511 024e 0100      		.word	1
 1512 0250 0100      		.word	1
 1513 0252 0100      		.word	1
 1514 0254 0100      		.word	1
 1515 0256 0000      		.word	0
 1516               	.global	turner
 1517               		.section	.bss.turner,"aw",@nobits
 1520               	turner:
 1521 0000 0000      		.zero	2
 1522               	.global	media_counter
 1523               		.section	.bss.media_counter,"aw",@nobits
 1526               	media_counter:
 1527 0000 00        		.zero	1
 1528               	.global	media_timer
 1529               		.section	.bss.media_timer,"aw",@nobits
 1532               	media_timer:
 1533 0000 0000      		.zero	2
 1534               	.global	is_media_active
 1535               		.section	.bss.is_media_active,"aw",@nobits
 1538               	is_media_active:
 1539 0000 00        		.zero	1
 1540               	.global	media_time
 1541               		.section	.rodata.media_time,"a"
 1544               	media_time:
 1545 0000 EE02      		.word	750
 1546               	.global	lwr_tapped
 1547               		.section	.bss.lwr_tapped,"aw",@nobits
 1550               	lwr_tapped:
 1551 0000 00        		.zero	1
 1552               	.global	lwr_timer
 1553               		.section	.bss.lwr_timer,"aw",@nobits
 1556               	lwr_timer:
 1557 0000 0000      		.zero	2
 1558               	.global	alttab_active
 1559               		.section	.bss.alttab_active,"aw",@nobits
 1562               	alttab_active:
 1563 0000 00        		.zero	1
 1564               	.global	wpm_timer
 1565               		.section	.bss.wpm_timer,"aw",@nobits
 1568               	wpm_timer:
 1569 0000 0000      		.zero	2
 1570               		.text
 1571               	.Letext0:
 1572               		.file 2 "/usr/avr/include/stdint.h"
 1573               		.file 3 "/usr/lib/gcc/avr/8.3.0/include/stddef.h"
 1574               		.file 4 "quantum/keyboard.h"
 1575               		.file 5 "quantum/keycode.h"
 1576               		.file 6 "quantum/action_code.h"
 1577               		.file 7 "quantum/action.h"
 1578               		.file 8 "tmk_core/common/report.h"
 1579               		.file 9 "quantum/led.h"
 1580               		.file 10 "tmk_core/common/host.h"
 1581               		.file 11 "quantum/logging/debug.h"
 1582               		.file 12 "quantum/keycode_config.h"
 1583               		.file 13 "tmk_core/common/timer.h"
 1584               		.file 14 "quantum/sequencer/sequencer.h"
 1585               		.file 15 "quantum/quantum_keycodes.h"
 1586               		.file 16 "quantum/keymap.h"
 1587               		.file 17 "quantum/action_layer.h"
 1588               		.file 18 "quantum/action_util.h"
 1589               		.file 19 "quantum/send_string.h"
 1590               		.file 20 "/usr/avr/include/stdlib.h"
 1591               		.file 21 "drivers/oled/oled_driver.h"
 1592               		.file 22 "quantum/quantum.h"
 1593               		.file 23 "quantum/bitwise.h"
 1594               		.file 24 "quantum/wpm.h"