   1              		.cpu cortex-m4
   2              		.arch armv7e-m
   3              		.fpu fpv4-sp-d16
   4              		.eabi_attribute 27, 1
   5              		.eabi_attribute 28, 1
   6              		.eabi_attribute 20, 1
   7              		.eabi_attribute 21, 1
   8              		.eabi_attribute 23, 3
   9              		.eabi_attribute 24, 1
  10              		.eabi_attribute 25, 1
  11              		.eabi_attribute 26, 1
  12              		.eabi_attribute 30, 4
  13              		.eabi_attribute 34, 1
  14              		.eabi_attribute 18, 2
  15              		.file	"stm32_isr.c"
  16              		.text
  17              	.Ltext0:
  18              		.cfi_sections	.debug_frame
  19              		.file 1 "lib/chibios/os/hal/ports/STM32/STM32F3xx/stm32_isr.c"
  20              		.section	.text.VectorA0,"ax",%progbits
  21              		.align	1
  22              		.global	VectorA0
  23              		.syntax unified
  24              		.thumb
  25              		.thumb_func
  27              	VectorA0:
  28              	.LFB282:
   1:lib/chibios/os/hal/ports/STM32/STM32F3xx/stm32_isr.c **** /*
   2:lib/chibios/os/hal/ports/STM32/STM32F3xx/stm32_isr.c ****     ChibiOS - Copyright (C) 2006..2018 Giovanni Di Sirio
   3:lib/chibios/os/hal/ports/STM32/STM32F3xx/stm32_isr.c **** 
   4:lib/chibios/os/hal/ports/STM32/STM32F3xx/stm32_isr.c ****     Licensed under the Apache License, Version 2.0 (the "License");
   5:lib/chibios/os/hal/ports/STM32/STM32F3xx/stm32_isr.c ****     you may not use this file except in compliance with the License.
   6:lib/chibios/os/hal/ports/STM32/STM32F3xx/stm32_isr.c ****     You may obtain a copy of the License at
   7:lib/chibios/os/hal/ports/STM32/STM32F3xx/stm32_isr.c **** 
   8:lib/chibios/os/hal/ports/STM32/STM32F3xx/stm32_isr.c ****         http://www.apache.org/licenses/LICENSE-2.0
   9:lib/chibios/os/hal/ports/STM32/STM32F3xx/stm32_isr.c **** 
  10:lib/chibios/os/hal/ports/STM32/STM32F3xx/stm32_isr.c ****     Unless required by applicable law or agreed to in writing, software
  11:lib/chibios/os/hal/ports/STM32/STM32F3xx/stm32_isr.c ****     distributed under the License is distributed on an "AS IS" BASIS,
  12:lib/chibios/os/hal/ports/STM32/STM32F3xx/stm32_isr.c ****     WITHOUT WARRANTIES OR CONDITIONS OF ANY KIND, either express or implied.
  13:lib/chibios/os/hal/ports/STM32/STM32F3xx/stm32_isr.c ****     See the License for the specific language governing permissions and
  14:lib/chibios/os/hal/ports/STM32/STM32F3xx/stm32_isr.c ****     limitations under the License.
  15:lib/chibios/os/hal/ports/STM32/STM32F3xx/stm32_isr.c **** */
  16:lib/chibios/os/hal/ports/STM32/STM32F3xx/stm32_isr.c **** 
  17:lib/chibios/os/hal/ports/STM32/STM32F3xx/stm32_isr.c **** /**
  18:lib/chibios/os/hal/ports/STM32/STM32F3xx/stm32_isr.c ****  * @file    STM32F3xx/stm32_isr.c
  19:lib/chibios/os/hal/ports/STM32/STM32F3xx/stm32_isr.c ****  * @brief   STM32F3xx ISR handler code.
  20:lib/chibios/os/hal/ports/STM32/STM32F3xx/stm32_isr.c ****  *
  21:lib/chibios/os/hal/ports/STM32/STM32F3xx/stm32_isr.c ****  * @addtogroup STM32F3xx_ISR
  22:lib/chibios/os/hal/ports/STM32/STM32F3xx/stm32_isr.c ****  * @{
  23:lib/chibios/os/hal/ports/STM32/STM32F3xx/stm32_isr.c ****  */
  24:lib/chibios/os/hal/ports/STM32/STM32F3xx/stm32_isr.c **** 
  25:lib/chibios/os/hal/ports/STM32/STM32F3xx/stm32_isr.c **** #include "hal.h"
  26:lib/chibios/os/hal/ports/STM32/STM32F3xx/stm32_isr.c **** 
  27:lib/chibios/os/hal/ports/STM32/STM32F3xx/stm32_isr.c **** /*===========================================================================*/
  28:lib/chibios/os/hal/ports/STM32/STM32F3xx/stm32_isr.c **** /* Driver local definitions.                                                 */
  29:lib/chibios/os/hal/ports/STM32/STM32F3xx/stm32_isr.c **** /*===========================================================================*/
  30:lib/chibios/os/hal/ports/STM32/STM32F3xx/stm32_isr.c **** 
  31:lib/chibios/os/hal/ports/STM32/STM32F3xx/stm32_isr.c **** /*===========================================================================*/
  32:lib/chibios/os/hal/ports/STM32/STM32F3xx/stm32_isr.c **** /* Driver exported variables.                                                */
  33:lib/chibios/os/hal/ports/STM32/STM32F3xx/stm32_isr.c **** /*===========================================================================*/
  34:lib/chibios/os/hal/ports/STM32/STM32F3xx/stm32_isr.c **** 
  35:lib/chibios/os/hal/ports/STM32/STM32F3xx/stm32_isr.c **** /*===========================================================================*/
  36:lib/chibios/os/hal/ports/STM32/STM32F3xx/stm32_isr.c **** /* Driver local variables.                                                   */
  37:lib/chibios/os/hal/ports/STM32/STM32F3xx/stm32_isr.c **** /*===========================================================================*/
  38:lib/chibios/os/hal/ports/STM32/STM32F3xx/stm32_isr.c **** 
  39:lib/chibios/os/hal/ports/STM32/STM32F3xx/stm32_isr.c **** /*===========================================================================*/
  40:lib/chibios/os/hal/ports/STM32/STM32F3xx/stm32_isr.c **** /* Driver local functions.                                                   */
  41:lib/chibios/os/hal/ports/STM32/STM32F3xx/stm32_isr.c **** /*===========================================================================*/
  42:lib/chibios/os/hal/ports/STM32/STM32F3xx/stm32_isr.c **** 
  43:lib/chibios/os/hal/ports/STM32/STM32F3xx/stm32_isr.c **** #define exti_serve_irq(pr, channel) {                                       \
  44:lib/chibios/os/hal/ports/STM32/STM32F3xx/stm32_isr.c ****                                                                             \
  45:lib/chibios/os/hal/ports/STM32/STM32F3xx/stm32_isr.c ****   if ((pr) & (1U << (channel))) {                                           \
  46:lib/chibios/os/hal/ports/STM32/STM32F3xx/stm32_isr.c ****     _pal_isr_code(channel);                                                 \
  47:lib/chibios/os/hal/ports/STM32/STM32F3xx/stm32_isr.c ****   }                                                                         \
  48:lib/chibios/os/hal/ports/STM32/STM32F3xx/stm32_isr.c **** }
  49:lib/chibios/os/hal/ports/STM32/STM32F3xx/stm32_isr.c **** 
  50:lib/chibios/os/hal/ports/STM32/STM32F3xx/stm32_isr.c **** /*===========================================================================*/
  51:lib/chibios/os/hal/ports/STM32/STM32F3xx/stm32_isr.c **** /* Driver interrupt handlers.                                                */
  52:lib/chibios/os/hal/ports/STM32/STM32F3xx/stm32_isr.c **** /*===========================================================================*/
  53:lib/chibios/os/hal/ports/STM32/STM32F3xx/stm32_isr.c **** 
  54:lib/chibios/os/hal/ports/STM32/STM32F3xx/stm32_isr.c **** #if (HAL_USE_PAL && (PAL_USE_WAIT || PAL_USE_CALLBACKS)) || defined(__DOXYGEN__)
  55:lib/chibios/os/hal/ports/STM32/STM32F3xx/stm32_isr.c **** #if !defined(STM32_DISABLE_EXTI0_HANDLER)
  56:lib/chibios/os/hal/ports/STM32/STM32F3xx/stm32_isr.c **** /**
  57:lib/chibios/os/hal/ports/STM32/STM32F3xx/stm32_isr.c ****  * @brief   EXTI[0] interrupt handler.
  58:lib/chibios/os/hal/ports/STM32/STM32F3xx/stm32_isr.c ****  *
  59:lib/chibios/os/hal/ports/STM32/STM32F3xx/stm32_isr.c ****  * @isr
  60:lib/chibios/os/hal/ports/STM32/STM32F3xx/stm32_isr.c ****  */
  61:lib/chibios/os/hal/ports/STM32/STM32F3xx/stm32_isr.c **** OSAL_IRQ_HANDLER(Vector58) {
  62:lib/chibios/os/hal/ports/STM32/STM32F3xx/stm32_isr.c ****   uint32_t pr;
  63:lib/chibios/os/hal/ports/STM32/STM32F3xx/stm32_isr.c **** 
  64:lib/chibios/os/hal/ports/STM32/STM32F3xx/stm32_isr.c ****   OSAL_IRQ_PROLOGUE();
  65:lib/chibios/os/hal/ports/STM32/STM32F3xx/stm32_isr.c **** 
  66:lib/chibios/os/hal/ports/STM32/STM32F3xx/stm32_isr.c ****   pr = EXTI->PR;
  67:lib/chibios/os/hal/ports/STM32/STM32F3xx/stm32_isr.c ****   pr &= EXTI->IMR & (1U << 0);
  68:lib/chibios/os/hal/ports/STM32/STM32F3xx/stm32_isr.c ****   EXTI->PR = pr;
  69:lib/chibios/os/hal/ports/STM32/STM32F3xx/stm32_isr.c **** 
  70:lib/chibios/os/hal/ports/STM32/STM32F3xx/stm32_isr.c ****   exti_serve_irq(pr, 0);
  71:lib/chibios/os/hal/ports/STM32/STM32F3xx/stm32_isr.c **** 
  72:lib/chibios/os/hal/ports/STM32/STM32F3xx/stm32_isr.c ****   OSAL_IRQ_EPILOGUE();
  73:lib/chibios/os/hal/ports/STM32/STM32F3xx/stm32_isr.c **** }
  74:lib/chibios/os/hal/ports/STM32/STM32F3xx/stm32_isr.c **** #endif
  75:lib/chibios/os/hal/ports/STM32/STM32F3xx/stm32_isr.c **** 
  76:lib/chibios/os/hal/ports/STM32/STM32F3xx/stm32_isr.c **** #if !defined(STM32_DISABLE_EXTI1_HANDLER)
  77:lib/chibios/os/hal/ports/STM32/STM32F3xx/stm32_isr.c **** /**
  78:lib/chibios/os/hal/ports/STM32/STM32F3xx/stm32_isr.c ****  * @brief   EXTI[1] interrupt handler.
  79:lib/chibios/os/hal/ports/STM32/STM32F3xx/stm32_isr.c ****  *
  80:lib/chibios/os/hal/ports/STM32/STM32F3xx/stm32_isr.c ****  * @isr
  81:lib/chibios/os/hal/ports/STM32/STM32F3xx/stm32_isr.c ****  */
  82:lib/chibios/os/hal/ports/STM32/STM32F3xx/stm32_isr.c **** OSAL_IRQ_HANDLER(Vector5C) {
  83:lib/chibios/os/hal/ports/STM32/STM32F3xx/stm32_isr.c ****   uint32_t pr;
  84:lib/chibios/os/hal/ports/STM32/STM32F3xx/stm32_isr.c **** 
  85:lib/chibios/os/hal/ports/STM32/STM32F3xx/stm32_isr.c ****   OSAL_IRQ_PROLOGUE();
  86:lib/chibios/os/hal/ports/STM32/STM32F3xx/stm32_isr.c **** 
  87:lib/chibios/os/hal/ports/STM32/STM32F3xx/stm32_isr.c ****   pr = EXTI->PR;
  88:lib/chibios/os/hal/ports/STM32/STM32F3xx/stm32_isr.c ****   pr &= EXTI->IMR & (1U << 1);
  89:lib/chibios/os/hal/ports/STM32/STM32F3xx/stm32_isr.c ****   EXTI->PR = pr;
  90:lib/chibios/os/hal/ports/STM32/STM32F3xx/stm32_isr.c **** 
  91:lib/chibios/os/hal/ports/STM32/STM32F3xx/stm32_isr.c ****   exti_serve_irq(pr, 1);
  92:lib/chibios/os/hal/ports/STM32/STM32F3xx/stm32_isr.c **** 
  93:lib/chibios/os/hal/ports/STM32/STM32F3xx/stm32_isr.c ****   OSAL_IRQ_EPILOGUE();
  94:lib/chibios/os/hal/ports/STM32/STM32F3xx/stm32_isr.c **** }
  95:lib/chibios/os/hal/ports/STM32/STM32F3xx/stm32_isr.c **** #endif
  96:lib/chibios/os/hal/ports/STM32/STM32F3xx/stm32_isr.c **** 
  97:lib/chibios/os/hal/ports/STM32/STM32F3xx/stm32_isr.c **** #if !defined(STM32_DISABLE_EXTI2_HANDLER)
  98:lib/chibios/os/hal/ports/STM32/STM32F3xx/stm32_isr.c **** /**
  99:lib/chibios/os/hal/ports/STM32/STM32F3xx/stm32_isr.c ****  * @brief   EXTI[2] interrupt handler.
 100:lib/chibios/os/hal/ports/STM32/STM32F3xx/stm32_isr.c ****  *
 101:lib/chibios/os/hal/ports/STM32/STM32F3xx/stm32_isr.c ****  * @isr
 102:lib/chibios/os/hal/ports/STM32/STM32F3xx/stm32_isr.c ****  */
 103:lib/chibios/os/hal/ports/STM32/STM32F3xx/stm32_isr.c **** OSAL_IRQ_HANDLER(Vector60) {
 104:lib/chibios/os/hal/ports/STM32/STM32F3xx/stm32_isr.c ****   uint32_t pr;
 105:lib/chibios/os/hal/ports/STM32/STM32F3xx/stm32_isr.c **** 
 106:lib/chibios/os/hal/ports/STM32/STM32F3xx/stm32_isr.c ****   OSAL_IRQ_PROLOGUE();
 107:lib/chibios/os/hal/ports/STM32/STM32F3xx/stm32_isr.c **** 
 108:lib/chibios/os/hal/ports/STM32/STM32F3xx/stm32_isr.c ****   pr = EXTI->PR;
 109:lib/chibios/os/hal/ports/STM32/STM32F3xx/stm32_isr.c ****   pr &= EXTI->IMR & (1U << 2);
 110:lib/chibios/os/hal/ports/STM32/STM32F3xx/stm32_isr.c ****   EXTI->PR = pr;
 111:lib/chibios/os/hal/ports/STM32/STM32F3xx/stm32_isr.c **** 
 112:lib/chibios/os/hal/ports/STM32/STM32F3xx/stm32_isr.c ****   exti_serve_irq(pr, 2);
 113:lib/chibios/os/hal/ports/STM32/STM32F3xx/stm32_isr.c **** 
 114:lib/chibios/os/hal/ports/STM32/STM32F3xx/stm32_isr.c ****   OSAL_IRQ_EPILOGUE();
 115:lib/chibios/os/hal/ports/STM32/STM32F3xx/stm32_isr.c **** }
 116:lib/chibios/os/hal/ports/STM32/STM32F3xx/stm32_isr.c **** #endif
 117:lib/chibios/os/hal/ports/STM32/STM32F3xx/stm32_isr.c **** 
 118:lib/chibios/os/hal/ports/STM32/STM32F3xx/stm32_isr.c **** #if !defined(STM32_DISABLE_EXTI3_HANDLER)
 119:lib/chibios/os/hal/ports/STM32/STM32F3xx/stm32_isr.c **** /**
 120:lib/chibios/os/hal/ports/STM32/STM32F3xx/stm32_isr.c ****  * @brief   EXTI[3] interrupt handler.
 121:lib/chibios/os/hal/ports/STM32/STM32F3xx/stm32_isr.c ****  *
 122:lib/chibios/os/hal/ports/STM32/STM32F3xx/stm32_isr.c ****  * @isr
 123:lib/chibios/os/hal/ports/STM32/STM32F3xx/stm32_isr.c ****  */
 124:lib/chibios/os/hal/ports/STM32/STM32F3xx/stm32_isr.c **** OSAL_IRQ_HANDLER(Vector64) {
 125:lib/chibios/os/hal/ports/STM32/STM32F3xx/stm32_isr.c ****   uint32_t pr;
 126:lib/chibios/os/hal/ports/STM32/STM32F3xx/stm32_isr.c **** 
 127:lib/chibios/os/hal/ports/STM32/STM32F3xx/stm32_isr.c ****   OSAL_IRQ_PROLOGUE();
 128:lib/chibios/os/hal/ports/STM32/STM32F3xx/stm32_isr.c **** 
 129:lib/chibios/os/hal/ports/STM32/STM32F3xx/stm32_isr.c ****   pr = EXTI->PR;
 130:lib/chibios/os/hal/ports/STM32/STM32F3xx/stm32_isr.c ****   pr &= EXTI->IMR & (1U << 3);
 131:lib/chibios/os/hal/ports/STM32/STM32F3xx/stm32_isr.c ****   EXTI->PR = pr;
 132:lib/chibios/os/hal/ports/STM32/STM32F3xx/stm32_isr.c **** 
 133:lib/chibios/os/hal/ports/STM32/STM32F3xx/stm32_isr.c ****   exti_serve_irq(pr, 3);
 134:lib/chibios/os/hal/ports/STM32/STM32F3xx/stm32_isr.c **** 
 135:lib/chibios/os/hal/ports/STM32/STM32F3xx/stm32_isr.c ****   OSAL_IRQ_EPILOGUE();
 136:lib/chibios/os/hal/ports/STM32/STM32F3xx/stm32_isr.c **** }
 137:lib/chibios/os/hal/ports/STM32/STM32F3xx/stm32_isr.c **** #endif
 138:lib/chibios/os/hal/ports/STM32/STM32F3xx/stm32_isr.c **** 
 139:lib/chibios/os/hal/ports/STM32/STM32F3xx/stm32_isr.c **** #if !defined(STM32_DISABLE_EXTI4_HANDLER)
 140:lib/chibios/os/hal/ports/STM32/STM32F3xx/stm32_isr.c **** /**
 141:lib/chibios/os/hal/ports/STM32/STM32F3xx/stm32_isr.c ****  * @brief   EXTI[4] interrupt handler.
 142:lib/chibios/os/hal/ports/STM32/STM32F3xx/stm32_isr.c ****  *
 143:lib/chibios/os/hal/ports/STM32/STM32F3xx/stm32_isr.c ****  * @isr
 144:lib/chibios/os/hal/ports/STM32/STM32F3xx/stm32_isr.c ****  */
 145:lib/chibios/os/hal/ports/STM32/STM32F3xx/stm32_isr.c **** OSAL_IRQ_HANDLER(Vector68) {
 146:lib/chibios/os/hal/ports/STM32/STM32F3xx/stm32_isr.c ****   uint32_t pr;
 147:lib/chibios/os/hal/ports/STM32/STM32F3xx/stm32_isr.c **** 
 148:lib/chibios/os/hal/ports/STM32/STM32F3xx/stm32_isr.c ****   OSAL_IRQ_PROLOGUE();
 149:lib/chibios/os/hal/ports/STM32/STM32F3xx/stm32_isr.c **** 
 150:lib/chibios/os/hal/ports/STM32/STM32F3xx/stm32_isr.c ****   pr = EXTI->PR;
 151:lib/chibios/os/hal/ports/STM32/STM32F3xx/stm32_isr.c ****   pr &= EXTI->IMR & (1U << 4);
 152:lib/chibios/os/hal/ports/STM32/STM32F3xx/stm32_isr.c ****   EXTI->PR = pr;
 153:lib/chibios/os/hal/ports/STM32/STM32F3xx/stm32_isr.c **** 
 154:lib/chibios/os/hal/ports/STM32/STM32F3xx/stm32_isr.c ****   exti_serve_irq(pr, 4);
 155:lib/chibios/os/hal/ports/STM32/STM32F3xx/stm32_isr.c **** 
 156:lib/chibios/os/hal/ports/STM32/STM32F3xx/stm32_isr.c ****   OSAL_IRQ_EPILOGUE();
 157:lib/chibios/os/hal/ports/STM32/STM32F3xx/stm32_isr.c **** }
 158:lib/chibios/os/hal/ports/STM32/STM32F3xx/stm32_isr.c **** #endif
 159:lib/chibios/os/hal/ports/STM32/STM32F3xx/stm32_isr.c **** 
 160:lib/chibios/os/hal/ports/STM32/STM32F3xx/stm32_isr.c **** #if !defined(STM32_DISABLE_EXTI5_9_HANDLER)
 161:lib/chibios/os/hal/ports/STM32/STM32F3xx/stm32_isr.c **** /**
 162:lib/chibios/os/hal/ports/STM32/STM32F3xx/stm32_isr.c ****  * @brief   EXTI[5]...EXTI[9] interrupt handler.
 163:lib/chibios/os/hal/ports/STM32/STM32F3xx/stm32_isr.c ****  *
 164:lib/chibios/os/hal/ports/STM32/STM32F3xx/stm32_isr.c ****  * @isr
 165:lib/chibios/os/hal/ports/STM32/STM32F3xx/stm32_isr.c ****  */
 166:lib/chibios/os/hal/ports/STM32/STM32F3xx/stm32_isr.c **** OSAL_IRQ_HANDLER(Vector9C) {
 167:lib/chibios/os/hal/ports/STM32/STM32F3xx/stm32_isr.c ****   uint32_t pr;
 168:lib/chibios/os/hal/ports/STM32/STM32F3xx/stm32_isr.c **** 
 169:lib/chibios/os/hal/ports/STM32/STM32F3xx/stm32_isr.c ****   OSAL_IRQ_PROLOGUE();
 170:lib/chibios/os/hal/ports/STM32/STM32F3xx/stm32_isr.c **** 
 171:lib/chibios/os/hal/ports/STM32/STM32F3xx/stm32_isr.c ****   pr = EXTI->PR;
 172:lib/chibios/os/hal/ports/STM32/STM32F3xx/stm32_isr.c ****   pr &= EXTI->IMR & ((1U << 5) | (1U << 6) | (1U << 7) | (1U << 8) |
 173:lib/chibios/os/hal/ports/STM32/STM32F3xx/stm32_isr.c ****                      (1U << 9));
 174:lib/chibios/os/hal/ports/STM32/STM32F3xx/stm32_isr.c ****   EXTI->PR = pr;
 175:lib/chibios/os/hal/ports/STM32/STM32F3xx/stm32_isr.c **** 
 176:lib/chibios/os/hal/ports/STM32/STM32F3xx/stm32_isr.c ****   exti_serve_irq(pr, 5);
 177:lib/chibios/os/hal/ports/STM32/STM32F3xx/stm32_isr.c ****   exti_serve_irq(pr, 6);
 178:lib/chibios/os/hal/ports/STM32/STM32F3xx/stm32_isr.c ****   exti_serve_irq(pr, 7);
 179:lib/chibios/os/hal/ports/STM32/STM32F3xx/stm32_isr.c ****   exti_serve_irq(pr, 8);
 180:lib/chibios/os/hal/ports/STM32/STM32F3xx/stm32_isr.c ****   exti_serve_irq(pr, 9);
 181:lib/chibios/os/hal/ports/STM32/STM32F3xx/stm32_isr.c **** 
 182:lib/chibios/os/hal/ports/STM32/STM32F3xx/stm32_isr.c ****   OSAL_IRQ_EPILOGUE();
 183:lib/chibios/os/hal/ports/STM32/STM32F3xx/stm32_isr.c **** }
 184:lib/chibios/os/hal/ports/STM32/STM32F3xx/stm32_isr.c **** #endif
 185:lib/chibios/os/hal/ports/STM32/STM32F3xx/stm32_isr.c **** 
 186:lib/chibios/os/hal/ports/STM32/STM32F3xx/stm32_isr.c **** #if !defined(STM32_DISABLE_EXTI10_15_HANDLER)
 187:lib/chibios/os/hal/ports/STM32/STM32F3xx/stm32_isr.c **** /**
 188:lib/chibios/os/hal/ports/STM32/STM32F3xx/stm32_isr.c ****  * @brief   EXTI[10]...EXTI[15] interrupt handler.
 189:lib/chibios/os/hal/ports/STM32/STM32F3xx/stm32_isr.c ****  *
 190:lib/chibios/os/hal/ports/STM32/STM32F3xx/stm32_isr.c ****  * @isr
 191:lib/chibios/os/hal/ports/STM32/STM32F3xx/stm32_isr.c ****  */
 192:lib/chibios/os/hal/ports/STM32/STM32F3xx/stm32_isr.c **** OSAL_IRQ_HANDLER(VectorE0) {
 193:lib/chibios/os/hal/ports/STM32/STM32F3xx/stm32_isr.c ****   uint32_t pr;
 194:lib/chibios/os/hal/ports/STM32/STM32F3xx/stm32_isr.c **** 
 195:lib/chibios/os/hal/ports/STM32/STM32F3xx/stm32_isr.c ****   OSAL_IRQ_PROLOGUE();
 196:lib/chibios/os/hal/ports/STM32/STM32F3xx/stm32_isr.c **** 
 197:lib/chibios/os/hal/ports/STM32/STM32F3xx/stm32_isr.c ****   pr = EXTI->PR;
 198:lib/chibios/os/hal/ports/STM32/STM32F3xx/stm32_isr.c ****   pr &= EXTI->IMR & ((1U << 10) | (1U << 11) | (1U << 12) | (1U << 13) |
 199:lib/chibios/os/hal/ports/STM32/STM32F3xx/stm32_isr.c ****                      (1U << 14) | (1U << 15));
 200:lib/chibios/os/hal/ports/STM32/STM32F3xx/stm32_isr.c ****   EXTI->PR = pr;
 201:lib/chibios/os/hal/ports/STM32/STM32F3xx/stm32_isr.c **** 
 202:lib/chibios/os/hal/ports/STM32/STM32F3xx/stm32_isr.c ****   exti_serve_irq(pr, 10);
 203:lib/chibios/os/hal/ports/STM32/STM32F3xx/stm32_isr.c ****   exti_serve_irq(pr, 11);
 204:lib/chibios/os/hal/ports/STM32/STM32F3xx/stm32_isr.c ****   exti_serve_irq(pr, 12);
 205:lib/chibios/os/hal/ports/STM32/STM32F3xx/stm32_isr.c ****   exti_serve_irq(pr, 13);
 206:lib/chibios/os/hal/ports/STM32/STM32F3xx/stm32_isr.c ****   exti_serve_irq(pr, 14);
 207:lib/chibios/os/hal/ports/STM32/STM32F3xx/stm32_isr.c ****   exti_serve_irq(pr, 15);
 208:lib/chibios/os/hal/ports/STM32/STM32F3xx/stm32_isr.c **** 
 209:lib/chibios/os/hal/ports/STM32/STM32F3xx/stm32_isr.c ****   OSAL_IRQ_EPILOGUE();
 210:lib/chibios/os/hal/ports/STM32/STM32F3xx/stm32_isr.c **** }
 211:lib/chibios/os/hal/ports/STM32/STM32F3xx/stm32_isr.c **** #endif
 212:lib/chibios/os/hal/ports/STM32/STM32F3xx/stm32_isr.c **** #endif /* HAL_USE_PAL && (PAL_USE_WAIT || PAL_USE_CALLBACKS) */
 213:lib/chibios/os/hal/ports/STM32/STM32F3xx/stm32_isr.c **** 
 214:lib/chibios/os/hal/ports/STM32/STM32F3xx/stm32_isr.c **** #if HAL_USE_GPT || HAL_USE_ICU || HAL_USE_PWM || defined(__DOXYGEN__)
 215:lib/chibios/os/hal/ports/STM32/STM32F3xx/stm32_isr.c **** /**
 216:lib/chibios/os/hal/ports/STM32/STM32F3xx/stm32_isr.c ****  * @brief   TIM1-BRK, TIM15 interrupt handler.
 217:lib/chibios/os/hal/ports/STM32/STM32F3xx/stm32_isr.c ****  *
 218:lib/chibios/os/hal/ports/STM32/STM32F3xx/stm32_isr.c ****  * @isr
 219:lib/chibios/os/hal/ports/STM32/STM32F3xx/stm32_isr.c ****  */
 220:lib/chibios/os/hal/ports/STM32/STM32F3xx/stm32_isr.c **** OSAL_IRQ_HANDLER(VectorA0) {
  29              		.loc 1 220 28 view -0
  30              		.cfi_startproc
  31              		@ args = 0, pretend = 0, frame = 0
  32              		@ frame_needed = 0, uses_anonymous_args = 0
  33              		@ link register save eliminated.
 221:lib/chibios/os/hal/ports/STM32/STM32F3xx/stm32_isr.c **** 
 222:lib/chibios/os/hal/ports/STM32/STM32F3xx/stm32_isr.c ****   OSAL_IRQ_PROLOGUE();
  34              		.loc 1 222 3 view .LVU1
  35              		.loc 1 222 3 view .LVU2
  36              		.loc 1 222 3 view .LVU3
  37              		.loc 1 222 3 view .LVU4
  38              		.loc 1 222 3 view .LVU5
  39              		.loc 1 222 22 view .LVU6
 223:lib/chibios/os/hal/ports/STM32/STM32F3xx/stm32_isr.c **** 
 224:lib/chibios/os/hal/ports/STM32/STM32F3xx/stm32_isr.c **** #if HAL_USE_GPT
 225:lib/chibios/os/hal/ports/STM32/STM32F3xx/stm32_isr.c **** #if STM32_GPT_USE_TIM15
 226:lib/chibios/os/hal/ports/STM32/STM32F3xx/stm32_isr.c ****   gpt_lld_serve_interrupt(&GPTD15);
 227:lib/chibios/os/hal/ports/STM32/STM32F3xx/stm32_isr.c **** #endif
 228:lib/chibios/os/hal/ports/STM32/STM32F3xx/stm32_isr.c **** #endif
 229:lib/chibios/os/hal/ports/STM32/STM32F3xx/stm32_isr.c **** #if HAL_USE_ICU
 230:lib/chibios/os/hal/ports/STM32/STM32F3xx/stm32_isr.c **** #if STM32_ICU_USE_TIM15
 231:lib/chibios/os/hal/ports/STM32/STM32F3xx/stm32_isr.c ****   icu_lld_serve_interrupt(&ICUD15);
 232:lib/chibios/os/hal/ports/STM32/STM32F3xx/stm32_isr.c **** #endif
 233:lib/chibios/os/hal/ports/STM32/STM32F3xx/stm32_isr.c **** #endif
 234:lib/chibios/os/hal/ports/STM32/STM32F3xx/stm32_isr.c **** #if HAL_USE_PWM
 235:lib/chibios/os/hal/ports/STM32/STM32F3xx/stm32_isr.c **** #if STM32_PWM_USE_TIM15
 236:lib/chibios/os/hal/ports/STM32/STM32F3xx/stm32_isr.c ****   pwm_lld_serve_interrupt(&PWMD15);
 237:lib/chibios/os/hal/ports/STM32/STM32F3xx/stm32_isr.c **** #endif
 238:lib/chibios/os/hal/ports/STM32/STM32F3xx/stm32_isr.c **** #endif
 239:lib/chibios/os/hal/ports/STM32/STM32F3xx/stm32_isr.c **** 
 240:lib/chibios/os/hal/ports/STM32/STM32F3xx/stm32_isr.c ****   OSAL_IRQ_EPILOGUE();
  40              		.loc 1 240 3 view .LVU7
  41              		.loc 1 240 3 view .LVU8
  42              		.loc 1 240 3 view .LVU9
  43              		.loc 1 240 3 view .LVU10
  44              		.loc 1 240 3 view .LVU11
  45 0000 FFF7FEBF 		b	_port_irq_epilogue
  46              	.LVL0:
  47              		.cfi_endproc
  48              	.LFE282:
  50              		.section	.text.VectorA4,"ax",%progbits
  51              		.align	1
  52              		.global	VectorA4
  53              		.syntax unified
  54              		.thumb
  55              		.thumb_func
  57              	VectorA4:
  58              	.LFB289:
  59              		.cfi_startproc
 241:lib/chibios/os/hal/ports/STM32/STM32F3xx/stm32_isr.c **** }
 242:lib/chibios/os/hal/ports/STM32/STM32F3xx/stm32_isr.c **** 
 243:lib/chibios/os/hal/ports/STM32/STM32F3xx/stm32_isr.c **** /**
 244:lib/chibios/os/hal/ports/STM32/STM32F3xx/stm32_isr.c ****  * @brief   TIM1-UP, TIM16 interrupt handler.
 245:lib/chibios/os/hal/ports/STM32/STM32F3xx/stm32_isr.c ****  *
 246:lib/chibios/os/hal/ports/STM32/STM32F3xx/stm32_isr.c ****  * @isr
 247:lib/chibios/os/hal/ports/STM32/STM32F3xx/stm32_isr.c ****  */
 248:lib/chibios/os/hal/ports/STM32/STM32F3xx/stm32_isr.c **** OSAL_IRQ_HANDLER(VectorA4) {
  60              		.loc 1 248 1 view -0
  61              		@ args = 0, pretend = 0, frame = 0
  62              		@ frame_needed = 0, uses_anonymous_args = 0
  63              		@ link register save eliminated.
  64 0000 FFF7FEBF 		b	_port_irq_epilogue
  65              		.cfi_endproc
  66              	.LFE289:
  68              		.section	.text.VectorA8,"ax",%progbits
  69              		.align	1
  70              		.global	VectorA8
  71              		.syntax unified
  72              		.thumb
  73              		.thumb_func
  75              	VectorA8:
  76              	.LFB291:
  77              		.cfi_startproc
 249:lib/chibios/os/hal/ports/STM32/STM32F3xx/stm32_isr.c **** 
 250:lib/chibios/os/hal/ports/STM32/STM32F3xx/stm32_isr.c ****   OSAL_IRQ_PROLOGUE();
 251:lib/chibios/os/hal/ports/STM32/STM32F3xx/stm32_isr.c **** 
 252:lib/chibios/os/hal/ports/STM32/STM32F3xx/stm32_isr.c **** #if HAL_USE_GPT
 253:lib/chibios/os/hal/ports/STM32/STM32F3xx/stm32_isr.c **** #if STM32_GPT_USE_TIM1
 254:lib/chibios/os/hal/ports/STM32/STM32F3xx/stm32_isr.c ****   gpt_lld_serve_interrupt(&GPTD1);
 255:lib/chibios/os/hal/ports/STM32/STM32F3xx/stm32_isr.c **** #endif
 256:lib/chibios/os/hal/ports/STM32/STM32F3xx/stm32_isr.c **** #if STM32_GPT_USE_TIM16
 257:lib/chibios/os/hal/ports/STM32/STM32F3xx/stm32_isr.c ****   gpt_lld_serve_interrupt(&GPTD16);
 258:lib/chibios/os/hal/ports/STM32/STM32F3xx/stm32_isr.c **** #endif
 259:lib/chibios/os/hal/ports/STM32/STM32F3xx/stm32_isr.c **** #endif
 260:lib/chibios/os/hal/ports/STM32/STM32F3xx/stm32_isr.c **** #if HAL_USE_ICU
 261:lib/chibios/os/hal/ports/STM32/STM32F3xx/stm32_isr.c **** #if STM32_ICU_USE_TIM1
 262:lib/chibios/os/hal/ports/STM32/STM32F3xx/stm32_isr.c ****   icu_lld_serve_interrupt(&ICUD1);
 263:lib/chibios/os/hal/ports/STM32/STM32F3xx/stm32_isr.c **** #endif
 264:lib/chibios/os/hal/ports/STM32/STM32F3xx/stm32_isr.c **** #endif
 265:lib/chibios/os/hal/ports/STM32/STM32F3xx/stm32_isr.c **** #if HAL_USE_PWM
 266:lib/chibios/os/hal/ports/STM32/STM32F3xx/stm32_isr.c **** #if STM32_PWM_USE_TIM1
 267:lib/chibios/os/hal/ports/STM32/STM32F3xx/stm32_isr.c ****   pwm_lld_serve_interrupt(&PWMD1);
 268:lib/chibios/os/hal/ports/STM32/STM32F3xx/stm32_isr.c **** #endif
 269:lib/chibios/os/hal/ports/STM32/STM32F3xx/stm32_isr.c **** #if STM32_PWM_USE_TIM16
 270:lib/chibios/os/hal/ports/STM32/STM32F3xx/stm32_isr.c ****   pwm_lld_serve_interrupt(&PWMD16);
 271:lib/chibios/os/hal/ports/STM32/STM32F3xx/stm32_isr.c **** #endif
 272:lib/chibios/os/hal/ports/STM32/STM32F3xx/stm32_isr.c **** #endif
 273:lib/chibios/os/hal/ports/STM32/STM32F3xx/stm32_isr.c **** 
 274:lib/chibios/os/hal/ports/STM32/STM32F3xx/stm32_isr.c ****   OSAL_IRQ_EPILOGUE();
 275:lib/chibios/os/hal/ports/STM32/STM32F3xx/stm32_isr.c **** }
 276:lib/chibios/os/hal/ports/STM32/STM32F3xx/stm32_isr.c **** 
 277:lib/chibios/os/hal/ports/STM32/STM32F3xx/stm32_isr.c **** /**
 278:lib/chibios/os/hal/ports/STM32/STM32F3xx/stm32_isr.c ****  * @brief   TIM1-TRG-COM, TIM17 interrupt handler.
 279:lib/chibios/os/hal/ports/STM32/STM32F3xx/stm32_isr.c ****  *
 280:lib/chibios/os/hal/ports/STM32/STM32F3xx/stm32_isr.c ****  * @isr
 281:lib/chibios/os/hal/ports/STM32/STM32F3xx/stm32_isr.c ****  */
 282:lib/chibios/os/hal/ports/STM32/STM32F3xx/stm32_isr.c **** OSAL_IRQ_HANDLER(VectorA8) {
  78              		.loc 1 282 1 view -0
  79              		@ args = 0, pretend = 0, frame = 0
  80              		@ frame_needed = 0, uses_anonymous_args = 0
  81              		@ link register save eliminated.
  82 0000 FFF7FEBF 		b	_port_irq_epilogue
  83              		.cfi_endproc
  84              	.LFE291:
  86              		.section	.text.VectorAC,"ax",%progbits
  87              		.align	1
  88              		.global	VectorAC
  89              		.syntax unified
  90              		.thumb
  91              		.thumb_func
  93              	VectorAC:
  94              	.LFB293:
  95              		.cfi_startproc
 283:lib/chibios/os/hal/ports/STM32/STM32F3xx/stm32_isr.c **** 
 284:lib/chibios/os/hal/ports/STM32/STM32F3xx/stm32_isr.c ****   OSAL_IRQ_PROLOGUE();
 285:lib/chibios/os/hal/ports/STM32/STM32F3xx/stm32_isr.c **** 
 286:lib/chibios/os/hal/ports/STM32/STM32F3xx/stm32_isr.c **** #if HAL_USE_GPT
 287:lib/chibios/os/hal/ports/STM32/STM32F3xx/stm32_isr.c **** #if STM32_GPT_USE_TIM17
 288:lib/chibios/os/hal/ports/STM32/STM32F3xx/stm32_isr.c ****   gpt_lld_serve_interrupt(&GPTD17);
 289:lib/chibios/os/hal/ports/STM32/STM32F3xx/stm32_isr.c **** #endif
 290:lib/chibios/os/hal/ports/STM32/STM32F3xx/stm32_isr.c **** #endif
 291:lib/chibios/os/hal/ports/STM32/STM32F3xx/stm32_isr.c **** #if HAL_USE_ICU
 292:lib/chibios/os/hal/ports/STM32/STM32F3xx/stm32_isr.c ****   /* Not used by ICU.*/
 293:lib/chibios/os/hal/ports/STM32/STM32F3xx/stm32_isr.c **** #endif
 294:lib/chibios/os/hal/ports/STM32/STM32F3xx/stm32_isr.c **** #if HAL_USE_PWM
 295:lib/chibios/os/hal/ports/STM32/STM32F3xx/stm32_isr.c **** #if STM32_PWM_USE_TIM17
 296:lib/chibios/os/hal/ports/STM32/STM32F3xx/stm32_isr.c ****   pwm_lld_serve_interrupt(&PWMD17);
 297:lib/chibios/os/hal/ports/STM32/STM32F3xx/stm32_isr.c **** #endif
 298:lib/chibios/os/hal/ports/STM32/STM32F3xx/stm32_isr.c **** #endif
 299:lib/chibios/os/hal/ports/STM32/STM32F3xx/stm32_isr.c **** 
 300:lib/chibios/os/hal/ports/STM32/STM32F3xx/stm32_isr.c ****   OSAL_IRQ_EPILOGUE();
 301:lib/chibios/os/hal/ports/STM32/STM32F3xx/stm32_isr.c **** }
 302:lib/chibios/os/hal/ports/STM32/STM32F3xx/stm32_isr.c **** 
 303:lib/chibios/os/hal/ports/STM32/STM32F3xx/stm32_isr.c **** /**
 304:lib/chibios/os/hal/ports/STM32/STM32F3xx/stm32_isr.c ****  * @brief   TIM1-CC interrupt handler.
 305:lib/chibios/os/hal/ports/STM32/STM32F3xx/stm32_isr.c ****  *
 306:lib/chibios/os/hal/ports/STM32/STM32F3xx/stm32_isr.c ****  * @isr
 307:lib/chibios/os/hal/ports/STM32/STM32F3xx/stm32_isr.c ****  */
 308:lib/chibios/os/hal/ports/STM32/STM32F3xx/stm32_isr.c **** OSAL_IRQ_HANDLER(VectorAC) {
  96              		.loc 1 308 1 view -0
  97              		@ args = 0, pretend = 0, frame = 0
  98              		@ frame_needed = 0, uses_anonymous_args = 0
  99              		@ link register save eliminated.
 100 0000 FFF7FEBF 		b	_port_irq_epilogue
 101              		.cfi_endproc
 102              	.LFE293:
 104              		.section	.text.irqInit,"ax",%progbits
 105              		.align	1
 106              		.global	irqInit
 107              		.syntax unified
 108              		.thumb
 109              		.thumb_func
 111              	irqInit:
 112              	.LFB286:
 309:lib/chibios/os/hal/ports/STM32/STM32F3xx/stm32_isr.c **** 
 310:lib/chibios/os/hal/ports/STM32/STM32F3xx/stm32_isr.c ****   OSAL_IRQ_PROLOGUE();
 311:lib/chibios/os/hal/ports/STM32/STM32F3xx/stm32_isr.c **** 
 312:lib/chibios/os/hal/ports/STM32/STM32F3xx/stm32_isr.c **** #if HAL_USE_GPT
 313:lib/chibios/os/hal/ports/STM32/STM32F3xx/stm32_isr.c ****   /* Not used by GPT.*/
 314:lib/chibios/os/hal/ports/STM32/STM32F3xx/stm32_isr.c **** #endif
 315:lib/chibios/os/hal/ports/STM32/STM32F3xx/stm32_isr.c **** #if HAL_USE_ICU
 316:lib/chibios/os/hal/ports/STM32/STM32F3xx/stm32_isr.c **** #if STM32_ICU_USE_TIM1
 317:lib/chibios/os/hal/ports/STM32/STM32F3xx/stm32_isr.c ****   icu_lld_serve_interrupt(&ICUD1);
 318:lib/chibios/os/hal/ports/STM32/STM32F3xx/stm32_isr.c **** #endif
 319:lib/chibios/os/hal/ports/STM32/STM32F3xx/stm32_isr.c **** #endif
 320:lib/chibios/os/hal/ports/STM32/STM32F3xx/stm32_isr.c **** #if HAL_USE_PWM
 321:lib/chibios/os/hal/ports/STM32/STM32F3xx/stm32_isr.c **** #if STM32_PWM_USE_TIM1
 322:lib/chibios/os/hal/ports/STM32/STM32F3xx/stm32_isr.c ****   pwm_lld_serve_interrupt(&PWMD1);
 323:lib/chibios/os/hal/ports/STM32/STM32F3xx/stm32_isr.c **** #endif
 324:lib/chibios/os/hal/ports/STM32/STM32F3xx/stm32_isr.c **** #endif
 325:lib/chibios/os/hal/ports/STM32/STM32F3xx/stm32_isr.c **** 
 326:lib/chibios/os/hal/ports/STM32/STM32F3xx/stm32_isr.c ****   OSAL_IRQ_EPILOGUE();
 327:lib/chibios/os/hal/ports/STM32/STM32F3xx/stm32_isr.c **** }
 328:lib/chibios/os/hal/ports/STM32/STM32F3xx/stm32_isr.c **** #endif /* HAL_USE_GPT || HAL_USE_ICU || HAL_USE_PWM */
 329:lib/chibios/os/hal/ports/STM32/STM32F3xx/stm32_isr.c **** 
 330:lib/chibios/os/hal/ports/STM32/STM32F3xx/stm32_isr.c **** /*===========================================================================*/
 331:lib/chibios/os/hal/ports/STM32/STM32F3xx/stm32_isr.c **** /* Driver exported functions.                                                */
 332:lib/chibios/os/hal/ports/STM32/STM32F3xx/stm32_isr.c **** /*===========================================================================*/
 333:lib/chibios/os/hal/ports/STM32/STM32F3xx/stm32_isr.c **** 
 334:lib/chibios/os/hal/ports/STM32/STM32F3xx/stm32_isr.c **** /**
 335:lib/chibios/os/hal/ports/STM32/STM32F3xx/stm32_isr.c ****  * @brief   Enables IRQ sources.
 336:lib/chibios/os/hal/ports/STM32/STM32F3xx/stm32_isr.c ****  *
 337:lib/chibios/os/hal/ports/STM32/STM32F3xx/stm32_isr.c ****  * @notapi
 338:lib/chibios/os/hal/ports/STM32/STM32F3xx/stm32_isr.c ****  */
 339:lib/chibios/os/hal/ports/STM32/STM32F3xx/stm32_isr.c **** void irqInit(void) {
 113              		.loc 1 339 20 view -0
 114              		.cfi_startproc
 115              		@ args = 0, pretend = 0, frame = 0
 116              		@ frame_needed = 0, uses_anonymous_args = 0
 340:lib/chibios/os/hal/ports/STM32/STM32F3xx/stm32_isr.c **** 
 341:lib/chibios/os/hal/ports/STM32/STM32F3xx/stm32_isr.c **** #if HAL_USE_PAL
 342:lib/chibios/os/hal/ports/STM32/STM32F3xx/stm32_isr.c ****   nvicEnableVector(EXTI0_IRQn,              STM32_IRQ_EXTI0_PRIORITY);
 117              		.loc 1 342 3 view .LVU16
 118 0000 0621     		movs	r1, #6
 339:lib/chibios/os/hal/ports/STM32/STM32F3xx/stm32_isr.c **** 
 119              		.loc 1 339 20 is_stmt 0 view .LVU17
 120 0002 08B5     		push	{r3, lr}
 121              		.cfi_def_cfa_offset 8
 122              		.cfi_offset 3, -8
 123              		.cfi_offset 14, -4
 124              		.loc 1 342 3 view .LVU18
 125 0004 0846     		mov	r0, r1
 126 0006 FFF7FEFF 		bl	nvicEnableVector
 127              	.LVL1:
 343:lib/chibios/os/hal/ports/STM32/STM32F3xx/stm32_isr.c ****   nvicEnableVector(EXTI1_IRQn,              STM32_IRQ_EXTI1_PRIORITY);
 128              		.loc 1 343 3 is_stmt 1 view .LVU19
 129 000a 0621     		movs	r1, #6
 130 000c 0720     		movs	r0, #7
 131 000e FFF7FEFF 		bl	nvicEnableVector
 132              	.LVL2:
 344:lib/chibios/os/hal/ports/STM32/STM32F3xx/stm32_isr.c ****   nvicEnableVector(EXTI2_TSC_IRQn,          STM32_IRQ_EXTI2_PRIORITY);
 133              		.loc 1 344 3 view .LVU20
 134 0012 0621     		movs	r1, #6
 135 0014 0820     		movs	r0, #8
 136 0016 FFF7FEFF 		bl	nvicEnableVector
 137              	.LVL3:
 345:lib/chibios/os/hal/ports/STM32/STM32F3xx/stm32_isr.c ****   nvicEnableVector(EXTI3_IRQn,              STM32_IRQ_EXTI3_PRIORITY);
 138              		.loc 1 345 3 view .LVU21
 139 001a 0621     		movs	r1, #6
 140 001c 0920     		movs	r0, #9
 141 001e FFF7FEFF 		bl	nvicEnableVector
 142              	.LVL4:
 346:lib/chibios/os/hal/ports/STM32/STM32F3xx/stm32_isr.c ****   nvicEnableVector(EXTI4_IRQn,              STM32_IRQ_EXTI4_PRIORITY);
 143              		.loc 1 346 3 view .LVU22
 144 0022 0621     		movs	r1, #6
 145 0024 0A20     		movs	r0, #10
 146 0026 FFF7FEFF 		bl	nvicEnableVector
 147              	.LVL5:
 347:lib/chibios/os/hal/ports/STM32/STM32F3xx/stm32_isr.c ****   nvicEnableVector(EXTI9_5_IRQn,            STM32_IRQ_EXTI5_9_PRIORITY);
 148              		.loc 1 347 3 view .LVU23
 149 002a 0621     		movs	r1, #6
 150 002c 1720     		movs	r0, #23
 151 002e FFF7FEFF 		bl	nvicEnableVector
 152              	.LVL6:
 348:lib/chibios/os/hal/ports/STM32/STM32F3xx/stm32_isr.c ****   nvicEnableVector(EXTI15_10_IRQn,          STM32_IRQ_EXTI10_15_PRIORITY);
 153              		.loc 1 348 3 view .LVU24
 154 0032 0621     		movs	r1, #6
 155 0034 2820     		movs	r0, #40
 156 0036 FFF7FEFF 		bl	nvicEnableVector
 157              	.LVL7:
 349:lib/chibios/os/hal/ports/STM32/STM32F3xx/stm32_isr.c **** #endif
 350:lib/chibios/os/hal/ports/STM32/STM32F3xx/stm32_isr.c **** #if HAL_USE_GPT || HAL_USE_ICU || HAL_USE_PWM || defined(__DOXYGEN__)
 351:lib/chibios/os/hal/ports/STM32/STM32F3xx/stm32_isr.c ****   nvicEnableVector(TIM1_BRK_TIM15_IRQn,     STM32_IRQ_TIM1_BRK_TIM15_PRIORITY);
 158              		.loc 1 351 3 view .LVU25
 159 003a 0721     		movs	r1, #7
 160 003c 1820     		movs	r0, #24
 161 003e FFF7FEFF 		bl	nvicEnableVector
 162              	.LVL8:
 352:lib/chibios/os/hal/ports/STM32/STM32F3xx/stm32_isr.c ****   nvicEnableVector(TIM1_UP_TIM16_IRQn,      STM32_IRQ_TIM1_UP_TIM16_PRIORITY);
 163              		.loc 1 352 3 view .LVU26
 164 0042 0721     		movs	r1, #7
 165 0044 1920     		movs	r0, #25
 166 0046 FFF7FEFF 		bl	nvicEnableVector
 167              	.LVL9:
 353:lib/chibios/os/hal/ports/STM32/STM32F3xx/stm32_isr.c ****   nvicEnableVector(TIM1_TRG_COM_TIM17_IRQn, STM32_IRQ_TIM1_TRGCO_TIM17_PRIORITY);
 168              		.loc 1 353 3 view .LVU27
 169 004a 0721     		movs	r1, #7
 170 004c 1A20     		movs	r0, #26
 171 004e FFF7FEFF 		bl	nvicEnableVector
 172              	.LVL10:
 354:lib/chibios/os/hal/ports/STM32/STM32F3xx/stm32_isr.c ****   nvicEnableVector(TIM1_CC_IRQn,            STM32_IRQ_TIM1_CC_PRIORITY);
 173              		.loc 1 354 3 view .LVU28
 355:lib/chibios/os/hal/ports/STM32/STM32F3xx/stm32_isr.c **** #endif
 356:lib/chibios/os/hal/ports/STM32/STM32F3xx/stm32_isr.c **** }
 174              		.loc 1 356 1 is_stmt 0 view .LVU29
 175 0052 BDE80840 		pop	{r3, lr}
 176              		.cfi_restore 14
 177              		.cfi_restore 3
 178              		.cfi_def_cfa_offset 0
 354:lib/chibios/os/hal/ports/STM32/STM32F3xx/stm32_isr.c ****   nvicEnableVector(TIM1_CC_IRQn,            STM32_IRQ_TIM1_CC_PRIORITY);
 179              		.loc 1 354 3 view .LVU30
 180 0056 0721     		movs	r1, #7
 181 0058 1B20     		movs	r0, #27
 182 005a FFF7FEBF 		b	nvicEnableVector
 183              	.LVL11:
 184              		.cfi_endproc
 185              	.LFE286:
 187              		.section	.text.irqDeinit,"ax",%progbits
 188              		.align	1
 189              		.global	irqDeinit
 190              		.syntax unified
 191              		.thumb
 192              		.thumb_func
 194              	irqDeinit:
 195              	.LFB287:
 357:lib/chibios/os/hal/ports/STM32/STM32F3xx/stm32_isr.c **** 
 358:lib/chibios/os/hal/ports/STM32/STM32F3xx/stm32_isr.c **** /**
 359:lib/chibios/os/hal/ports/STM32/STM32F3xx/stm32_isr.c ****  * @brief   Disables IRQ sources.
 360:lib/chibios/os/hal/ports/STM32/STM32F3xx/stm32_isr.c ****  *
 361:lib/chibios/os/hal/ports/STM32/STM32F3xx/stm32_isr.c ****  * @notapi
 362:lib/chibios/os/hal/ports/STM32/STM32F3xx/stm32_isr.c ****  */
 363:lib/chibios/os/hal/ports/STM32/STM32F3xx/stm32_isr.c **** void irqDeinit(void) {
 196              		.loc 1 363 22 is_stmt 1 view -0
 197              		.cfi_startproc
 198              		@ args = 0, pretend = 0, frame = 0
 199              		@ frame_needed = 0, uses_anonymous_args = 0
 364:lib/chibios/os/hal/ports/STM32/STM32F3xx/stm32_isr.c **** 
 365:lib/chibios/os/hal/ports/STM32/STM32F3xx/stm32_isr.c **** #if HAL_USE_PAL
 366:lib/chibios/os/hal/ports/STM32/STM32F3xx/stm32_isr.c ****   nvicDisableVector(EXTI0_IRQn);
 200              		.loc 1 366 3 view .LVU32
 363:lib/chibios/os/hal/ports/STM32/STM32F3xx/stm32_isr.c **** 
 201              		.loc 1 363 22 is_stmt 0 view .LVU33
 202 0000 08B5     		push	{r3, lr}
 203              		.cfi_def_cfa_offset 8
 204              		.cfi_offset 3, -8
 205              		.cfi_offset 14, -4
 206              		.loc 1 366 3 view .LVU34
 207 0002 0620     		movs	r0, #6
 208 0004 FFF7FEFF 		bl	nvicDisableVector
 209              	.LVL12:
 367:lib/chibios/os/hal/ports/STM32/STM32F3xx/stm32_isr.c ****   nvicDisableVector(EXTI1_IRQn);
 210              		.loc 1 367 3 is_stmt 1 view .LVU35
 211 0008 0720     		movs	r0, #7
 212 000a FFF7FEFF 		bl	nvicDisableVector
 213              	.LVL13:
 368:lib/chibios/os/hal/ports/STM32/STM32F3xx/stm32_isr.c ****   nvicDisableVector(EXTI2_TSC_IRQn);
 214              		.loc 1 368 3 view .LVU36
 215 000e 0820     		movs	r0, #8
 216 0010 FFF7FEFF 		bl	nvicDisableVector
 217              	.LVL14:
 369:lib/chibios/os/hal/ports/STM32/STM32F3xx/stm32_isr.c ****   nvicDisableVector(EXTI3_IRQn);
 218              		.loc 1 369 3 view .LVU37
 219 0014 0920     		movs	r0, #9
 220 0016 FFF7FEFF 		bl	nvicDisableVector
 221              	.LVL15:
 370:lib/chibios/os/hal/ports/STM32/STM32F3xx/stm32_isr.c ****   nvicDisableVector(EXTI4_IRQn);
 222              		.loc 1 370 3 view .LVU38
 223 001a 0A20     		movs	r0, #10
 224 001c FFF7FEFF 		bl	nvicDisableVector
 225              	.LVL16:
 371:lib/chibios/os/hal/ports/STM32/STM32F3xx/stm32_isr.c ****   nvicDisableVector(EXTI9_5_IRQn);
 226              		.loc 1 371 3 view .LVU39
 227 0020 1720     		movs	r0, #23
 228 0022 FFF7FEFF 		bl	nvicDisableVector
 229              	.LVL17:
 372:lib/chibios/os/hal/ports/STM32/STM32F3xx/stm32_isr.c ****   nvicDisableVector(EXTI15_10_IRQn);
 230              		.loc 1 372 3 view .LVU40
 231 0026 2820     		movs	r0, #40
 232 0028 FFF7FEFF 		bl	nvicDisableVector
 233              	.LVL18:
 373:lib/chibios/os/hal/ports/STM32/STM32F3xx/stm32_isr.c **** #endif
 374:lib/chibios/os/hal/ports/STM32/STM32F3xx/stm32_isr.c **** #if HAL_USE_GPT || HAL_USE_ICU || HAL_USE_PWM || defined(__DOXYGEN__)
 375:lib/chibios/os/hal/ports/STM32/STM32F3xx/stm32_isr.c ****   nvicDisableVector(TIM1_BRK_TIM15_IRQn);
 234              		.loc 1 375 3 view .LVU41
 235 002c 1820     		movs	r0, #24
 236 002e FFF7FEFF 		bl	nvicDisableVector
 237              	.LVL19:
 376:lib/chibios/os/hal/ports/STM32/STM32F3xx/stm32_isr.c ****   nvicDisableVector(TIM1_UP_TIM16_IRQn);
 238              		.loc 1 376 3 view .LVU42
 239 0032 1920     		movs	r0, #25
 240 0034 FFF7FEFF 		bl	nvicDisableVector
 241              	.LVL20:
 377:lib/chibios/os/hal/ports/STM32/STM32F3xx/stm32_isr.c ****   nvicDisableVector(TIM1_TRG_COM_TIM17_IRQn);
 242              		.loc 1 377 3 view .LVU43
 243 0038 1A20     		movs	r0, #26
 244 003a FFF7FEFF 		bl	nvicDisableVector
 245              	.LVL21:
 378:lib/chibios/os/hal/ports/STM32/STM32F3xx/stm32_isr.c ****   nvicDisableVector(TIM1_CC_IRQn);
 246              		.loc 1 378 3 view .LVU44
 379:lib/chibios/os/hal/ports/STM32/STM32F3xx/stm32_isr.c **** #endif
 380:lib/chibios/os/hal/ports/STM32/STM32F3xx/stm32_isr.c **** }
 247              		.loc 1 380 1 is_stmt 0 view .LVU45
 248 003e BDE80840 		pop	{r3, lr}
 249              		.cfi_restore 14
 250              		.cfi_restore 3
 251              		.cfi_def_cfa_offset 0
 378:lib/chibios/os/hal/ports/STM32/STM32F3xx/stm32_isr.c ****   nvicDisableVector(TIM1_CC_IRQn);
 252              		.loc 1 378 3 view .LVU46
 253 0042 1B20     		movs	r0, #27
 254 0044 FFF7FEBF 		b	nvicDisableVector
 255              	.LVL22:
 256              		.cfi_endproc
 257              	.LFE287:
 259              		.text
 260              	.Letext0:
 261              		.file 2 "/usr/arm-none-eabi/include/machine/_default_types.h"
 262              		.file 3 "/usr/arm-none-eabi/include/sys/_stdint.h"
 263              		.file 4 "./lib/chibios/os/hal/ports/common/ARMCMx/nvic.h"
 264              		.file 5 "./lib/chibios/os/common/ports/ARMCMx/chcore_v7m.h"
 265              		.file 6 "./lib/chibios/os/common/ext/ST/STM32F3xx/stm32f303xc.h"