   1              		.cpu cortex-m4
   2              		.eabi_attribute 27, 1
   3              		.eabi_attribute 28, 1
   4              		.eabi_attribute 20, 1
   5              		.eabi_attribute 21, 1
   6              		.eabi_attribute 23, 3
   7              		.eabi_attribute 24, 1
   8              		.eabi_attribute 25, 1
   9              		.eabi_attribute 26, 1
  10              		.eabi_attribute 30, 4
  11              		.eabi_attribute 34, 1
  12              		.eabi_attribute 18, 2
  13              		.file	"nvic.c"
  14              		.text
  15              	.Ltext0:
  16              		.cfi_sections	.debug_frame
  17              		.section	.text.nvicEnableVector,"ax",%progbits
  18              		.align	1
  19              		.global	nvicEnableVector
  20              		.arch armv7e-m
  21              		.syntax unified
  22              		.thumb
  23              		.thumb_func
  24              		.fpu fpv4-sp-d16
  26              	nvicEnableVector:
  27              	.LVL0:
  28              	.LFB328:
  29              		.file 1 "lib/chibios/os/hal/ports/common/ARMCMx/nvic.c"
   1:lib/chibios/os/hal/ports/common/ARMCMx/nvic.c **** /*
   2:lib/chibios/os/hal/ports/common/ARMCMx/nvic.c ****     ChibiOS - Copyright (C) 2006..2018 Giovanni Di Sirio
   3:lib/chibios/os/hal/ports/common/ARMCMx/nvic.c **** 
   4:lib/chibios/os/hal/ports/common/ARMCMx/nvic.c ****     Licensed under the Apache License, Version 2.0 (the "License");
   5:lib/chibios/os/hal/ports/common/ARMCMx/nvic.c ****     you may not use this file except in compliance with the License.
   6:lib/chibios/os/hal/ports/common/ARMCMx/nvic.c ****     You may obtain a copy of the License at
   7:lib/chibios/os/hal/ports/common/ARMCMx/nvic.c **** 
   8:lib/chibios/os/hal/ports/common/ARMCMx/nvic.c ****         http://www.apache.org/licenses/LICENSE-2.0
   9:lib/chibios/os/hal/ports/common/ARMCMx/nvic.c **** 
  10:lib/chibios/os/hal/ports/common/ARMCMx/nvic.c ****     Unless required by applicable law or agreed to in writing, software
  11:lib/chibios/os/hal/ports/common/ARMCMx/nvic.c ****     distributed under the License is distributed on an "AS IS" BASIS,
  12:lib/chibios/os/hal/ports/common/ARMCMx/nvic.c ****     WITHOUT WARRANTIES OR CONDITIONS OF ANY KIND, either express or implied.
  13:lib/chibios/os/hal/ports/common/ARMCMx/nvic.c ****     See the License for the specific language governing permissions and
  14:lib/chibios/os/hal/ports/common/ARMCMx/nvic.c ****     limitations under the License.
  15:lib/chibios/os/hal/ports/common/ARMCMx/nvic.c **** */
  16:lib/chibios/os/hal/ports/common/ARMCMx/nvic.c **** 
  17:lib/chibios/os/hal/ports/common/ARMCMx/nvic.c **** /**
  18:lib/chibios/os/hal/ports/common/ARMCMx/nvic.c ****  * @file    common/ARMCMx/nvic.c
  19:lib/chibios/os/hal/ports/common/ARMCMx/nvic.c ****  * @brief   Cortex-Mx NVIC support code.
  20:lib/chibios/os/hal/ports/common/ARMCMx/nvic.c ****  *
  21:lib/chibios/os/hal/ports/common/ARMCMx/nvic.c ****  * @addtogroup COMMON_ARMCMx_NVIC
  22:lib/chibios/os/hal/ports/common/ARMCMx/nvic.c ****  * @{
  23:lib/chibios/os/hal/ports/common/ARMCMx/nvic.c ****  */
  24:lib/chibios/os/hal/ports/common/ARMCMx/nvic.c **** 
  25:lib/chibios/os/hal/ports/common/ARMCMx/nvic.c **** #include "hal.h"
  26:lib/chibios/os/hal/ports/common/ARMCMx/nvic.c **** 
  27:lib/chibios/os/hal/ports/common/ARMCMx/nvic.c **** /*===========================================================================*/
  28:lib/chibios/os/hal/ports/common/ARMCMx/nvic.c **** /* Driver local definitions.                                                 */
  29:lib/chibios/os/hal/ports/common/ARMCMx/nvic.c **** /*===========================================================================*/
  30:lib/chibios/os/hal/ports/common/ARMCMx/nvic.c **** 
  31:lib/chibios/os/hal/ports/common/ARMCMx/nvic.c **** /*===========================================================================*/
  32:lib/chibios/os/hal/ports/common/ARMCMx/nvic.c **** /* Driver exported variables.                                                */
  33:lib/chibios/os/hal/ports/common/ARMCMx/nvic.c **** /*===========================================================================*/
  34:lib/chibios/os/hal/ports/common/ARMCMx/nvic.c **** 
  35:lib/chibios/os/hal/ports/common/ARMCMx/nvic.c **** /*===========================================================================*/
  36:lib/chibios/os/hal/ports/common/ARMCMx/nvic.c **** /* Driver local types.                                                       */
  37:lib/chibios/os/hal/ports/common/ARMCMx/nvic.c **** /*===========================================================================*/
  38:lib/chibios/os/hal/ports/common/ARMCMx/nvic.c **** 
  39:lib/chibios/os/hal/ports/common/ARMCMx/nvic.c **** /*===========================================================================*/
  40:lib/chibios/os/hal/ports/common/ARMCMx/nvic.c **** /* Driver local variables.                                                   */
  41:lib/chibios/os/hal/ports/common/ARMCMx/nvic.c **** /*===========================================================================*/
  42:lib/chibios/os/hal/ports/common/ARMCMx/nvic.c **** 
  43:lib/chibios/os/hal/ports/common/ARMCMx/nvic.c **** /*===========================================================================*/
  44:lib/chibios/os/hal/ports/common/ARMCMx/nvic.c **** /* Driver local functions.                                                   */
  45:lib/chibios/os/hal/ports/common/ARMCMx/nvic.c **** /*===========================================================================*/
  46:lib/chibios/os/hal/ports/common/ARMCMx/nvic.c **** 
  47:lib/chibios/os/hal/ports/common/ARMCMx/nvic.c **** /*===========================================================================*/
  48:lib/chibios/os/hal/ports/common/ARMCMx/nvic.c **** /* Driver exported functions.                                                */
  49:lib/chibios/os/hal/ports/common/ARMCMx/nvic.c **** /*===========================================================================*/
  50:lib/chibios/os/hal/ports/common/ARMCMx/nvic.c **** 
  51:lib/chibios/os/hal/ports/common/ARMCMx/nvic.c **** /**
  52:lib/chibios/os/hal/ports/common/ARMCMx/nvic.c ****  * @brief   Sets the priority of an interrupt handler and enables it.
  53:lib/chibios/os/hal/ports/common/ARMCMx/nvic.c ****  *
  54:lib/chibios/os/hal/ports/common/ARMCMx/nvic.c ****  * @param[in] n         the interrupt number
  55:lib/chibios/os/hal/ports/common/ARMCMx/nvic.c ****  * @param[in] prio      the interrupt priority
  56:lib/chibios/os/hal/ports/common/ARMCMx/nvic.c ****  */
  57:lib/chibios/os/hal/ports/common/ARMCMx/nvic.c **** void nvicEnableVector(uint32_t n, uint32_t prio) {
  30              		.loc 1 57 50 view -0
  31              		.cfi_startproc
  32              		@ args = 0, pretend = 0, frame = 0
  33              		@ frame_needed = 0, uses_anonymous_args = 0
  34              		@ link register save eliminated.
  58:lib/chibios/os/hal/ports/common/ARMCMx/nvic.c **** 
  59:lib/chibios/os/hal/ports/common/ARMCMx/nvic.c **** #if defined(__CORE_CM0_H_GENERIC) || defined(__CORE_CM0PLUS_H_GENERIC)
  60:lib/chibios/os/hal/ports/common/ARMCMx/nvic.c ****   NVIC->IP[_IP_IDX(n)] = (NVIC->IP[_IP_IDX(n)] & ~(0xFFU << _BIT_SHIFT(n))) |
  61:lib/chibios/os/hal/ports/common/ARMCMx/nvic.c ****                          (NVIC_PRIORITY_MASK(prio) << _BIT_SHIFT(n));
  62:lib/chibios/os/hal/ports/common/ARMCMx/nvic.c **** #else
  63:lib/chibios/os/hal/ports/common/ARMCMx/nvic.c ****   NVIC->IP[n] = NVIC_PRIORITY_MASK(prio);
  35              		.loc 1 63 3 view .LVU1
  36              		.loc 1 63 15 is_stmt 0 view .LVU2
  37 0000 00F16043 		add	r3, r0, #-536870912
  38 0004 03F56143 		add	r3, r3, #57600
  39              		.loc 1 63 17 view .LVU3
  40 0008 0901     		lsls	r1, r1, #4
  41              	.LVL1:
  42              		.loc 1 63 17 view .LVU4
  43 000a C9B2     		uxtb	r1, r1
  44              		.loc 1 63 15 view .LVU5
  45 000c 83F80013 		strb	r1, [r3, #768]
  64:lib/chibios/os/hal/ports/common/ARMCMx/nvic.c **** #endif
  65:lib/chibios/os/hal/ports/common/ARMCMx/nvic.c ****   NVIC->ICPR[n >> 5U] = 1U << (n & 0x1FU);
  46              		.loc 1 65 3 is_stmt 1 view .LVU6
  47              		.loc 1 65 28 is_stmt 0 view .LVU7
  48 0010 0122     		movs	r2, #1
  49              		.loc 1 65 34 view .LVU8
  50 0012 00F01F03 		and	r3, r0, #31
  51              		.loc 1 65 28 view .LVU9
  52 0016 9A40     		lsls	r2, r2, r3
  53              		.loc 1 65 16 view .LVU10
  54 0018 4309     		lsrs	r3, r0, #5
  55 001a 9B00     		lsls	r3, r3, #2
  56 001c 03F16043 		add	r3, r3, #-536870912
  57 0020 03F56143 		add	r3, r3, #57600
  58              		.loc 1 65 23 view .LVU11
  59 0024 C3F88021 		str	r2, [r3, #384]
  66:lib/chibios/os/hal/ports/common/ARMCMx/nvic.c ****   NVIC->ISER[n >> 5U] = 1U << (n & 0x1FU);
  60              		.loc 1 66 3 is_stmt 1 view .LVU12
  61              		.loc 1 66 23 is_stmt 0 view .LVU13
  62 0028 1A60     		str	r2, [r3]
  67:lib/chibios/os/hal/ports/common/ARMCMx/nvic.c **** }
  63              		.loc 1 67 1 view .LVU14
  64 002a 7047     		bx	lr
  65              		.cfi_endproc
  66              	.LFE328:
  68              		.section	.text.nvicDisableVector,"ax",%progbits
  69              		.align	1
  70              		.global	nvicDisableVector
  71              		.syntax unified
  72              		.thumb
  73              		.thumb_func
  74              		.fpu fpv4-sp-d16
  76              	nvicDisableVector:
  77              	.LVL2:
  78              	.LFB329:
  68:lib/chibios/os/hal/ports/common/ARMCMx/nvic.c **** 
  69:lib/chibios/os/hal/ports/common/ARMCMx/nvic.c **** /**
  70:lib/chibios/os/hal/ports/common/ARMCMx/nvic.c ****  * @brief   Disables an interrupt handler.
  71:lib/chibios/os/hal/ports/common/ARMCMx/nvic.c ****  *
  72:lib/chibios/os/hal/ports/common/ARMCMx/nvic.c ****  * @param[in] n         the interrupt number
  73:lib/chibios/os/hal/ports/common/ARMCMx/nvic.c ****  */
  74:lib/chibios/os/hal/ports/common/ARMCMx/nvic.c **** void nvicDisableVector(uint32_t n) {
  79              		.loc 1 74 36 is_stmt 1 view -0
  80              		.cfi_startproc
  81              		@ args = 0, pretend = 0, frame = 0
  82              		@ frame_needed = 0, uses_anonymous_args = 0
  83              		@ link register save eliminated.
  75:lib/chibios/os/hal/ports/common/ARMCMx/nvic.c **** 
  76:lib/chibios/os/hal/ports/common/ARMCMx/nvic.c ****   NVIC->ICER[n >> 5U] = 1U << (n & 0x1FU);
  84              		.loc 1 76 3 view .LVU16
  85              		.loc 1 76 34 is_stmt 0 view .LVU17
  86 0000 00F01F03 		and	r3, r0, #31
  87              		.loc 1 76 16 view .LVU18
  88 0004 4209     		lsrs	r2, r0, #5
  89              		.loc 1 76 28 view .LVU19
  90 0006 0121     		movs	r1, #1
  91 0008 9940     		lsls	r1, r1, r3
  92              		.loc 1 76 23 view .LVU20
  93 000a 2032     		adds	r2, r2, #32
  94 000c 034B     		ldr	r3, .L3
  95 000e 43F82210 		str	r1, [r3, r2, lsl #2]
  77:lib/chibios/os/hal/ports/common/ARMCMx/nvic.c **** #if defined(__CORE_CM0_H_GENERIC) || defined(__CORE_CM0PLUS_H_GENERIC)
  78:lib/chibios/os/hal/ports/common/ARMCMx/nvic.c ****   NVIC->IP[_IP_IDX(n)] = NVIC->IP[_IP_IDX(n)] & ~(0xFFU << _BIT_SHIFT(n));
  79:lib/chibios/os/hal/ports/common/ARMCMx/nvic.c **** #else
  80:lib/chibios/os/hal/ports/common/ARMCMx/nvic.c ****   NVIC->IP[n] = 0U;
  96              		.loc 1 80 3 is_stmt 1 view .LVU21
  97              		.loc 1 80 15 is_stmt 0 view .LVU22
  98 0012 0344     		add	r3, r3, r0
  99 0014 0022     		movs	r2, #0
 100 0016 83F80023 		strb	r2, [r3, #768]
  81:lib/chibios/os/hal/ports/common/ARMCMx/nvic.c **** #endif
  82:lib/chibios/os/hal/ports/common/ARMCMx/nvic.c **** }
 101              		.loc 1 82 1 view .LVU23
 102 001a 7047     		bx	lr
 103              	.L4:
 104              		.align	2
 105              	.L3:
 106 001c 00E100E0 		.word	-536813312
 107              		.cfi_endproc
 108              	.LFE329:
 110              		.section	.text.nvicSetSystemHandlerPriority,"ax",%progbits
 111              		.align	1
 112              		.global	nvicSetSystemHandlerPriority
 113              		.syntax unified
 114              		.thumb
 115              		.thumb_func
 116              		.fpu fpv4-sp-d16
 118              	nvicSetSystemHandlerPriority:
 119              	.LVL3:
 120              	.LFB330:
  83:lib/chibios/os/hal/ports/common/ARMCMx/nvic.c **** 
  84:lib/chibios/os/hal/ports/common/ARMCMx/nvic.c **** /**
  85:lib/chibios/os/hal/ports/common/ARMCMx/nvic.c ****  * @brief   Changes the priority of a system handler.
  86:lib/chibios/os/hal/ports/common/ARMCMx/nvic.c ****  *
  87:lib/chibios/os/hal/ports/common/ARMCMx/nvic.c ****  * @param[in] handler   the system handler number
  88:lib/chibios/os/hal/ports/common/ARMCMx/nvic.c ****  * @param[in] prio      the system handler priority
  89:lib/chibios/os/hal/ports/common/ARMCMx/nvic.c ****  */
  90:lib/chibios/os/hal/ports/common/ARMCMx/nvic.c **** void nvicSetSystemHandlerPriority(uint32_t handler, uint32_t prio) {
 121              		.loc 1 90 68 is_stmt 1 view -0
 122              		.cfi_startproc
 123              		@ args = 0, pretend = 0, frame = 0
 124              		@ frame_needed = 0, uses_anonymous_args = 0
 125              		@ link register save eliminated.
  91:lib/chibios/os/hal/ports/common/ARMCMx/nvic.c **** 
  92:lib/chibios/os/hal/ports/common/ARMCMx/nvic.c ****   osalDbgCheck(handler < 12U);
 126              		.loc 1 92 3 view .LVU25
 127              		.loc 1 92 3 view .LVU26
 128              		.loc 1 92 3 view .LVU27
  93:lib/chibios/os/hal/ports/common/ARMCMx/nvic.c **** 
  94:lib/chibios/os/hal/ports/common/ARMCMx/nvic.c **** #if defined(__CORE_CM0_H_GENERIC)
  95:lib/chibios/os/hal/ports/common/ARMCMx/nvic.c ****   SCB->SHP[_SHP_IDX(handler)] = (SCB->SHP[_SHP_IDX(handler)] & ~(0xFFU << _BIT_SHIFT(handler))) |
  96:lib/chibios/os/hal/ports/common/ARMCMx/nvic.c ****                                 (NVIC_PRIORITY_MASK(prio) << _BIT_SHIFT(handler));
  97:lib/chibios/os/hal/ports/common/ARMCMx/nvic.c **** #elif defined(__CORE_CM7_H_GENERIC)
  98:lib/chibios/os/hal/ports/common/ARMCMx/nvic.c ****   SCB->SHPR[handler] = NVIC_PRIORITY_MASK(prio);
  99:lib/chibios/os/hal/ports/common/ARMCMx/nvic.c **** #else
 100:lib/chibios/os/hal/ports/common/ARMCMx/nvic.c ****   SCB->SHP[handler] = NVIC_PRIORITY_MASK(prio);
 129              		.loc 1 100 3 view .LVU28
 130              		.loc 1 100 21 is_stmt 0 view .LVU29
 131 0000 00F16040 		add	r0, r0, #-536870912
 132              	.LVL4:
 133              		.loc 1 100 23 view .LVU30
 134 0004 0901     		lsls	r1, r1, #4
 135              	.LVL5:
 136              		.loc 1 100 21 view .LVU31
 137 0006 00F56D40 		add	r0, r0, #60672
 138              	.LVL6:
 139              		.loc 1 100 23 view .LVU32
 140 000a C9B2     		uxtb	r1, r1
 141              		.loc 1 100 21 view .LVU33
 142 000c 0176     		strb	r1, [r0, #24]
 101:lib/chibios/os/hal/ports/common/ARMCMx/nvic.c **** #endif
 102:lib/chibios/os/hal/ports/common/ARMCMx/nvic.c **** }
 143              		.loc 1 102 1 view .LVU34
 144 000e 7047     		bx	lr
 145              		.cfi_endproc
 146              	.LFE330:
 148              		.section	.text.nvicClearPending,"ax",%progbits
 149              		.align	1
 150              		.global	nvicClearPending
 151              		.syntax unified
 152              		.thumb
 153              		.thumb_func
 154              		.fpu fpv4-sp-d16
 156              	nvicClearPending:
 157              	.LVL7:
 158              	.LFB331:
 103:lib/chibios/os/hal/ports/common/ARMCMx/nvic.c **** 
 104:lib/chibios/os/hal/ports/common/ARMCMx/nvic.c **** /**
 105:lib/chibios/os/hal/ports/common/ARMCMx/nvic.c ****  * @brief   Clears a pending interrupt source.
 106:lib/chibios/os/hal/ports/common/ARMCMx/nvic.c ****  *
 107:lib/chibios/os/hal/ports/common/ARMCMx/nvic.c ****  * @param[in] n         the interrupt number
 108:lib/chibios/os/hal/ports/common/ARMCMx/nvic.c ****  */
 109:lib/chibios/os/hal/ports/common/ARMCMx/nvic.c **** void nvicClearPending(uint32_t n) {
 159              		.loc 1 109 35 is_stmt 1 view -0
 160              		.cfi_startproc
 161              		@ args = 0, pretend = 0, frame = 0
 162              		@ frame_needed = 0, uses_anonymous_args = 0
 163              		@ link register save eliminated.
 110:lib/chibios/os/hal/ports/common/ARMCMx/nvic.c **** 
 111:lib/chibios/os/hal/ports/common/ARMCMx/nvic.c ****   NVIC->ICPR[n >> 5] = 1 << (n & 0x1F);
 164              		.loc 1 111 3 view .LVU36
 165              		.loc 1 111 16 is_stmt 0 view .LVU37
 166 0000 4309     		lsrs	r3, r0, #5
 167              		.loc 1 111 22 view .LVU38
 168 0002 0449     		ldr	r1, .L7
 169              		.loc 1 111 32 view .LVU39
 170 0004 00F01F00 		and	r0, r0, #31
 171              	.LVL8:
 172              		.loc 1 111 26 view .LVU40
 173 0008 0122     		movs	r2, #1
 174              		.loc 1 111 22 view .LVU41
 175 000a 6033     		adds	r3, r3, #96
 176              		.loc 1 111 26 view .LVU42
 177 000c 8240     		lsls	r2, r2, r0
 178              		.loc 1 111 22 view .LVU43
 179 000e 41F82320 		str	r2, [r1, r3, lsl #2]
 112:lib/chibios/os/hal/ports/common/ARMCMx/nvic.c **** }
 180              		.loc 1 112 1 view .LVU44
 181 0012 7047     		bx	lr
 182              	.L8:
 183              		.align	2
 184              	.L7:
 185 0014 00E100E0 		.word	-536813312
 186              		.cfi_endproc
 187              	.LFE331:
 189              		.text
 190              	.Letext0:
 191              		.file 2 "/usr/arm-none-eabi/include/machine/_default_types.h"
 192              		.file 3 "/usr/arm-none-eabi/include/sys/_stdint.h"
 193              		.file 4 "./lib/chibios/os/common/ext/ARM/CMSIS/Core/Include/core_cm4.h"