   1              		.cpu cortex-m4
   2              		.eabi_attribute 27, 1
   3              		.eabi_attribute 28, 1
   4              		.eabi_attribute 20, 1
   5              		.eabi_attribute 21, 1
   6              		.eabi_attribute 23, 3
   7              		.eabi_attribute 24, 1
   8              		.eabi_attribute 25, 1
   9              		.eabi_attribute 26, 1
  10              		.eabi_attribute 30, 4
  11              		.eabi_attribute 34, 1
  12              		.eabi_attribute 18, 2
  13              		.file	"chthreads.c"
  14              		.text
  15              	.Ltext0:
  16              		.cfi_sections	.debug_frame
  17              		.section	.text._thread_init,"ax",%progbits
  18              		.align	1
  19              		.global	_thread_init
  20              		.arch armv7e-m
  21              		.syntax unified
  22              		.thumb
  23              		.thumb_func
  24              		.fpu fpv4-sp-d16
  26              	_thread_init:
  27              	.LVL0:
  28              	.LFB289:
  29              		.file 1 "lib/chibios/os/rt/src/chthreads.c"
   1:lib/chibios/os/rt/src/chthreads.c **** /*
   2:lib/chibios/os/rt/src/chthreads.c ****     ChibiOS - Copyright (C) 2006..2018 Giovanni Di Sirio.
   3:lib/chibios/os/rt/src/chthreads.c **** 
   4:lib/chibios/os/rt/src/chthreads.c ****     This file is part of ChibiOS.
   5:lib/chibios/os/rt/src/chthreads.c **** 
   6:lib/chibios/os/rt/src/chthreads.c ****     ChibiOS is free software; you can redistribute it and/or modify
   7:lib/chibios/os/rt/src/chthreads.c ****     it under the terms of the GNU General Public License as published by
   8:lib/chibios/os/rt/src/chthreads.c ****     the Free Software Foundation; either version 3 of the License, or
   9:lib/chibios/os/rt/src/chthreads.c ****     (at your option) any later version.
  10:lib/chibios/os/rt/src/chthreads.c **** 
  11:lib/chibios/os/rt/src/chthreads.c ****     ChibiOS is distributed in the hope that it will be useful,
  12:lib/chibios/os/rt/src/chthreads.c ****     but WITHOUT ANY WARRANTY; without even the implied warranty of
  13:lib/chibios/os/rt/src/chthreads.c ****     MERCHANTABILITY or FITNESS FOR A PARTICULAR PURPOSE.  See the
  14:lib/chibios/os/rt/src/chthreads.c ****     GNU General Public License for more details.
  15:lib/chibios/os/rt/src/chthreads.c **** 
  16:lib/chibios/os/rt/src/chthreads.c ****     You should have received a copy of the GNU General Public License
  17:lib/chibios/os/rt/src/chthreads.c ****     along with this program.  If not, see <http://www.gnu.org/licenses/>.
  18:lib/chibios/os/rt/src/chthreads.c **** */
  19:lib/chibios/os/rt/src/chthreads.c **** 
  20:lib/chibios/os/rt/src/chthreads.c **** /**
  21:lib/chibios/os/rt/src/chthreads.c ****  * @file    rt/src/chthreads.c
  22:lib/chibios/os/rt/src/chthreads.c ****  * @brief   Threads code.
  23:lib/chibios/os/rt/src/chthreads.c ****  *
  24:lib/chibios/os/rt/src/chthreads.c ****  * @addtogroup threads
  25:lib/chibios/os/rt/src/chthreads.c ****  * @details Threads related APIs and services.
  26:lib/chibios/os/rt/src/chthreads.c ****  *          <h2>Operation mode</h2>
  27:lib/chibios/os/rt/src/chthreads.c ****  *          A thread is an abstraction of an independent instructions flow.
  28:lib/chibios/os/rt/src/chthreads.c ****  *          In ChibiOS/RT a thread is represented by a "C" function owning
  29:lib/chibios/os/rt/src/chthreads.c ****  *          a processor context, state informations and a dedicated stack
  30:lib/chibios/os/rt/src/chthreads.c ****  *          area. In this scenario static variables are shared among all
  31:lib/chibios/os/rt/src/chthreads.c ****  *          threads while automatic variables are local to the thread.<br>
  32:lib/chibios/os/rt/src/chthreads.c ****  *          Operations defined for threads:
  33:lib/chibios/os/rt/src/chthreads.c ****  *          - <b>Create</b>, a thread is started on the specified thread
  34:lib/chibios/os/rt/src/chthreads.c ****  *            function. This operation is available in multiple variants,
  35:lib/chibios/os/rt/src/chthreads.c ****  *            both static and dynamic.
  36:lib/chibios/os/rt/src/chthreads.c ****  *          - <b>Exit</b>, a thread terminates by returning from its top
  37:lib/chibios/os/rt/src/chthreads.c ****  *            level function or invoking a specific API, the thread can
  38:lib/chibios/os/rt/src/chthreads.c ****  *            return a value that can be retrieved by other threads.
  39:lib/chibios/os/rt/src/chthreads.c ****  *          - <b>Wait</b>, a thread waits for the termination of another
  40:lib/chibios/os/rt/src/chthreads.c ****  *            thread and retrieves its return value.
  41:lib/chibios/os/rt/src/chthreads.c ****  *          - <b>Resume</b>, a thread created in suspended state is started.
  42:lib/chibios/os/rt/src/chthreads.c ****  *          - <b>Sleep</b>, the execution of a thread is suspended for the
  43:lib/chibios/os/rt/src/chthreads.c ****  *            specified amount of time or the specified future absolute time
  44:lib/chibios/os/rt/src/chthreads.c ****  *            is reached.
  45:lib/chibios/os/rt/src/chthreads.c ****  *          - <b>SetPriority</b>, a thread changes its own priority level.
  46:lib/chibios/os/rt/src/chthreads.c ****  *          - <b>Yield</b>, a thread voluntarily renounces to its time slot.
  47:lib/chibios/os/rt/src/chthreads.c ****  *          .
  48:lib/chibios/os/rt/src/chthreads.c ****  * @{
  49:lib/chibios/os/rt/src/chthreads.c ****  */
  50:lib/chibios/os/rt/src/chthreads.c **** 
  51:lib/chibios/os/rt/src/chthreads.c **** #include "ch.h"
  52:lib/chibios/os/rt/src/chthreads.c **** 
  53:lib/chibios/os/rt/src/chthreads.c **** /*===========================================================================*/
  54:lib/chibios/os/rt/src/chthreads.c **** /* Module local definitions.                                                 */
  55:lib/chibios/os/rt/src/chthreads.c **** /*===========================================================================*/
  56:lib/chibios/os/rt/src/chthreads.c **** 
  57:lib/chibios/os/rt/src/chthreads.c **** /*===========================================================================*/
  58:lib/chibios/os/rt/src/chthreads.c **** /* Module exported variables.                                                */
  59:lib/chibios/os/rt/src/chthreads.c **** /*===========================================================================*/
  60:lib/chibios/os/rt/src/chthreads.c **** 
  61:lib/chibios/os/rt/src/chthreads.c **** /*===========================================================================*/
  62:lib/chibios/os/rt/src/chthreads.c **** /* Module local types.                                                       */
  63:lib/chibios/os/rt/src/chthreads.c **** /*===========================================================================*/
  64:lib/chibios/os/rt/src/chthreads.c **** 
  65:lib/chibios/os/rt/src/chthreads.c **** /*===========================================================================*/
  66:lib/chibios/os/rt/src/chthreads.c **** /* Module local variables.                                                   */
  67:lib/chibios/os/rt/src/chthreads.c **** /*===========================================================================*/
  68:lib/chibios/os/rt/src/chthreads.c **** 
  69:lib/chibios/os/rt/src/chthreads.c **** /*===========================================================================*/
  70:lib/chibios/os/rt/src/chthreads.c **** /* Module local functions.                                                   */
  71:lib/chibios/os/rt/src/chthreads.c **** /*===========================================================================*/
  72:lib/chibios/os/rt/src/chthreads.c **** 
  73:lib/chibios/os/rt/src/chthreads.c **** /*===========================================================================*/
  74:lib/chibios/os/rt/src/chthreads.c **** /* Module exported functions.                                                */
  75:lib/chibios/os/rt/src/chthreads.c **** /*===========================================================================*/
  76:lib/chibios/os/rt/src/chthreads.c **** 
  77:lib/chibios/os/rt/src/chthreads.c **** /**
  78:lib/chibios/os/rt/src/chthreads.c ****  * @brief   Initializes a thread structure.
  79:lib/chibios/os/rt/src/chthreads.c ****  * @note    This is an internal functions, do not use it in application code.
  80:lib/chibios/os/rt/src/chthreads.c ****  *
  81:lib/chibios/os/rt/src/chthreads.c ****  * @param[in] tp        pointer to the thread
  82:lib/chibios/os/rt/src/chthreads.c ****  * @param[in] name      thread name
  83:lib/chibios/os/rt/src/chthreads.c ****  * @param[in] prio      the priority level for the new thread
  84:lib/chibios/os/rt/src/chthreads.c ****  * @return              The same thread pointer passed as parameter.
  85:lib/chibios/os/rt/src/chthreads.c ****  *
  86:lib/chibios/os/rt/src/chthreads.c ****  * @notapi
  87:lib/chibios/os/rt/src/chthreads.c ****  */
  88:lib/chibios/os/rt/src/chthreads.c **** thread_t *_thread_init(thread_t *tp, const char *name, tprio_t prio) {
  30              		.loc 1 88 70 view -0
  31              		.cfi_startproc
  32              		@ args = 0, pretend = 0, frame = 0
  33              		@ frame_needed = 0, uses_anonymous_args = 0
  34              		@ link register save eliminated.
  89:lib/chibios/os/rt/src/chthreads.c **** 
  90:lib/chibios/os/rt/src/chthreads.c ****   tp->hdr.pqueue.prio = prio;
  35              		.loc 1 90 3 view .LVU1
  36              		.loc 1 90 23 is_stmt 0 view .LVU2
  37 0000 8260     		str	r2, [r0, #8]
  91:lib/chibios/os/rt/src/chthreads.c ****   tp->state           = CH_STATE_WTSTART;
  38              		.loc 1 91 3 is_stmt 1 view .LVU3
  92:lib/chibios/os/rt/src/chthreads.c ****   tp->flags           = CH_FLAG_MODE_STATIC;
  39              		.loc 1 92 3 view .LVU4
  93:lib/chibios/os/rt/src/chthreads.c **** #if CH_CFG_TIME_QUANTUM > 0
  94:lib/chibios/os/rt/src/chthreads.c ****   tp->ticks           = (tslices_t)CH_CFG_TIME_QUANTUM;
  95:lib/chibios/os/rt/src/chthreads.c **** #endif
  96:lib/chibios/os/rt/src/chthreads.c **** #if CH_CFG_USE_MUTEXES == TRUE
  97:lib/chibios/os/rt/src/chthreads.c ****   tp->realprio        = prio;
  40              		.loc 1 97 3 view .LVU5
  41              		.loc 1 97 23 is_stmt 0 view .LVU6
  42 0002 C263     		str	r2, [r0, #60]
  98:lib/chibios/os/rt/src/chthreads.c ****   tp->mtxlist         = NULL;
  43              		.loc 1 98 3 is_stmt 1 view .LVU7
  44              		.loc 1 98 23 is_stmt 0 view .LVU8
  45 0004 0022     		movs	r2, #0
  46              	.LVL1:
  99:lib/chibios/os/rt/src/chthreads.c **** #endif
 100:lib/chibios/os/rt/src/chthreads.c **** #if CH_CFG_USE_EVENTS == TRUE
 101:lib/chibios/os/rt/src/chthreads.c ****   tp->epending        = (eventmask_t)0;
  47              		.loc 1 101 23 view .LVU9
  48 0006 C0E90D22 		strd	r2, r2, [r0, #52]
 102:lib/chibios/os/rt/src/chthreads.c **** #endif
 103:lib/chibios/os/rt/src/chthreads.c **** #if CH_DBG_THREADS_PROFILING == TRUE
 104:lib/chibios/os/rt/src/chthreads.c ****   tp->time            = (systime_t)0;
 105:lib/chibios/os/rt/src/chthreads.c **** #endif
 106:lib/chibios/os/rt/src/chthreads.c **** #if CH_CFG_USE_REGISTRY == TRUE
 107:lib/chibios/os/rt/src/chthreads.c ****   tp->refs            = (trefs_t)1;
  49              		.loc 1 107 3 is_stmt 1 view .LVU10
  91:lib/chibios/os/rt/src/chthreads.c ****   tp->flags           = CH_FLAG_MODE_STATIC;
  50              		.loc 1 91 23 is_stmt 0 view .LVU11
  51 000a 0222     		movs	r2, #2
  52 000c 0284     		strh	r2, [r0, #32]	@ movhi
  53              		.loc 1 107 23 view .LVU12
  54 000e 0122     		movs	r2, #1
  55 0010 80F82220 		strb	r2, [r0, #34]
 108:lib/chibios/os/rt/src/chthreads.c ****   tp->name            = name;
  56              		.loc 1 108 3 is_stmt 1 view .LVU13
 109:lib/chibios/os/rt/src/chthreads.c ****   REG_INSERT(tp);
  57              		.loc 1 109 3 is_stmt 0 view .LVU14
  58 0014 074A     		ldr	r2, .L2
 108:lib/chibios/os/rt/src/chthreads.c ****   tp->name            = name;
  59              		.loc 1 108 23 view .LVU15
  60 0016 8161     		str	r1, [r0, #24]
  61              		.loc 1 109 3 is_stmt 1 view .LVU16
  62 0018 5169     		ldr	r1, [r2, #20]
  63              	.LVL2:
  64              		.loc 1 109 3 is_stmt 0 view .LVU17
  65 001a 0261     		str	r2, [r0, #16]
  66              		.loc 1 109 3 is_stmt 1 view .LVU18
  67 001c 4161     		str	r1, [r0, #20]
  68              		.loc 1 109 3 view .LVU19
  69 001e 0861     		str	r0, [r1, #16]
  70              		.loc 1 109 3 view .LVU20
  71 0020 5061     		str	r0, [r2, #20]
  72              		.loc 1 109 17 view .LVU21
 110:lib/chibios/os/rt/src/chthreads.c **** #else
 111:lib/chibios/os/rt/src/chthreads.c ****   (void)name;
 112:lib/chibios/os/rt/src/chthreads.c **** #endif
 113:lib/chibios/os/rt/src/chthreads.c **** #if CH_CFG_USE_WAITEXIT == TRUE
 114:lib/chibios/os/rt/src/chthreads.c ****   ch_list_init(&tp->waiting);
  73              		.loc 1 114 3 view .LVU22
  74              	.LVL3:
  75              	.LBB226:
  76              	.LBI226:
  77              		.file 2 "./lib/chibios/os/rt/include/chlists.h"
   1:./lib/chibios/os/rt/include/chlists.h **** /*
   2:./lib/chibios/os/rt/include/chlists.h ****     ChibiOS - Copyright (C) 2006..2018 Giovanni Di Sirio.
   3:./lib/chibios/os/rt/include/chlists.h **** 
   4:./lib/chibios/os/rt/include/chlists.h ****     This file is part of ChibiOS.
   5:./lib/chibios/os/rt/include/chlists.h **** 
   6:./lib/chibios/os/rt/include/chlists.h ****     ChibiOS is free software; you can redistribute it and/or modify
   7:./lib/chibios/os/rt/include/chlists.h ****     it under the terms of the GNU General Public License as published by
   8:./lib/chibios/os/rt/include/chlists.h ****     the Free Software Foundation; either version 3 of the License, or
   9:./lib/chibios/os/rt/include/chlists.h ****     (at your option) any later version.
  10:./lib/chibios/os/rt/include/chlists.h **** 
  11:./lib/chibios/os/rt/include/chlists.h ****     ChibiOS is distributed in the hope that it will be useful,
  12:./lib/chibios/os/rt/include/chlists.h ****     but WITHOUT ANY WARRANTY; without even the implied warranty of
  13:./lib/chibios/os/rt/include/chlists.h ****     MERCHANTABILITY or FITNESS FOR A PARTICULAR PURPOSE.  See the
  14:./lib/chibios/os/rt/include/chlists.h ****     GNU General Public License for more details.
  15:./lib/chibios/os/rt/include/chlists.h **** 
  16:./lib/chibios/os/rt/include/chlists.h ****     You should have received a copy of the GNU General Public License
  17:./lib/chibios/os/rt/include/chlists.h ****     along with this program.  If not, see <http://www.gnu.org/licenses/>.
  18:./lib/chibios/os/rt/include/chlists.h **** */
  19:./lib/chibios/os/rt/include/chlists.h **** 
  20:./lib/chibios/os/rt/include/chlists.h **** /**
  21:./lib/chibios/os/rt/include/chlists.h ****  * @file    chlists.h
  22:./lib/chibios/os/rt/include/chlists.h ****  * @brief   Lists and Queues header.
  23:./lib/chibios/os/rt/include/chlists.h ****  *
  24:./lib/chibios/os/rt/include/chlists.h ****  * @addtogroup os_lists
  25:./lib/chibios/os/rt/include/chlists.h ****  * @{
  26:./lib/chibios/os/rt/include/chlists.h ****  */
  27:./lib/chibios/os/rt/include/chlists.h **** 
  28:./lib/chibios/os/rt/include/chlists.h **** #ifndef CHLISTS_H
  29:./lib/chibios/os/rt/include/chlists.h **** #define CHLISTS_H
  30:./lib/chibios/os/rt/include/chlists.h **** 
  31:./lib/chibios/os/rt/include/chlists.h **** /*===========================================================================*/
  32:./lib/chibios/os/rt/include/chlists.h **** /* Module constants.                                                         */
  33:./lib/chibios/os/rt/include/chlists.h **** /*===========================================================================*/
  34:./lib/chibios/os/rt/include/chlists.h **** 
  35:./lib/chibios/os/rt/include/chlists.h **** /*===========================================================================*/
  36:./lib/chibios/os/rt/include/chlists.h **** /* Module pre-compile time settings.                                         */
  37:./lib/chibios/os/rt/include/chlists.h **** /*===========================================================================*/
  38:./lib/chibios/os/rt/include/chlists.h **** 
  39:./lib/chibios/os/rt/include/chlists.h **** /*===========================================================================*/
  40:./lib/chibios/os/rt/include/chlists.h **** /* Derived constants and error checks.                                       */
  41:./lib/chibios/os/rt/include/chlists.h **** /*===========================================================================*/
  42:./lib/chibios/os/rt/include/chlists.h **** 
  43:./lib/chibios/os/rt/include/chlists.h **** /*===========================================================================*/
  44:./lib/chibios/os/rt/include/chlists.h **** /* Module data structures and types.                                         */
  45:./lib/chibios/os/rt/include/chlists.h **** /*===========================================================================*/
  46:./lib/chibios/os/rt/include/chlists.h **** 
  47:./lib/chibios/os/rt/include/chlists.h **** /**
  48:./lib/chibios/os/rt/include/chlists.h ****  * @brief   Type of a generic single link list header and element.
  49:./lib/chibios/os/rt/include/chlists.h ****  */
  50:./lib/chibios/os/rt/include/chlists.h **** typedef struct ch_list ch_list_t;
  51:./lib/chibios/os/rt/include/chlists.h **** 
  52:./lib/chibios/os/rt/include/chlists.h **** /**
  53:./lib/chibios/os/rt/include/chlists.h ****  * @brief   Structure representing a generic single link list header
  54:./lib/chibios/os/rt/include/chlists.h ****  *          and element.
  55:./lib/chibios/os/rt/include/chlists.h ****  */
  56:./lib/chibios/os/rt/include/chlists.h **** struct ch_list {
  57:./lib/chibios/os/rt/include/chlists.h ****   ch_list_t             *next;      /**< @brief Next in the list/queue.     */
  58:./lib/chibios/os/rt/include/chlists.h **** };
  59:./lib/chibios/os/rt/include/chlists.h **** 
  60:./lib/chibios/os/rt/include/chlists.h **** /**
  61:./lib/chibios/os/rt/include/chlists.h ****  * @brief   Type of a generic bidirectional linked list header and element.
  62:./lib/chibios/os/rt/include/chlists.h ****  */
  63:./lib/chibios/os/rt/include/chlists.h **** typedef struct ch_queue ch_queue_t;
  64:./lib/chibios/os/rt/include/chlists.h **** 
  65:./lib/chibios/os/rt/include/chlists.h **** /**
  66:./lib/chibios/os/rt/include/chlists.h ****  * @brief   Structure representing a generic bidirectional linked list header
  67:./lib/chibios/os/rt/include/chlists.h ****  *          and element.
  68:./lib/chibios/os/rt/include/chlists.h ****  */
  69:./lib/chibios/os/rt/include/chlists.h **** struct ch_queue {
  70:./lib/chibios/os/rt/include/chlists.h ****   ch_queue_t            *next;      /**< @brief Next in the list/queue.     */
  71:./lib/chibios/os/rt/include/chlists.h ****   ch_queue_t            *prev;      /**< @brief Previous in the queue.      */
  72:./lib/chibios/os/rt/include/chlists.h **** };
  73:./lib/chibios/os/rt/include/chlists.h **** 
  74:./lib/chibios/os/rt/include/chlists.h **** /**
  75:./lib/chibios/os/rt/include/chlists.h ****  * @brief   Type of a generic priority-ordered bidirectional linked list
  76:./lib/chibios/os/rt/include/chlists.h ****  *          header and element.
  77:./lib/chibios/os/rt/include/chlists.h ****  */
  78:./lib/chibios/os/rt/include/chlists.h **** typedef struct ch_priority_queue ch_priority_queue_t;
  79:./lib/chibios/os/rt/include/chlists.h **** 
  80:./lib/chibios/os/rt/include/chlists.h **** /**
  81:./lib/chibios/os/rt/include/chlists.h ****  * @brief   Structure representing a generic priority-ordered bidirectional
  82:./lib/chibios/os/rt/include/chlists.h ****  *          linked list header and element.
  83:./lib/chibios/os/rt/include/chlists.h ****  * @note    Link fields are void pointers in order to avoid aliasing issues.
  84:./lib/chibios/os/rt/include/chlists.h ****  */
  85:./lib/chibios/os/rt/include/chlists.h **** struct ch_priority_queue {
  86:./lib/chibios/os/rt/include/chlists.h ****   ch_priority_queue_t   *next;      /**< @brief Next in the list/queue.     */
  87:./lib/chibios/os/rt/include/chlists.h ****   ch_priority_queue_t   *prev;      /**< @brief Previous in the queue.      */
  88:./lib/chibios/os/rt/include/chlists.h ****   tprio_t               prio;
  89:./lib/chibios/os/rt/include/chlists.h **** };
  90:./lib/chibios/os/rt/include/chlists.h **** 
  91:./lib/chibios/os/rt/include/chlists.h **** /*===========================================================================*/
  92:./lib/chibios/os/rt/include/chlists.h **** /* Module macros.                                                            */
  93:./lib/chibios/os/rt/include/chlists.h **** /*===========================================================================*/
  94:./lib/chibios/os/rt/include/chlists.h **** 
  95:./lib/chibios/os/rt/include/chlists.h **** /**
  96:./lib/chibios/os/rt/include/chlists.h ****  * @brief   Data part of a static queue object initializer.
  97:./lib/chibios/os/rt/include/chlists.h ****  * @details This macro should be used when statically initializing a
  98:./lib/chibios/os/rt/include/chlists.h ****  *          queue that is part of a bigger structure.
  99:./lib/chibios/os/rt/include/chlists.h ****  *
 100:./lib/chibios/os/rt/include/chlists.h ****  * @param[in] name      the name of the queue variable
 101:./lib/chibios/os/rt/include/chlists.h ****  */
 102:./lib/chibios/os/rt/include/chlists.h **** #define _CH_QUEUE_DATA(name) {(ch_queue_t *)&name, (ch_queue_t *)&name}
 103:./lib/chibios/os/rt/include/chlists.h **** 
 104:./lib/chibios/os/rt/include/chlists.h **** /**
 105:./lib/chibios/os/rt/include/chlists.h ****  * @brief   Static queue object initializer.
 106:./lib/chibios/os/rt/include/chlists.h ****  * @details Statically initialized queues require no explicit
 107:./lib/chibios/os/rt/include/chlists.h ****  *          initialization using @p queue_init().
 108:./lib/chibios/os/rt/include/chlists.h ****  *
 109:./lib/chibios/os/rt/include/chlists.h ****  * @param[in] name      the name of the queue variable
 110:./lib/chibios/os/rt/include/chlists.h ****  */
 111:./lib/chibios/os/rt/include/chlists.h **** #define CH_QUEUE_DECL(name)                                                 \
 112:./lib/chibios/os/rt/include/chlists.h ****     ch_queue_t name = _CH_QUEUE_DATA(name)
 113:./lib/chibios/os/rt/include/chlists.h **** 
 114:./lib/chibios/os/rt/include/chlists.h **** /*===========================================================================*/
 115:./lib/chibios/os/rt/include/chlists.h **** /* External declarations.                                                    */
 116:./lib/chibios/os/rt/include/chlists.h **** /*===========================================================================*/
 117:./lib/chibios/os/rt/include/chlists.h **** 
 118:./lib/chibios/os/rt/include/chlists.h **** /* Early function prototypes required by the following headers.*/
 119:./lib/chibios/os/rt/include/chlists.h **** #ifdef __cplusplus
 120:./lib/chibios/os/rt/include/chlists.h **** extern "C" {
 121:./lib/chibios/os/rt/include/chlists.h **** #endif
 122:./lib/chibios/os/rt/include/chlists.h **** 
 123:./lib/chibios/os/rt/include/chlists.h **** #ifdef __cplusplus
 124:./lib/chibios/os/rt/include/chlists.h **** }
 125:./lib/chibios/os/rt/include/chlists.h **** #endif
 126:./lib/chibios/os/rt/include/chlists.h **** 
 127:./lib/chibios/os/rt/include/chlists.h **** /*===========================================================================*/
 128:./lib/chibios/os/rt/include/chlists.h **** /* Module inline functions.                                                  */
 129:./lib/chibios/os/rt/include/chlists.h **** /*===========================================================================*/
 130:./lib/chibios/os/rt/include/chlists.h **** 
 131:./lib/chibios/os/rt/include/chlists.h **** /**
 132:./lib/chibios/os/rt/include/chlists.h ****  * @brief   List initialization.
 133:./lib/chibios/os/rt/include/chlists.h ****  *
 134:./lib/chibios/os/rt/include/chlists.h ****  * @param[out] lp       pointer to the list header
 135:./lib/chibios/os/rt/include/chlists.h ****  *
 136:./lib/chibios/os/rt/include/chlists.h ****  * @notapi
 137:./lib/chibios/os/rt/include/chlists.h ****  */
 138:./lib/chibios/os/rt/include/chlists.h **** static inline void ch_list_init(ch_list_t *lp) {
  78              		.loc 2 138 20 view .LVU23
  79              	.LBB227:
 139:./lib/chibios/os/rt/include/chlists.h **** 
 140:./lib/chibios/os/rt/include/chlists.h ****   lp->next = lp;
  80              		.loc 2 140 3 view .LVU24
  81              	.LBE227:
  82              	.LBE226:
  83              		.loc 1 114 3 is_stmt 0 view .LVU25
  84 0022 00F12802 		add	r2, r0, #40
  85              	.LVL4:
  86              	.LBB229:
  87              	.LBB228:
  88              		.loc 2 140 12 view .LVU26
  89 0026 8262     		str	r2, [r0, #40]
  90              	.LVL5:
  91              		.loc 2 140 12 view .LVU27
  92              	.LBE228:
  93              	.LBE229:
 115:lib/chibios/os/rt/src/chthreads.c **** #endif
 116:lib/chibios/os/rt/src/chthreads.c **** #if CH_CFG_USE_MESSAGES == TRUE
 117:lib/chibios/os/rt/src/chthreads.c ****   ch_queue_init(&tp->msgqueue);
  94              		.loc 1 117 3 is_stmt 1 view .LVU28
  95 0028 00F12C02 		add	r2, r0, #44
  96              	.LVL6:
  97              	.LBB230:
  98              	.LBI230:
 141:./lib/chibios/os/rt/include/chlists.h **** }
 142:./lib/chibios/os/rt/include/chlists.h **** 
 143:./lib/chibios/os/rt/include/chlists.h **** /**
 144:./lib/chibios/os/rt/include/chlists.h ****  * @brief   Evaluates to @p true if the specified list is empty.
 145:./lib/chibios/os/rt/include/chlists.h ****  *
 146:./lib/chibios/os/rt/include/chlists.h ****  * @param[in] lp        pointer to the list header
 147:./lib/chibios/os/rt/include/chlists.h ****  * @return              The status of the list.
 148:./lib/chibios/os/rt/include/chlists.h ****  *
 149:./lib/chibios/os/rt/include/chlists.h ****  * @notapi
 150:./lib/chibios/os/rt/include/chlists.h ****  */
 151:./lib/chibios/os/rt/include/chlists.h **** static inline bool ch_list_isempty(ch_list_t *lp) {
 152:./lib/chibios/os/rt/include/chlists.h **** 
 153:./lib/chibios/os/rt/include/chlists.h ****   return (bool)(lp->next == lp);
 154:./lib/chibios/os/rt/include/chlists.h **** }
 155:./lib/chibios/os/rt/include/chlists.h **** 
 156:./lib/chibios/os/rt/include/chlists.h **** /**
 157:./lib/chibios/os/rt/include/chlists.h ****  * @brief   Evaluates to @p true if the specified list is not empty.
 158:./lib/chibios/os/rt/include/chlists.h ****  *
 159:./lib/chibios/os/rt/include/chlists.h ****  * @param[in] lp        pointer to the list header
 160:./lib/chibios/os/rt/include/chlists.h ****  * @return              The status of the list.
 161:./lib/chibios/os/rt/include/chlists.h ****  *
 162:./lib/chibios/os/rt/include/chlists.h ****  * @notapi
 163:./lib/chibios/os/rt/include/chlists.h ****  */
 164:./lib/chibios/os/rt/include/chlists.h **** static inline bool ch_list_notempty(ch_list_t *lp) {
 165:./lib/chibios/os/rt/include/chlists.h **** 
 166:./lib/chibios/os/rt/include/chlists.h ****   return (bool)(lp->next != lp);
 167:./lib/chibios/os/rt/include/chlists.h **** }
 168:./lib/chibios/os/rt/include/chlists.h **** 
 169:./lib/chibios/os/rt/include/chlists.h **** /**
 170:./lib/chibios/os/rt/include/chlists.h ****  * @brief   Pushes an element on top of a stack list.
 171:./lib/chibios/os/rt/include/chlists.h ****  *
 172:./lib/chibios/os/rt/include/chlists.h ****  * @param[in] p     the pointer to the element to be inserted in the list
 173:./lib/chibios/os/rt/include/chlists.h ****  * @param[in] lp    the pointer to the list header
 174:./lib/chibios/os/rt/include/chlists.h ****  *
 175:./lib/chibios/os/rt/include/chlists.h ****  * @notapi
 176:./lib/chibios/os/rt/include/chlists.h ****  */
 177:./lib/chibios/os/rt/include/chlists.h **** static inline void ch_list_push(ch_list_t *p, ch_list_t *lp) {
 178:./lib/chibios/os/rt/include/chlists.h **** 
 179:./lib/chibios/os/rt/include/chlists.h ****   p->next = lp->next;
 180:./lib/chibios/os/rt/include/chlists.h ****   lp->next = p;
 181:./lib/chibios/os/rt/include/chlists.h **** }
 182:./lib/chibios/os/rt/include/chlists.h **** 
 183:./lib/chibios/os/rt/include/chlists.h **** /**
 184:./lib/chibios/os/rt/include/chlists.h ****  * @brief   Pops an element from the top of a stack list and returns it.
 185:./lib/chibios/os/rt/include/chlists.h ****  * @pre     The list must be non-empty before calling this function.
 186:./lib/chibios/os/rt/include/chlists.h ****  *
 187:./lib/chibios/os/rt/include/chlists.h ****  * @param[in] lp        the pointer to the list header
 188:./lib/chibios/os/rt/include/chlists.h ****  * @return              The removed element pointer.
 189:./lib/chibios/os/rt/include/chlists.h ****  *
 190:./lib/chibios/os/rt/include/chlists.h ****  * @notapi
 191:./lib/chibios/os/rt/include/chlists.h ****  */
 192:./lib/chibios/os/rt/include/chlists.h **** static inline ch_list_t *ch_list_pop(ch_list_t *lp) {
 193:./lib/chibios/os/rt/include/chlists.h **** 
 194:./lib/chibios/os/rt/include/chlists.h ****   ch_list_t *p = lp->next;
 195:./lib/chibios/os/rt/include/chlists.h ****   lp->next = p->next;
 196:./lib/chibios/os/rt/include/chlists.h **** 
 197:./lib/chibios/os/rt/include/chlists.h ****   return p;
 198:./lib/chibios/os/rt/include/chlists.h **** }
 199:./lib/chibios/os/rt/include/chlists.h **** 
 200:./lib/chibios/os/rt/include/chlists.h **** /**
 201:./lib/chibios/os/rt/include/chlists.h ****  * @brief   Queue initialization.
 202:./lib/chibios/os/rt/include/chlists.h ****  *
 203:./lib/chibios/os/rt/include/chlists.h ****  * @param[out] qp       pointer to the queue header
 204:./lib/chibios/os/rt/include/chlists.h ****  *
 205:./lib/chibios/os/rt/include/chlists.h ****  * @notapi
 206:./lib/chibios/os/rt/include/chlists.h ****  */
 207:./lib/chibios/os/rt/include/chlists.h **** static inline void ch_queue_init(ch_queue_t *qp) {
  99              		.loc 2 207 20 view .LVU29
 100              	.LBB231:
 208:./lib/chibios/os/rt/include/chlists.h **** 
 209:./lib/chibios/os/rt/include/chlists.h ****   qp->next = qp;
 101              		.loc 2 209 3 view .LVU30
 210:./lib/chibios/os/rt/include/chlists.h ****   qp->prev = qp;
 102              		.loc 2 210 12 is_stmt 0 view .LVU31
 103 002c C0E90B22 		strd	r2, r2, [r0, #44]
 104              	.LVL7:
 105              		.loc 2 210 12 view .LVU32
 106              	.LBE231:
 107              	.LBE230:
 118:lib/chibios/os/rt/src/chthreads.c **** #endif
 119:lib/chibios/os/rt/src/chthreads.c **** #if CH_DBG_STATISTICS == TRUE
 120:lib/chibios/os/rt/src/chthreads.c ****   chTMObjectInit(&tp->stats);
 121:lib/chibios/os/rt/src/chthreads.c **** #endif
 122:lib/chibios/os/rt/src/chthreads.c ****   CH_CFG_THREAD_INIT_HOOK(tp);
 108              		.loc 1 122 3 is_stmt 1 view .LVU33
 109              		.loc 1 122 30 view .LVU34
 123:lib/chibios/os/rt/src/chthreads.c ****   return tp;
 110              		.loc 1 123 3 view .LVU35
 124:lib/chibios/os/rt/src/chthreads.c **** }
 111              		.loc 1 124 1 is_stmt 0 view .LVU36
 112 0030 7047     		bx	lr
 113              	.L3:
 114 0032 00BF     		.align	2
 115              	.L2:
 116 0034 00000000 		.word	ch
 117              		.cfi_endproc
 118              	.LFE289:
 120              		.section	.text.chThdCreateSuspendedI,"ax",%progbits
 121              		.align	1
 122              		.global	chThdCreateSuspendedI
 123              		.syntax unified
 124              		.thumb
 125              		.thumb_func
 126              		.fpu fpv4-sp-d16
 128              	chThdCreateSuspendedI:
 129              	.LVL8:
 130              	.LFB290:
 125:lib/chibios/os/rt/src/chthreads.c **** 
 126:lib/chibios/os/rt/src/chthreads.c **** #if (CH_DBG_FILL_THREADS == TRUE) || defined(__DOXYGEN__)
 127:lib/chibios/os/rt/src/chthreads.c **** /**
 128:lib/chibios/os/rt/src/chthreads.c ****  * @brief   Memory fill utility.
 129:lib/chibios/os/rt/src/chthreads.c ****  *
 130:lib/chibios/os/rt/src/chthreads.c ****  * @param[in] startp    first address to fill
 131:lib/chibios/os/rt/src/chthreads.c ****  * @param[in] endp      last address to fill +1
 132:lib/chibios/os/rt/src/chthreads.c ****  * @param[in] v         filler value
 133:lib/chibios/os/rt/src/chthreads.c ****  *
 134:lib/chibios/os/rt/src/chthreads.c ****  * @notapi
 135:lib/chibios/os/rt/src/chthreads.c ****  */
 136:lib/chibios/os/rt/src/chthreads.c **** void _thread_memfill(uint8_t *startp, uint8_t *endp, uint8_t v) {
 137:lib/chibios/os/rt/src/chthreads.c **** 
 138:lib/chibios/os/rt/src/chthreads.c ****   while (startp < endp) {
 139:lib/chibios/os/rt/src/chthreads.c ****     *startp++ = v;
 140:lib/chibios/os/rt/src/chthreads.c ****   }
 141:lib/chibios/os/rt/src/chthreads.c **** }
 142:lib/chibios/os/rt/src/chthreads.c **** #endif /* CH_DBG_FILL_THREADS */
 143:lib/chibios/os/rt/src/chthreads.c **** 
 144:lib/chibios/os/rt/src/chthreads.c **** /**
 145:lib/chibios/os/rt/src/chthreads.c ****  * @brief   Creates a new thread into a static memory area.
 146:lib/chibios/os/rt/src/chthreads.c ****  * @details The new thread is initialized but not inserted in the ready list,
 147:lib/chibios/os/rt/src/chthreads.c ****  *          the initial state is @p CH_STATE_WTSTART.
 148:lib/chibios/os/rt/src/chthreads.c ****  * @post    The created thread has a reference counter set to one, it is
 149:lib/chibios/os/rt/src/chthreads.c ****  *          caller responsibility to call @p chThdRelease() or @p chthdWait()
 150:lib/chibios/os/rt/src/chthreads.c ****  *          in order to release the reference. The thread persists in the
 151:lib/chibios/os/rt/src/chthreads.c ****  *          registry until its reference counter reaches zero.
 152:lib/chibios/os/rt/src/chthreads.c ****  * @post    The initialized thread can be subsequently started by invoking
 153:lib/chibios/os/rt/src/chthreads.c ****  *          @p chThdStart(), @p chThdStartI() or @p chSchWakeupS()
 154:lib/chibios/os/rt/src/chthreads.c ****  *          depending on the execution context.
 155:lib/chibios/os/rt/src/chthreads.c ****  * @note    A thread can terminate by calling @p chThdExit() or by simply
 156:lib/chibios/os/rt/src/chthreads.c ****  *          returning from its main function.
 157:lib/chibios/os/rt/src/chthreads.c ****  * @note    Threads created using this function do not obey to the
 158:lib/chibios/os/rt/src/chthreads.c ****  *          @p CH_DBG_FILL_THREADS debug option because it would keep
 159:lib/chibios/os/rt/src/chthreads.c ****  *          the kernel locked for too much time.
 160:lib/chibios/os/rt/src/chthreads.c ****  *
 161:lib/chibios/os/rt/src/chthreads.c ****  * @param[out] tdp      pointer to the thread descriptor
 162:lib/chibios/os/rt/src/chthreads.c ****  * @return              The pointer to the @p thread_t structure allocated for
 163:lib/chibios/os/rt/src/chthreads.c ****  *                      the thread into the working space area.
 164:lib/chibios/os/rt/src/chthreads.c ****  *
 165:lib/chibios/os/rt/src/chthreads.c ****  * @iclass
 166:lib/chibios/os/rt/src/chthreads.c ****  */
 167:lib/chibios/os/rt/src/chthreads.c **** thread_t *chThdCreateSuspendedI(const thread_descriptor_t *tdp) {
 131              		.loc 1 167 65 is_stmt 1 view -0
 132              		.cfi_startproc
 133              		@ args = 0, pretend = 0, frame = 0
 134              		@ frame_needed = 0, uses_anonymous_args = 0
 135              		@ link register save eliminated.
 168:lib/chibios/os/rt/src/chthreads.c ****   thread_t *tp;
 136              		.loc 1 168 3 view .LVU38
 169:lib/chibios/os/rt/src/chthreads.c **** 
 170:lib/chibios/os/rt/src/chthreads.c ****   chDbgCheckClassI();
 137              		.loc 1 170 21 view .LVU39
 171:lib/chibios/os/rt/src/chthreads.c ****   chDbgCheck(tdp != NULL);
 138              		.loc 1 171 3 view .LVU40
 139              		.loc 1 171 3 view .LVU41
 140              		.loc 1 171 3 view .LVU42
 172:lib/chibios/os/rt/src/chthreads.c ****   chDbgCheck(MEM_IS_ALIGNED(tdp->wbase, PORT_WORKING_AREA_ALIGN) &&
 141              		.loc 1 172 3 view .LVU43
 142              		.loc 1 172 3 view .LVU44
 143              		.loc 1 172 3 view .LVU45
 173:lib/chibios/os/rt/src/chthreads.c ****              MEM_IS_ALIGNED(tdp->wend, PORT_STACK_ALIGN) &&
 174:lib/chibios/os/rt/src/chthreads.c ****              (tdp->wend > tdp->wbase) &&
 175:lib/chibios/os/rt/src/chthreads.c ****              (((size_t)tdp->wend - (size_t)tdp->wbase) >= THD_WORKING_AREA_SIZE(0)));
 176:lib/chibios/os/rt/src/chthreads.c ****   chDbgCheck((tdp->prio <= HIGHPRIO) && (tdp->funcp != NULL));
 144              		.loc 1 176 3 view .LVU46
 145              		.loc 1 176 3 view .LVU47
 146              		.loc 1 176 3 view .LVU48
 177:lib/chibios/os/rt/src/chthreads.c **** 
 178:lib/chibios/os/rt/src/chthreads.c ****   /* The thread structure is laid out in the upper part of the thread
 179:lib/chibios/os/rt/src/chthreads.c ****      workspace. The thread position structure is aligned to the required
 180:lib/chibios/os/rt/src/chthreads.c ****      stack alignment because it represents the stack top.*/
 181:lib/chibios/os/rt/src/chthreads.c ****   tp = (thread_t *)((uint8_t *)tdp->wend -
 147              		.loc 1 181 3 view .LVU49
 182:lib/chibios/os/rt/src/chthreads.c ****                     MEM_ALIGN_NEXT(sizeof (thread_t), PORT_STACK_ALIGN));
 183:lib/chibios/os/rt/src/chthreads.c **** 
 184:lib/chibios/os/rt/src/chthreads.c **** #if (CH_DBG_ENABLE_STACK_CHECK == TRUE) || (CH_CFG_USE_DYNAMIC == TRUE)
 185:lib/chibios/os/rt/src/chthreads.c ****   /* Stack boundary.*/
 186:lib/chibios/os/rt/src/chthreads.c ****   tp->wabase = tdp->wbase;
 148              		.loc 1 186 14 is_stmt 0 view .LVU50
 149 0000 D0E90123 		ldrd	r2, r3, [r0, #4]
 150 0004 43F82C2C 		str	r2, [r3, #-44]
 187:lib/chibios/os/rt/src/chthreads.c **** #endif
 188:lib/chibios/os/rt/src/chthreads.c **** 
 189:lib/chibios/os/rt/src/chthreads.c ****   /* Setting up the port-dependent part of the working area.*/
 190:lib/chibios/os/rt/src/chthreads.c ****   PORT_SETUP_CONTEXT(tp, tdp->wbase, tp, tdp->funcp, tdp->arg);
 151              		.loc 1 190 3 is_stmt 1 view .LVU51
 152 0008 A3F1AC02 		sub	r2, r3, #172
 153 000c 43F83C2C 		str	r2, [r3, #-60]
 154              		.loc 1 190 3 view .LVU52
 155 0010 0269     		ldr	r2, [r0, #16]
 156 0012 43F86C2C 		str	r2, [r3, #-108]
 157              		.loc 1 190 3 view .LVU53
 158 0016 4269     		ldr	r2, [r0, #20]
 159 0018 43F8682C 		str	r2, [r3, #-104]
 160              		.loc 1 190 3 view .LVU54
 161 001c 044A     		ldr	r2, .L5
 191:lib/chibios/os/rt/src/chthreads.c **** 
 192:lib/chibios/os/rt/src/chthreads.c ****   /* The driver object is initialized but not started.*/
 193:lib/chibios/os/rt/src/chthreads.c ****   return _thread_init(tp, tdp->name, tdp->prio);
 162              		.loc 1 193 10 is_stmt 0 view .LVU55
 163 001e 0168     		ldr	r1, [r0]
 190:lib/chibios/os/rt/src/chthreads.c **** 
 164              		.loc 1 190 3 view .LVU56
 165 0020 43F84C2C 		str	r2, [r3, #-76]
 190:lib/chibios/os/rt/src/chthreads.c **** 
 166              		.loc 1 190 3 is_stmt 1 view .LVU57
 190:lib/chibios/os/rt/src/chthreads.c **** 
 167              		.loc 1 190 3 view .LVU58
 190:lib/chibios/os/rt/src/chthreads.c **** 
 168              		.loc 1 190 63 view .LVU59
 169              		.loc 1 193 3 view .LVU60
 170              		.loc 1 193 10 is_stmt 0 view .LVU61
 171 0024 C268     		ldr	r2, [r0, #12]
 172 0026 A3F14800 		sub	r0, r3, #72
 173              	.LVL9:
 174              		.loc 1 193 10 view .LVU62
 175 002a FFF7FEBF 		b	_thread_init
 176              	.LVL10:
 177              	.L6:
 178 002e 00BF     		.align	2
 179              	.L5:
 180 0030 00000000 		.word	_port_thread_start
 181              		.cfi_endproc
 182              	.LFE290:
 184              		.section	.text.chThdCreateSuspended,"ax",%progbits
 185              		.align	1
 186              		.global	chThdCreateSuspended
 187              		.syntax unified
 188              		.thumb
 189              		.thumb_func
 190              		.fpu fpv4-sp-d16
 192              	chThdCreateSuspended:
 193              	.LVL11:
 194              	.LFB291:
 194:lib/chibios/os/rt/src/chthreads.c **** }
 195:lib/chibios/os/rt/src/chthreads.c **** 
 196:lib/chibios/os/rt/src/chthreads.c **** /**
 197:lib/chibios/os/rt/src/chthreads.c ****  * @brief   Creates a new thread into a static memory area.
 198:lib/chibios/os/rt/src/chthreads.c ****  * @details The new thread is initialized but not inserted in the ready list,
 199:lib/chibios/os/rt/src/chthreads.c ****  *          the initial state is @p CH_STATE_WTSTART.
 200:lib/chibios/os/rt/src/chthreads.c ****  * @post    The created thread has a reference counter set to one, it is
 201:lib/chibios/os/rt/src/chthreads.c ****  *          caller responsibility to call @p chThdRelease() or @p chthdWait()
 202:lib/chibios/os/rt/src/chthreads.c ****  *          in order to release the reference. The thread persists in the
 203:lib/chibios/os/rt/src/chthreads.c ****  *          registry until its reference counter reaches zero.
 204:lib/chibios/os/rt/src/chthreads.c ****  * @post    The initialized thread can be subsequently started by invoking
 205:lib/chibios/os/rt/src/chthreads.c ****  *          @p chThdStart(), @p chThdStartI() or @p chSchWakeupS()
 206:lib/chibios/os/rt/src/chthreads.c ****  *          depending on the execution context.
 207:lib/chibios/os/rt/src/chthreads.c ****  * @note    A thread can terminate by calling @p chThdExit() or by simply
 208:lib/chibios/os/rt/src/chthreads.c ****  *          returning from its main function.
 209:lib/chibios/os/rt/src/chthreads.c ****  *
 210:lib/chibios/os/rt/src/chthreads.c ****  * @param[out] tdp      pointer to the thread descriptor
 211:lib/chibios/os/rt/src/chthreads.c ****  * @return              The pointer to the @p thread_t structure allocated for
 212:lib/chibios/os/rt/src/chthreads.c ****  *                      the thread into the working space area.
 213:lib/chibios/os/rt/src/chthreads.c ****  *
 214:lib/chibios/os/rt/src/chthreads.c ****  * @api
 215:lib/chibios/os/rt/src/chthreads.c ****  */
 216:lib/chibios/os/rt/src/chthreads.c **** thread_t *chThdCreateSuspended(const thread_descriptor_t *tdp) {
 195              		.loc 1 216 64 is_stmt 1 view -0
 196              		.cfi_startproc
 197              		@ args = 0, pretend = 0, frame = 0
 198              		@ frame_needed = 0, uses_anonymous_args = 0
 217:lib/chibios/os/rt/src/chthreads.c ****   thread_t *tp;
 199              		.loc 1 217 3 view .LVU64
 218:lib/chibios/os/rt/src/chthreads.c **** 
 219:lib/chibios/os/rt/src/chthreads.c **** #if CH_CFG_USE_REGISTRY == TRUE
 220:lib/chibios/os/rt/src/chthreads.c ****   chDbgAssert(chRegFindThreadByWorkingArea(tdp->wbase) == NULL,
 200              		.loc 1 220 3 view .LVU65
 201              		.loc 1 220 3 view .LVU66
 202              		.loc 1 220 3 view .LVU67
 221:lib/chibios/os/rt/src/chthreads.c ****               "working area in use");
 222:lib/chibios/os/rt/src/chthreads.c **** #endif
 223:lib/chibios/os/rt/src/chthreads.c **** 
 224:lib/chibios/os/rt/src/chthreads.c **** #if CH_DBG_FILL_THREADS == TRUE
 225:lib/chibios/os/rt/src/chthreads.c ****   _thread_memfill((uint8_t *)tdp->wbase,
 226:lib/chibios/os/rt/src/chthreads.c ****                   (uint8_t *)tdp->wend,
 227:lib/chibios/os/rt/src/chthreads.c ****                   CH_DBG_STACK_FILL_VALUE);
 228:lib/chibios/os/rt/src/chthreads.c **** #endif
 229:lib/chibios/os/rt/src/chthreads.c **** 
 230:lib/chibios/os/rt/src/chthreads.c ****   chSysLock();
 203              		.loc 1 230 3 view .LVU68
 204              	.LBB232:
 205              	.LBI232:
 206              		.file 3 "./lib/chibios/os/rt/include/chsys.h"
   1:./lib/chibios/os/rt/include/chsys.h **** /*
   2:./lib/chibios/os/rt/include/chsys.h ****     ChibiOS - Copyright (C) 2006..2018 Giovanni Di Sirio.
   3:./lib/chibios/os/rt/include/chsys.h **** 
   4:./lib/chibios/os/rt/include/chsys.h ****     This file is part of ChibiOS.
   5:./lib/chibios/os/rt/include/chsys.h **** 
   6:./lib/chibios/os/rt/include/chsys.h ****     ChibiOS is free software; you can redistribute it and/or modify
   7:./lib/chibios/os/rt/include/chsys.h ****     it under the terms of the GNU General Public License as published by
   8:./lib/chibios/os/rt/include/chsys.h ****     the Free Software Foundation; either version 3 of the License, or
   9:./lib/chibios/os/rt/include/chsys.h ****     (at your option) any later version.
  10:./lib/chibios/os/rt/include/chsys.h **** 
  11:./lib/chibios/os/rt/include/chsys.h ****     ChibiOS is distributed in the hope that it will be useful,
  12:./lib/chibios/os/rt/include/chsys.h ****     but WITHOUT ANY WARRANTY; without even the implied warranty of
  13:./lib/chibios/os/rt/include/chsys.h ****     MERCHANTABILITY or FITNESS FOR A PARTICULAR PURPOSE.  See the
  14:./lib/chibios/os/rt/include/chsys.h ****     GNU General Public License for more details.
  15:./lib/chibios/os/rt/include/chsys.h **** 
  16:./lib/chibios/os/rt/include/chsys.h ****     You should have received a copy of the GNU General Public License
  17:./lib/chibios/os/rt/include/chsys.h ****     along with this program.  If not, see <http://www.gnu.org/licenses/>.
  18:./lib/chibios/os/rt/include/chsys.h **** */
  19:./lib/chibios/os/rt/include/chsys.h **** 
  20:./lib/chibios/os/rt/include/chsys.h **** /**
  21:./lib/chibios/os/rt/include/chsys.h ****  * @file    rt/include/chsys.h
  22:./lib/chibios/os/rt/include/chsys.h ****  * @brief   System related macros and structures.
  23:./lib/chibios/os/rt/include/chsys.h ****  *
  24:./lib/chibios/os/rt/include/chsys.h ****  * @addtogroup system
  25:./lib/chibios/os/rt/include/chsys.h ****  * @{
  26:./lib/chibios/os/rt/include/chsys.h ****  */
  27:./lib/chibios/os/rt/include/chsys.h **** 
  28:./lib/chibios/os/rt/include/chsys.h **** #ifndef CHSYS_H
  29:./lib/chibios/os/rt/include/chsys.h **** #define CHSYS_H
  30:./lib/chibios/os/rt/include/chsys.h **** 
  31:./lib/chibios/os/rt/include/chsys.h **** /*lint -sem(chSysHalt, r_no)*/
  32:./lib/chibios/os/rt/include/chsys.h **** 
  33:./lib/chibios/os/rt/include/chsys.h **** /*===========================================================================*/
  34:./lib/chibios/os/rt/include/chsys.h **** /* Module constants.                                                         */
  35:./lib/chibios/os/rt/include/chsys.h **** /*===========================================================================*/
  36:./lib/chibios/os/rt/include/chsys.h **** 
  37:./lib/chibios/os/rt/include/chsys.h **** /**
  38:./lib/chibios/os/rt/include/chsys.h ****  * @name    Masks of executable integrity checks.
  39:./lib/chibios/os/rt/include/chsys.h ****  * @{
  40:./lib/chibios/os/rt/include/chsys.h ****  */
  41:./lib/chibios/os/rt/include/chsys.h **** #define CH_INTEGRITY_RLIST                  1U
  42:./lib/chibios/os/rt/include/chsys.h **** #define CH_INTEGRITY_VTLIST                 2U
  43:./lib/chibios/os/rt/include/chsys.h **** #define CH_INTEGRITY_REGISTRY               4U
  44:./lib/chibios/os/rt/include/chsys.h **** #define CH_INTEGRITY_PORT                   8U
  45:./lib/chibios/os/rt/include/chsys.h **** /** @} */
  46:./lib/chibios/os/rt/include/chsys.h **** 
  47:./lib/chibios/os/rt/include/chsys.h **** /*===========================================================================*/
  48:./lib/chibios/os/rt/include/chsys.h **** /* Module pre-compile time settings.                                         */
  49:./lib/chibios/os/rt/include/chsys.h **** /*===========================================================================*/
  50:./lib/chibios/os/rt/include/chsys.h **** 
  51:./lib/chibios/os/rt/include/chsys.h **** /*===========================================================================*/
  52:./lib/chibios/os/rt/include/chsys.h **** /* Derived constants and error checks.                                       */
  53:./lib/chibios/os/rt/include/chsys.h **** /*===========================================================================*/
  54:./lib/chibios/os/rt/include/chsys.h **** 
  55:./lib/chibios/os/rt/include/chsys.h **** /*===========================================================================*/
  56:./lib/chibios/os/rt/include/chsys.h **** /* Module data structures and types.                                         */
  57:./lib/chibios/os/rt/include/chsys.h **** /*===========================================================================*/
  58:./lib/chibios/os/rt/include/chsys.h **** 
  59:./lib/chibios/os/rt/include/chsys.h **** /*===========================================================================*/
  60:./lib/chibios/os/rt/include/chsys.h **** /* Module macros.                                                            */
  61:./lib/chibios/os/rt/include/chsys.h **** /*===========================================================================*/
  62:./lib/chibios/os/rt/include/chsys.h **** 
  63:./lib/chibios/os/rt/include/chsys.h **** /**
  64:./lib/chibios/os/rt/include/chsys.h ****  * @name    ISRs abstraction macros
  65:./lib/chibios/os/rt/include/chsys.h ****  * @{
  66:./lib/chibios/os/rt/include/chsys.h ****  */
  67:./lib/chibios/os/rt/include/chsys.h **** /**
  68:./lib/chibios/os/rt/include/chsys.h ****  * @brief   Priority level validation macro.
  69:./lib/chibios/os/rt/include/chsys.h ****  * @details This macro determines if the passed value is a valid priority
  70:./lib/chibios/os/rt/include/chsys.h ****  *          level for the underlying architecture.
  71:./lib/chibios/os/rt/include/chsys.h ****  *
  72:./lib/chibios/os/rt/include/chsys.h ****  * @param[in] prio      the priority level
  73:./lib/chibios/os/rt/include/chsys.h ****  * @return              Priority range result.
  74:./lib/chibios/os/rt/include/chsys.h ****  * @retval false        if the priority is invalid or if the architecture
  75:./lib/chibios/os/rt/include/chsys.h ****  *                      does not support priorities.
  76:./lib/chibios/os/rt/include/chsys.h ****  * @retval true         if the priority is valid.
  77:./lib/chibios/os/rt/include/chsys.h ****  */
  78:./lib/chibios/os/rt/include/chsys.h **** #if defined(PORT_IRQ_IS_VALID_PRIORITY) || defined(__DOXYGEN__)
  79:./lib/chibios/os/rt/include/chsys.h **** #define CH_IRQ_IS_VALID_PRIORITY(prio)                                      \
  80:./lib/chibios/os/rt/include/chsys.h ****   PORT_IRQ_IS_VALID_PRIORITY(prio)
  81:./lib/chibios/os/rt/include/chsys.h **** #else
  82:./lib/chibios/os/rt/include/chsys.h **** #define CH_IRQ_IS_VALID_PRIORITY(prio) false
  83:./lib/chibios/os/rt/include/chsys.h **** #endif
  84:./lib/chibios/os/rt/include/chsys.h **** 
  85:./lib/chibios/os/rt/include/chsys.h **** /**
  86:./lib/chibios/os/rt/include/chsys.h ****  * @brief   Priority level validation macro.
  87:./lib/chibios/os/rt/include/chsys.h ****  * @details This macro determines if the passed value is a valid priority
  88:./lib/chibios/os/rt/include/chsys.h ****  *          level that cannot preempt the kernel critical zone.
  89:./lib/chibios/os/rt/include/chsys.h ****  *
  90:./lib/chibios/os/rt/include/chsys.h ****  * @param[in] prio      the priority level
  91:./lib/chibios/os/rt/include/chsys.h ****  * @return              Priority range result.
  92:./lib/chibios/os/rt/include/chsys.h ****  * @retval false        if the priority is invalid or if the architecture
  93:./lib/chibios/os/rt/include/chsys.h ****  *                      does not support priorities.
  94:./lib/chibios/os/rt/include/chsys.h ****  * @retval true         if the priority is valid.
  95:./lib/chibios/os/rt/include/chsys.h ****  */
  96:./lib/chibios/os/rt/include/chsys.h **** #if defined(PORT_IRQ_IS_VALID_KERNEL_PRIORITY) || defined(__DOXYGEN__)
  97:./lib/chibios/os/rt/include/chsys.h **** #define CH_IRQ_IS_VALID_KERNEL_PRIORITY(prio)                               \
  98:./lib/chibios/os/rt/include/chsys.h ****   PORT_IRQ_IS_VALID_KERNEL_PRIORITY(prio)
  99:./lib/chibios/os/rt/include/chsys.h **** #else
 100:./lib/chibios/os/rt/include/chsys.h **** #define CH_IRQ_IS_VALID_KERNEL_PRIORITY(prio) false
 101:./lib/chibios/os/rt/include/chsys.h **** #endif
 102:./lib/chibios/os/rt/include/chsys.h **** 
 103:./lib/chibios/os/rt/include/chsys.h **** /**
 104:./lib/chibios/os/rt/include/chsys.h ****  * @brief   IRQ handler enter code.
 105:./lib/chibios/os/rt/include/chsys.h ****  * @note    Usually IRQ handlers functions are also declared naked.
 106:./lib/chibios/os/rt/include/chsys.h ****  * @note    On some architectures this macro can be empty.
 107:./lib/chibios/os/rt/include/chsys.h ****  *
 108:./lib/chibios/os/rt/include/chsys.h ****  * @special
 109:./lib/chibios/os/rt/include/chsys.h ****  */
 110:./lib/chibios/os/rt/include/chsys.h **** #define CH_IRQ_PROLOGUE()                                                   \
 111:./lib/chibios/os/rt/include/chsys.h ****   PORT_IRQ_PROLOGUE();                                                      \
 112:./lib/chibios/os/rt/include/chsys.h ****   CH_CFG_IRQ_PROLOGUE_HOOK();                                               \
 113:./lib/chibios/os/rt/include/chsys.h ****   _stats_increase_irq();                                                    \
 114:./lib/chibios/os/rt/include/chsys.h ****   _trace_isr_enter(__func__);                                               \
 115:./lib/chibios/os/rt/include/chsys.h ****   _dbg_check_enter_isr()
 116:./lib/chibios/os/rt/include/chsys.h **** 
 117:./lib/chibios/os/rt/include/chsys.h **** /**
 118:./lib/chibios/os/rt/include/chsys.h ****  * @brief   IRQ handler exit code.
 119:./lib/chibios/os/rt/include/chsys.h ****  * @note    Usually IRQ handlers function are also declared naked.
 120:./lib/chibios/os/rt/include/chsys.h ****  * @note    This macro usually performs the final reschedule by using
 121:./lib/chibios/os/rt/include/chsys.h ****  *          @p chSchIsPreemptionRequired() and @p chSchDoReschedule().
 122:./lib/chibios/os/rt/include/chsys.h ****  *
 123:./lib/chibios/os/rt/include/chsys.h ****  * @special
 124:./lib/chibios/os/rt/include/chsys.h ****  */
 125:./lib/chibios/os/rt/include/chsys.h **** #define CH_IRQ_EPILOGUE()                                                   \
 126:./lib/chibios/os/rt/include/chsys.h ****   _dbg_check_leave_isr();                                                   \
 127:./lib/chibios/os/rt/include/chsys.h ****   _trace_isr_leave(__func__);                                               \
 128:./lib/chibios/os/rt/include/chsys.h ****   CH_CFG_IRQ_EPILOGUE_HOOK();                                               \
 129:./lib/chibios/os/rt/include/chsys.h ****   PORT_IRQ_EPILOGUE()
 130:./lib/chibios/os/rt/include/chsys.h **** 
 131:./lib/chibios/os/rt/include/chsys.h **** /**
 132:./lib/chibios/os/rt/include/chsys.h ****  * @brief   Standard normal IRQ handler declaration.
 133:./lib/chibios/os/rt/include/chsys.h ****  * @note    @p id can be a function name or a vector number depending on the
 134:./lib/chibios/os/rt/include/chsys.h ****  *          port implementation.
 135:./lib/chibios/os/rt/include/chsys.h ****  *
 136:./lib/chibios/os/rt/include/chsys.h ****  * @special
 137:./lib/chibios/os/rt/include/chsys.h ****  */
 138:./lib/chibios/os/rt/include/chsys.h **** #define CH_IRQ_HANDLER(id) PORT_IRQ_HANDLER(id)
 139:./lib/chibios/os/rt/include/chsys.h **** /** @} */
 140:./lib/chibios/os/rt/include/chsys.h **** 
 141:./lib/chibios/os/rt/include/chsys.h **** /**
 142:./lib/chibios/os/rt/include/chsys.h ****  * @name    Fast ISRs abstraction macros
 143:./lib/chibios/os/rt/include/chsys.h ****  * @{
 144:./lib/chibios/os/rt/include/chsys.h ****  */
 145:./lib/chibios/os/rt/include/chsys.h **** /**
 146:./lib/chibios/os/rt/include/chsys.h ****  * @brief   Standard fast IRQ handler declaration.
 147:./lib/chibios/os/rt/include/chsys.h ****  * @note    @p id can be a function name or a vector number depending on the
 148:./lib/chibios/os/rt/include/chsys.h ****  *          port implementation.
 149:./lib/chibios/os/rt/include/chsys.h ****  * @note    Not all architectures support fast interrupts.
 150:./lib/chibios/os/rt/include/chsys.h ****  *
 151:./lib/chibios/os/rt/include/chsys.h ****  * @special
 152:./lib/chibios/os/rt/include/chsys.h ****  */
 153:./lib/chibios/os/rt/include/chsys.h **** #define CH_FAST_IRQ_HANDLER(id) PORT_FAST_IRQ_HANDLER(id)
 154:./lib/chibios/os/rt/include/chsys.h **** /** @} */
 155:./lib/chibios/os/rt/include/chsys.h **** 
 156:./lib/chibios/os/rt/include/chsys.h **** /**
 157:./lib/chibios/os/rt/include/chsys.h ****  * @name    Time conversion utilities for the realtime counter
 158:./lib/chibios/os/rt/include/chsys.h ****  * @{
 159:./lib/chibios/os/rt/include/chsys.h ****  */
 160:./lib/chibios/os/rt/include/chsys.h **** /**
 161:./lib/chibios/os/rt/include/chsys.h ****  * @brief   Seconds to realtime counter.
 162:./lib/chibios/os/rt/include/chsys.h ****  * @details Converts from seconds to realtime counter cycles.
 163:./lib/chibios/os/rt/include/chsys.h ****  * @note    The macro assumes that @p freq >= @p 1.
 164:./lib/chibios/os/rt/include/chsys.h ****  *
 165:./lib/chibios/os/rt/include/chsys.h ****  * @param[in] freq      clock frequency, in Hz, of the realtime counter
 166:./lib/chibios/os/rt/include/chsys.h ****  * @param[in] sec       number of seconds
 167:./lib/chibios/os/rt/include/chsys.h ****  * @return              The number of cycles.
 168:./lib/chibios/os/rt/include/chsys.h ****  *
 169:./lib/chibios/os/rt/include/chsys.h ****  * @api
 170:./lib/chibios/os/rt/include/chsys.h ****  */
 171:./lib/chibios/os/rt/include/chsys.h **** #define S2RTC(freq, sec) ((freq) * (sec))
 172:./lib/chibios/os/rt/include/chsys.h **** 
 173:./lib/chibios/os/rt/include/chsys.h **** /**
 174:./lib/chibios/os/rt/include/chsys.h ****  * @brief   Milliseconds to realtime counter.
 175:./lib/chibios/os/rt/include/chsys.h ****  * @details Converts from milliseconds to realtime counter cycles.
 176:./lib/chibios/os/rt/include/chsys.h ****  * @note    The result is rounded upward to the next millisecond boundary.
 177:./lib/chibios/os/rt/include/chsys.h ****  * @note    The macro assumes that @p freq >= @p 1000.
 178:./lib/chibios/os/rt/include/chsys.h ****  *
 179:./lib/chibios/os/rt/include/chsys.h ****  * @param[in] freq      clock frequency, in Hz, of the realtime counter
 180:./lib/chibios/os/rt/include/chsys.h ****  * @param[in] msec      number of milliseconds
 181:./lib/chibios/os/rt/include/chsys.h ****  * @return              The number of cycles.
 182:./lib/chibios/os/rt/include/chsys.h ****  *
 183:./lib/chibios/os/rt/include/chsys.h ****  * @api
 184:./lib/chibios/os/rt/include/chsys.h ****  */
 185:./lib/chibios/os/rt/include/chsys.h **** #define MS2RTC(freq, msec) (rtcnt_t)((((freq) + 999UL) / 1000UL) * (msec))
 186:./lib/chibios/os/rt/include/chsys.h **** 
 187:./lib/chibios/os/rt/include/chsys.h **** /**
 188:./lib/chibios/os/rt/include/chsys.h ****  * @brief   Microseconds to realtime counter.
 189:./lib/chibios/os/rt/include/chsys.h ****  * @details Converts from microseconds to realtime counter cycles.
 190:./lib/chibios/os/rt/include/chsys.h ****  * @note    The result is rounded upward to the next microsecond boundary.
 191:./lib/chibios/os/rt/include/chsys.h ****  * @note    The macro assumes that @p freq >= @p 1000000.
 192:./lib/chibios/os/rt/include/chsys.h ****  *
 193:./lib/chibios/os/rt/include/chsys.h ****  * @param[in] freq      clock frequency, in Hz, of the realtime counter
 194:./lib/chibios/os/rt/include/chsys.h ****  * @param[in] usec      number of microseconds
 195:./lib/chibios/os/rt/include/chsys.h ****  * @return              The number of cycles.
 196:./lib/chibios/os/rt/include/chsys.h ****  *
 197:./lib/chibios/os/rt/include/chsys.h ****  * @api
 198:./lib/chibios/os/rt/include/chsys.h ****  */
 199:./lib/chibios/os/rt/include/chsys.h **** #define US2RTC(freq, usec) (rtcnt_t)((((freq) + 999999UL) / 1000000UL) * (usec))
 200:./lib/chibios/os/rt/include/chsys.h **** 
 201:./lib/chibios/os/rt/include/chsys.h **** /**
 202:./lib/chibios/os/rt/include/chsys.h ****  * @brief   Realtime counter cycles to seconds.
 203:./lib/chibios/os/rt/include/chsys.h ****  * @details Converts from realtime counter cycles number to seconds.
 204:./lib/chibios/os/rt/include/chsys.h ****  * @note    The result is rounded up to the next second boundary.
 205:./lib/chibios/os/rt/include/chsys.h ****  * @note    The macro assumes that @p freq >= @p 1.
 206:./lib/chibios/os/rt/include/chsys.h ****  *
 207:./lib/chibios/os/rt/include/chsys.h ****  * @param[in] freq      clock frequency, in Hz, of the realtime counter
 208:./lib/chibios/os/rt/include/chsys.h ****  * @param[in] n         number of cycles
 209:./lib/chibios/os/rt/include/chsys.h ****  * @return              The number of seconds.
 210:./lib/chibios/os/rt/include/chsys.h ****  *
 211:./lib/chibios/os/rt/include/chsys.h ****  * @api
 212:./lib/chibios/os/rt/include/chsys.h ****  */
 213:./lib/chibios/os/rt/include/chsys.h **** #define RTC2S(freq, n) ((((n) - 1UL) / (freq)) + 1UL)
 214:./lib/chibios/os/rt/include/chsys.h **** 
 215:./lib/chibios/os/rt/include/chsys.h **** /**
 216:./lib/chibios/os/rt/include/chsys.h ****  * @brief   Realtime counter cycles to milliseconds.
 217:./lib/chibios/os/rt/include/chsys.h ****  * @details Converts from realtime counter cycles number to milliseconds.
 218:./lib/chibios/os/rt/include/chsys.h ****  * @note    The result is rounded up to the next millisecond boundary.
 219:./lib/chibios/os/rt/include/chsys.h ****  * @note    The macro assumes that @p freq >= @p 1000.
 220:./lib/chibios/os/rt/include/chsys.h ****  *
 221:./lib/chibios/os/rt/include/chsys.h ****  * @param[in] freq      clock frequency, in Hz, of the realtime counter
 222:./lib/chibios/os/rt/include/chsys.h ****  * @param[in] n         number of cycles
 223:./lib/chibios/os/rt/include/chsys.h ****  * @return              The number of milliseconds.
 224:./lib/chibios/os/rt/include/chsys.h ****  *
 225:./lib/chibios/os/rt/include/chsys.h ****  * @api
 226:./lib/chibios/os/rt/include/chsys.h ****  */
 227:./lib/chibios/os/rt/include/chsys.h **** #define RTC2MS(freq, n) ((((n) - 1UL) / ((freq) / 1000UL)) + 1UL)
 228:./lib/chibios/os/rt/include/chsys.h **** 
 229:./lib/chibios/os/rt/include/chsys.h **** /**
 230:./lib/chibios/os/rt/include/chsys.h ****  * @brief   Realtime counter cycles to microseconds.
 231:./lib/chibios/os/rt/include/chsys.h ****  * @details Converts from realtime counter cycles number to microseconds.
 232:./lib/chibios/os/rt/include/chsys.h ****  * @note    The result is rounded up to the next microsecond boundary.
 233:./lib/chibios/os/rt/include/chsys.h ****  * @note    The macro assumes that @p freq >= @p 1000000.
 234:./lib/chibios/os/rt/include/chsys.h ****  *
 235:./lib/chibios/os/rt/include/chsys.h ****  * @param[in] freq      clock frequency, in Hz, of the realtime counter
 236:./lib/chibios/os/rt/include/chsys.h ****  * @param[in] n         number of cycles
 237:./lib/chibios/os/rt/include/chsys.h ****  * @return              The number of microseconds.
 238:./lib/chibios/os/rt/include/chsys.h ****  *
 239:./lib/chibios/os/rt/include/chsys.h ****  * @api
 240:./lib/chibios/os/rt/include/chsys.h ****  */
 241:./lib/chibios/os/rt/include/chsys.h **** #define RTC2US(freq, n) ((((n) - 1UL) / ((freq) / 1000000UL)) + 1UL)
 242:./lib/chibios/os/rt/include/chsys.h **** /** @} */
 243:./lib/chibios/os/rt/include/chsys.h **** 
 244:./lib/chibios/os/rt/include/chsys.h **** /**
 245:./lib/chibios/os/rt/include/chsys.h ****  * @brief   Returns the current value of the system real time counter.
 246:./lib/chibios/os/rt/include/chsys.h ****  * @note    This function is only available if the port layer supports the
 247:./lib/chibios/os/rt/include/chsys.h ****  *          option @p PORT_SUPPORTS_RT.
 248:./lib/chibios/os/rt/include/chsys.h ****  *
 249:./lib/chibios/os/rt/include/chsys.h ****  * @return              The value of the system realtime counter of
 250:./lib/chibios/os/rt/include/chsys.h ****  *                      type rtcnt_t.
 251:./lib/chibios/os/rt/include/chsys.h ****  *
 252:./lib/chibios/os/rt/include/chsys.h ****  * @xclass
 253:./lib/chibios/os/rt/include/chsys.h ****  */
 254:./lib/chibios/os/rt/include/chsys.h **** #if (PORT_SUPPORTS_RT == TRUE) || defined(__DOXYGEN__)
 255:./lib/chibios/os/rt/include/chsys.h **** #define chSysGetRealtimeCounterX() (rtcnt_t)port_rt_get_counter_value()
 256:./lib/chibios/os/rt/include/chsys.h **** #endif
 257:./lib/chibios/os/rt/include/chsys.h **** 
 258:./lib/chibios/os/rt/include/chsys.h **** /**
 259:./lib/chibios/os/rt/include/chsys.h ****  * @brief   Performs a context switch.
 260:./lib/chibios/os/rt/include/chsys.h ****  * @note    Not a user function, it is meant to be invoked by the scheduler
 261:./lib/chibios/os/rt/include/chsys.h ****  *          itself or from within the port layer.
 262:./lib/chibios/os/rt/include/chsys.h ****  *
 263:./lib/chibios/os/rt/include/chsys.h ****  * @param[in] ntp       the thread to be switched in
 264:./lib/chibios/os/rt/include/chsys.h ****  * @param[in] otp       the thread to be switched out
 265:./lib/chibios/os/rt/include/chsys.h ****  *
 266:./lib/chibios/os/rt/include/chsys.h ****  * @special
 267:./lib/chibios/os/rt/include/chsys.h ****  */
 268:./lib/chibios/os/rt/include/chsys.h **** #define chSysSwitch(ntp, otp) {                                             \
 269:./lib/chibios/os/rt/include/chsys.h ****                                                                             \
 270:./lib/chibios/os/rt/include/chsys.h ****   _trace_switch(ntp, otp);                                                  \
 271:./lib/chibios/os/rt/include/chsys.h ****   _stats_ctxswc(ntp, otp);                                                  \
 272:./lib/chibios/os/rt/include/chsys.h ****   CH_CFG_CONTEXT_SWITCH_HOOK(ntp, otp);                                     \
 273:./lib/chibios/os/rt/include/chsys.h ****   port_switch(ntp, otp);                                                    \
 274:./lib/chibios/os/rt/include/chsys.h **** }
 275:./lib/chibios/os/rt/include/chsys.h **** 
 276:./lib/chibios/os/rt/include/chsys.h **** /*===========================================================================*/
 277:./lib/chibios/os/rt/include/chsys.h **** /* External declarations.                                                    */
 278:./lib/chibios/os/rt/include/chsys.h **** /*===========================================================================*/
 279:./lib/chibios/os/rt/include/chsys.h **** 
 280:./lib/chibios/os/rt/include/chsys.h **** #if !defined(__DOXYGEN__)
 281:./lib/chibios/os/rt/include/chsys.h **** extern stkalign_t ch_idle_thread_wa[];
 282:./lib/chibios/os/rt/include/chsys.h **** #endif
 283:./lib/chibios/os/rt/include/chsys.h **** 
 284:./lib/chibios/os/rt/include/chsys.h **** #ifdef __cplusplus
 285:./lib/chibios/os/rt/include/chsys.h **** extern "C" {
 286:./lib/chibios/os/rt/include/chsys.h **** #endif
 287:./lib/chibios/os/rt/include/chsys.h ****   void chSysInit(void);
 288:./lib/chibios/os/rt/include/chsys.h ****   bool chSysIntegrityCheckI(unsigned testmask);
 289:./lib/chibios/os/rt/include/chsys.h ****   void chSysTimerHandlerI(void);
 290:./lib/chibios/os/rt/include/chsys.h ****   syssts_t chSysGetStatusAndLockX(void);
 291:./lib/chibios/os/rt/include/chsys.h ****   void chSysRestoreStatusX(syssts_t sts);
 292:./lib/chibios/os/rt/include/chsys.h **** #if PORT_SUPPORTS_RT == TRUE
 293:./lib/chibios/os/rt/include/chsys.h ****   bool chSysIsCounterWithinX(rtcnt_t cnt, rtcnt_t start, rtcnt_t end);
 294:./lib/chibios/os/rt/include/chsys.h ****   void chSysPolledDelayX(rtcnt_t cycles);
 295:./lib/chibios/os/rt/include/chsys.h **** #endif
 296:./lib/chibios/os/rt/include/chsys.h **** #ifdef __cplusplus
 297:./lib/chibios/os/rt/include/chsys.h **** }
 298:./lib/chibios/os/rt/include/chsys.h **** #endif
 299:./lib/chibios/os/rt/include/chsys.h **** 
 300:./lib/chibios/os/rt/include/chsys.h **** /*===========================================================================*/
 301:./lib/chibios/os/rt/include/chsys.h **** /* Module inline functions.                                                  */
 302:./lib/chibios/os/rt/include/chsys.h **** /*===========================================================================*/
 303:./lib/chibios/os/rt/include/chsys.h **** 
 304:./lib/chibios/os/rt/include/chsys.h **** /**
 305:./lib/chibios/os/rt/include/chsys.h ****  * @brief   Raises the system interrupt priority mask to the maximum level.
 306:./lib/chibios/os/rt/include/chsys.h ****  * @details All the maskable interrupt sources are disabled regardless their
 307:./lib/chibios/os/rt/include/chsys.h ****  *          hardware priority.
 308:./lib/chibios/os/rt/include/chsys.h ****  * @note    Do not invoke this API from within a kernel lock.
 309:./lib/chibios/os/rt/include/chsys.h ****  *
 310:./lib/chibios/os/rt/include/chsys.h ****  * @special
 311:./lib/chibios/os/rt/include/chsys.h ****  */
 312:./lib/chibios/os/rt/include/chsys.h **** static inline void chSysDisable(void) {
 313:./lib/chibios/os/rt/include/chsys.h **** 
 314:./lib/chibios/os/rt/include/chsys.h ****   port_disable();
 315:./lib/chibios/os/rt/include/chsys.h ****   _dbg_check_disable();
 316:./lib/chibios/os/rt/include/chsys.h **** }
 317:./lib/chibios/os/rt/include/chsys.h **** 
 318:./lib/chibios/os/rt/include/chsys.h **** /**
 319:./lib/chibios/os/rt/include/chsys.h ****  * @brief   Raises the system interrupt priority mask to system level.
 320:./lib/chibios/os/rt/include/chsys.h ****  * @details The interrupt sources that should not be able to preempt the kernel
 321:./lib/chibios/os/rt/include/chsys.h ****  *          are disabled, interrupt sources with higher priority are still
 322:./lib/chibios/os/rt/include/chsys.h ****  *          enabled.
 323:./lib/chibios/os/rt/include/chsys.h ****  * @note    Do not invoke this API from within a kernel lock.
 324:./lib/chibios/os/rt/include/chsys.h ****  * @note    This API is no replacement for @p chSysLock(), the @p chSysLock()
 325:./lib/chibios/os/rt/include/chsys.h ****  *          could do more than just disable the interrupts.
 326:./lib/chibios/os/rt/include/chsys.h ****  *
 327:./lib/chibios/os/rt/include/chsys.h ****  * @special
 328:./lib/chibios/os/rt/include/chsys.h ****  */
 329:./lib/chibios/os/rt/include/chsys.h **** static inline void chSysSuspend(void) {
 330:./lib/chibios/os/rt/include/chsys.h **** 
 331:./lib/chibios/os/rt/include/chsys.h ****   port_suspend();
 332:./lib/chibios/os/rt/include/chsys.h ****   _dbg_check_suspend();
 333:./lib/chibios/os/rt/include/chsys.h **** }
 334:./lib/chibios/os/rt/include/chsys.h **** 
 335:./lib/chibios/os/rt/include/chsys.h **** /**
 336:./lib/chibios/os/rt/include/chsys.h ****  * @brief   Lowers the system interrupt priority mask to user level.
 337:./lib/chibios/os/rt/include/chsys.h ****  * @details All the interrupt sources are enabled.
 338:./lib/chibios/os/rt/include/chsys.h ****  * @note    Do not invoke this API from within a kernel lock.
 339:./lib/chibios/os/rt/include/chsys.h ****  * @note    This API is no replacement for @p chSysUnlock(), the
 340:./lib/chibios/os/rt/include/chsys.h ****  *          @p chSysUnlock() could do more than just enable the interrupts.
 341:./lib/chibios/os/rt/include/chsys.h ****  *
 342:./lib/chibios/os/rt/include/chsys.h ****  * @special
 343:./lib/chibios/os/rt/include/chsys.h ****  */
 344:./lib/chibios/os/rt/include/chsys.h **** static inline void chSysEnable(void) {
 345:./lib/chibios/os/rt/include/chsys.h **** 
 346:./lib/chibios/os/rt/include/chsys.h ****   _dbg_check_enable();
 347:./lib/chibios/os/rt/include/chsys.h ****   port_enable();
 348:./lib/chibios/os/rt/include/chsys.h **** }
 349:./lib/chibios/os/rt/include/chsys.h **** 
 350:./lib/chibios/os/rt/include/chsys.h **** /**
 351:./lib/chibios/os/rt/include/chsys.h ****  * @brief   Enters the kernel lock state.
 352:./lib/chibios/os/rt/include/chsys.h ****  *
 353:./lib/chibios/os/rt/include/chsys.h ****  * @special
 354:./lib/chibios/os/rt/include/chsys.h ****  */
 355:./lib/chibios/os/rt/include/chsys.h **** static inline void chSysLock(void) {
 207              		.loc 3 355 20 view .LVU69
 356:./lib/chibios/os/rt/include/chsys.h **** 
 357:./lib/chibios/os/rt/include/chsys.h ****   port_lock();
 208              		.loc 3 357 3 view .LVU70
 209              	.LBB233:
 210              	.LBI233:
 211              		.file 4 "./lib/chibios/os/common/ports/ARMCMx/chcore_v7m.h"
   1:./lib/chibios/os/common/ports/ARMCMx/chcore_v7m.h **** /*
   2:./lib/chibios/os/common/ports/ARMCMx/chcore_v7m.h ****     ChibiOS - Copyright (C) 2006..2018 Giovanni Di Sirio.
   3:./lib/chibios/os/common/ports/ARMCMx/chcore_v7m.h **** 
   4:./lib/chibios/os/common/ports/ARMCMx/chcore_v7m.h ****     This file is part of ChibiOS.
   5:./lib/chibios/os/common/ports/ARMCMx/chcore_v7m.h **** 
   6:./lib/chibios/os/common/ports/ARMCMx/chcore_v7m.h ****     ChibiOS is free software; you can redistribute it and/or modify
   7:./lib/chibios/os/common/ports/ARMCMx/chcore_v7m.h ****     it under the terms of the GNU General Public License as published by
   8:./lib/chibios/os/common/ports/ARMCMx/chcore_v7m.h ****     the Free Software Foundation; either version 3 of the License, or
   9:./lib/chibios/os/common/ports/ARMCMx/chcore_v7m.h ****     (at your option) any later version.
  10:./lib/chibios/os/common/ports/ARMCMx/chcore_v7m.h **** 
  11:./lib/chibios/os/common/ports/ARMCMx/chcore_v7m.h ****     ChibiOS is distributed in the hope that it will be useful,
  12:./lib/chibios/os/common/ports/ARMCMx/chcore_v7m.h ****     but WITHOUT ANY WARRANTY; without even the implied warranty of
  13:./lib/chibios/os/common/ports/ARMCMx/chcore_v7m.h ****     MERCHANTABILITY or FITNESS FOR A PARTICULAR PURPOSE.  See the
  14:./lib/chibios/os/common/ports/ARMCMx/chcore_v7m.h ****     GNU General Public License for more details.
  15:./lib/chibios/os/common/ports/ARMCMx/chcore_v7m.h **** 
  16:./lib/chibios/os/common/ports/ARMCMx/chcore_v7m.h ****     You should have received a copy of the GNU General Public License
  17:./lib/chibios/os/common/ports/ARMCMx/chcore_v7m.h ****     along with this program.  If not, see <http://www.gnu.org/licenses/>.
  18:./lib/chibios/os/common/ports/ARMCMx/chcore_v7m.h **** */
  19:./lib/chibios/os/common/ports/ARMCMx/chcore_v7m.h **** 
  20:./lib/chibios/os/common/ports/ARMCMx/chcore_v7m.h **** /**
  21:./lib/chibios/os/common/ports/ARMCMx/chcore_v7m.h ****  * @file    chcore_v7m.h
  22:./lib/chibios/os/common/ports/ARMCMx/chcore_v7m.h ****  * @brief   ARMv7-M architecture port macros and structures.
  23:./lib/chibios/os/common/ports/ARMCMx/chcore_v7m.h ****  *
  24:./lib/chibios/os/common/ports/ARMCMx/chcore_v7m.h ****  * @addtogroup ARMCMx_V7M_CORE
  25:./lib/chibios/os/common/ports/ARMCMx/chcore_v7m.h ****  * @{
  26:./lib/chibios/os/common/ports/ARMCMx/chcore_v7m.h ****  */
  27:./lib/chibios/os/common/ports/ARMCMx/chcore_v7m.h **** 
  28:./lib/chibios/os/common/ports/ARMCMx/chcore_v7m.h **** #ifndef CHCORE_V7M_H
  29:./lib/chibios/os/common/ports/ARMCMx/chcore_v7m.h **** #define CHCORE_V7M_H
  30:./lib/chibios/os/common/ports/ARMCMx/chcore_v7m.h **** 
  31:./lib/chibios/os/common/ports/ARMCMx/chcore_v7m.h **** /*===========================================================================*/
  32:./lib/chibios/os/common/ports/ARMCMx/chcore_v7m.h **** /* Module constants.                                                         */
  33:./lib/chibios/os/common/ports/ARMCMx/chcore_v7m.h **** /*===========================================================================*/
  34:./lib/chibios/os/common/ports/ARMCMx/chcore_v7m.h **** 
  35:./lib/chibios/os/common/ports/ARMCMx/chcore_v7m.h **** /**
  36:./lib/chibios/os/common/ports/ARMCMx/chcore_v7m.h ****  * @name    Port Capabilities and Constants
  37:./lib/chibios/os/common/ports/ARMCMx/chcore_v7m.h ****  * @{
  38:./lib/chibios/os/common/ports/ARMCMx/chcore_v7m.h ****  */
  39:./lib/chibios/os/common/ports/ARMCMx/chcore_v7m.h **** /**
  40:./lib/chibios/os/common/ports/ARMCMx/chcore_v7m.h ****  * @brief   This port supports a realtime counter.
  41:./lib/chibios/os/common/ports/ARMCMx/chcore_v7m.h ****  */
  42:./lib/chibios/os/common/ports/ARMCMx/chcore_v7m.h **** #define PORT_SUPPORTS_RT                TRUE
  43:./lib/chibios/os/common/ports/ARMCMx/chcore_v7m.h **** 
  44:./lib/chibios/os/common/ports/ARMCMx/chcore_v7m.h **** /**
  45:./lib/chibios/os/common/ports/ARMCMx/chcore_v7m.h ****  * @brief   Natural alignment constant.
  46:./lib/chibios/os/common/ports/ARMCMx/chcore_v7m.h ****  * @note    It is the minimum alignment for pointer-size variables.
  47:./lib/chibios/os/common/ports/ARMCMx/chcore_v7m.h ****  */
  48:./lib/chibios/os/common/ports/ARMCMx/chcore_v7m.h **** #define PORT_NATURAL_ALIGN              sizeof (void *)
  49:./lib/chibios/os/common/ports/ARMCMx/chcore_v7m.h **** 
  50:./lib/chibios/os/common/ports/ARMCMx/chcore_v7m.h **** /**
  51:./lib/chibios/os/common/ports/ARMCMx/chcore_v7m.h ****  * @brief   Stack alignment constant.
  52:./lib/chibios/os/common/ports/ARMCMx/chcore_v7m.h ****  * @note    It is the alignment required for the stack pointer.
  53:./lib/chibios/os/common/ports/ARMCMx/chcore_v7m.h ****  */
  54:./lib/chibios/os/common/ports/ARMCMx/chcore_v7m.h **** #define PORT_STACK_ALIGN                sizeof (stkalign_t)
  55:./lib/chibios/os/common/ports/ARMCMx/chcore_v7m.h **** 
  56:./lib/chibios/os/common/ports/ARMCMx/chcore_v7m.h **** /**
  57:./lib/chibios/os/common/ports/ARMCMx/chcore_v7m.h ****  * @brief   Working Areas alignment constant.
  58:./lib/chibios/os/common/ports/ARMCMx/chcore_v7m.h ****  * @note    It is the alignment to be enforced for thread working areas.
  59:./lib/chibios/os/common/ports/ARMCMx/chcore_v7m.h ****  */
  60:./lib/chibios/os/common/ports/ARMCMx/chcore_v7m.h **** #define PORT_WORKING_AREA_ALIGN         ((PORT_ENABLE_GUARD_PAGES == TRUE) ?\
  61:./lib/chibios/os/common/ports/ARMCMx/chcore_v7m.h ****                                          32U : PORT_STACK_ALIGN)
  62:./lib/chibios/os/common/ports/ARMCMx/chcore_v7m.h **** /** @} */
  63:./lib/chibios/os/common/ports/ARMCMx/chcore_v7m.h **** 
  64:./lib/chibios/os/common/ports/ARMCMx/chcore_v7m.h **** /**
  65:./lib/chibios/os/common/ports/ARMCMx/chcore_v7m.h ****  * @brief   Disabled value for BASEPRI register.
  66:./lib/chibios/os/common/ports/ARMCMx/chcore_v7m.h ****  */
  67:./lib/chibios/os/common/ports/ARMCMx/chcore_v7m.h **** #define CORTEX_BASEPRI_DISABLED         0U
  68:./lib/chibios/os/common/ports/ARMCMx/chcore_v7m.h **** 
  69:./lib/chibios/os/common/ports/ARMCMx/chcore_v7m.h **** /*===========================================================================*/
  70:./lib/chibios/os/common/ports/ARMCMx/chcore_v7m.h **** /* Module pre-compile time settings.                                         */
  71:./lib/chibios/os/common/ports/ARMCMx/chcore_v7m.h **** /*===========================================================================*/
  72:./lib/chibios/os/common/ports/ARMCMx/chcore_v7m.h **** 
  73:./lib/chibios/os/common/ports/ARMCMx/chcore_v7m.h **** /**
  74:./lib/chibios/os/common/ports/ARMCMx/chcore_v7m.h ****  * @brief   Implements a syscall interface on SVC.
  75:./lib/chibios/os/common/ports/ARMCMx/chcore_v7m.h ****  */
  76:./lib/chibios/os/common/ports/ARMCMx/chcore_v7m.h **** #if !defined(PORT_USE_SYSCALL) || defined(__DOXYGEN__)
  77:./lib/chibios/os/common/ports/ARMCMx/chcore_v7m.h **** #define PORT_USE_SYSCALL                FALSE
  78:./lib/chibios/os/common/ports/ARMCMx/chcore_v7m.h **** #endif
  79:./lib/chibios/os/common/ports/ARMCMx/chcore_v7m.h **** 
  80:./lib/chibios/os/common/ports/ARMCMx/chcore_v7m.h **** /**
  81:./lib/chibios/os/common/ports/ARMCMx/chcore_v7m.h ****  * @brief   Number of MPU regions to be saved/restored during context switch.
  82:./lib/chibios/os/common/ports/ARMCMx/chcore_v7m.h ****  * @note    The first region is always region zero.
  83:./lib/chibios/os/common/ports/ARMCMx/chcore_v7m.h ****  * @note    The use of this option has an overhead of 8 bytes for each
  84:./lib/chibios/os/common/ports/ARMCMx/chcore_v7m.h ****  *          region for each thread.
  85:./lib/chibios/os/common/ports/ARMCMx/chcore_v7m.h ****  * @note    Allowed values are 0..4, zero means none.
  86:./lib/chibios/os/common/ports/ARMCMx/chcore_v7m.h ****  */
  87:./lib/chibios/os/common/ports/ARMCMx/chcore_v7m.h **** #if !defined(PORT_SWITCHED_REGIONS_NUMBER) || defined(__DOXYGEN__)
  88:./lib/chibios/os/common/ports/ARMCMx/chcore_v7m.h **** #define PORT_SWITCHED_REGIONS_NUMBER    0
  89:./lib/chibios/os/common/ports/ARMCMx/chcore_v7m.h **** #endif
  90:./lib/chibios/os/common/ports/ARMCMx/chcore_v7m.h **** 
  91:./lib/chibios/os/common/ports/ARMCMx/chcore_v7m.h **** /**
  92:./lib/chibios/os/common/ports/ARMCMx/chcore_v7m.h ****  * @brief   Enables stack overflow guard pages using MPU.
  93:./lib/chibios/os/common/ports/ARMCMx/chcore_v7m.h ****  * @note    This option can only be enabled if also option
  94:./lib/chibios/os/common/ports/ARMCMx/chcore_v7m.h ****  *          @p CH_DBG_ENABLE_STACK_CHECK is enabled.
  95:./lib/chibios/os/common/ports/ARMCMx/chcore_v7m.h ****  * @note    The use of this option has an overhead of 32 bytes for each
  96:./lib/chibios/os/common/ports/ARMCMx/chcore_v7m.h ****  *          thread.
  97:./lib/chibios/os/common/ports/ARMCMx/chcore_v7m.h ****  */
  98:./lib/chibios/os/common/ports/ARMCMx/chcore_v7m.h **** #if !defined(PORT_ENABLE_GUARD_PAGES) || defined(__DOXYGEN__)
  99:./lib/chibios/os/common/ports/ARMCMx/chcore_v7m.h **** #define PORT_ENABLE_GUARD_PAGES         FALSE
 100:./lib/chibios/os/common/ports/ARMCMx/chcore_v7m.h **** #endif
 101:./lib/chibios/os/common/ports/ARMCMx/chcore_v7m.h **** 
 102:./lib/chibios/os/common/ports/ARMCMx/chcore_v7m.h **** /**
 103:./lib/chibios/os/common/ports/ARMCMx/chcore_v7m.h ****  * @brief   MPU region to be used to stack guards.
 104:./lib/chibios/os/common/ports/ARMCMx/chcore_v7m.h ****  * @note    Make sure this region is not included in the
 105:./lib/chibios/os/common/ports/ARMCMx/chcore_v7m.h ****  *          @p PORT_SWITCHED_REGIONS_NUMBER regions range.
 106:./lib/chibios/os/common/ports/ARMCMx/chcore_v7m.h ****  */
 107:./lib/chibios/os/common/ports/ARMCMx/chcore_v7m.h **** #if !defined(PORT_USE_GUARD_MPU_REGION) || defined(__DOXYGEN__)
 108:./lib/chibios/os/common/ports/ARMCMx/chcore_v7m.h **** #define PORT_USE_GUARD_MPU_REGION       MPU_REGION_7
 109:./lib/chibios/os/common/ports/ARMCMx/chcore_v7m.h **** #endif
 110:./lib/chibios/os/common/ports/ARMCMx/chcore_v7m.h **** 
 111:./lib/chibios/os/common/ports/ARMCMx/chcore_v7m.h **** /**
 112:./lib/chibios/os/common/ports/ARMCMx/chcore_v7m.h ****  * @brief   Stack size for the system idle thread.
 113:./lib/chibios/os/common/ports/ARMCMx/chcore_v7m.h ****  * @details This size depends on the idle thread implementation, usually
 114:./lib/chibios/os/common/ports/ARMCMx/chcore_v7m.h ****  *          the idle thread should take no more space than those reserved
 115:./lib/chibios/os/common/ports/ARMCMx/chcore_v7m.h ****  *          by @p PORT_INT_REQUIRED_STACK.
 116:./lib/chibios/os/common/ports/ARMCMx/chcore_v7m.h ****  * @note    In this port it is set to 16 because the idle thread does have
 117:./lib/chibios/os/common/ports/ARMCMx/chcore_v7m.h ****  *          a stack frame when compiling without optimizations. You may
 118:./lib/chibios/os/common/ports/ARMCMx/chcore_v7m.h ****  *          reduce this value to zero when compiling with optimizations.
 119:./lib/chibios/os/common/ports/ARMCMx/chcore_v7m.h ****  */
 120:./lib/chibios/os/common/ports/ARMCMx/chcore_v7m.h **** #if !defined(PORT_IDLE_THREAD_STACK_SIZE) || defined(__DOXYGEN__)
 121:./lib/chibios/os/common/ports/ARMCMx/chcore_v7m.h **** #define PORT_IDLE_THREAD_STACK_SIZE     16
 122:./lib/chibios/os/common/ports/ARMCMx/chcore_v7m.h **** #endif
 123:./lib/chibios/os/common/ports/ARMCMx/chcore_v7m.h **** 
 124:./lib/chibios/os/common/ports/ARMCMx/chcore_v7m.h **** /**
 125:./lib/chibios/os/common/ports/ARMCMx/chcore_v7m.h ****  * @brief   Per-thread stack overhead for interrupts servicing.
 126:./lib/chibios/os/common/ports/ARMCMx/chcore_v7m.h ****  * @details This constant is used in the calculation of the correct working
 127:./lib/chibios/os/common/ports/ARMCMx/chcore_v7m.h ****  *          area size.
 128:./lib/chibios/os/common/ports/ARMCMx/chcore_v7m.h ****  * @note    In this port this value is conservatively set to 64 because the
 129:./lib/chibios/os/common/ports/ARMCMx/chcore_v7m.h ****  *          function @p chSchDoReschedule() can have a stack frame, especially
 130:./lib/chibios/os/common/ports/ARMCMx/chcore_v7m.h ****  *          with compiler optimizations disabled. The value can be reduced
 131:./lib/chibios/os/common/ports/ARMCMx/chcore_v7m.h ****  *          when compiler optimizations are enabled.
 132:./lib/chibios/os/common/ports/ARMCMx/chcore_v7m.h ****  */
 133:./lib/chibios/os/common/ports/ARMCMx/chcore_v7m.h **** #if !defined(PORT_INT_REQUIRED_STACK) || defined(__DOXYGEN__)
 134:./lib/chibios/os/common/ports/ARMCMx/chcore_v7m.h **** #define PORT_INT_REQUIRED_STACK         64
 135:./lib/chibios/os/common/ports/ARMCMx/chcore_v7m.h **** #endif
 136:./lib/chibios/os/common/ports/ARMCMx/chcore_v7m.h **** 
 137:./lib/chibios/os/common/ports/ARMCMx/chcore_v7m.h **** /**
 138:./lib/chibios/os/common/ports/ARMCMx/chcore_v7m.h ****  * @brief   Enables the use of the WFI instruction in the idle thread loop.
 139:./lib/chibios/os/common/ports/ARMCMx/chcore_v7m.h ****  */
 140:./lib/chibios/os/common/ports/ARMCMx/chcore_v7m.h **** #if !defined(CORTEX_ENABLE_WFI_IDLE)
 141:./lib/chibios/os/common/ports/ARMCMx/chcore_v7m.h **** #define CORTEX_ENABLE_WFI_IDLE          FALSE
 142:./lib/chibios/os/common/ports/ARMCMx/chcore_v7m.h **** #endif
 143:./lib/chibios/os/common/ports/ARMCMx/chcore_v7m.h **** 
 144:./lib/chibios/os/common/ports/ARMCMx/chcore_v7m.h **** /**
 145:./lib/chibios/os/common/ports/ARMCMx/chcore_v7m.h ****  * @brief   FPU support in context switch.
 146:./lib/chibios/os/common/ports/ARMCMx/chcore_v7m.h ****  * @details Activating this option activates the FPU support in the kernel.
 147:./lib/chibios/os/common/ports/ARMCMx/chcore_v7m.h ****  */
 148:./lib/chibios/os/common/ports/ARMCMx/chcore_v7m.h **** #if !defined(CORTEX_USE_FPU)
 149:./lib/chibios/os/common/ports/ARMCMx/chcore_v7m.h **** #define CORTEX_USE_FPU                  CORTEX_HAS_FPU
 150:./lib/chibios/os/common/ports/ARMCMx/chcore_v7m.h **** #elif (CORTEX_USE_FPU == TRUE) && (CORTEX_HAS_FPU == FALSE)
 151:./lib/chibios/os/common/ports/ARMCMx/chcore_v7m.h **** /* This setting requires an FPU presence check in case it is externally
 152:./lib/chibios/os/common/ports/ARMCMx/chcore_v7m.h ****    redefined.*/
 153:./lib/chibios/os/common/ports/ARMCMx/chcore_v7m.h **** #error "the selected core does not have an FPU"
 154:./lib/chibios/os/common/ports/ARMCMx/chcore_v7m.h **** #endif
 155:./lib/chibios/os/common/ports/ARMCMx/chcore_v7m.h **** 
 156:./lib/chibios/os/common/ports/ARMCMx/chcore_v7m.h **** /**
 157:./lib/chibios/os/common/ports/ARMCMx/chcore_v7m.h ****  * @brief   Simplified priority handling flag.
 158:./lib/chibios/os/common/ports/ARMCMx/chcore_v7m.h ****  * @details Activating this option makes the Kernel work in compact mode.
 159:./lib/chibios/os/common/ports/ARMCMx/chcore_v7m.h ****  *          In compact mode interrupts are disabled globally instead of
 160:./lib/chibios/os/common/ports/ARMCMx/chcore_v7m.h ****  *          raising the priority mask to some intermediate level.
 161:./lib/chibios/os/common/ports/ARMCMx/chcore_v7m.h ****  */
 162:./lib/chibios/os/common/ports/ARMCMx/chcore_v7m.h **** #if !defined(CORTEX_SIMPLIFIED_PRIORITY)
 163:./lib/chibios/os/common/ports/ARMCMx/chcore_v7m.h **** #define CORTEX_SIMPLIFIED_PRIORITY      FALSE
 164:./lib/chibios/os/common/ports/ARMCMx/chcore_v7m.h **** #endif
 165:./lib/chibios/os/common/ports/ARMCMx/chcore_v7m.h **** 
 166:./lib/chibios/os/common/ports/ARMCMx/chcore_v7m.h **** /**
 167:./lib/chibios/os/common/ports/ARMCMx/chcore_v7m.h ****  * @brief   SVCALL handler priority.
 168:./lib/chibios/os/common/ports/ARMCMx/chcore_v7m.h ****  * @note    The default SVCALL handler priority is defaulted to
 169:./lib/chibios/os/common/ports/ARMCMx/chcore_v7m.h ****  *          @p CORTEX_MAXIMUM_PRIORITY+1, this reserves the
 170:./lib/chibios/os/common/ports/ARMCMx/chcore_v7m.h ****  *          @p CORTEX_MAXIMUM_PRIORITY priority level as fast interrupts
 171:./lib/chibios/os/common/ports/ARMCMx/chcore_v7m.h ****  *          priority level.
 172:./lib/chibios/os/common/ports/ARMCMx/chcore_v7m.h ****  */
 173:./lib/chibios/os/common/ports/ARMCMx/chcore_v7m.h **** #if !defined(CORTEX_PRIORITY_SVCALL)
 174:./lib/chibios/os/common/ports/ARMCMx/chcore_v7m.h **** #define CORTEX_PRIORITY_SVCALL          (CORTEX_MAXIMUM_PRIORITY + 1U)
 175:./lib/chibios/os/common/ports/ARMCMx/chcore_v7m.h **** #elif !PORT_IRQ_IS_VALID_PRIORITY(CORTEX_PRIORITY_SVCALL)
 176:./lib/chibios/os/common/ports/ARMCMx/chcore_v7m.h **** /* If it is externally redefined then better perform a validity check on it.*/
 177:./lib/chibios/os/common/ports/ARMCMx/chcore_v7m.h **** #error "invalid priority level specified for CORTEX_PRIORITY_SVCALL"
 178:./lib/chibios/os/common/ports/ARMCMx/chcore_v7m.h **** #endif
 179:./lib/chibios/os/common/ports/ARMCMx/chcore_v7m.h **** 
 180:./lib/chibios/os/common/ports/ARMCMx/chcore_v7m.h **** /**
 181:./lib/chibios/os/common/ports/ARMCMx/chcore_v7m.h ****  * @brief   NVIC PRIGROUP initialization expression.
 182:./lib/chibios/os/common/ports/ARMCMx/chcore_v7m.h ****  * @details The default assigns all available priority bits as preemption
 183:./lib/chibios/os/common/ports/ARMCMx/chcore_v7m.h ****  *          priority with no sub-priority.
 184:./lib/chibios/os/common/ports/ARMCMx/chcore_v7m.h ****  */
 185:./lib/chibios/os/common/ports/ARMCMx/chcore_v7m.h **** #if !defined(CORTEX_PRIGROUP_INIT) || defined(__DOXYGEN__)
 186:./lib/chibios/os/common/ports/ARMCMx/chcore_v7m.h **** #define CORTEX_PRIGROUP_INIT            (7 - CORTEX_PRIORITY_BITS)
 187:./lib/chibios/os/common/ports/ARMCMx/chcore_v7m.h **** #endif
 188:./lib/chibios/os/common/ports/ARMCMx/chcore_v7m.h **** 
 189:./lib/chibios/os/common/ports/ARMCMx/chcore_v7m.h **** /*===========================================================================*/
 190:./lib/chibios/os/common/ports/ARMCMx/chcore_v7m.h **** /* Derived constants and error checks.                                       */
 191:./lib/chibios/os/common/ports/ARMCMx/chcore_v7m.h **** /*===========================================================================*/
 192:./lib/chibios/os/common/ports/ARMCMx/chcore_v7m.h **** 
 193:./lib/chibios/os/common/ports/ARMCMx/chcore_v7m.h **** #if (PORT_SWITCHED_REGIONS_NUMBER < 0) || (PORT_SWITCHED_REGIONS_NUMBER > 4)
 194:./lib/chibios/os/common/ports/ARMCMx/chcore_v7m.h **** #error "invalid PORT_SWITCHED_REGIONS_NUMBER value"
 195:./lib/chibios/os/common/ports/ARMCMx/chcore_v7m.h **** #endif
 196:./lib/chibios/os/common/ports/ARMCMx/chcore_v7m.h **** 
 197:./lib/chibios/os/common/ports/ARMCMx/chcore_v7m.h **** #if !defined(_FROM_ASM_)
 198:./lib/chibios/os/common/ports/ARMCMx/chcore_v7m.h **** /**
 199:./lib/chibios/os/common/ports/ARMCMx/chcore_v7m.h ****  * @brief   MPU guard page size.
 200:./lib/chibios/os/common/ports/ARMCMx/chcore_v7m.h ****  */
 201:./lib/chibios/os/common/ports/ARMCMx/chcore_v7m.h **** #if (PORT_ENABLE_GUARD_PAGES == TRUE) || defined(__DOXYGEN__)
 202:./lib/chibios/os/common/ports/ARMCMx/chcore_v7m.h ****   #if CH_DBG_ENABLE_STACK_CHECK == FALSE
 203:./lib/chibios/os/common/ports/ARMCMx/chcore_v7m.h ****     #error "PORT_ENABLE_GUARD_PAGES requires CH_DBG_ENABLE_STACK_CHECK"
 204:./lib/chibios/os/common/ports/ARMCMx/chcore_v7m.h ****   #endif
 205:./lib/chibios/os/common/ports/ARMCMx/chcore_v7m.h ****   #if __MPU_PRESENT == 0
 206:./lib/chibios/os/common/ports/ARMCMx/chcore_v7m.h ****     #error "MPU not present in current device"
 207:./lib/chibios/os/common/ports/ARMCMx/chcore_v7m.h ****   #endif
 208:./lib/chibios/os/common/ports/ARMCMx/chcore_v7m.h ****   #define PORT_GUARD_PAGE_SIZE          32U
 209:./lib/chibios/os/common/ports/ARMCMx/chcore_v7m.h **** #else
 210:./lib/chibios/os/common/ports/ARMCMx/chcore_v7m.h ****   #define PORT_GUARD_PAGE_SIZE          0U
 211:./lib/chibios/os/common/ports/ARMCMx/chcore_v7m.h **** #endif
 212:./lib/chibios/os/common/ports/ARMCMx/chcore_v7m.h **** #endif /* !defined(_FROM_ASM_) */
 213:./lib/chibios/os/common/ports/ARMCMx/chcore_v7m.h **** 
 214:./lib/chibios/os/common/ports/ARMCMx/chcore_v7m.h **** /**
 215:./lib/chibios/os/common/ports/ARMCMx/chcore_v7m.h ****  * @name    Architecture and Compiler
 216:./lib/chibios/os/common/ports/ARMCMx/chcore_v7m.h ****  * @{
 217:./lib/chibios/os/common/ports/ARMCMx/chcore_v7m.h ****  */
 218:./lib/chibios/os/common/ports/ARMCMx/chcore_v7m.h **** #if (CORTEX_MODEL == 3) || defined(__DOXYGEN__)
 219:./lib/chibios/os/common/ports/ARMCMx/chcore_v7m.h **** 
 220:./lib/chibios/os/common/ports/ARMCMx/chcore_v7m.h ****   #if !defined(CH_CUSTOMER_LIC_PORT_CM3)
 221:./lib/chibios/os/common/ports/ARMCMx/chcore_v7m.h ****     #error "CH_CUSTOMER_LIC_PORT_CM3 not defined"
 222:./lib/chibios/os/common/ports/ARMCMx/chcore_v7m.h ****   #endif
 223:./lib/chibios/os/common/ports/ARMCMx/chcore_v7m.h **** 
 224:./lib/chibios/os/common/ports/ARMCMx/chcore_v7m.h ****   #if CH_CUSTOMER_LIC_PORT_CM3 == FALSE
 225:./lib/chibios/os/common/ports/ARMCMx/chcore_v7m.h ****     #error "ChibiOS Cortex-M3 port not licensed"
 226:./lib/chibios/os/common/ports/ARMCMx/chcore_v7m.h ****   #endif
 227:./lib/chibios/os/common/ports/ARMCMx/chcore_v7m.h **** 
 228:./lib/chibios/os/common/ports/ARMCMx/chcore_v7m.h **** /**
 229:./lib/chibios/os/common/ports/ARMCMx/chcore_v7m.h ****  * @brief   Macro defining the specific ARM architecture.
 230:./lib/chibios/os/common/ports/ARMCMx/chcore_v7m.h ****  */
 231:./lib/chibios/os/common/ports/ARMCMx/chcore_v7m.h **** #define PORT_ARCHITECTURE_ARM_v7M
 232:./lib/chibios/os/common/ports/ARMCMx/chcore_v7m.h **** 
 233:./lib/chibios/os/common/ports/ARMCMx/chcore_v7m.h **** /**
 234:./lib/chibios/os/common/ports/ARMCMx/chcore_v7m.h ****  * @brief   Name of the implemented architecture.
 235:./lib/chibios/os/common/ports/ARMCMx/chcore_v7m.h ****  */
 236:./lib/chibios/os/common/ports/ARMCMx/chcore_v7m.h **** #define PORT_ARCHITECTURE_NAME          "ARMv7-M"
 237:./lib/chibios/os/common/ports/ARMCMx/chcore_v7m.h **** 
 238:./lib/chibios/os/common/ports/ARMCMx/chcore_v7m.h **** /**
 239:./lib/chibios/os/common/ports/ARMCMx/chcore_v7m.h ****  * @brief   Name of the architecture variant.
 240:./lib/chibios/os/common/ports/ARMCMx/chcore_v7m.h ****  */
 241:./lib/chibios/os/common/ports/ARMCMx/chcore_v7m.h **** #if (PORT_ENABLE_GUARD_PAGES == FALSE) || defined(__DOXYGEN__)
 242:./lib/chibios/os/common/ports/ARMCMx/chcore_v7m.h ****   #define PORT_CORE_VARIANT_NAME        "Cortex-M3"
 243:./lib/chibios/os/common/ports/ARMCMx/chcore_v7m.h **** #else
 244:./lib/chibios/os/common/ports/ARMCMx/chcore_v7m.h ****   #define PORT_CORE_VARIANT_NAME        "Cortex-M3 (MPU)"
 245:./lib/chibios/os/common/ports/ARMCMx/chcore_v7m.h **** #endif
 246:./lib/chibios/os/common/ports/ARMCMx/chcore_v7m.h **** 
 247:./lib/chibios/os/common/ports/ARMCMx/chcore_v7m.h **** #elif (CORTEX_MODEL == 4)
 248:./lib/chibios/os/common/ports/ARMCMx/chcore_v7m.h **** 
 249:./lib/chibios/os/common/ports/ARMCMx/chcore_v7m.h ****   #if !defined(CH_CUSTOMER_LIC_PORT_CM4)
 250:./lib/chibios/os/common/ports/ARMCMx/chcore_v7m.h ****     #error "CH_CUSTOMER_LIC_PORT_CM4 not defined"
 251:./lib/chibios/os/common/ports/ARMCMx/chcore_v7m.h ****   #endif
 252:./lib/chibios/os/common/ports/ARMCMx/chcore_v7m.h **** 
 253:./lib/chibios/os/common/ports/ARMCMx/chcore_v7m.h ****   #if CH_CUSTOMER_LIC_PORT_CM4 == FALSE
 254:./lib/chibios/os/common/ports/ARMCMx/chcore_v7m.h ****   #error "ChibiOS Cortex-M4 port not licensed"
 255:./lib/chibios/os/common/ports/ARMCMx/chcore_v7m.h ****   #endif
 256:./lib/chibios/os/common/ports/ARMCMx/chcore_v7m.h **** 
 257:./lib/chibios/os/common/ports/ARMCMx/chcore_v7m.h ****   #define PORT_ARCHITECTURE_ARM_v7ME
 258:./lib/chibios/os/common/ports/ARMCMx/chcore_v7m.h ****   #define PORT_ARCHITECTURE_NAME        "ARMv7E-M"
 259:./lib/chibios/os/common/ports/ARMCMx/chcore_v7m.h ****   #if CORTEX_USE_FPU
 260:./lib/chibios/os/common/ports/ARMCMx/chcore_v7m.h ****     #if PORT_ENABLE_GUARD_PAGES == FALSE
 261:./lib/chibios/os/common/ports/ARMCMx/chcore_v7m.h ****       #define PORT_CORE_VARIANT_NAME    "Cortex-M4F"
 262:./lib/chibios/os/common/ports/ARMCMx/chcore_v7m.h ****     #else
 263:./lib/chibios/os/common/ports/ARMCMx/chcore_v7m.h ****       #define PORT_CORE_VARIANT_NAME    "Cortex-M4F (MPU)"
 264:./lib/chibios/os/common/ports/ARMCMx/chcore_v7m.h ****     #endif
 265:./lib/chibios/os/common/ports/ARMCMx/chcore_v7m.h ****   #else
 266:./lib/chibios/os/common/ports/ARMCMx/chcore_v7m.h ****     #if PORT_ENABLE_GUARD_PAGES == FALSE
 267:./lib/chibios/os/common/ports/ARMCMx/chcore_v7m.h ****       #define PORT_CORE_VARIANT_NAME    "Cortex-M4"
 268:./lib/chibios/os/common/ports/ARMCMx/chcore_v7m.h ****     #else
 269:./lib/chibios/os/common/ports/ARMCMx/chcore_v7m.h ****       #define PORT_CORE_VARIANT_NAME    "Cortex-M4 (MPU)"
 270:./lib/chibios/os/common/ports/ARMCMx/chcore_v7m.h ****     #endif
 271:./lib/chibios/os/common/ports/ARMCMx/chcore_v7m.h ****   #endif
 272:./lib/chibios/os/common/ports/ARMCMx/chcore_v7m.h **** 
 273:./lib/chibios/os/common/ports/ARMCMx/chcore_v7m.h **** #elif (CORTEX_MODEL == 7)
 274:./lib/chibios/os/common/ports/ARMCMx/chcore_v7m.h **** 
 275:./lib/chibios/os/common/ports/ARMCMx/chcore_v7m.h ****   #if !defined(CH_CUSTOMER_LIC_PORT_CM7)
 276:./lib/chibios/os/common/ports/ARMCMx/chcore_v7m.h ****     #error "CH_CUSTOMER_LIC_PORT_CM7 not defined"
 277:./lib/chibios/os/common/ports/ARMCMx/chcore_v7m.h ****   #endif
 278:./lib/chibios/os/common/ports/ARMCMx/chcore_v7m.h **** 
 279:./lib/chibios/os/common/ports/ARMCMx/chcore_v7m.h ****   #if CH_CUSTOMER_LIC_PORT_CM7 == FALSE
 280:./lib/chibios/os/common/ports/ARMCMx/chcore_v7m.h ****     #error "ChibiOS Cortex-M7 port not licensed"
 281:./lib/chibios/os/common/ports/ARMCMx/chcore_v7m.h ****   #endif
 282:./lib/chibios/os/common/ports/ARMCMx/chcore_v7m.h **** 
 283:./lib/chibios/os/common/ports/ARMCMx/chcore_v7m.h **** #define PORT_ARCHITECTURE_ARM_v7ME
 284:./lib/chibios/os/common/ports/ARMCMx/chcore_v7m.h ****   #define PORT_ARCHITECTURE_NAME        "ARMv7E-M"
 285:./lib/chibios/os/common/ports/ARMCMx/chcore_v7m.h ****   #if CORTEX_USE_FPU
 286:./lib/chibios/os/common/ports/ARMCMx/chcore_v7m.h ****     #if PORT_ENABLE_GUARD_PAGES == FALSE
 287:./lib/chibios/os/common/ports/ARMCMx/chcore_v7m.h ****       #define PORT_CORE_VARIANT_NAME    "Cortex-M7F"
 288:./lib/chibios/os/common/ports/ARMCMx/chcore_v7m.h ****     #else
 289:./lib/chibios/os/common/ports/ARMCMx/chcore_v7m.h ****       #define PORT_CORE_VARIANT_NAME    "Cortex-M7F (MPU)"
 290:./lib/chibios/os/common/ports/ARMCMx/chcore_v7m.h ****     #endif
 291:./lib/chibios/os/common/ports/ARMCMx/chcore_v7m.h ****   #else
 292:./lib/chibios/os/common/ports/ARMCMx/chcore_v7m.h ****     #if PORT_ENABLE_GUARD_PAGES == FALSE
 293:./lib/chibios/os/common/ports/ARMCMx/chcore_v7m.h ****       #define PORT_CORE_VARIANT_NAME    "Cortex-M7"
 294:./lib/chibios/os/common/ports/ARMCMx/chcore_v7m.h ****     #else
 295:./lib/chibios/os/common/ports/ARMCMx/chcore_v7m.h ****       #define PORT_CORE_VARIANT_NAME    "Cortex-M7 (MPU)"
 296:./lib/chibios/os/common/ports/ARMCMx/chcore_v7m.h ****     #endif
 297:./lib/chibios/os/common/ports/ARMCMx/chcore_v7m.h ****   #endif
 298:./lib/chibios/os/common/ports/ARMCMx/chcore_v7m.h **** #endif
 299:./lib/chibios/os/common/ports/ARMCMx/chcore_v7m.h **** 
 300:./lib/chibios/os/common/ports/ARMCMx/chcore_v7m.h **** /**
 301:./lib/chibios/os/common/ports/ARMCMx/chcore_v7m.h ****  * @brief   Port-specific information string.
 302:./lib/chibios/os/common/ports/ARMCMx/chcore_v7m.h ****  */
 303:./lib/chibios/os/common/ports/ARMCMx/chcore_v7m.h **** #if (CORTEX_SIMPLIFIED_PRIORITY == FALSE) || defined(__DOXYGEN__)
 304:./lib/chibios/os/common/ports/ARMCMx/chcore_v7m.h **** #define PORT_INFO                       "Advanced kernel mode"
 305:./lib/chibios/os/common/ports/ARMCMx/chcore_v7m.h **** #else
 306:./lib/chibios/os/common/ports/ARMCMx/chcore_v7m.h **** #define PORT_INFO                       "Compact kernel mode"
 307:./lib/chibios/os/common/ports/ARMCMx/chcore_v7m.h **** #endif
 308:./lib/chibios/os/common/ports/ARMCMx/chcore_v7m.h **** /** @} */
 309:./lib/chibios/os/common/ports/ARMCMx/chcore_v7m.h **** 
 310:./lib/chibios/os/common/ports/ARMCMx/chcore_v7m.h **** #if (CORTEX_SIMPLIFIED_PRIORITY == FALSE) || defined(__DOXYGEN__)
 311:./lib/chibios/os/common/ports/ARMCMx/chcore_v7m.h **** /**
 312:./lib/chibios/os/common/ports/ARMCMx/chcore_v7m.h ****  * @brief   Maximum usable priority for normal ISRs.
 313:./lib/chibios/os/common/ports/ARMCMx/chcore_v7m.h ****  */
 314:./lib/chibios/os/common/ports/ARMCMx/chcore_v7m.h **** #define CORTEX_MAX_KERNEL_PRIORITY      (CORTEX_PRIORITY_SVCALL + 1U)
 315:./lib/chibios/os/common/ports/ARMCMx/chcore_v7m.h **** 
 316:./lib/chibios/os/common/ports/ARMCMx/chcore_v7m.h **** /**
 317:./lib/chibios/os/common/ports/ARMCMx/chcore_v7m.h ****  * @brief   BASEPRI level within kernel lock.
 318:./lib/chibios/os/common/ports/ARMCMx/chcore_v7m.h ****  */
 319:./lib/chibios/os/common/ports/ARMCMx/chcore_v7m.h **** #define CORTEX_BASEPRI_KERNEL                                               \
 320:./lib/chibios/os/common/ports/ARMCMx/chcore_v7m.h ****   CORTEX_PRIO_MASK(CORTEX_MAX_KERNEL_PRIORITY)
 321:./lib/chibios/os/common/ports/ARMCMx/chcore_v7m.h **** #else
 322:./lib/chibios/os/common/ports/ARMCMx/chcore_v7m.h **** 
 323:./lib/chibios/os/common/ports/ARMCMx/chcore_v7m.h **** #define CORTEX_MAX_KERNEL_PRIORITY      0U
 324:./lib/chibios/os/common/ports/ARMCMx/chcore_v7m.h **** #endif
 325:./lib/chibios/os/common/ports/ARMCMx/chcore_v7m.h **** 
 326:./lib/chibios/os/common/ports/ARMCMx/chcore_v7m.h **** /**
 327:./lib/chibios/os/common/ports/ARMCMx/chcore_v7m.h ****  * @brief   PendSV priority level.
 328:./lib/chibios/os/common/ports/ARMCMx/chcore_v7m.h ****  * @note    This priority is enforced to be equal to
 329:./lib/chibios/os/common/ports/ARMCMx/chcore_v7m.h ****  *          @p CORTEX_MAX_KERNEL_PRIORITY, this handler always have the
 330:./lib/chibios/os/common/ports/ARMCMx/chcore_v7m.h ****  *          highest priority that cannot preempt the kernel.
 331:./lib/chibios/os/common/ports/ARMCMx/chcore_v7m.h ****  */
 332:./lib/chibios/os/common/ports/ARMCMx/chcore_v7m.h **** #define CORTEX_PRIORITY_PENDSV          CORTEX_MAX_KERNEL_PRIORITY
 333:./lib/chibios/os/common/ports/ARMCMx/chcore_v7m.h **** 
 334:./lib/chibios/os/common/ports/ARMCMx/chcore_v7m.h **** /*===========================================================================*/
 335:./lib/chibios/os/common/ports/ARMCMx/chcore_v7m.h **** /* Module data structures and types.                                         */
 336:./lib/chibios/os/common/ports/ARMCMx/chcore_v7m.h **** /*===========================================================================*/
 337:./lib/chibios/os/common/ports/ARMCMx/chcore_v7m.h **** 
 338:./lib/chibios/os/common/ports/ARMCMx/chcore_v7m.h **** /* The following code is not processed when the file is included from an
 339:./lib/chibios/os/common/ports/ARMCMx/chcore_v7m.h ****    asm module.*/
 340:./lib/chibios/os/common/ports/ARMCMx/chcore_v7m.h **** #if !defined(_FROM_ASM_)
 341:./lib/chibios/os/common/ports/ARMCMx/chcore_v7m.h **** 
 342:./lib/chibios/os/common/ports/ARMCMx/chcore_v7m.h **** /* The documentation of the following declarations is in chconf.h in order
 343:./lib/chibios/os/common/ports/ARMCMx/chcore_v7m.h ****    to not have duplicated structure names into the documentation.*/
 344:./lib/chibios/os/common/ports/ARMCMx/chcore_v7m.h **** #if !defined(__DOXYGEN__)
 345:./lib/chibios/os/common/ports/ARMCMx/chcore_v7m.h **** struct port_extctx {
 346:./lib/chibios/os/common/ports/ARMCMx/chcore_v7m.h ****   uint32_t      r0;
 347:./lib/chibios/os/common/ports/ARMCMx/chcore_v7m.h ****   uint32_t      r1;
 348:./lib/chibios/os/common/ports/ARMCMx/chcore_v7m.h ****   uint32_t      r2;
 349:./lib/chibios/os/common/ports/ARMCMx/chcore_v7m.h ****   uint32_t      r3;
 350:./lib/chibios/os/common/ports/ARMCMx/chcore_v7m.h ****   uint32_t      r12;
 351:./lib/chibios/os/common/ports/ARMCMx/chcore_v7m.h ****   uint32_t      lr_thd;
 352:./lib/chibios/os/common/ports/ARMCMx/chcore_v7m.h ****   uint32_t      pc;
 353:./lib/chibios/os/common/ports/ARMCMx/chcore_v7m.h ****   uint32_t      xpsr;
 354:./lib/chibios/os/common/ports/ARMCMx/chcore_v7m.h **** #if CORTEX_USE_FPU
 355:./lib/chibios/os/common/ports/ARMCMx/chcore_v7m.h ****   uint32_t      s0;
 356:./lib/chibios/os/common/ports/ARMCMx/chcore_v7m.h ****   uint32_t      s1;
 357:./lib/chibios/os/common/ports/ARMCMx/chcore_v7m.h ****   uint32_t      s2;
 358:./lib/chibios/os/common/ports/ARMCMx/chcore_v7m.h ****   uint32_t      s3;
 359:./lib/chibios/os/common/ports/ARMCMx/chcore_v7m.h ****   uint32_t      s4;
 360:./lib/chibios/os/common/ports/ARMCMx/chcore_v7m.h ****   uint32_t      s5;
 361:./lib/chibios/os/common/ports/ARMCMx/chcore_v7m.h ****   uint32_t      s6;
 362:./lib/chibios/os/common/ports/ARMCMx/chcore_v7m.h ****   uint32_t      s7;
 363:./lib/chibios/os/common/ports/ARMCMx/chcore_v7m.h ****   uint32_t      s8;
 364:./lib/chibios/os/common/ports/ARMCMx/chcore_v7m.h ****   uint32_t      s9;
 365:./lib/chibios/os/common/ports/ARMCMx/chcore_v7m.h ****   uint32_t      s10;
 366:./lib/chibios/os/common/ports/ARMCMx/chcore_v7m.h ****   uint32_t      s11;
 367:./lib/chibios/os/common/ports/ARMCMx/chcore_v7m.h ****   uint32_t      s12;
 368:./lib/chibios/os/common/ports/ARMCMx/chcore_v7m.h ****   uint32_t      s13;
 369:./lib/chibios/os/common/ports/ARMCMx/chcore_v7m.h ****   uint32_t      s14;
 370:./lib/chibios/os/common/ports/ARMCMx/chcore_v7m.h ****   uint32_t      s15;
 371:./lib/chibios/os/common/ports/ARMCMx/chcore_v7m.h ****   uint32_t      fpscr;
 372:./lib/chibios/os/common/ports/ARMCMx/chcore_v7m.h ****   uint32_t      reserved;
 373:./lib/chibios/os/common/ports/ARMCMx/chcore_v7m.h **** #endif /* CORTEX_USE_FPU */
 374:./lib/chibios/os/common/ports/ARMCMx/chcore_v7m.h **** };
 375:./lib/chibios/os/common/ports/ARMCMx/chcore_v7m.h **** 
 376:./lib/chibios/os/common/ports/ARMCMx/chcore_v7m.h **** #if (PORT_USE_SYSCALL == TRUE) || defined(__DOXYGEN__)
 377:./lib/chibios/os/common/ports/ARMCMx/chcore_v7m.h **** /**
 378:./lib/chibios/os/common/ports/ARMCMx/chcore_v7m.h ****  * @brief   Link context structure.
 379:./lib/chibios/os/common/ports/ARMCMx/chcore_v7m.h ****  * @details This structure is used when there is the need to save extra
 380:./lib/chibios/os/common/ports/ARMCMx/chcore_v7m.h ****  *          context information that is not part of the registers stacked
 381:./lib/chibios/os/common/ports/ARMCMx/chcore_v7m.h ****  *          in HW.
 382:./lib/chibios/os/common/ports/ARMCMx/chcore_v7m.h ****  */
 383:./lib/chibios/os/common/ports/ARMCMx/chcore_v7m.h **** struct port_linkctx {
 384:./lib/chibios/os/common/ports/ARMCMx/chcore_v7m.h ****   uint32_t              control;
 385:./lib/chibios/os/common/ports/ARMCMx/chcore_v7m.h ****   struct port_extctx    *ectxp;
 386:./lib/chibios/os/common/ports/ARMCMx/chcore_v7m.h **** };
 387:./lib/chibios/os/common/ports/ARMCMx/chcore_v7m.h **** #endif
 388:./lib/chibios/os/common/ports/ARMCMx/chcore_v7m.h **** 
 389:./lib/chibios/os/common/ports/ARMCMx/chcore_v7m.h **** struct port_intctx {
 390:./lib/chibios/os/common/ports/ARMCMx/chcore_v7m.h **** #if (PORT_SWITCHED_REGIONS_NUMBER > 0) || defined(__DOXYGEN__)
 391:./lib/chibios/os/common/ports/ARMCMx/chcore_v7m.h ****   struct {
 392:./lib/chibios/os/common/ports/ARMCMx/chcore_v7m.h ****     uint32_t    rbar;
 393:./lib/chibios/os/common/ports/ARMCMx/chcore_v7m.h ****     uint32_t    rasr;
 394:./lib/chibios/os/common/ports/ARMCMx/chcore_v7m.h ****   } regions[PORT_SWITCHED_REGIONS_NUMBER];
 395:./lib/chibios/os/common/ports/ARMCMx/chcore_v7m.h **** #endif
 396:./lib/chibios/os/common/ports/ARMCMx/chcore_v7m.h **** #if CORTEX_USE_FPU
 397:./lib/chibios/os/common/ports/ARMCMx/chcore_v7m.h ****   uint32_t      s16;
 398:./lib/chibios/os/common/ports/ARMCMx/chcore_v7m.h ****   uint32_t      s17;
 399:./lib/chibios/os/common/ports/ARMCMx/chcore_v7m.h ****   uint32_t      s18;
 400:./lib/chibios/os/common/ports/ARMCMx/chcore_v7m.h ****   uint32_t      s19;
 401:./lib/chibios/os/common/ports/ARMCMx/chcore_v7m.h ****   uint32_t      s20;
 402:./lib/chibios/os/common/ports/ARMCMx/chcore_v7m.h ****   uint32_t      s21;
 403:./lib/chibios/os/common/ports/ARMCMx/chcore_v7m.h ****   uint32_t      s22;
 404:./lib/chibios/os/common/ports/ARMCMx/chcore_v7m.h ****   uint32_t      s23;
 405:./lib/chibios/os/common/ports/ARMCMx/chcore_v7m.h ****   uint32_t      s24;
 406:./lib/chibios/os/common/ports/ARMCMx/chcore_v7m.h ****   uint32_t      s25;
 407:./lib/chibios/os/common/ports/ARMCMx/chcore_v7m.h ****   uint32_t      s26;
 408:./lib/chibios/os/common/ports/ARMCMx/chcore_v7m.h ****   uint32_t      s27;
 409:./lib/chibios/os/common/ports/ARMCMx/chcore_v7m.h ****   uint32_t      s28;
 410:./lib/chibios/os/common/ports/ARMCMx/chcore_v7m.h ****   uint32_t      s29;
 411:./lib/chibios/os/common/ports/ARMCMx/chcore_v7m.h ****   uint32_t      s30;
 412:./lib/chibios/os/common/ports/ARMCMx/chcore_v7m.h ****   uint32_t      s31;
 413:./lib/chibios/os/common/ports/ARMCMx/chcore_v7m.h **** #endif /* CORTEX_USE_FPU */
 414:./lib/chibios/os/common/ports/ARMCMx/chcore_v7m.h ****   uint32_t      r4;
 415:./lib/chibios/os/common/ports/ARMCMx/chcore_v7m.h ****   uint32_t      r5;
 416:./lib/chibios/os/common/ports/ARMCMx/chcore_v7m.h ****   uint32_t      r6;
 417:./lib/chibios/os/common/ports/ARMCMx/chcore_v7m.h ****   uint32_t      r7;
 418:./lib/chibios/os/common/ports/ARMCMx/chcore_v7m.h ****   uint32_t      r8;
 419:./lib/chibios/os/common/ports/ARMCMx/chcore_v7m.h ****   uint32_t      r9;
 420:./lib/chibios/os/common/ports/ARMCMx/chcore_v7m.h ****   uint32_t      r10;
 421:./lib/chibios/os/common/ports/ARMCMx/chcore_v7m.h ****   uint32_t      r11;
 422:./lib/chibios/os/common/ports/ARMCMx/chcore_v7m.h ****   uint32_t      lr;
 423:./lib/chibios/os/common/ports/ARMCMx/chcore_v7m.h **** };
 424:./lib/chibios/os/common/ports/ARMCMx/chcore_v7m.h **** 
 425:./lib/chibios/os/common/ports/ARMCMx/chcore_v7m.h **** struct port_context {
 426:./lib/chibios/os/common/ports/ARMCMx/chcore_v7m.h ****   struct port_intctx    *sp;
 427:./lib/chibios/os/common/ports/ARMCMx/chcore_v7m.h **** #if (PORT_USE_SYSCALL == TRUE) || defined(__DOXYGEN__)
 428:./lib/chibios/os/common/ports/ARMCMx/chcore_v7m.h ****   struct {
 429:./lib/chibios/os/common/ports/ARMCMx/chcore_v7m.h ****     uint32_t            psp;
 430:./lib/chibios/os/common/ports/ARMCMx/chcore_v7m.h ****     const void          *p;
 431:./lib/chibios/os/common/ports/ARMCMx/chcore_v7m.h ****   } syscall;
 432:./lib/chibios/os/common/ports/ARMCMx/chcore_v7m.h **** #endif
 433:./lib/chibios/os/common/ports/ARMCMx/chcore_v7m.h **** };
 434:./lib/chibios/os/common/ports/ARMCMx/chcore_v7m.h **** #endif /* !defined(__DOXYGEN__) */
 435:./lib/chibios/os/common/ports/ARMCMx/chcore_v7m.h **** 
 436:./lib/chibios/os/common/ports/ARMCMx/chcore_v7m.h **** /*===========================================================================*/
 437:./lib/chibios/os/common/ports/ARMCMx/chcore_v7m.h **** /* Module macros.                                                            */
 438:./lib/chibios/os/common/ports/ARMCMx/chcore_v7m.h **** /*===========================================================================*/
 439:./lib/chibios/os/common/ports/ARMCMx/chcore_v7m.h **** 
 440:./lib/chibios/os/common/ports/ARMCMx/chcore_v7m.h **** /* By default threads have no syscall context information.*/
 441:./lib/chibios/os/common/ports/ARMCMx/chcore_v7m.h **** #if (PORT_USE_SYSCALL == TRUE) || defined(__DOXYGEN__)
 442:./lib/chibios/os/common/ports/ARMCMx/chcore_v7m.h **** #define __PORT_SETUP_CONTEXT_SYSCALL(tp, wtop)                              \
 443:./lib/chibios/os/common/ports/ARMCMx/chcore_v7m.h ****   (tp)->ctx.syscall.psp = (uint32_t)(wtop);                                 \
 444:./lib/chibios/os/common/ports/ARMCMx/chcore_v7m.h ****   (tp)->ctx.syscall.p   = NULL;
 445:./lib/chibios/os/common/ports/ARMCMx/chcore_v7m.h **** #else
 446:./lib/chibios/os/common/ports/ARMCMx/chcore_v7m.h **** #define __PORT_SETUP_CONTEXT_SYSCALL(tp, wtop)
 447:./lib/chibios/os/common/ports/ARMCMx/chcore_v7m.h **** #endif
 448:./lib/chibios/os/common/ports/ARMCMx/chcore_v7m.h **** 
 449:./lib/chibios/os/common/ports/ARMCMx/chcore_v7m.h **** /* By default threads have all regions disabled.*/
 450:./lib/chibios/os/common/ports/ARMCMx/chcore_v7m.h **** #if (PORT_SWITCHED_REGIONS_NUMBER == 0) || defined(__DOXYGEN__)
 451:./lib/chibios/os/common/ports/ARMCMx/chcore_v7m.h **** #define __PORT_SETUP_CONTEXT_MPU(tp)
 452:./lib/chibios/os/common/ports/ARMCMx/chcore_v7m.h **** #elif (PORT_SWITCHED_REGIONS_NUMBER == 1) || defined(__DOXYGEN__)
 453:./lib/chibios/os/common/ports/ARMCMx/chcore_v7m.h **** #define __PORT_SETUP_CONTEXT_MPU(tp)                                        \
 454:./lib/chibios/os/common/ports/ARMCMx/chcore_v7m.h ****   (tp)->ctx.sp->regions[0].rbar  = 0U;                                      \
 455:./lib/chibios/os/common/ports/ARMCMx/chcore_v7m.h ****   (tp)->ctx.sp->regions[0].rasr  = 0U
 456:./lib/chibios/os/common/ports/ARMCMx/chcore_v7m.h **** #elif (PORT_SWITCHED_REGIONS_NUMBER == 2) || defined(__DOXYGEN__)
 457:./lib/chibios/os/common/ports/ARMCMx/chcore_v7m.h **** #define __PORT_SETUP_CONTEXT_MPU(tp)                                        \
 458:./lib/chibios/os/common/ports/ARMCMx/chcore_v7m.h ****   (tp)->ctx.sp->regions[0].rbar  = 0U;                                      \
 459:./lib/chibios/os/common/ports/ARMCMx/chcore_v7m.h ****   (tp)->ctx.sp->regions[0].rasr  = 0U;                                      \
 460:./lib/chibios/os/common/ports/ARMCMx/chcore_v7m.h ****   (tp)->ctx.sp->regions[1].rbar  = 0U;                                      \
 461:./lib/chibios/os/common/ports/ARMCMx/chcore_v7m.h ****   (tp)->ctx.sp->regions[1].rasr  = 0U
 462:./lib/chibios/os/common/ports/ARMCMx/chcore_v7m.h **** #elif (PORT_SWITCHED_REGIONS_NUMBER == 3) || defined(__DOXYGEN__)
 463:./lib/chibios/os/common/ports/ARMCMx/chcore_v7m.h **** #define __PORT_SETUP_CONTEXT_MPU(tp)                                        \
 464:./lib/chibios/os/common/ports/ARMCMx/chcore_v7m.h ****   (tp)->ctx.sp->regions[0].rbar  = 0U;                                      \
 465:./lib/chibios/os/common/ports/ARMCMx/chcore_v7m.h ****   (tp)->ctx.sp->regions[0].rasr  = 0U;                                      \
 466:./lib/chibios/os/common/ports/ARMCMx/chcore_v7m.h ****   (tp)->ctx.sp->regions[1].rbar  = 0U;                                      \
 467:./lib/chibios/os/common/ports/ARMCMx/chcore_v7m.h ****   (tp)->ctx.sp->regions[1].rasr  = 0U;                                      \
 468:./lib/chibios/os/common/ports/ARMCMx/chcore_v7m.h ****   (tp)->ctx.sp->regions[2].rbar  = 0U;                                      \
 469:./lib/chibios/os/common/ports/ARMCMx/chcore_v7m.h ****   (tp)->ctx.sp->regions[2].rasr  = 0U
 470:./lib/chibios/os/common/ports/ARMCMx/chcore_v7m.h **** #elif (PORT_SWITCHED_REGIONS_NUMBER == 4) || defined(__DOXYGEN__)
 471:./lib/chibios/os/common/ports/ARMCMx/chcore_v7m.h **** #define __PORT_SETUP_CONTEXT_MPU(tp)                                        \
 472:./lib/chibios/os/common/ports/ARMCMx/chcore_v7m.h ****   (tp)->ctx.sp->regions[0].rbar  = 0U;                                      \
 473:./lib/chibios/os/common/ports/ARMCMx/chcore_v7m.h ****   (tp)->ctx.sp->regions[0].rasr  = 0U;                                      \
 474:./lib/chibios/os/common/ports/ARMCMx/chcore_v7m.h ****   (tp)->ctx.sp->regions[1].rbar  = 0U;                                      \
 475:./lib/chibios/os/common/ports/ARMCMx/chcore_v7m.h ****   (tp)->ctx.sp->regions[1].rasr  = 0U;                                      \
 476:./lib/chibios/os/common/ports/ARMCMx/chcore_v7m.h ****   (tp)->ctx.sp->regions[2].rbar  = 0U;                                      \
 477:./lib/chibios/os/common/ports/ARMCMx/chcore_v7m.h ****   (tp)->ctx.sp->regions[2].rasr  = 0U;                                      \
 478:./lib/chibios/os/common/ports/ARMCMx/chcore_v7m.h ****   (tp)->ctx.sp->regions[3].rbar  = 0U;                                      \
 479:./lib/chibios/os/common/ports/ARMCMx/chcore_v7m.h ****   (tp)->ctx.sp->regions[3].rasr  = 0U
 480:./lib/chibios/os/common/ports/ARMCMx/chcore_v7m.h **** #else
 481:./lib/chibios/os/common/ports/ARMCMx/chcore_v7m.h **** #endif
 482:./lib/chibios/os/common/ports/ARMCMx/chcore_v7m.h **** 
 483:./lib/chibios/os/common/ports/ARMCMx/chcore_v7m.h **** /**
 484:./lib/chibios/os/common/ports/ARMCMx/chcore_v7m.h ****  * @brief   Platform dependent part of the @p chThdCreateI() API.
 485:./lib/chibios/os/common/ports/ARMCMx/chcore_v7m.h ****  * @details This code usually setup the context switching frame represented
 486:./lib/chibios/os/common/ports/ARMCMx/chcore_v7m.h ****  *          by an @p port_intctx structure.
 487:./lib/chibios/os/common/ports/ARMCMx/chcore_v7m.h ****  */
 488:./lib/chibios/os/common/ports/ARMCMx/chcore_v7m.h **** #define PORT_SETUP_CONTEXT(tp, wbase, wtop, pf, arg) {                      \
 489:./lib/chibios/os/common/ports/ARMCMx/chcore_v7m.h ****   (tp)->ctx.sp = (struct port_intctx *)((uint8_t *)(wtop) -                 \
 490:./lib/chibios/os/common/ports/ARMCMx/chcore_v7m.h ****                                         sizeof (struct port_intctx));       \
 491:./lib/chibios/os/common/ports/ARMCMx/chcore_v7m.h ****   (tp)->ctx.sp->r4 = (uint32_t)(pf);                                        \
 492:./lib/chibios/os/common/ports/ARMCMx/chcore_v7m.h ****   (tp)->ctx.sp->r5 = (uint32_t)(arg);                                       \
 493:./lib/chibios/os/common/ports/ARMCMx/chcore_v7m.h ****   (tp)->ctx.sp->lr = (uint32_t)_port_thread_start;                          \
 494:./lib/chibios/os/common/ports/ARMCMx/chcore_v7m.h ****   __PORT_SETUP_CONTEXT_MPU(tp);                                             \
 495:./lib/chibios/os/common/ports/ARMCMx/chcore_v7m.h ****   __PORT_SETUP_CONTEXT_SYSCALL(tp, wtop);                                   \
 496:./lib/chibios/os/common/ports/ARMCMx/chcore_v7m.h **** }
 497:./lib/chibios/os/common/ports/ARMCMx/chcore_v7m.h **** 
 498:./lib/chibios/os/common/ports/ARMCMx/chcore_v7m.h **** //  __PORT_SETUP_CONTEXT_MPU(tp)
 499:./lib/chibios/os/common/ports/ARMCMx/chcore_v7m.h **** 
 500:./lib/chibios/os/common/ports/ARMCMx/chcore_v7m.h **** /**
 501:./lib/chibios/os/common/ports/ARMCMx/chcore_v7m.h ****  * @brief   Computes the thread working area global size.
 502:./lib/chibios/os/common/ports/ARMCMx/chcore_v7m.h ****  * @note    There is no need to perform alignments in this macro.
 503:./lib/chibios/os/common/ports/ARMCMx/chcore_v7m.h ****  */
 504:./lib/chibios/os/common/ports/ARMCMx/chcore_v7m.h **** #define PORT_WA_SIZE(n) ((size_t)PORT_GUARD_PAGE_SIZE +                     \
 505:./lib/chibios/os/common/ports/ARMCMx/chcore_v7m.h ****                          sizeof (struct port_intctx) +                      \
 506:./lib/chibios/os/common/ports/ARMCMx/chcore_v7m.h ****                          sizeof (struct port_extctx) +                      \
 507:./lib/chibios/os/common/ports/ARMCMx/chcore_v7m.h ****                          (size_t)(n) +                                      \
 508:./lib/chibios/os/common/ports/ARMCMx/chcore_v7m.h ****                          (size_t)PORT_INT_REQUIRED_STACK)
 509:./lib/chibios/os/common/ports/ARMCMx/chcore_v7m.h **** 
 510:./lib/chibios/os/common/ports/ARMCMx/chcore_v7m.h **** /**
 511:./lib/chibios/os/common/ports/ARMCMx/chcore_v7m.h ****  * @brief   Static working area allocation.
 512:./lib/chibios/os/common/ports/ARMCMx/chcore_v7m.h ****  * @details This macro is used to allocate a static thread working area
 513:./lib/chibios/os/common/ports/ARMCMx/chcore_v7m.h ****  *          aligned as both position and size.
 514:./lib/chibios/os/common/ports/ARMCMx/chcore_v7m.h ****  *
 515:./lib/chibios/os/common/ports/ARMCMx/chcore_v7m.h ****  * @param[in] s         the name to be assigned to the stack array
 516:./lib/chibios/os/common/ports/ARMCMx/chcore_v7m.h ****  * @param[in] n         the stack size to be assigned to the thread
 517:./lib/chibios/os/common/ports/ARMCMx/chcore_v7m.h ****  */
 518:./lib/chibios/os/common/ports/ARMCMx/chcore_v7m.h **** #if (PORT_ENABLE_GUARD_PAGES == FALSE) || defined(__DOXYGEN__)
 519:./lib/chibios/os/common/ports/ARMCMx/chcore_v7m.h **** #define PORT_WORKING_AREA(s, n)                                             \
 520:./lib/chibios/os/common/ports/ARMCMx/chcore_v7m.h ****   stkalign_t s[THD_WORKING_AREA_SIZE(n) / sizeof (stkalign_t)]
 521:./lib/chibios/os/common/ports/ARMCMx/chcore_v7m.h **** #else
 522:./lib/chibios/os/common/ports/ARMCMx/chcore_v7m.h **** #define PORT_WORKING_AREA(s, n)                                             \
 523:./lib/chibios/os/common/ports/ARMCMx/chcore_v7m.h ****   ALIGNED_VAR(32) stkalign_t s[THD_WORKING_AREA_SIZE(n) / sizeof (stkalign_t)]
 524:./lib/chibios/os/common/ports/ARMCMx/chcore_v7m.h **** #endif
 525:./lib/chibios/os/common/ports/ARMCMx/chcore_v7m.h **** 
 526:./lib/chibios/os/common/ports/ARMCMx/chcore_v7m.h **** /**
 527:./lib/chibios/os/common/ports/ARMCMx/chcore_v7m.h ****  * @brief   IRQ prologue code.
 528:./lib/chibios/os/common/ports/ARMCMx/chcore_v7m.h ****  * @details This macro must be inserted at the start of all IRQ handlers
 529:./lib/chibios/os/common/ports/ARMCMx/chcore_v7m.h ****  *          enabled to invoke system APIs.
 530:./lib/chibios/os/common/ports/ARMCMx/chcore_v7m.h ****  */
 531:./lib/chibios/os/common/ports/ARMCMx/chcore_v7m.h **** #define PORT_IRQ_PROLOGUE()
 532:./lib/chibios/os/common/ports/ARMCMx/chcore_v7m.h **** 
 533:./lib/chibios/os/common/ports/ARMCMx/chcore_v7m.h **** /**
 534:./lib/chibios/os/common/ports/ARMCMx/chcore_v7m.h ****  * @brief   IRQ epilogue code.
 535:./lib/chibios/os/common/ports/ARMCMx/chcore_v7m.h ****  * @details This macro must be inserted at the end of all IRQ handlers
 536:./lib/chibios/os/common/ports/ARMCMx/chcore_v7m.h ****  *          enabled to invoke system APIs.
 537:./lib/chibios/os/common/ports/ARMCMx/chcore_v7m.h ****  */
 538:./lib/chibios/os/common/ports/ARMCMx/chcore_v7m.h **** #define PORT_IRQ_EPILOGUE() _port_irq_epilogue()
 539:./lib/chibios/os/common/ports/ARMCMx/chcore_v7m.h **** 
 540:./lib/chibios/os/common/ports/ARMCMx/chcore_v7m.h **** /**
 541:./lib/chibios/os/common/ports/ARMCMx/chcore_v7m.h ****  * @brief   IRQ handler function declaration.
 542:./lib/chibios/os/common/ports/ARMCMx/chcore_v7m.h ****  * @note    @p id can be a function name or a vector number depending on the
 543:./lib/chibios/os/common/ports/ARMCMx/chcore_v7m.h ****  *          port implementation.
 544:./lib/chibios/os/common/ports/ARMCMx/chcore_v7m.h ****  */
 545:./lib/chibios/os/common/ports/ARMCMx/chcore_v7m.h **** #ifdef __cplusplus
 546:./lib/chibios/os/common/ports/ARMCMx/chcore_v7m.h **** #define PORT_IRQ_HANDLER(id) extern "C" void id(void)
 547:./lib/chibios/os/common/ports/ARMCMx/chcore_v7m.h **** #else
 548:./lib/chibios/os/common/ports/ARMCMx/chcore_v7m.h **** #define PORT_IRQ_HANDLER(id) void id(void)
 549:./lib/chibios/os/common/ports/ARMCMx/chcore_v7m.h **** #endif
 550:./lib/chibios/os/common/ports/ARMCMx/chcore_v7m.h **** 
 551:./lib/chibios/os/common/ports/ARMCMx/chcore_v7m.h **** /**
 552:./lib/chibios/os/common/ports/ARMCMx/chcore_v7m.h ****  * @brief   Fast IRQ handler function declaration.
 553:./lib/chibios/os/common/ports/ARMCMx/chcore_v7m.h ****  * @note    @p id can be a function name or a vector number depending on the
 554:./lib/chibios/os/common/ports/ARMCMx/chcore_v7m.h ****  *          port implementation.
 555:./lib/chibios/os/common/ports/ARMCMx/chcore_v7m.h ****  */
 556:./lib/chibios/os/common/ports/ARMCMx/chcore_v7m.h **** #ifdef __cplusplus
 557:./lib/chibios/os/common/ports/ARMCMx/chcore_v7m.h **** #define PORT_FAST_IRQ_HANDLER(id) extern "C" void id(void)
 558:./lib/chibios/os/common/ports/ARMCMx/chcore_v7m.h **** #else
 559:./lib/chibios/os/common/ports/ARMCMx/chcore_v7m.h **** #define PORT_FAST_IRQ_HANDLER(id) void id(void)
 560:./lib/chibios/os/common/ports/ARMCMx/chcore_v7m.h **** #endif
 561:./lib/chibios/os/common/ports/ARMCMx/chcore_v7m.h **** 
 562:./lib/chibios/os/common/ports/ARMCMx/chcore_v7m.h **** /**
 563:./lib/chibios/os/common/ports/ARMCMx/chcore_v7m.h ****  * @brief   Performs a context switch between two threads.
 564:./lib/chibios/os/common/ports/ARMCMx/chcore_v7m.h ****  * @details This is the most critical code in any port, this function
 565:./lib/chibios/os/common/ports/ARMCMx/chcore_v7m.h ****  *          is responsible for the context switch between 2 threads.
 566:./lib/chibios/os/common/ports/ARMCMx/chcore_v7m.h ****  * @note    The implementation of this code affects <b>directly</b> the context
 567:./lib/chibios/os/common/ports/ARMCMx/chcore_v7m.h ****  *          switch performance so optimize here as much as you can.
 568:./lib/chibios/os/common/ports/ARMCMx/chcore_v7m.h ****  *
 569:./lib/chibios/os/common/ports/ARMCMx/chcore_v7m.h ****  * @param[in] ntp       the thread to be switched in
 570:./lib/chibios/os/common/ports/ARMCMx/chcore_v7m.h ****  * @param[in] otp       the thread to be switched out
 571:./lib/chibios/os/common/ports/ARMCMx/chcore_v7m.h ****  */
 572:./lib/chibios/os/common/ports/ARMCMx/chcore_v7m.h **** #if (CH_DBG_ENABLE_STACK_CHECK == FALSE) || defined(__DOXYGEN__)
 573:./lib/chibios/os/common/ports/ARMCMx/chcore_v7m.h **** #define port_switch(ntp, otp) _port_switch(ntp, otp)
 574:./lib/chibios/os/common/ports/ARMCMx/chcore_v7m.h **** #else
 575:./lib/chibios/os/common/ports/ARMCMx/chcore_v7m.h **** #if PORT_ENABLE_GUARD_PAGES == FALSE
 576:./lib/chibios/os/common/ports/ARMCMx/chcore_v7m.h **** #define port_switch(ntp, otp) {                                             \
 577:./lib/chibios/os/common/ports/ARMCMx/chcore_v7m.h ****   struct port_intctx *r13 = (struct port_intctx *)__get_PSP();              \
 578:./lib/chibios/os/common/ports/ARMCMx/chcore_v7m.h ****   if ((stkalign_t *)(r13 - 1) < (otp)->wabase) {                            \
 579:./lib/chibios/os/common/ports/ARMCMx/chcore_v7m.h ****     chSysHalt("stack overflow");                                            \
 580:./lib/chibios/os/common/ports/ARMCMx/chcore_v7m.h ****   }                                                                         \
 581:./lib/chibios/os/common/ports/ARMCMx/chcore_v7m.h ****   _port_switch(ntp, otp);                                                   \
 582:./lib/chibios/os/common/ports/ARMCMx/chcore_v7m.h **** }
 583:./lib/chibios/os/common/ports/ARMCMx/chcore_v7m.h **** #else
 584:./lib/chibios/os/common/ports/ARMCMx/chcore_v7m.h **** #define port_switch(ntp, otp) {                                             \
 585:./lib/chibios/os/common/ports/ARMCMx/chcore_v7m.h ****   _port_switch(ntp, otp);                                                   \
 586:./lib/chibios/os/common/ports/ARMCMx/chcore_v7m.h ****                                                                             \
 587:./lib/chibios/os/common/ports/ARMCMx/chcore_v7m.h ****   /* Setting up the guard page for the switched-in thread.*/                \
 588:./lib/chibios/os/common/ports/ARMCMx/chcore_v7m.h ****   mpuSetRegionAddress(PORT_USE_GUARD_MPU_REGION,                            \
 589:./lib/chibios/os/common/ports/ARMCMx/chcore_v7m.h ****                       chThdGetSelfX()->wabase);                             \
 590:./lib/chibios/os/common/ports/ARMCMx/chcore_v7m.h **** }
 591:./lib/chibios/os/common/ports/ARMCMx/chcore_v7m.h **** #endif
 592:./lib/chibios/os/common/ports/ARMCMx/chcore_v7m.h **** #endif
 593:./lib/chibios/os/common/ports/ARMCMx/chcore_v7m.h **** 
 594:./lib/chibios/os/common/ports/ARMCMx/chcore_v7m.h **** /*===========================================================================*/
 595:./lib/chibios/os/common/ports/ARMCMx/chcore_v7m.h **** /* External declarations.                                                    */
 596:./lib/chibios/os/common/ports/ARMCMx/chcore_v7m.h **** /*===========================================================================*/
 597:./lib/chibios/os/common/ports/ARMCMx/chcore_v7m.h **** 
 598:./lib/chibios/os/common/ports/ARMCMx/chcore_v7m.h **** #ifdef __cplusplus
 599:./lib/chibios/os/common/ports/ARMCMx/chcore_v7m.h **** extern "C" {
 600:./lib/chibios/os/common/ports/ARMCMx/chcore_v7m.h **** #endif
 601:./lib/chibios/os/common/ports/ARMCMx/chcore_v7m.h ****   void port_init(void);
 602:./lib/chibios/os/common/ports/ARMCMx/chcore_v7m.h ****   void _port_irq_epilogue(void);
 603:./lib/chibios/os/common/ports/ARMCMx/chcore_v7m.h ****   void _port_switch(thread_t *ntp, thread_t *otp);
 604:./lib/chibios/os/common/ports/ARMCMx/chcore_v7m.h ****   void _port_thread_start(void);
 605:./lib/chibios/os/common/ports/ARMCMx/chcore_v7m.h ****   void _port_switch_from_isr(void);
 606:./lib/chibios/os/common/ports/ARMCMx/chcore_v7m.h ****   void _port_exit_from_isr(void);
 607:./lib/chibios/os/common/ports/ARMCMx/chcore_v7m.h **** #if PORT_USE_SYSCALL == TRUE
 608:./lib/chibios/os/common/ports/ARMCMx/chcore_v7m.h ****   void port_unprivileged_jump(uint32_t pc, uint32_t psp);
 609:./lib/chibios/os/common/ports/ARMCMx/chcore_v7m.h **** #endif
 610:./lib/chibios/os/common/ports/ARMCMx/chcore_v7m.h **** #ifdef __cplusplus
 611:./lib/chibios/os/common/ports/ARMCMx/chcore_v7m.h **** }
 612:./lib/chibios/os/common/ports/ARMCMx/chcore_v7m.h **** #endif
 613:./lib/chibios/os/common/ports/ARMCMx/chcore_v7m.h **** 
 614:./lib/chibios/os/common/ports/ARMCMx/chcore_v7m.h **** /*===========================================================================*/
 615:./lib/chibios/os/common/ports/ARMCMx/chcore_v7m.h **** /* Module inline functions.                                                  */
 616:./lib/chibios/os/common/ports/ARMCMx/chcore_v7m.h **** /*===========================================================================*/
 617:./lib/chibios/os/common/ports/ARMCMx/chcore_v7m.h **** 
 618:./lib/chibios/os/common/ports/ARMCMx/chcore_v7m.h **** /**
 619:./lib/chibios/os/common/ports/ARMCMx/chcore_v7m.h ****  * @brief   Returns a word encoding the current interrupts status.
 620:./lib/chibios/os/common/ports/ARMCMx/chcore_v7m.h ****  *
 621:./lib/chibios/os/common/ports/ARMCMx/chcore_v7m.h ****  * @return              The interrupts status.
 622:./lib/chibios/os/common/ports/ARMCMx/chcore_v7m.h ****  */
 623:./lib/chibios/os/common/ports/ARMCMx/chcore_v7m.h **** __STATIC_FORCEINLINE syssts_t port_get_irq_status(void) {
 624:./lib/chibios/os/common/ports/ARMCMx/chcore_v7m.h ****   syssts_t sts;
 625:./lib/chibios/os/common/ports/ARMCMx/chcore_v7m.h **** 
 626:./lib/chibios/os/common/ports/ARMCMx/chcore_v7m.h **** #if CORTEX_SIMPLIFIED_PRIORITY == FALSE
 627:./lib/chibios/os/common/ports/ARMCMx/chcore_v7m.h ****   sts = (syssts_t)__get_BASEPRI();
 628:./lib/chibios/os/common/ports/ARMCMx/chcore_v7m.h **** #else /* CORTEX_SIMPLIFIED_PRIORITY */
 629:./lib/chibios/os/common/ports/ARMCMx/chcore_v7m.h ****   sts = (syssts_t)__get_PRIMASK();
 630:./lib/chibios/os/common/ports/ARMCMx/chcore_v7m.h **** #endif /* CORTEX_SIMPLIFIED_PRIORITY */
 631:./lib/chibios/os/common/ports/ARMCMx/chcore_v7m.h ****   return sts;
 632:./lib/chibios/os/common/ports/ARMCMx/chcore_v7m.h **** }
 633:./lib/chibios/os/common/ports/ARMCMx/chcore_v7m.h **** 
 634:./lib/chibios/os/common/ports/ARMCMx/chcore_v7m.h **** /**
 635:./lib/chibios/os/common/ports/ARMCMx/chcore_v7m.h ****  * @brief   Checks the interrupt status.
 636:./lib/chibios/os/common/ports/ARMCMx/chcore_v7m.h ****  *
 637:./lib/chibios/os/common/ports/ARMCMx/chcore_v7m.h ****  * @param[in] sts       the interrupt status word
 638:./lib/chibios/os/common/ports/ARMCMx/chcore_v7m.h ****  *
 639:./lib/chibios/os/common/ports/ARMCMx/chcore_v7m.h ****  * @return              The interrupt status.
 640:./lib/chibios/os/common/ports/ARMCMx/chcore_v7m.h ****  * @retval false        the word specified a disabled interrupts status.
 641:./lib/chibios/os/common/ports/ARMCMx/chcore_v7m.h ****  * @retval true         the word specified an enabled interrupts status.
 642:./lib/chibios/os/common/ports/ARMCMx/chcore_v7m.h ****  */
 643:./lib/chibios/os/common/ports/ARMCMx/chcore_v7m.h **** __STATIC_FORCEINLINE bool port_irq_enabled(syssts_t sts) {
 644:./lib/chibios/os/common/ports/ARMCMx/chcore_v7m.h **** 
 645:./lib/chibios/os/common/ports/ARMCMx/chcore_v7m.h **** #if CORTEX_SIMPLIFIED_PRIORITY == FALSE
 646:./lib/chibios/os/common/ports/ARMCMx/chcore_v7m.h ****   return sts == (syssts_t)CORTEX_BASEPRI_DISABLED;
 647:./lib/chibios/os/common/ports/ARMCMx/chcore_v7m.h **** #else /* CORTEX_SIMPLIFIED_PRIORITY */
 648:./lib/chibios/os/common/ports/ARMCMx/chcore_v7m.h ****   return (sts & (syssts_t)1) == (syssts_t)0;
 649:./lib/chibios/os/common/ports/ARMCMx/chcore_v7m.h **** #endif /* CORTEX_SIMPLIFIED_PRIORITY */
 650:./lib/chibios/os/common/ports/ARMCMx/chcore_v7m.h **** }
 651:./lib/chibios/os/common/ports/ARMCMx/chcore_v7m.h **** 
 652:./lib/chibios/os/common/ports/ARMCMx/chcore_v7m.h **** /**
 653:./lib/chibios/os/common/ports/ARMCMx/chcore_v7m.h ****  * @brief   Determines the current execution context.
 654:./lib/chibios/os/common/ports/ARMCMx/chcore_v7m.h ****  *
 655:./lib/chibios/os/common/ports/ARMCMx/chcore_v7m.h ****  * @return              The execution context.
 656:./lib/chibios/os/common/ports/ARMCMx/chcore_v7m.h ****  * @retval false        not running in ISR mode.
 657:./lib/chibios/os/common/ports/ARMCMx/chcore_v7m.h ****  * @retval true         running in ISR mode.
 658:./lib/chibios/os/common/ports/ARMCMx/chcore_v7m.h ****  */
 659:./lib/chibios/os/common/ports/ARMCMx/chcore_v7m.h **** __STATIC_FORCEINLINE bool port_is_isr_context(void) {
 660:./lib/chibios/os/common/ports/ARMCMx/chcore_v7m.h **** 
 661:./lib/chibios/os/common/ports/ARMCMx/chcore_v7m.h ****   return (bool)((__get_IPSR() & 0x1FFU) != 0U);
 662:./lib/chibios/os/common/ports/ARMCMx/chcore_v7m.h **** }
 663:./lib/chibios/os/common/ports/ARMCMx/chcore_v7m.h **** 
 664:./lib/chibios/os/common/ports/ARMCMx/chcore_v7m.h **** /**
 665:./lib/chibios/os/common/ports/ARMCMx/chcore_v7m.h ****  * @brief   Kernel-lock action.
 666:./lib/chibios/os/common/ports/ARMCMx/chcore_v7m.h ****  * @details In this port this function raises the base priority to kernel
 667:./lib/chibios/os/common/ports/ARMCMx/chcore_v7m.h ****  *          level.
 668:./lib/chibios/os/common/ports/ARMCMx/chcore_v7m.h ****  */
 669:./lib/chibios/os/common/ports/ARMCMx/chcore_v7m.h **** __STATIC_FORCEINLINE void port_lock(void) {
 212              		.loc 4 669 27 view .LVU71
 670:./lib/chibios/os/common/ports/ARMCMx/chcore_v7m.h **** 
 671:./lib/chibios/os/common/ports/ARMCMx/chcore_v7m.h **** #if CORTEX_SIMPLIFIED_PRIORITY == FALSE
 672:./lib/chibios/os/common/ports/ARMCMx/chcore_v7m.h **** #if defined(__CM7_REV)
 673:./lib/chibios/os/common/ports/ARMCMx/chcore_v7m.h **** #if __CM7_REV <= 1
 674:./lib/chibios/os/common/ports/ARMCMx/chcore_v7m.h ****   __disable_irq();
 675:./lib/chibios/os/common/ports/ARMCMx/chcore_v7m.h **** #endif
 676:./lib/chibios/os/common/ports/ARMCMx/chcore_v7m.h **** #endif
 677:./lib/chibios/os/common/ports/ARMCMx/chcore_v7m.h ****   __set_BASEPRI(CORTEX_BASEPRI_KERNEL);
 213              		.loc 4 677 3 view .LVU72
 214              	.LBB234:
 215              	.LBI234:
 216              		.file 5 "./lib/chibios/os/common/ext/ARM/CMSIS/Core/Include/cmsis_gcc.h"
   1:./lib/chibios/os/common/ext/ARM/CMSIS/Core/Include/cmsis_gcc.h **** /**************************************************************************//**
   2:./lib/chibios/os/common/ext/ARM/CMSIS/Core/Include/cmsis_gcc.h ****  * @file     cmsis_gcc.h
   3:./lib/chibios/os/common/ext/ARM/CMSIS/Core/Include/cmsis_gcc.h ****  * @brief    CMSIS compiler GCC header file
   4:./lib/chibios/os/common/ext/ARM/CMSIS/Core/Include/cmsis_gcc.h ****  * @version  V5.0.4
   5:./lib/chibios/os/common/ext/ARM/CMSIS/Core/Include/cmsis_gcc.h ****  * @date     09. April 2018
   6:./lib/chibios/os/common/ext/ARM/CMSIS/Core/Include/cmsis_gcc.h ****  ******************************************************************************/
   7:./lib/chibios/os/common/ext/ARM/CMSIS/Core/Include/cmsis_gcc.h **** /*
   8:./lib/chibios/os/common/ext/ARM/CMSIS/Core/Include/cmsis_gcc.h ****  * Copyright (c) 2009-2018 Arm Limited. All rights reserved.
   9:./lib/chibios/os/common/ext/ARM/CMSIS/Core/Include/cmsis_gcc.h ****  *
  10:./lib/chibios/os/common/ext/ARM/CMSIS/Core/Include/cmsis_gcc.h ****  * SPDX-License-Identifier: Apache-2.0
  11:./lib/chibios/os/common/ext/ARM/CMSIS/Core/Include/cmsis_gcc.h ****  *
  12:./lib/chibios/os/common/ext/ARM/CMSIS/Core/Include/cmsis_gcc.h ****  * Licensed under the Apache License, Version 2.0 (the License); you may
  13:./lib/chibios/os/common/ext/ARM/CMSIS/Core/Include/cmsis_gcc.h ****  * not use this file except in compliance with the License.
  14:./lib/chibios/os/common/ext/ARM/CMSIS/Core/Include/cmsis_gcc.h ****  * You may obtain a copy of the License at
  15:./lib/chibios/os/common/ext/ARM/CMSIS/Core/Include/cmsis_gcc.h ****  *
  16:./lib/chibios/os/common/ext/ARM/CMSIS/Core/Include/cmsis_gcc.h ****  * www.apache.org/licenses/LICENSE-2.0
  17:./lib/chibios/os/common/ext/ARM/CMSIS/Core/Include/cmsis_gcc.h ****  *
  18:./lib/chibios/os/common/ext/ARM/CMSIS/Core/Include/cmsis_gcc.h ****  * Unless required by applicable law or agreed to in writing, software
  19:./lib/chibios/os/common/ext/ARM/CMSIS/Core/Include/cmsis_gcc.h ****  * distributed under the License is distributed on an AS IS BASIS, WITHOUT
  20:./lib/chibios/os/common/ext/ARM/CMSIS/Core/Include/cmsis_gcc.h ****  * WARRANTIES OR CONDITIONS OF ANY KIND, either express or implied.
  21:./lib/chibios/os/common/ext/ARM/CMSIS/Core/Include/cmsis_gcc.h ****  * See the License for the specific language governing permissions and
  22:./lib/chibios/os/common/ext/ARM/CMSIS/Core/Include/cmsis_gcc.h ****  * limitations under the License.
  23:./lib/chibios/os/common/ext/ARM/CMSIS/Core/Include/cmsis_gcc.h ****  */
  24:./lib/chibios/os/common/ext/ARM/CMSIS/Core/Include/cmsis_gcc.h **** 
  25:./lib/chibios/os/common/ext/ARM/CMSIS/Core/Include/cmsis_gcc.h **** #ifndef __CMSIS_GCC_H
  26:./lib/chibios/os/common/ext/ARM/CMSIS/Core/Include/cmsis_gcc.h **** #define __CMSIS_GCC_H
  27:./lib/chibios/os/common/ext/ARM/CMSIS/Core/Include/cmsis_gcc.h **** 
  28:./lib/chibios/os/common/ext/ARM/CMSIS/Core/Include/cmsis_gcc.h **** /* ignore some GCC warnings */
  29:./lib/chibios/os/common/ext/ARM/CMSIS/Core/Include/cmsis_gcc.h **** #pragma GCC diagnostic push
  30:./lib/chibios/os/common/ext/ARM/CMSIS/Core/Include/cmsis_gcc.h **** #pragma GCC diagnostic ignored "-Wsign-conversion"
  31:./lib/chibios/os/common/ext/ARM/CMSIS/Core/Include/cmsis_gcc.h **** #pragma GCC diagnostic ignored "-Wconversion"
  32:./lib/chibios/os/common/ext/ARM/CMSIS/Core/Include/cmsis_gcc.h **** #pragma GCC diagnostic ignored "-Wunused-parameter"
  33:./lib/chibios/os/common/ext/ARM/CMSIS/Core/Include/cmsis_gcc.h **** 
  34:./lib/chibios/os/common/ext/ARM/CMSIS/Core/Include/cmsis_gcc.h **** /* Fallback for __has_builtin */
  35:./lib/chibios/os/common/ext/ARM/CMSIS/Core/Include/cmsis_gcc.h **** #ifndef __has_builtin
  36:./lib/chibios/os/common/ext/ARM/CMSIS/Core/Include/cmsis_gcc.h ****   #define __has_builtin(x) (0)
  37:./lib/chibios/os/common/ext/ARM/CMSIS/Core/Include/cmsis_gcc.h **** #endif
  38:./lib/chibios/os/common/ext/ARM/CMSIS/Core/Include/cmsis_gcc.h **** 
  39:./lib/chibios/os/common/ext/ARM/CMSIS/Core/Include/cmsis_gcc.h **** /* CMSIS compiler specific defines */
  40:./lib/chibios/os/common/ext/ARM/CMSIS/Core/Include/cmsis_gcc.h **** #ifndef   __ASM
  41:./lib/chibios/os/common/ext/ARM/CMSIS/Core/Include/cmsis_gcc.h ****   #define __ASM                                  __asm
  42:./lib/chibios/os/common/ext/ARM/CMSIS/Core/Include/cmsis_gcc.h **** #endif
  43:./lib/chibios/os/common/ext/ARM/CMSIS/Core/Include/cmsis_gcc.h **** #ifndef   __INLINE
  44:./lib/chibios/os/common/ext/ARM/CMSIS/Core/Include/cmsis_gcc.h ****   #define __INLINE                               inline
  45:./lib/chibios/os/common/ext/ARM/CMSIS/Core/Include/cmsis_gcc.h **** #endif
  46:./lib/chibios/os/common/ext/ARM/CMSIS/Core/Include/cmsis_gcc.h **** #ifndef   __STATIC_INLINE
  47:./lib/chibios/os/common/ext/ARM/CMSIS/Core/Include/cmsis_gcc.h ****   #define __STATIC_INLINE                        static inline
  48:./lib/chibios/os/common/ext/ARM/CMSIS/Core/Include/cmsis_gcc.h **** #endif
  49:./lib/chibios/os/common/ext/ARM/CMSIS/Core/Include/cmsis_gcc.h **** #ifndef   __STATIC_FORCEINLINE                 
  50:./lib/chibios/os/common/ext/ARM/CMSIS/Core/Include/cmsis_gcc.h ****   #define __STATIC_FORCEINLINE                   __attribute__((always_inline)) static inline
  51:./lib/chibios/os/common/ext/ARM/CMSIS/Core/Include/cmsis_gcc.h **** #endif                                           
  52:./lib/chibios/os/common/ext/ARM/CMSIS/Core/Include/cmsis_gcc.h **** #ifndef   __NO_RETURN
  53:./lib/chibios/os/common/ext/ARM/CMSIS/Core/Include/cmsis_gcc.h ****   #define __NO_RETURN                            __attribute__((__noreturn__))
  54:./lib/chibios/os/common/ext/ARM/CMSIS/Core/Include/cmsis_gcc.h **** #endif
  55:./lib/chibios/os/common/ext/ARM/CMSIS/Core/Include/cmsis_gcc.h **** #ifndef   __USED
  56:./lib/chibios/os/common/ext/ARM/CMSIS/Core/Include/cmsis_gcc.h ****   #define __USED                                 __attribute__((used))
  57:./lib/chibios/os/common/ext/ARM/CMSIS/Core/Include/cmsis_gcc.h **** #endif
  58:./lib/chibios/os/common/ext/ARM/CMSIS/Core/Include/cmsis_gcc.h **** #ifndef   __WEAK
  59:./lib/chibios/os/common/ext/ARM/CMSIS/Core/Include/cmsis_gcc.h ****   #define __WEAK                                 __attribute__((weak))
  60:./lib/chibios/os/common/ext/ARM/CMSIS/Core/Include/cmsis_gcc.h **** #endif
  61:./lib/chibios/os/common/ext/ARM/CMSIS/Core/Include/cmsis_gcc.h **** #ifndef   __PACKED
  62:./lib/chibios/os/common/ext/ARM/CMSIS/Core/Include/cmsis_gcc.h ****   #define __PACKED                               __attribute__((packed, aligned(1)))
  63:./lib/chibios/os/common/ext/ARM/CMSIS/Core/Include/cmsis_gcc.h **** #endif
  64:./lib/chibios/os/common/ext/ARM/CMSIS/Core/Include/cmsis_gcc.h **** #ifndef   __PACKED_STRUCT
  65:./lib/chibios/os/common/ext/ARM/CMSIS/Core/Include/cmsis_gcc.h ****   #define __PACKED_STRUCT                        struct __attribute__((packed, aligned(1)))
  66:./lib/chibios/os/common/ext/ARM/CMSIS/Core/Include/cmsis_gcc.h **** #endif
  67:./lib/chibios/os/common/ext/ARM/CMSIS/Core/Include/cmsis_gcc.h **** #ifndef   __PACKED_UNION
  68:./lib/chibios/os/common/ext/ARM/CMSIS/Core/Include/cmsis_gcc.h ****   #define __PACKED_UNION                         union __attribute__((packed, aligned(1)))
  69:./lib/chibios/os/common/ext/ARM/CMSIS/Core/Include/cmsis_gcc.h **** #endif
  70:./lib/chibios/os/common/ext/ARM/CMSIS/Core/Include/cmsis_gcc.h **** #ifndef   __UNALIGNED_UINT32        /* deprecated */
  71:./lib/chibios/os/common/ext/ARM/CMSIS/Core/Include/cmsis_gcc.h ****   #pragma GCC diagnostic push
  72:./lib/chibios/os/common/ext/ARM/CMSIS/Core/Include/cmsis_gcc.h ****   #pragma GCC diagnostic ignored "-Wpacked"
  73:./lib/chibios/os/common/ext/ARM/CMSIS/Core/Include/cmsis_gcc.h ****   #pragma GCC diagnostic ignored "-Wattributes"
  74:./lib/chibios/os/common/ext/ARM/CMSIS/Core/Include/cmsis_gcc.h ****   struct __attribute__((packed)) T_UINT32 { uint32_t v; };
  75:./lib/chibios/os/common/ext/ARM/CMSIS/Core/Include/cmsis_gcc.h ****   #pragma GCC diagnostic pop
  76:./lib/chibios/os/common/ext/ARM/CMSIS/Core/Include/cmsis_gcc.h ****   #define __UNALIGNED_UINT32(x)                  (((struct T_UINT32 *)(x))->v)
  77:./lib/chibios/os/common/ext/ARM/CMSIS/Core/Include/cmsis_gcc.h **** #endif
  78:./lib/chibios/os/common/ext/ARM/CMSIS/Core/Include/cmsis_gcc.h **** #ifndef   __UNALIGNED_UINT16_WRITE
  79:./lib/chibios/os/common/ext/ARM/CMSIS/Core/Include/cmsis_gcc.h ****   #pragma GCC diagnostic push
  80:./lib/chibios/os/common/ext/ARM/CMSIS/Core/Include/cmsis_gcc.h ****   #pragma GCC diagnostic ignored "-Wpacked"
  81:./lib/chibios/os/common/ext/ARM/CMSIS/Core/Include/cmsis_gcc.h ****   #pragma GCC diagnostic ignored "-Wattributes"
  82:./lib/chibios/os/common/ext/ARM/CMSIS/Core/Include/cmsis_gcc.h ****   __PACKED_STRUCT T_UINT16_WRITE { uint16_t v; };
  83:./lib/chibios/os/common/ext/ARM/CMSIS/Core/Include/cmsis_gcc.h ****   #pragma GCC diagnostic pop
  84:./lib/chibios/os/common/ext/ARM/CMSIS/Core/Include/cmsis_gcc.h ****   #define __UNALIGNED_UINT16_WRITE(addr, val)    (void)((((struct T_UINT16_WRITE *)(void *)(addr))-
  85:./lib/chibios/os/common/ext/ARM/CMSIS/Core/Include/cmsis_gcc.h **** #endif
  86:./lib/chibios/os/common/ext/ARM/CMSIS/Core/Include/cmsis_gcc.h **** #ifndef   __UNALIGNED_UINT16_READ
  87:./lib/chibios/os/common/ext/ARM/CMSIS/Core/Include/cmsis_gcc.h ****   #pragma GCC diagnostic push
  88:./lib/chibios/os/common/ext/ARM/CMSIS/Core/Include/cmsis_gcc.h ****   #pragma GCC diagnostic ignored "-Wpacked"
  89:./lib/chibios/os/common/ext/ARM/CMSIS/Core/Include/cmsis_gcc.h ****   #pragma GCC diagnostic ignored "-Wattributes"
  90:./lib/chibios/os/common/ext/ARM/CMSIS/Core/Include/cmsis_gcc.h ****   __PACKED_STRUCT T_UINT16_READ { uint16_t v; };
  91:./lib/chibios/os/common/ext/ARM/CMSIS/Core/Include/cmsis_gcc.h ****   #pragma GCC diagnostic pop
  92:./lib/chibios/os/common/ext/ARM/CMSIS/Core/Include/cmsis_gcc.h ****   #define __UNALIGNED_UINT16_READ(addr)          (((const struct T_UINT16_READ *)(const void *)(add
  93:./lib/chibios/os/common/ext/ARM/CMSIS/Core/Include/cmsis_gcc.h **** #endif
  94:./lib/chibios/os/common/ext/ARM/CMSIS/Core/Include/cmsis_gcc.h **** #ifndef   __UNALIGNED_UINT32_WRITE
  95:./lib/chibios/os/common/ext/ARM/CMSIS/Core/Include/cmsis_gcc.h ****   #pragma GCC diagnostic push
  96:./lib/chibios/os/common/ext/ARM/CMSIS/Core/Include/cmsis_gcc.h ****   #pragma GCC diagnostic ignored "-Wpacked"
  97:./lib/chibios/os/common/ext/ARM/CMSIS/Core/Include/cmsis_gcc.h ****   #pragma GCC diagnostic ignored "-Wattributes"
  98:./lib/chibios/os/common/ext/ARM/CMSIS/Core/Include/cmsis_gcc.h ****   __PACKED_STRUCT T_UINT32_WRITE { uint32_t v; };
  99:./lib/chibios/os/common/ext/ARM/CMSIS/Core/Include/cmsis_gcc.h ****   #pragma GCC diagnostic pop
 100:./lib/chibios/os/common/ext/ARM/CMSIS/Core/Include/cmsis_gcc.h ****   #define __UNALIGNED_UINT32_WRITE(addr, val)    (void)((((struct T_UINT32_WRITE *)(void *)(addr))-
 101:./lib/chibios/os/common/ext/ARM/CMSIS/Core/Include/cmsis_gcc.h **** #endif
 102:./lib/chibios/os/common/ext/ARM/CMSIS/Core/Include/cmsis_gcc.h **** #ifndef   __UNALIGNED_UINT32_READ
 103:./lib/chibios/os/common/ext/ARM/CMSIS/Core/Include/cmsis_gcc.h ****   #pragma GCC diagnostic push
 104:./lib/chibios/os/common/ext/ARM/CMSIS/Core/Include/cmsis_gcc.h ****   #pragma GCC diagnostic ignored "-Wpacked"
 105:./lib/chibios/os/common/ext/ARM/CMSIS/Core/Include/cmsis_gcc.h ****   #pragma GCC diagnostic ignored "-Wattributes"
 106:./lib/chibios/os/common/ext/ARM/CMSIS/Core/Include/cmsis_gcc.h ****   __PACKED_STRUCT T_UINT32_READ { uint32_t v; };
 107:./lib/chibios/os/common/ext/ARM/CMSIS/Core/Include/cmsis_gcc.h ****   #pragma GCC diagnostic pop
 108:./lib/chibios/os/common/ext/ARM/CMSIS/Core/Include/cmsis_gcc.h ****   #define __UNALIGNED_UINT32_READ(addr)          (((const struct T_UINT32_READ *)(const void *)(add
 109:./lib/chibios/os/common/ext/ARM/CMSIS/Core/Include/cmsis_gcc.h **** #endif
 110:./lib/chibios/os/common/ext/ARM/CMSIS/Core/Include/cmsis_gcc.h **** #ifndef   __ALIGNED
 111:./lib/chibios/os/common/ext/ARM/CMSIS/Core/Include/cmsis_gcc.h ****   #define __ALIGNED(x)                           __attribute__((aligned(x)))
 112:./lib/chibios/os/common/ext/ARM/CMSIS/Core/Include/cmsis_gcc.h **** #endif
 113:./lib/chibios/os/common/ext/ARM/CMSIS/Core/Include/cmsis_gcc.h **** #ifndef   __RESTRICT
 114:./lib/chibios/os/common/ext/ARM/CMSIS/Core/Include/cmsis_gcc.h ****   #define __RESTRICT                             __restrict
 115:./lib/chibios/os/common/ext/ARM/CMSIS/Core/Include/cmsis_gcc.h **** #endif
 116:./lib/chibios/os/common/ext/ARM/CMSIS/Core/Include/cmsis_gcc.h **** 
 117:./lib/chibios/os/common/ext/ARM/CMSIS/Core/Include/cmsis_gcc.h **** 
 118:./lib/chibios/os/common/ext/ARM/CMSIS/Core/Include/cmsis_gcc.h **** /* ###########################  Core Function Access  ########################### */
 119:./lib/chibios/os/common/ext/ARM/CMSIS/Core/Include/cmsis_gcc.h **** /** \ingroup  CMSIS_Core_FunctionInterface
 120:./lib/chibios/os/common/ext/ARM/CMSIS/Core/Include/cmsis_gcc.h ****     \defgroup CMSIS_Core_RegAccFunctions CMSIS Core Register Access Functions
 121:./lib/chibios/os/common/ext/ARM/CMSIS/Core/Include/cmsis_gcc.h ****   @{
 122:./lib/chibios/os/common/ext/ARM/CMSIS/Core/Include/cmsis_gcc.h ****  */
 123:./lib/chibios/os/common/ext/ARM/CMSIS/Core/Include/cmsis_gcc.h **** 
 124:./lib/chibios/os/common/ext/ARM/CMSIS/Core/Include/cmsis_gcc.h **** /**
 125:./lib/chibios/os/common/ext/ARM/CMSIS/Core/Include/cmsis_gcc.h ****   \brief   Enable IRQ Interrupts
 126:./lib/chibios/os/common/ext/ARM/CMSIS/Core/Include/cmsis_gcc.h ****   \details Enables IRQ interrupts by clearing the I-bit in the CPSR.
 127:./lib/chibios/os/common/ext/ARM/CMSIS/Core/Include/cmsis_gcc.h ****            Can only be executed in Privileged modes.
 128:./lib/chibios/os/common/ext/ARM/CMSIS/Core/Include/cmsis_gcc.h ****  */
 129:./lib/chibios/os/common/ext/ARM/CMSIS/Core/Include/cmsis_gcc.h **** __STATIC_FORCEINLINE void __enable_irq(void)
 130:./lib/chibios/os/common/ext/ARM/CMSIS/Core/Include/cmsis_gcc.h **** {
 131:./lib/chibios/os/common/ext/ARM/CMSIS/Core/Include/cmsis_gcc.h ****   __ASM volatile ("cpsie i" : : : "memory");
 132:./lib/chibios/os/common/ext/ARM/CMSIS/Core/Include/cmsis_gcc.h **** }
 133:./lib/chibios/os/common/ext/ARM/CMSIS/Core/Include/cmsis_gcc.h **** 
 134:./lib/chibios/os/common/ext/ARM/CMSIS/Core/Include/cmsis_gcc.h **** 
 135:./lib/chibios/os/common/ext/ARM/CMSIS/Core/Include/cmsis_gcc.h **** /**
 136:./lib/chibios/os/common/ext/ARM/CMSIS/Core/Include/cmsis_gcc.h ****   \brief   Disable IRQ Interrupts
 137:./lib/chibios/os/common/ext/ARM/CMSIS/Core/Include/cmsis_gcc.h ****   \details Disables IRQ interrupts by setting the I-bit in the CPSR.
 138:./lib/chibios/os/common/ext/ARM/CMSIS/Core/Include/cmsis_gcc.h ****            Can only be executed in Privileged modes.
 139:./lib/chibios/os/common/ext/ARM/CMSIS/Core/Include/cmsis_gcc.h ****  */
 140:./lib/chibios/os/common/ext/ARM/CMSIS/Core/Include/cmsis_gcc.h **** __STATIC_FORCEINLINE void __disable_irq(void)
 141:./lib/chibios/os/common/ext/ARM/CMSIS/Core/Include/cmsis_gcc.h **** {
 142:./lib/chibios/os/common/ext/ARM/CMSIS/Core/Include/cmsis_gcc.h ****   __ASM volatile ("cpsid i" : : : "memory");
 143:./lib/chibios/os/common/ext/ARM/CMSIS/Core/Include/cmsis_gcc.h **** }
 144:./lib/chibios/os/common/ext/ARM/CMSIS/Core/Include/cmsis_gcc.h **** 
 145:./lib/chibios/os/common/ext/ARM/CMSIS/Core/Include/cmsis_gcc.h **** 
 146:./lib/chibios/os/common/ext/ARM/CMSIS/Core/Include/cmsis_gcc.h **** /**
 147:./lib/chibios/os/common/ext/ARM/CMSIS/Core/Include/cmsis_gcc.h ****   \brief   Get Control Register
 148:./lib/chibios/os/common/ext/ARM/CMSIS/Core/Include/cmsis_gcc.h ****   \details Returns the content of the Control Register.
 149:./lib/chibios/os/common/ext/ARM/CMSIS/Core/Include/cmsis_gcc.h ****   \return               Control Register value
 150:./lib/chibios/os/common/ext/ARM/CMSIS/Core/Include/cmsis_gcc.h ****  */
 151:./lib/chibios/os/common/ext/ARM/CMSIS/Core/Include/cmsis_gcc.h **** __STATIC_FORCEINLINE uint32_t __get_CONTROL(void)
 152:./lib/chibios/os/common/ext/ARM/CMSIS/Core/Include/cmsis_gcc.h **** {
 153:./lib/chibios/os/common/ext/ARM/CMSIS/Core/Include/cmsis_gcc.h ****   uint32_t result;
 154:./lib/chibios/os/common/ext/ARM/CMSIS/Core/Include/cmsis_gcc.h **** 
 155:./lib/chibios/os/common/ext/ARM/CMSIS/Core/Include/cmsis_gcc.h ****   __ASM volatile ("MRS %0, control" : "=r" (result) );
 156:./lib/chibios/os/common/ext/ARM/CMSIS/Core/Include/cmsis_gcc.h ****   return(result);
 157:./lib/chibios/os/common/ext/ARM/CMSIS/Core/Include/cmsis_gcc.h **** }
 158:./lib/chibios/os/common/ext/ARM/CMSIS/Core/Include/cmsis_gcc.h **** 
 159:./lib/chibios/os/common/ext/ARM/CMSIS/Core/Include/cmsis_gcc.h **** 
 160:./lib/chibios/os/common/ext/ARM/CMSIS/Core/Include/cmsis_gcc.h **** #if (defined (__ARM_FEATURE_CMSE ) && (__ARM_FEATURE_CMSE == 3))
 161:./lib/chibios/os/common/ext/ARM/CMSIS/Core/Include/cmsis_gcc.h **** /**
 162:./lib/chibios/os/common/ext/ARM/CMSIS/Core/Include/cmsis_gcc.h ****   \brief   Get Control Register (non-secure)
 163:./lib/chibios/os/common/ext/ARM/CMSIS/Core/Include/cmsis_gcc.h ****   \details Returns the content of the non-secure Control Register when in secure mode.
 164:./lib/chibios/os/common/ext/ARM/CMSIS/Core/Include/cmsis_gcc.h ****   \return               non-secure Control Register value
 165:./lib/chibios/os/common/ext/ARM/CMSIS/Core/Include/cmsis_gcc.h ****  */
 166:./lib/chibios/os/common/ext/ARM/CMSIS/Core/Include/cmsis_gcc.h **** __STATIC_FORCEINLINE uint32_t __TZ_get_CONTROL_NS(void)
 167:./lib/chibios/os/common/ext/ARM/CMSIS/Core/Include/cmsis_gcc.h **** {
 168:./lib/chibios/os/common/ext/ARM/CMSIS/Core/Include/cmsis_gcc.h ****   uint32_t result;
 169:./lib/chibios/os/common/ext/ARM/CMSIS/Core/Include/cmsis_gcc.h **** 
 170:./lib/chibios/os/common/ext/ARM/CMSIS/Core/Include/cmsis_gcc.h ****   __ASM volatile ("MRS %0, control_ns" : "=r" (result) );
 171:./lib/chibios/os/common/ext/ARM/CMSIS/Core/Include/cmsis_gcc.h ****   return(result);
 172:./lib/chibios/os/common/ext/ARM/CMSIS/Core/Include/cmsis_gcc.h **** }
 173:./lib/chibios/os/common/ext/ARM/CMSIS/Core/Include/cmsis_gcc.h **** #endif
 174:./lib/chibios/os/common/ext/ARM/CMSIS/Core/Include/cmsis_gcc.h **** 
 175:./lib/chibios/os/common/ext/ARM/CMSIS/Core/Include/cmsis_gcc.h **** 
 176:./lib/chibios/os/common/ext/ARM/CMSIS/Core/Include/cmsis_gcc.h **** /**
 177:./lib/chibios/os/common/ext/ARM/CMSIS/Core/Include/cmsis_gcc.h ****   \brief   Set Control Register
 178:./lib/chibios/os/common/ext/ARM/CMSIS/Core/Include/cmsis_gcc.h ****   \details Writes the given value to the Control Register.
 179:./lib/chibios/os/common/ext/ARM/CMSIS/Core/Include/cmsis_gcc.h ****   \param [in]    control  Control Register value to set
 180:./lib/chibios/os/common/ext/ARM/CMSIS/Core/Include/cmsis_gcc.h ****  */
 181:./lib/chibios/os/common/ext/ARM/CMSIS/Core/Include/cmsis_gcc.h **** __STATIC_FORCEINLINE void __set_CONTROL(uint32_t control)
 182:./lib/chibios/os/common/ext/ARM/CMSIS/Core/Include/cmsis_gcc.h **** {
 183:./lib/chibios/os/common/ext/ARM/CMSIS/Core/Include/cmsis_gcc.h ****   __ASM volatile ("MSR control, %0" : : "r" (control) : "memory");
 184:./lib/chibios/os/common/ext/ARM/CMSIS/Core/Include/cmsis_gcc.h **** }
 185:./lib/chibios/os/common/ext/ARM/CMSIS/Core/Include/cmsis_gcc.h **** 
 186:./lib/chibios/os/common/ext/ARM/CMSIS/Core/Include/cmsis_gcc.h **** 
 187:./lib/chibios/os/common/ext/ARM/CMSIS/Core/Include/cmsis_gcc.h **** #if (defined (__ARM_FEATURE_CMSE ) && (__ARM_FEATURE_CMSE == 3))
 188:./lib/chibios/os/common/ext/ARM/CMSIS/Core/Include/cmsis_gcc.h **** /**
 189:./lib/chibios/os/common/ext/ARM/CMSIS/Core/Include/cmsis_gcc.h ****   \brief   Set Control Register (non-secure)
 190:./lib/chibios/os/common/ext/ARM/CMSIS/Core/Include/cmsis_gcc.h ****   \details Writes the given value to the non-secure Control Register when in secure state.
 191:./lib/chibios/os/common/ext/ARM/CMSIS/Core/Include/cmsis_gcc.h ****   \param [in]    control  Control Register value to set
 192:./lib/chibios/os/common/ext/ARM/CMSIS/Core/Include/cmsis_gcc.h ****  */
 193:./lib/chibios/os/common/ext/ARM/CMSIS/Core/Include/cmsis_gcc.h **** __STATIC_FORCEINLINE void __TZ_set_CONTROL_NS(uint32_t control)
 194:./lib/chibios/os/common/ext/ARM/CMSIS/Core/Include/cmsis_gcc.h **** {
 195:./lib/chibios/os/common/ext/ARM/CMSIS/Core/Include/cmsis_gcc.h ****   __ASM volatile ("MSR control_ns, %0" : : "r" (control) : "memory");
 196:./lib/chibios/os/common/ext/ARM/CMSIS/Core/Include/cmsis_gcc.h **** }
 197:./lib/chibios/os/common/ext/ARM/CMSIS/Core/Include/cmsis_gcc.h **** #endif
 198:./lib/chibios/os/common/ext/ARM/CMSIS/Core/Include/cmsis_gcc.h **** 
 199:./lib/chibios/os/common/ext/ARM/CMSIS/Core/Include/cmsis_gcc.h **** 
 200:./lib/chibios/os/common/ext/ARM/CMSIS/Core/Include/cmsis_gcc.h **** /**
 201:./lib/chibios/os/common/ext/ARM/CMSIS/Core/Include/cmsis_gcc.h ****   \brief   Get IPSR Register
 202:./lib/chibios/os/common/ext/ARM/CMSIS/Core/Include/cmsis_gcc.h ****   \details Returns the content of the IPSR Register.
 203:./lib/chibios/os/common/ext/ARM/CMSIS/Core/Include/cmsis_gcc.h ****   \return               IPSR Register value
 204:./lib/chibios/os/common/ext/ARM/CMSIS/Core/Include/cmsis_gcc.h ****  */
 205:./lib/chibios/os/common/ext/ARM/CMSIS/Core/Include/cmsis_gcc.h **** __STATIC_FORCEINLINE uint32_t __get_IPSR(void)
 206:./lib/chibios/os/common/ext/ARM/CMSIS/Core/Include/cmsis_gcc.h **** {
 207:./lib/chibios/os/common/ext/ARM/CMSIS/Core/Include/cmsis_gcc.h ****   uint32_t result;
 208:./lib/chibios/os/common/ext/ARM/CMSIS/Core/Include/cmsis_gcc.h **** 
 209:./lib/chibios/os/common/ext/ARM/CMSIS/Core/Include/cmsis_gcc.h ****   __ASM volatile ("MRS %0, ipsr" : "=r" (result) );
 210:./lib/chibios/os/common/ext/ARM/CMSIS/Core/Include/cmsis_gcc.h ****   return(result);
 211:./lib/chibios/os/common/ext/ARM/CMSIS/Core/Include/cmsis_gcc.h **** }
 212:./lib/chibios/os/common/ext/ARM/CMSIS/Core/Include/cmsis_gcc.h **** 
 213:./lib/chibios/os/common/ext/ARM/CMSIS/Core/Include/cmsis_gcc.h **** 
 214:./lib/chibios/os/common/ext/ARM/CMSIS/Core/Include/cmsis_gcc.h **** /**
 215:./lib/chibios/os/common/ext/ARM/CMSIS/Core/Include/cmsis_gcc.h ****   \brief   Get APSR Register
 216:./lib/chibios/os/common/ext/ARM/CMSIS/Core/Include/cmsis_gcc.h ****   \details Returns the content of the APSR Register.
 217:./lib/chibios/os/common/ext/ARM/CMSIS/Core/Include/cmsis_gcc.h ****   \return               APSR Register value
 218:./lib/chibios/os/common/ext/ARM/CMSIS/Core/Include/cmsis_gcc.h ****  */
 219:./lib/chibios/os/common/ext/ARM/CMSIS/Core/Include/cmsis_gcc.h **** __STATIC_FORCEINLINE uint32_t __get_APSR(void)
 220:./lib/chibios/os/common/ext/ARM/CMSIS/Core/Include/cmsis_gcc.h **** {
 221:./lib/chibios/os/common/ext/ARM/CMSIS/Core/Include/cmsis_gcc.h ****   uint32_t result;
 222:./lib/chibios/os/common/ext/ARM/CMSIS/Core/Include/cmsis_gcc.h **** 
 223:./lib/chibios/os/common/ext/ARM/CMSIS/Core/Include/cmsis_gcc.h ****   __ASM volatile ("MRS %0, apsr" : "=r" (result) );
 224:./lib/chibios/os/common/ext/ARM/CMSIS/Core/Include/cmsis_gcc.h ****   return(result);
 225:./lib/chibios/os/common/ext/ARM/CMSIS/Core/Include/cmsis_gcc.h **** }
 226:./lib/chibios/os/common/ext/ARM/CMSIS/Core/Include/cmsis_gcc.h **** 
 227:./lib/chibios/os/common/ext/ARM/CMSIS/Core/Include/cmsis_gcc.h **** 
 228:./lib/chibios/os/common/ext/ARM/CMSIS/Core/Include/cmsis_gcc.h **** /**
 229:./lib/chibios/os/common/ext/ARM/CMSIS/Core/Include/cmsis_gcc.h ****   \brief   Get xPSR Register
 230:./lib/chibios/os/common/ext/ARM/CMSIS/Core/Include/cmsis_gcc.h ****   \details Returns the content of the xPSR Register.
 231:./lib/chibios/os/common/ext/ARM/CMSIS/Core/Include/cmsis_gcc.h ****   \return               xPSR Register value
 232:./lib/chibios/os/common/ext/ARM/CMSIS/Core/Include/cmsis_gcc.h ****  */
 233:./lib/chibios/os/common/ext/ARM/CMSIS/Core/Include/cmsis_gcc.h **** __STATIC_FORCEINLINE uint32_t __get_xPSR(void)
 234:./lib/chibios/os/common/ext/ARM/CMSIS/Core/Include/cmsis_gcc.h **** {
 235:./lib/chibios/os/common/ext/ARM/CMSIS/Core/Include/cmsis_gcc.h ****   uint32_t result;
 236:./lib/chibios/os/common/ext/ARM/CMSIS/Core/Include/cmsis_gcc.h **** 
 237:./lib/chibios/os/common/ext/ARM/CMSIS/Core/Include/cmsis_gcc.h ****   __ASM volatile ("MRS %0, xpsr" : "=r" (result) );
 238:./lib/chibios/os/common/ext/ARM/CMSIS/Core/Include/cmsis_gcc.h ****   return(result);
 239:./lib/chibios/os/common/ext/ARM/CMSIS/Core/Include/cmsis_gcc.h **** }
 240:./lib/chibios/os/common/ext/ARM/CMSIS/Core/Include/cmsis_gcc.h **** 
 241:./lib/chibios/os/common/ext/ARM/CMSIS/Core/Include/cmsis_gcc.h **** 
 242:./lib/chibios/os/common/ext/ARM/CMSIS/Core/Include/cmsis_gcc.h **** /**
 243:./lib/chibios/os/common/ext/ARM/CMSIS/Core/Include/cmsis_gcc.h ****   \brief   Get Process Stack Pointer
 244:./lib/chibios/os/common/ext/ARM/CMSIS/Core/Include/cmsis_gcc.h ****   \details Returns the current value of the Process Stack Pointer (PSP).
 245:./lib/chibios/os/common/ext/ARM/CMSIS/Core/Include/cmsis_gcc.h ****   \return               PSP Register value
 246:./lib/chibios/os/common/ext/ARM/CMSIS/Core/Include/cmsis_gcc.h ****  */
 247:./lib/chibios/os/common/ext/ARM/CMSIS/Core/Include/cmsis_gcc.h **** __STATIC_FORCEINLINE uint32_t __get_PSP(void)
 248:./lib/chibios/os/common/ext/ARM/CMSIS/Core/Include/cmsis_gcc.h **** {
 249:./lib/chibios/os/common/ext/ARM/CMSIS/Core/Include/cmsis_gcc.h ****   uint32_t result;
 250:./lib/chibios/os/common/ext/ARM/CMSIS/Core/Include/cmsis_gcc.h **** 
 251:./lib/chibios/os/common/ext/ARM/CMSIS/Core/Include/cmsis_gcc.h ****   __ASM volatile ("MRS %0, psp"  : "=r" (result) );
 252:./lib/chibios/os/common/ext/ARM/CMSIS/Core/Include/cmsis_gcc.h ****   return(result);
 253:./lib/chibios/os/common/ext/ARM/CMSIS/Core/Include/cmsis_gcc.h **** }
 254:./lib/chibios/os/common/ext/ARM/CMSIS/Core/Include/cmsis_gcc.h **** 
 255:./lib/chibios/os/common/ext/ARM/CMSIS/Core/Include/cmsis_gcc.h **** 
 256:./lib/chibios/os/common/ext/ARM/CMSIS/Core/Include/cmsis_gcc.h **** #if (defined (__ARM_FEATURE_CMSE ) && (__ARM_FEATURE_CMSE == 3))
 257:./lib/chibios/os/common/ext/ARM/CMSIS/Core/Include/cmsis_gcc.h **** /**
 258:./lib/chibios/os/common/ext/ARM/CMSIS/Core/Include/cmsis_gcc.h ****   \brief   Get Process Stack Pointer (non-secure)
 259:./lib/chibios/os/common/ext/ARM/CMSIS/Core/Include/cmsis_gcc.h ****   \details Returns the current value of the non-secure Process Stack Pointer (PSP) when in secure s
 260:./lib/chibios/os/common/ext/ARM/CMSIS/Core/Include/cmsis_gcc.h ****   \return               PSP Register value
 261:./lib/chibios/os/common/ext/ARM/CMSIS/Core/Include/cmsis_gcc.h ****  */
 262:./lib/chibios/os/common/ext/ARM/CMSIS/Core/Include/cmsis_gcc.h **** __STATIC_FORCEINLINE uint32_t __TZ_get_PSP_NS(void)
 263:./lib/chibios/os/common/ext/ARM/CMSIS/Core/Include/cmsis_gcc.h **** {
 264:./lib/chibios/os/common/ext/ARM/CMSIS/Core/Include/cmsis_gcc.h ****   uint32_t result;
 265:./lib/chibios/os/common/ext/ARM/CMSIS/Core/Include/cmsis_gcc.h **** 
 266:./lib/chibios/os/common/ext/ARM/CMSIS/Core/Include/cmsis_gcc.h ****   __ASM volatile ("MRS %0, psp_ns"  : "=r" (result) );
 267:./lib/chibios/os/common/ext/ARM/CMSIS/Core/Include/cmsis_gcc.h ****   return(result);
 268:./lib/chibios/os/common/ext/ARM/CMSIS/Core/Include/cmsis_gcc.h **** }
 269:./lib/chibios/os/common/ext/ARM/CMSIS/Core/Include/cmsis_gcc.h **** #endif
 270:./lib/chibios/os/common/ext/ARM/CMSIS/Core/Include/cmsis_gcc.h **** 
 271:./lib/chibios/os/common/ext/ARM/CMSIS/Core/Include/cmsis_gcc.h **** 
 272:./lib/chibios/os/common/ext/ARM/CMSIS/Core/Include/cmsis_gcc.h **** /**
 273:./lib/chibios/os/common/ext/ARM/CMSIS/Core/Include/cmsis_gcc.h ****   \brief   Set Process Stack Pointer
 274:./lib/chibios/os/common/ext/ARM/CMSIS/Core/Include/cmsis_gcc.h ****   \details Assigns the given value to the Process Stack Pointer (PSP).
 275:./lib/chibios/os/common/ext/ARM/CMSIS/Core/Include/cmsis_gcc.h ****   \param [in]    topOfProcStack  Process Stack Pointer value to set
 276:./lib/chibios/os/common/ext/ARM/CMSIS/Core/Include/cmsis_gcc.h ****  */
 277:./lib/chibios/os/common/ext/ARM/CMSIS/Core/Include/cmsis_gcc.h **** __STATIC_FORCEINLINE void __set_PSP(uint32_t topOfProcStack)
 278:./lib/chibios/os/common/ext/ARM/CMSIS/Core/Include/cmsis_gcc.h **** {
 279:./lib/chibios/os/common/ext/ARM/CMSIS/Core/Include/cmsis_gcc.h ****   __ASM volatile ("MSR psp, %0" : : "r" (topOfProcStack) : );
 280:./lib/chibios/os/common/ext/ARM/CMSIS/Core/Include/cmsis_gcc.h **** }
 281:./lib/chibios/os/common/ext/ARM/CMSIS/Core/Include/cmsis_gcc.h **** 
 282:./lib/chibios/os/common/ext/ARM/CMSIS/Core/Include/cmsis_gcc.h **** 
 283:./lib/chibios/os/common/ext/ARM/CMSIS/Core/Include/cmsis_gcc.h **** #if (defined (__ARM_FEATURE_CMSE ) && (__ARM_FEATURE_CMSE == 3))
 284:./lib/chibios/os/common/ext/ARM/CMSIS/Core/Include/cmsis_gcc.h **** /**
 285:./lib/chibios/os/common/ext/ARM/CMSIS/Core/Include/cmsis_gcc.h ****   \brief   Set Process Stack Pointer (non-secure)
 286:./lib/chibios/os/common/ext/ARM/CMSIS/Core/Include/cmsis_gcc.h ****   \details Assigns the given value to the non-secure Process Stack Pointer (PSP) when in secure sta
 287:./lib/chibios/os/common/ext/ARM/CMSIS/Core/Include/cmsis_gcc.h ****   \param [in]    topOfProcStack  Process Stack Pointer value to set
 288:./lib/chibios/os/common/ext/ARM/CMSIS/Core/Include/cmsis_gcc.h ****  */
 289:./lib/chibios/os/common/ext/ARM/CMSIS/Core/Include/cmsis_gcc.h **** __STATIC_FORCEINLINE void __TZ_set_PSP_NS(uint32_t topOfProcStack)
 290:./lib/chibios/os/common/ext/ARM/CMSIS/Core/Include/cmsis_gcc.h **** {
 291:./lib/chibios/os/common/ext/ARM/CMSIS/Core/Include/cmsis_gcc.h ****   __ASM volatile ("MSR psp_ns, %0" : : "r" (topOfProcStack) : );
 292:./lib/chibios/os/common/ext/ARM/CMSIS/Core/Include/cmsis_gcc.h **** }
 293:./lib/chibios/os/common/ext/ARM/CMSIS/Core/Include/cmsis_gcc.h **** #endif
 294:./lib/chibios/os/common/ext/ARM/CMSIS/Core/Include/cmsis_gcc.h **** 
 295:./lib/chibios/os/common/ext/ARM/CMSIS/Core/Include/cmsis_gcc.h **** 
 296:./lib/chibios/os/common/ext/ARM/CMSIS/Core/Include/cmsis_gcc.h **** /**
 297:./lib/chibios/os/common/ext/ARM/CMSIS/Core/Include/cmsis_gcc.h ****   \brief   Get Main Stack Pointer
 298:./lib/chibios/os/common/ext/ARM/CMSIS/Core/Include/cmsis_gcc.h ****   \details Returns the current value of the Main Stack Pointer (MSP).
 299:./lib/chibios/os/common/ext/ARM/CMSIS/Core/Include/cmsis_gcc.h ****   \return               MSP Register value
 300:./lib/chibios/os/common/ext/ARM/CMSIS/Core/Include/cmsis_gcc.h ****  */
 301:./lib/chibios/os/common/ext/ARM/CMSIS/Core/Include/cmsis_gcc.h **** __STATIC_FORCEINLINE uint32_t __get_MSP(void)
 302:./lib/chibios/os/common/ext/ARM/CMSIS/Core/Include/cmsis_gcc.h **** {
 303:./lib/chibios/os/common/ext/ARM/CMSIS/Core/Include/cmsis_gcc.h ****   uint32_t result;
 304:./lib/chibios/os/common/ext/ARM/CMSIS/Core/Include/cmsis_gcc.h **** 
 305:./lib/chibios/os/common/ext/ARM/CMSIS/Core/Include/cmsis_gcc.h ****   __ASM volatile ("MRS %0, msp" : "=r" (result) );
 306:./lib/chibios/os/common/ext/ARM/CMSIS/Core/Include/cmsis_gcc.h ****   return(result);
 307:./lib/chibios/os/common/ext/ARM/CMSIS/Core/Include/cmsis_gcc.h **** }
 308:./lib/chibios/os/common/ext/ARM/CMSIS/Core/Include/cmsis_gcc.h **** 
 309:./lib/chibios/os/common/ext/ARM/CMSIS/Core/Include/cmsis_gcc.h **** 
 310:./lib/chibios/os/common/ext/ARM/CMSIS/Core/Include/cmsis_gcc.h **** #if (defined (__ARM_FEATURE_CMSE ) && (__ARM_FEATURE_CMSE == 3))
 311:./lib/chibios/os/common/ext/ARM/CMSIS/Core/Include/cmsis_gcc.h **** /**
 312:./lib/chibios/os/common/ext/ARM/CMSIS/Core/Include/cmsis_gcc.h ****   \brief   Get Main Stack Pointer (non-secure)
 313:./lib/chibios/os/common/ext/ARM/CMSIS/Core/Include/cmsis_gcc.h ****   \details Returns the current value of the non-secure Main Stack Pointer (MSP) when in secure stat
 314:./lib/chibios/os/common/ext/ARM/CMSIS/Core/Include/cmsis_gcc.h ****   \return               MSP Register value
 315:./lib/chibios/os/common/ext/ARM/CMSIS/Core/Include/cmsis_gcc.h ****  */
 316:./lib/chibios/os/common/ext/ARM/CMSIS/Core/Include/cmsis_gcc.h **** __STATIC_FORCEINLINE uint32_t __TZ_get_MSP_NS(void)
 317:./lib/chibios/os/common/ext/ARM/CMSIS/Core/Include/cmsis_gcc.h **** {
 318:./lib/chibios/os/common/ext/ARM/CMSIS/Core/Include/cmsis_gcc.h ****   uint32_t result;
 319:./lib/chibios/os/common/ext/ARM/CMSIS/Core/Include/cmsis_gcc.h **** 
 320:./lib/chibios/os/common/ext/ARM/CMSIS/Core/Include/cmsis_gcc.h ****   __ASM volatile ("MRS %0, msp_ns" : "=r" (result) );
 321:./lib/chibios/os/common/ext/ARM/CMSIS/Core/Include/cmsis_gcc.h ****   return(result);
 322:./lib/chibios/os/common/ext/ARM/CMSIS/Core/Include/cmsis_gcc.h **** }
 323:./lib/chibios/os/common/ext/ARM/CMSIS/Core/Include/cmsis_gcc.h **** #endif
 324:./lib/chibios/os/common/ext/ARM/CMSIS/Core/Include/cmsis_gcc.h **** 
 325:./lib/chibios/os/common/ext/ARM/CMSIS/Core/Include/cmsis_gcc.h **** 
 326:./lib/chibios/os/common/ext/ARM/CMSIS/Core/Include/cmsis_gcc.h **** /**
 327:./lib/chibios/os/common/ext/ARM/CMSIS/Core/Include/cmsis_gcc.h ****   \brief   Set Main Stack Pointer
 328:./lib/chibios/os/common/ext/ARM/CMSIS/Core/Include/cmsis_gcc.h ****   \details Assigns the given value to the Main Stack Pointer (MSP).
 329:./lib/chibios/os/common/ext/ARM/CMSIS/Core/Include/cmsis_gcc.h ****   \param [in]    topOfMainStack  Main Stack Pointer value to set
 330:./lib/chibios/os/common/ext/ARM/CMSIS/Core/Include/cmsis_gcc.h ****  */
 331:./lib/chibios/os/common/ext/ARM/CMSIS/Core/Include/cmsis_gcc.h **** __STATIC_FORCEINLINE void __set_MSP(uint32_t topOfMainStack)
 332:./lib/chibios/os/common/ext/ARM/CMSIS/Core/Include/cmsis_gcc.h **** {
 333:./lib/chibios/os/common/ext/ARM/CMSIS/Core/Include/cmsis_gcc.h ****   __ASM volatile ("MSR msp, %0" : : "r" (topOfMainStack) : );
 334:./lib/chibios/os/common/ext/ARM/CMSIS/Core/Include/cmsis_gcc.h **** }
 335:./lib/chibios/os/common/ext/ARM/CMSIS/Core/Include/cmsis_gcc.h **** 
 336:./lib/chibios/os/common/ext/ARM/CMSIS/Core/Include/cmsis_gcc.h **** 
 337:./lib/chibios/os/common/ext/ARM/CMSIS/Core/Include/cmsis_gcc.h **** #if (defined (__ARM_FEATURE_CMSE ) && (__ARM_FEATURE_CMSE == 3))
 338:./lib/chibios/os/common/ext/ARM/CMSIS/Core/Include/cmsis_gcc.h **** /**
 339:./lib/chibios/os/common/ext/ARM/CMSIS/Core/Include/cmsis_gcc.h ****   \brief   Set Main Stack Pointer (non-secure)
 340:./lib/chibios/os/common/ext/ARM/CMSIS/Core/Include/cmsis_gcc.h ****   \details Assigns the given value to the non-secure Main Stack Pointer (MSP) when in secure state.
 341:./lib/chibios/os/common/ext/ARM/CMSIS/Core/Include/cmsis_gcc.h ****   \param [in]    topOfMainStack  Main Stack Pointer value to set
 342:./lib/chibios/os/common/ext/ARM/CMSIS/Core/Include/cmsis_gcc.h ****  */
 343:./lib/chibios/os/common/ext/ARM/CMSIS/Core/Include/cmsis_gcc.h **** __STATIC_FORCEINLINE void __TZ_set_MSP_NS(uint32_t topOfMainStack)
 344:./lib/chibios/os/common/ext/ARM/CMSIS/Core/Include/cmsis_gcc.h **** {
 345:./lib/chibios/os/common/ext/ARM/CMSIS/Core/Include/cmsis_gcc.h ****   __ASM volatile ("MSR msp_ns, %0" : : "r" (topOfMainStack) : );
 346:./lib/chibios/os/common/ext/ARM/CMSIS/Core/Include/cmsis_gcc.h **** }
 347:./lib/chibios/os/common/ext/ARM/CMSIS/Core/Include/cmsis_gcc.h **** #endif
 348:./lib/chibios/os/common/ext/ARM/CMSIS/Core/Include/cmsis_gcc.h **** 
 349:./lib/chibios/os/common/ext/ARM/CMSIS/Core/Include/cmsis_gcc.h **** 
 350:./lib/chibios/os/common/ext/ARM/CMSIS/Core/Include/cmsis_gcc.h **** #if (defined (__ARM_FEATURE_CMSE ) && (__ARM_FEATURE_CMSE == 3))
 351:./lib/chibios/os/common/ext/ARM/CMSIS/Core/Include/cmsis_gcc.h **** /**
 352:./lib/chibios/os/common/ext/ARM/CMSIS/Core/Include/cmsis_gcc.h ****   \brief   Get Stack Pointer (non-secure)
 353:./lib/chibios/os/common/ext/ARM/CMSIS/Core/Include/cmsis_gcc.h ****   \details Returns the current value of the non-secure Stack Pointer (SP) when in secure state.
 354:./lib/chibios/os/common/ext/ARM/CMSIS/Core/Include/cmsis_gcc.h ****   \return               SP Register value
 355:./lib/chibios/os/common/ext/ARM/CMSIS/Core/Include/cmsis_gcc.h ****  */
 356:./lib/chibios/os/common/ext/ARM/CMSIS/Core/Include/cmsis_gcc.h **** __STATIC_FORCEINLINE uint32_t __TZ_get_SP_NS(void)
 357:./lib/chibios/os/common/ext/ARM/CMSIS/Core/Include/cmsis_gcc.h **** {
 358:./lib/chibios/os/common/ext/ARM/CMSIS/Core/Include/cmsis_gcc.h ****   uint32_t result;
 359:./lib/chibios/os/common/ext/ARM/CMSIS/Core/Include/cmsis_gcc.h **** 
 360:./lib/chibios/os/common/ext/ARM/CMSIS/Core/Include/cmsis_gcc.h ****   __ASM volatile ("MRS %0, sp_ns" : "=r" (result) );
 361:./lib/chibios/os/common/ext/ARM/CMSIS/Core/Include/cmsis_gcc.h ****   return(result);
 362:./lib/chibios/os/common/ext/ARM/CMSIS/Core/Include/cmsis_gcc.h **** }
 363:./lib/chibios/os/common/ext/ARM/CMSIS/Core/Include/cmsis_gcc.h **** 
 364:./lib/chibios/os/common/ext/ARM/CMSIS/Core/Include/cmsis_gcc.h **** 
 365:./lib/chibios/os/common/ext/ARM/CMSIS/Core/Include/cmsis_gcc.h **** /**
 366:./lib/chibios/os/common/ext/ARM/CMSIS/Core/Include/cmsis_gcc.h ****   \brief   Set Stack Pointer (non-secure)
 367:./lib/chibios/os/common/ext/ARM/CMSIS/Core/Include/cmsis_gcc.h ****   \details Assigns the given value to the non-secure Stack Pointer (SP) when in secure state.
 368:./lib/chibios/os/common/ext/ARM/CMSIS/Core/Include/cmsis_gcc.h ****   \param [in]    topOfStack  Stack Pointer value to set
 369:./lib/chibios/os/common/ext/ARM/CMSIS/Core/Include/cmsis_gcc.h ****  */
 370:./lib/chibios/os/common/ext/ARM/CMSIS/Core/Include/cmsis_gcc.h **** __STATIC_FORCEINLINE void __TZ_set_SP_NS(uint32_t topOfStack)
 371:./lib/chibios/os/common/ext/ARM/CMSIS/Core/Include/cmsis_gcc.h **** {
 372:./lib/chibios/os/common/ext/ARM/CMSIS/Core/Include/cmsis_gcc.h ****   __ASM volatile ("MSR sp_ns, %0" : : "r" (topOfStack) : );
 373:./lib/chibios/os/common/ext/ARM/CMSIS/Core/Include/cmsis_gcc.h **** }
 374:./lib/chibios/os/common/ext/ARM/CMSIS/Core/Include/cmsis_gcc.h **** #endif
 375:./lib/chibios/os/common/ext/ARM/CMSIS/Core/Include/cmsis_gcc.h **** 
 376:./lib/chibios/os/common/ext/ARM/CMSIS/Core/Include/cmsis_gcc.h **** 
 377:./lib/chibios/os/common/ext/ARM/CMSIS/Core/Include/cmsis_gcc.h **** /**
 378:./lib/chibios/os/common/ext/ARM/CMSIS/Core/Include/cmsis_gcc.h ****   \brief   Get Priority Mask
 379:./lib/chibios/os/common/ext/ARM/CMSIS/Core/Include/cmsis_gcc.h ****   \details Returns the current state of the priority mask bit from the Priority Mask Register.
 380:./lib/chibios/os/common/ext/ARM/CMSIS/Core/Include/cmsis_gcc.h ****   \return               Priority Mask value
 381:./lib/chibios/os/common/ext/ARM/CMSIS/Core/Include/cmsis_gcc.h ****  */
 382:./lib/chibios/os/common/ext/ARM/CMSIS/Core/Include/cmsis_gcc.h **** __STATIC_FORCEINLINE uint32_t __get_PRIMASK(void)
 383:./lib/chibios/os/common/ext/ARM/CMSIS/Core/Include/cmsis_gcc.h **** {
 384:./lib/chibios/os/common/ext/ARM/CMSIS/Core/Include/cmsis_gcc.h ****   uint32_t result;
 385:./lib/chibios/os/common/ext/ARM/CMSIS/Core/Include/cmsis_gcc.h **** 
 386:./lib/chibios/os/common/ext/ARM/CMSIS/Core/Include/cmsis_gcc.h ****   __ASM volatile ("MRS %0, primask" : "=r" (result) :: "memory");
 387:./lib/chibios/os/common/ext/ARM/CMSIS/Core/Include/cmsis_gcc.h ****   return(result);
 388:./lib/chibios/os/common/ext/ARM/CMSIS/Core/Include/cmsis_gcc.h **** }
 389:./lib/chibios/os/common/ext/ARM/CMSIS/Core/Include/cmsis_gcc.h **** 
 390:./lib/chibios/os/common/ext/ARM/CMSIS/Core/Include/cmsis_gcc.h **** 
 391:./lib/chibios/os/common/ext/ARM/CMSIS/Core/Include/cmsis_gcc.h **** #if (defined (__ARM_FEATURE_CMSE ) && (__ARM_FEATURE_CMSE == 3))
 392:./lib/chibios/os/common/ext/ARM/CMSIS/Core/Include/cmsis_gcc.h **** /**
 393:./lib/chibios/os/common/ext/ARM/CMSIS/Core/Include/cmsis_gcc.h ****   \brief   Get Priority Mask (non-secure)
 394:./lib/chibios/os/common/ext/ARM/CMSIS/Core/Include/cmsis_gcc.h ****   \details Returns the current state of the non-secure priority mask bit from the Priority Mask Reg
 395:./lib/chibios/os/common/ext/ARM/CMSIS/Core/Include/cmsis_gcc.h ****   \return               Priority Mask value
 396:./lib/chibios/os/common/ext/ARM/CMSIS/Core/Include/cmsis_gcc.h ****  */
 397:./lib/chibios/os/common/ext/ARM/CMSIS/Core/Include/cmsis_gcc.h **** __STATIC_FORCEINLINE uint32_t __TZ_get_PRIMASK_NS(void)
 398:./lib/chibios/os/common/ext/ARM/CMSIS/Core/Include/cmsis_gcc.h **** {
 399:./lib/chibios/os/common/ext/ARM/CMSIS/Core/Include/cmsis_gcc.h ****   uint32_t result;
 400:./lib/chibios/os/common/ext/ARM/CMSIS/Core/Include/cmsis_gcc.h **** 
 401:./lib/chibios/os/common/ext/ARM/CMSIS/Core/Include/cmsis_gcc.h ****   __ASM volatile ("MRS %0, primask_ns" : "=r" (result) :: "memory");
 402:./lib/chibios/os/common/ext/ARM/CMSIS/Core/Include/cmsis_gcc.h ****   return(result);
 403:./lib/chibios/os/common/ext/ARM/CMSIS/Core/Include/cmsis_gcc.h **** }
 404:./lib/chibios/os/common/ext/ARM/CMSIS/Core/Include/cmsis_gcc.h **** #endif
 405:./lib/chibios/os/common/ext/ARM/CMSIS/Core/Include/cmsis_gcc.h **** 
 406:./lib/chibios/os/common/ext/ARM/CMSIS/Core/Include/cmsis_gcc.h **** 
 407:./lib/chibios/os/common/ext/ARM/CMSIS/Core/Include/cmsis_gcc.h **** /**
 408:./lib/chibios/os/common/ext/ARM/CMSIS/Core/Include/cmsis_gcc.h ****   \brief   Set Priority Mask
 409:./lib/chibios/os/common/ext/ARM/CMSIS/Core/Include/cmsis_gcc.h ****   \details Assigns the given value to the Priority Mask Register.
 410:./lib/chibios/os/common/ext/ARM/CMSIS/Core/Include/cmsis_gcc.h ****   \param [in]    priMask  Priority Mask
 411:./lib/chibios/os/common/ext/ARM/CMSIS/Core/Include/cmsis_gcc.h ****  */
 412:./lib/chibios/os/common/ext/ARM/CMSIS/Core/Include/cmsis_gcc.h **** __STATIC_FORCEINLINE void __set_PRIMASK(uint32_t priMask)
 413:./lib/chibios/os/common/ext/ARM/CMSIS/Core/Include/cmsis_gcc.h **** {
 414:./lib/chibios/os/common/ext/ARM/CMSIS/Core/Include/cmsis_gcc.h ****   __ASM volatile ("MSR primask, %0" : : "r" (priMask) : "memory");
 415:./lib/chibios/os/common/ext/ARM/CMSIS/Core/Include/cmsis_gcc.h **** }
 416:./lib/chibios/os/common/ext/ARM/CMSIS/Core/Include/cmsis_gcc.h **** 
 417:./lib/chibios/os/common/ext/ARM/CMSIS/Core/Include/cmsis_gcc.h **** 
 418:./lib/chibios/os/common/ext/ARM/CMSIS/Core/Include/cmsis_gcc.h **** #if (defined (__ARM_FEATURE_CMSE ) && (__ARM_FEATURE_CMSE == 3))
 419:./lib/chibios/os/common/ext/ARM/CMSIS/Core/Include/cmsis_gcc.h **** /**
 420:./lib/chibios/os/common/ext/ARM/CMSIS/Core/Include/cmsis_gcc.h ****   \brief   Set Priority Mask (non-secure)
 421:./lib/chibios/os/common/ext/ARM/CMSIS/Core/Include/cmsis_gcc.h ****   \details Assigns the given value to the non-secure Priority Mask Register when in secure state.
 422:./lib/chibios/os/common/ext/ARM/CMSIS/Core/Include/cmsis_gcc.h ****   \param [in]    priMask  Priority Mask
 423:./lib/chibios/os/common/ext/ARM/CMSIS/Core/Include/cmsis_gcc.h ****  */
 424:./lib/chibios/os/common/ext/ARM/CMSIS/Core/Include/cmsis_gcc.h **** __STATIC_FORCEINLINE void __TZ_set_PRIMASK_NS(uint32_t priMask)
 425:./lib/chibios/os/common/ext/ARM/CMSIS/Core/Include/cmsis_gcc.h **** {
 426:./lib/chibios/os/common/ext/ARM/CMSIS/Core/Include/cmsis_gcc.h ****   __ASM volatile ("MSR primask_ns, %0" : : "r" (priMask) : "memory");
 427:./lib/chibios/os/common/ext/ARM/CMSIS/Core/Include/cmsis_gcc.h **** }
 428:./lib/chibios/os/common/ext/ARM/CMSIS/Core/Include/cmsis_gcc.h **** #endif
 429:./lib/chibios/os/common/ext/ARM/CMSIS/Core/Include/cmsis_gcc.h **** 
 430:./lib/chibios/os/common/ext/ARM/CMSIS/Core/Include/cmsis_gcc.h **** 
 431:./lib/chibios/os/common/ext/ARM/CMSIS/Core/Include/cmsis_gcc.h **** #if ((defined (__ARM_ARCH_7M__      ) && (__ARM_ARCH_7M__      == 1)) || \
 432:./lib/chibios/os/common/ext/ARM/CMSIS/Core/Include/cmsis_gcc.h ****      (defined (__ARM_ARCH_7EM__     ) && (__ARM_ARCH_7EM__     == 1)) || \
 433:./lib/chibios/os/common/ext/ARM/CMSIS/Core/Include/cmsis_gcc.h ****      (defined (__ARM_ARCH_8M_MAIN__ ) && (__ARM_ARCH_8M_MAIN__ == 1))    )
 434:./lib/chibios/os/common/ext/ARM/CMSIS/Core/Include/cmsis_gcc.h **** /**
 435:./lib/chibios/os/common/ext/ARM/CMSIS/Core/Include/cmsis_gcc.h ****   \brief   Enable FIQ
 436:./lib/chibios/os/common/ext/ARM/CMSIS/Core/Include/cmsis_gcc.h ****   \details Enables FIQ interrupts by clearing the F-bit in the CPSR.
 437:./lib/chibios/os/common/ext/ARM/CMSIS/Core/Include/cmsis_gcc.h ****            Can only be executed in Privileged modes.
 438:./lib/chibios/os/common/ext/ARM/CMSIS/Core/Include/cmsis_gcc.h ****  */
 439:./lib/chibios/os/common/ext/ARM/CMSIS/Core/Include/cmsis_gcc.h **** __STATIC_FORCEINLINE void __enable_fault_irq(void)
 440:./lib/chibios/os/common/ext/ARM/CMSIS/Core/Include/cmsis_gcc.h **** {
 441:./lib/chibios/os/common/ext/ARM/CMSIS/Core/Include/cmsis_gcc.h ****   __ASM volatile ("cpsie f" : : : "memory");
 442:./lib/chibios/os/common/ext/ARM/CMSIS/Core/Include/cmsis_gcc.h **** }
 443:./lib/chibios/os/common/ext/ARM/CMSIS/Core/Include/cmsis_gcc.h **** 
 444:./lib/chibios/os/common/ext/ARM/CMSIS/Core/Include/cmsis_gcc.h **** 
 445:./lib/chibios/os/common/ext/ARM/CMSIS/Core/Include/cmsis_gcc.h **** /**
 446:./lib/chibios/os/common/ext/ARM/CMSIS/Core/Include/cmsis_gcc.h ****   \brief   Disable FIQ
 447:./lib/chibios/os/common/ext/ARM/CMSIS/Core/Include/cmsis_gcc.h ****   \details Disables FIQ interrupts by setting the F-bit in the CPSR.
 448:./lib/chibios/os/common/ext/ARM/CMSIS/Core/Include/cmsis_gcc.h ****            Can only be executed in Privileged modes.
 449:./lib/chibios/os/common/ext/ARM/CMSIS/Core/Include/cmsis_gcc.h ****  */
 450:./lib/chibios/os/common/ext/ARM/CMSIS/Core/Include/cmsis_gcc.h **** __STATIC_FORCEINLINE void __disable_fault_irq(void)
 451:./lib/chibios/os/common/ext/ARM/CMSIS/Core/Include/cmsis_gcc.h **** {
 452:./lib/chibios/os/common/ext/ARM/CMSIS/Core/Include/cmsis_gcc.h ****   __ASM volatile ("cpsid f" : : : "memory");
 453:./lib/chibios/os/common/ext/ARM/CMSIS/Core/Include/cmsis_gcc.h **** }
 454:./lib/chibios/os/common/ext/ARM/CMSIS/Core/Include/cmsis_gcc.h **** 
 455:./lib/chibios/os/common/ext/ARM/CMSIS/Core/Include/cmsis_gcc.h **** 
 456:./lib/chibios/os/common/ext/ARM/CMSIS/Core/Include/cmsis_gcc.h **** /**
 457:./lib/chibios/os/common/ext/ARM/CMSIS/Core/Include/cmsis_gcc.h ****   \brief   Get Base Priority
 458:./lib/chibios/os/common/ext/ARM/CMSIS/Core/Include/cmsis_gcc.h ****   \details Returns the current value of the Base Priority register.
 459:./lib/chibios/os/common/ext/ARM/CMSIS/Core/Include/cmsis_gcc.h ****   \return               Base Priority register value
 460:./lib/chibios/os/common/ext/ARM/CMSIS/Core/Include/cmsis_gcc.h ****  */
 461:./lib/chibios/os/common/ext/ARM/CMSIS/Core/Include/cmsis_gcc.h **** __STATIC_FORCEINLINE uint32_t __get_BASEPRI(void)
 462:./lib/chibios/os/common/ext/ARM/CMSIS/Core/Include/cmsis_gcc.h **** {
 463:./lib/chibios/os/common/ext/ARM/CMSIS/Core/Include/cmsis_gcc.h ****   uint32_t result;
 464:./lib/chibios/os/common/ext/ARM/CMSIS/Core/Include/cmsis_gcc.h **** 
 465:./lib/chibios/os/common/ext/ARM/CMSIS/Core/Include/cmsis_gcc.h ****   __ASM volatile ("MRS %0, basepri" : "=r" (result) );
 466:./lib/chibios/os/common/ext/ARM/CMSIS/Core/Include/cmsis_gcc.h ****   return(result);
 467:./lib/chibios/os/common/ext/ARM/CMSIS/Core/Include/cmsis_gcc.h **** }
 468:./lib/chibios/os/common/ext/ARM/CMSIS/Core/Include/cmsis_gcc.h **** 
 469:./lib/chibios/os/common/ext/ARM/CMSIS/Core/Include/cmsis_gcc.h **** 
 470:./lib/chibios/os/common/ext/ARM/CMSIS/Core/Include/cmsis_gcc.h **** #if (defined (__ARM_FEATURE_CMSE ) && (__ARM_FEATURE_CMSE == 3))
 471:./lib/chibios/os/common/ext/ARM/CMSIS/Core/Include/cmsis_gcc.h **** /**
 472:./lib/chibios/os/common/ext/ARM/CMSIS/Core/Include/cmsis_gcc.h ****   \brief   Get Base Priority (non-secure)
 473:./lib/chibios/os/common/ext/ARM/CMSIS/Core/Include/cmsis_gcc.h ****   \details Returns the current value of the non-secure Base Priority register when in secure state.
 474:./lib/chibios/os/common/ext/ARM/CMSIS/Core/Include/cmsis_gcc.h ****   \return               Base Priority register value
 475:./lib/chibios/os/common/ext/ARM/CMSIS/Core/Include/cmsis_gcc.h ****  */
 476:./lib/chibios/os/common/ext/ARM/CMSIS/Core/Include/cmsis_gcc.h **** __STATIC_FORCEINLINE uint32_t __TZ_get_BASEPRI_NS(void)
 477:./lib/chibios/os/common/ext/ARM/CMSIS/Core/Include/cmsis_gcc.h **** {
 478:./lib/chibios/os/common/ext/ARM/CMSIS/Core/Include/cmsis_gcc.h ****   uint32_t result;
 479:./lib/chibios/os/common/ext/ARM/CMSIS/Core/Include/cmsis_gcc.h **** 
 480:./lib/chibios/os/common/ext/ARM/CMSIS/Core/Include/cmsis_gcc.h ****   __ASM volatile ("MRS %0, basepri_ns" : "=r" (result) );
 481:./lib/chibios/os/common/ext/ARM/CMSIS/Core/Include/cmsis_gcc.h ****   return(result);
 482:./lib/chibios/os/common/ext/ARM/CMSIS/Core/Include/cmsis_gcc.h **** }
 483:./lib/chibios/os/common/ext/ARM/CMSIS/Core/Include/cmsis_gcc.h **** #endif
 484:./lib/chibios/os/common/ext/ARM/CMSIS/Core/Include/cmsis_gcc.h **** 
 485:./lib/chibios/os/common/ext/ARM/CMSIS/Core/Include/cmsis_gcc.h **** 
 486:./lib/chibios/os/common/ext/ARM/CMSIS/Core/Include/cmsis_gcc.h **** /**
 487:./lib/chibios/os/common/ext/ARM/CMSIS/Core/Include/cmsis_gcc.h ****   \brief   Set Base Priority
 488:./lib/chibios/os/common/ext/ARM/CMSIS/Core/Include/cmsis_gcc.h ****   \details Assigns the given value to the Base Priority register.
 489:./lib/chibios/os/common/ext/ARM/CMSIS/Core/Include/cmsis_gcc.h ****   \param [in]    basePri  Base Priority value to set
 490:./lib/chibios/os/common/ext/ARM/CMSIS/Core/Include/cmsis_gcc.h ****  */
 491:./lib/chibios/os/common/ext/ARM/CMSIS/Core/Include/cmsis_gcc.h **** __STATIC_FORCEINLINE void __set_BASEPRI(uint32_t basePri)
 217              		.loc 5 491 27 view .LVU73
 218              	.LBB235:
 492:./lib/chibios/os/common/ext/ARM/CMSIS/Core/Include/cmsis_gcc.h **** {
 493:./lib/chibios/os/common/ext/ARM/CMSIS/Core/Include/cmsis_gcc.h ****   __ASM volatile ("MSR basepri, %0" : : "r" (basePri) : "memory");
 219              		.loc 5 493 3 view .LVU74
 220              	.LBE235:
 221              	.LBE234:
 222              	.LBE233:
 223              	.LBE232:
 216:lib/chibios/os/rt/src/chthreads.c ****   thread_t *tp;
 224              		.loc 1 216 64 is_stmt 0 view .LVU75
 225 0000 08B5     		push	{r3, lr}
 226              		.cfi_def_cfa_offset 8
 227              		.cfi_offset 3, -8
 228              		.cfi_offset 14, -4
 229              	.LBB239:
 230              	.LBB238:
 231              	.LBB237:
 232              	.LBB236:
 233              		.loc 5 493 3 view .LVU76
 234 0002 2023     		movs	r3, #32
 235              		.syntax unified
 236              	@ 493 "./lib/chibios/os/common/ext/ARM/CMSIS/Core/Include/cmsis_gcc.h" 1
 237 0004 83F31188 		MSR basepri, r3
 238              	@ 0 "" 2
 239              	.LVL12:
 240              		.loc 5 493 3 view .LVU77
 241              		.thumb
 242              		.syntax unified
 243              	.LBE236:
 244              	.LBE237:
 245              	.LBE238:
 358:./lib/chibios/os/rt/include/chsys.h ****   _stats_start_measure_crit_thd();
 246              		.loc 3 358 34 is_stmt 1 view .LVU78
 359:./lib/chibios/os/rt/include/chsys.h ****   _dbg_check_lock();
 247              		.loc 3 359 20 view .LVU79
 248              	.LBE239:
 231:lib/chibios/os/rt/src/chthreads.c ****   tp = chThdCreateSuspendedI(tdp);
 249              		.loc 1 231 3 view .LVU80
 250              		.loc 1 231 8 is_stmt 0 view .LVU81
 251 0008 FFF7FEFF 		bl	chThdCreateSuspendedI
 252              	.LVL13:
 232:lib/chibios/os/rt/src/chthreads.c ****   chSysUnlock();
 253              		.loc 1 232 3 is_stmt 1 view .LVU82
 254              	.LBB240:
 255              	.LBI240:
 360:./lib/chibios/os/rt/include/chsys.h **** }
 361:./lib/chibios/os/rt/include/chsys.h **** 
 362:./lib/chibios/os/rt/include/chsys.h **** /**
 363:./lib/chibios/os/rt/include/chsys.h ****  * @brief   Leaves the kernel lock state.
 364:./lib/chibios/os/rt/include/chsys.h ****  *
 365:./lib/chibios/os/rt/include/chsys.h ****  * @special
 366:./lib/chibios/os/rt/include/chsys.h ****  */
 367:./lib/chibios/os/rt/include/chsys.h **** static inline void chSysUnlock(void) {
 256              		.loc 3 367 20 view .LVU83
 257              	.LBB241:
 368:./lib/chibios/os/rt/include/chsys.h **** 
 369:./lib/chibios/os/rt/include/chsys.h ****   _dbg_check_unlock();
 258              		.loc 3 369 22 view .LVU84
 370:./lib/chibios/os/rt/include/chsys.h ****   _stats_stop_measure_crit_thd();
 259              		.loc 3 370 33 view .LVU85
 371:./lib/chibios/os/rt/include/chsys.h **** 
 372:./lib/chibios/os/rt/include/chsys.h ****   /* The following condition can be triggered by the use of i-class functions
 373:./lib/chibios/os/rt/include/chsys.h ****      in a critical section not followed by a chSchRescheduleS(), this means
 374:./lib/chibios/os/rt/include/chsys.h ****      that the current thread has a lower priority than the next thread in
 375:./lib/chibios/os/rt/include/chsys.h ****      the ready list.*/
 376:./lib/chibios/os/rt/include/chsys.h ****   chDbgAssert((ch.rlist.pqueue.next == &ch.rlist.pqueue) ||
 260              		.loc 3 376 3 view .LVU86
 261              		.loc 3 376 3 view .LVU87
 262              		.loc 3 376 3 view .LVU88
 377:./lib/chibios/os/rt/include/chsys.h ****               (ch.rlist.current->hdr.pqueue.prio >= ch.rlist.pqueue.next->prio),
 378:./lib/chibios/os/rt/include/chsys.h ****               "priority order violation");
 379:./lib/chibios/os/rt/include/chsys.h **** 
 380:./lib/chibios/os/rt/include/chsys.h ****   port_unlock();
 263              		.loc 3 380 3 view .LVU89
 264              	.LBB242:
 265              	.LBI242:
 678:./lib/chibios/os/common/ports/ARMCMx/chcore_v7m.h **** #if defined(__CM7_REV)
 679:./lib/chibios/os/common/ports/ARMCMx/chcore_v7m.h **** #if __CM7_REV <= 1
 680:./lib/chibios/os/common/ports/ARMCMx/chcore_v7m.h ****   __enable_irq();
 681:./lib/chibios/os/common/ports/ARMCMx/chcore_v7m.h **** #endif
 682:./lib/chibios/os/common/ports/ARMCMx/chcore_v7m.h **** #endif
 683:./lib/chibios/os/common/ports/ARMCMx/chcore_v7m.h **** #else /* CORTEX_SIMPLIFIED_PRIORITY */
 684:./lib/chibios/os/common/ports/ARMCMx/chcore_v7m.h ****   __disable_irq();
 685:./lib/chibios/os/common/ports/ARMCMx/chcore_v7m.h **** #endif /* CORTEX_SIMPLIFIED_PRIORITY */
 686:./lib/chibios/os/common/ports/ARMCMx/chcore_v7m.h **** }
 687:./lib/chibios/os/common/ports/ARMCMx/chcore_v7m.h **** 
 688:./lib/chibios/os/common/ports/ARMCMx/chcore_v7m.h **** /**
 689:./lib/chibios/os/common/ports/ARMCMx/chcore_v7m.h ****  * @brief   Kernel-unlock action.
 690:./lib/chibios/os/common/ports/ARMCMx/chcore_v7m.h ****  * @details In this port this function lowers the base priority to user
 691:./lib/chibios/os/common/ports/ARMCMx/chcore_v7m.h ****  *          level.
 692:./lib/chibios/os/common/ports/ARMCMx/chcore_v7m.h ****  */
 693:./lib/chibios/os/common/ports/ARMCMx/chcore_v7m.h **** __STATIC_FORCEINLINE void port_unlock(void) {
 266              		.loc 4 693 27 view .LVU90
 694:./lib/chibios/os/common/ports/ARMCMx/chcore_v7m.h **** 
 695:./lib/chibios/os/common/ports/ARMCMx/chcore_v7m.h **** #if CORTEX_SIMPLIFIED_PRIORITY == FALSE
 696:./lib/chibios/os/common/ports/ARMCMx/chcore_v7m.h ****   __set_BASEPRI(CORTEX_BASEPRI_DISABLED);
 267              		.loc 4 696 3 view .LVU91
 268              	.LBB243:
 269              	.LBI243:
 491:./lib/chibios/os/common/ext/ARM/CMSIS/Core/Include/cmsis_gcc.h **** {
 270              		.loc 5 491 27 view .LVU92
 271              	.LBB244:
 272              		.loc 5 493 3 view .LVU93
 273 000c 0023     		movs	r3, #0
 274              		.syntax unified
 275              	@ 493 "./lib/chibios/os/common/ext/ARM/CMSIS/Core/Include/cmsis_gcc.h" 1
 276 000e 83F31188 		MSR basepri, r3
 277              	@ 0 "" 2
 278              	.LVL14:
 279              		.loc 5 493 3 is_stmt 0 view .LVU94
 280              		.thumb
 281              		.syntax unified
 282              	.LBE244:
 283              	.LBE243:
 284              	.LBE242:
 285              	.LBE241:
 286              	.LBE240:
 233:lib/chibios/os/rt/src/chthreads.c **** 
 234:lib/chibios/os/rt/src/chthreads.c ****   return tp;
 287              		.loc 1 234 3 is_stmt 1 view .LVU95
 235:lib/chibios/os/rt/src/chthreads.c **** }
 288              		.loc 1 235 1 is_stmt 0 view .LVU96
 289 0012 08BD     		pop	{r3, pc}
 290              		.cfi_endproc
 291              	.LFE291:
 293              		.section	.text.chThdCreateI,"ax",%progbits
 294              		.align	1
 295              		.global	chThdCreateI
 296              		.syntax unified
 297              		.thumb
 298              		.thumb_func
 299              		.fpu fpv4-sp-d16
 301              	chThdCreateI:
 302              	.LVL15:
 303              	.LFB292:
 236:lib/chibios/os/rt/src/chthreads.c **** 
 237:lib/chibios/os/rt/src/chthreads.c **** /**
 238:lib/chibios/os/rt/src/chthreads.c ****  * @brief   Creates a new thread into a static memory area.
 239:lib/chibios/os/rt/src/chthreads.c ****  * @details The new thread is initialized and make ready to execute.
 240:lib/chibios/os/rt/src/chthreads.c ****  * @post    The created thread has a reference counter set to one, it is
 241:lib/chibios/os/rt/src/chthreads.c ****  *          caller responsibility to call @p chThdRelease() or @p chthdWait()
 242:lib/chibios/os/rt/src/chthreads.c ****  *          in order to release the reference. The thread persists in the
 243:lib/chibios/os/rt/src/chthreads.c ****  *          registry until its reference counter reaches zero.
 244:lib/chibios/os/rt/src/chthreads.c ****  * @post    The initialized thread can be subsequently started by invoking
 245:lib/chibios/os/rt/src/chthreads.c ****  *          @p chThdStart(), @p chThdStartI() or @p chSchWakeupS()
 246:lib/chibios/os/rt/src/chthreads.c ****  *          depending on the execution context.
 247:lib/chibios/os/rt/src/chthreads.c ****  * @note    A thread can terminate by calling @p chThdExit() or by simply
 248:lib/chibios/os/rt/src/chthreads.c ****  *          returning from its main function.
 249:lib/chibios/os/rt/src/chthreads.c ****  * @note    Threads created using this function do not obey to the
 250:lib/chibios/os/rt/src/chthreads.c ****  *          @p CH_DBG_FILL_THREADS debug option because it would keep
 251:lib/chibios/os/rt/src/chthreads.c ****  *          the kernel locked for too much time.
 252:lib/chibios/os/rt/src/chthreads.c ****  *
 253:lib/chibios/os/rt/src/chthreads.c ****  * @param[out] tdp      pointer to the thread descriptor
 254:lib/chibios/os/rt/src/chthreads.c ****  * @return              The pointer to the @p thread_t structure allocated for
 255:lib/chibios/os/rt/src/chthreads.c ****  *                      the thread into the working space area.
 256:lib/chibios/os/rt/src/chthreads.c ****  *
 257:lib/chibios/os/rt/src/chthreads.c ****  * @iclass
 258:lib/chibios/os/rt/src/chthreads.c ****  */
 259:lib/chibios/os/rt/src/chthreads.c **** thread_t *chThdCreateI(const thread_descriptor_t *tdp) {
 304              		.loc 1 259 56 is_stmt 1 view -0
 305              		.cfi_startproc
 306              		@ args = 0, pretend = 0, frame = 0
 307              		@ frame_needed = 0, uses_anonymous_args = 0
 260:lib/chibios/os/rt/src/chthreads.c **** 
 261:lib/chibios/os/rt/src/chthreads.c ****   return chSchReadyI(chThdCreateSuspendedI(tdp));
 308              		.loc 1 261 3 view .LVU98
 259:lib/chibios/os/rt/src/chthreads.c **** 
 309              		.loc 1 259 56 is_stmt 0 view .LVU99
 310 0000 08B5     		push	{r3, lr}
 311              		.cfi_def_cfa_offset 8
 312              		.cfi_offset 3, -8
 313              		.cfi_offset 14, -4
 314              		.loc 1 261 10 view .LVU100
 315 0002 FFF7FEFF 		bl	chThdCreateSuspendedI
 316              	.LVL16:
 262:lib/chibios/os/rt/src/chthreads.c **** }
 317              		.loc 1 262 1 view .LVU101
 318 0006 BDE80840 		pop	{r3, lr}
 319              		.cfi_restore 14
 320              		.cfi_restore 3
 321              		.cfi_def_cfa_offset 0
 261:lib/chibios/os/rt/src/chthreads.c **** }
 322              		.loc 1 261 10 view .LVU102
 323 000a FFF7FEBF 		b	chSchReadyI
 324              	.LVL17:
 325              		.cfi_endproc
 326              	.LFE292:
 328              		.section	.text.chThdCreate,"ax",%progbits
 329              		.align	1
 330              		.global	chThdCreate
 331              		.syntax unified
 332              		.thumb
 333              		.thumb_func
 334              		.fpu fpv4-sp-d16
 336              	chThdCreate:
 337              	.LVL18:
 338              	.LFB293:
 263:lib/chibios/os/rt/src/chthreads.c **** 
 264:lib/chibios/os/rt/src/chthreads.c **** /**
 265:lib/chibios/os/rt/src/chthreads.c ****  * @brief   Creates a new thread into a static memory area.
 266:lib/chibios/os/rt/src/chthreads.c ****  * @details The new thread is initialized and make ready to execute.
 267:lib/chibios/os/rt/src/chthreads.c ****  * @post    The created thread has a reference counter set to one, it is
 268:lib/chibios/os/rt/src/chthreads.c ****  *          caller responsibility to call @p chThdRelease() or @p chthdWait()
 269:lib/chibios/os/rt/src/chthreads.c ****  *          in order to release the reference. The thread persists in the
 270:lib/chibios/os/rt/src/chthreads.c ****  *          registry until its reference counter reaches zero.
 271:lib/chibios/os/rt/src/chthreads.c ****  * @note    A thread can terminate by calling @p chThdExit() or by simply
 272:lib/chibios/os/rt/src/chthreads.c ****  *          returning from its main function.
 273:lib/chibios/os/rt/src/chthreads.c ****  *
 274:lib/chibios/os/rt/src/chthreads.c ****  * @param[out] tdp      pointer to the thread descriptor
 275:lib/chibios/os/rt/src/chthreads.c ****  * @return              The pointer to the @p thread_t structure allocated for
 276:lib/chibios/os/rt/src/chthreads.c ****  *                      the thread into the working space area.
 277:lib/chibios/os/rt/src/chthreads.c ****  *
 278:lib/chibios/os/rt/src/chthreads.c ****  * @iclass
 279:lib/chibios/os/rt/src/chthreads.c ****  */
 280:lib/chibios/os/rt/src/chthreads.c **** thread_t *chThdCreate(const thread_descriptor_t *tdp) {
 339              		.loc 1 280 55 is_stmt 1 view -0
 340              		.cfi_startproc
 341              		@ args = 0, pretend = 0, frame = 0
 342              		@ frame_needed = 0, uses_anonymous_args = 0
 281:lib/chibios/os/rt/src/chthreads.c ****   thread_t *tp;
 343              		.loc 1 281 3 view .LVU104
 282:lib/chibios/os/rt/src/chthreads.c **** 
 283:lib/chibios/os/rt/src/chthreads.c **** #if (CH_CFG_USE_REGISTRY == TRUE) &&                                        \
 284:lib/chibios/os/rt/src/chthreads.c ****     ((CH_DBG_ENABLE_STACK_CHECK == TRUE) || (CH_CFG_USE_DYNAMIC == TRUE))
 285:lib/chibios/os/rt/src/chthreads.c ****   chDbgAssert(chRegFindThreadByWorkingArea(tdp->wbase) == NULL,
 344              		.loc 1 285 3 view .LVU105
 345              		.loc 1 285 3 view .LVU106
 346              		.loc 1 285 3 view .LVU107
 286:lib/chibios/os/rt/src/chthreads.c ****               "working area in use");
 287:lib/chibios/os/rt/src/chthreads.c **** #endif
 288:lib/chibios/os/rt/src/chthreads.c **** 
 289:lib/chibios/os/rt/src/chthreads.c **** #if CH_DBG_FILL_THREADS == TRUE
 290:lib/chibios/os/rt/src/chthreads.c ****   _thread_memfill((uint8_t *)tdp->wbase,
 291:lib/chibios/os/rt/src/chthreads.c ****                   (uint8_t *)tdp->wend,
 292:lib/chibios/os/rt/src/chthreads.c ****                   CH_DBG_STACK_FILL_VALUE);
 293:lib/chibios/os/rt/src/chthreads.c **** #endif
 294:lib/chibios/os/rt/src/chthreads.c **** 
 295:lib/chibios/os/rt/src/chthreads.c ****   chSysLock();
 347              		.loc 1 295 3 view .LVU108
 348              	.LBB245:
 349              	.LBI245:
 355:./lib/chibios/os/rt/include/chsys.h **** 
 350              		.loc 3 355 20 view .LVU109
 357:./lib/chibios/os/rt/include/chsys.h ****   _stats_start_measure_crit_thd();
 351              		.loc 3 357 3 view .LVU110
 352              	.LBB246:
 353              	.LBI246:
 669:./lib/chibios/os/common/ports/ARMCMx/chcore_v7m.h **** 
 354              		.loc 4 669 27 view .LVU111
 677:./lib/chibios/os/common/ports/ARMCMx/chcore_v7m.h **** #if defined(__CM7_REV)
 355              		.loc 4 677 3 view .LVU112
 356              	.LBB247:
 357              	.LBI247:
 491:./lib/chibios/os/common/ext/ARM/CMSIS/Core/Include/cmsis_gcc.h **** {
 358              		.loc 5 491 27 view .LVU113
 359              	.LBB248:
 360              		.loc 5 493 3 view .LVU114
 361              	.LBE248:
 362              	.LBE247:
 363              	.LBE246:
 364              	.LBE245:
 280:lib/chibios/os/rt/src/chthreads.c ****   thread_t *tp;
 365              		.loc 1 280 55 is_stmt 0 view .LVU115
 366 0000 10B5     		push	{r4, lr}
 367              		.cfi_def_cfa_offset 8
 368              		.cfi_offset 4, -8
 369              		.cfi_offset 14, -4
 370              	.LBB252:
 371              	.LBB251:
 372              	.LBB250:
 373              	.LBB249:
 374              		.loc 5 493 3 view .LVU116
 375 0002 2023     		movs	r3, #32
 376              		.syntax unified
 377              	@ 493 "./lib/chibios/os/common/ext/ARM/CMSIS/Core/Include/cmsis_gcc.h" 1
 378 0004 83F31188 		MSR basepri, r3
 379              	@ 0 "" 2
 380              	.LVL19:
 381              		.loc 5 493 3 view .LVU117
 382              		.thumb
 383              		.syntax unified
 384              	.LBE249:
 385              	.LBE250:
 386              	.LBE251:
 358:./lib/chibios/os/rt/include/chsys.h ****   _dbg_check_lock();
 387              		.loc 3 358 34 is_stmt 1 view .LVU118
 359:./lib/chibios/os/rt/include/chsys.h **** }
 388              		.loc 3 359 20 view .LVU119
 389              	.LBE252:
 296:lib/chibios/os/rt/src/chthreads.c ****   tp = chThdCreateSuspendedI(tdp);
 390              		.loc 1 296 3 view .LVU120
 391              		.loc 1 296 8 is_stmt 0 view .LVU121
 392 0008 FFF7FEFF 		bl	chThdCreateSuspendedI
 393              	.LVL20:
 297:lib/chibios/os/rt/src/chthreads.c ****   chSchWakeupS(tp, MSG_OK);
 394              		.loc 1 297 3 view .LVU122
 395 000c 0021     		movs	r1, #0
 296:lib/chibios/os/rt/src/chthreads.c ****   tp = chThdCreateSuspendedI(tdp);
 396              		.loc 1 296 8 view .LVU123
 397 000e 0446     		mov	r4, r0
 398              	.LVL21:
 399              		.loc 1 297 3 is_stmt 1 view .LVU124
 400 0010 FFF7FEFF 		bl	chSchWakeupS
 401              	.LVL22:
 298:lib/chibios/os/rt/src/chthreads.c ****   chSysUnlock();
 402              		.loc 1 298 3 view .LVU125
 403              	.LBB253:
 404              	.LBI253:
 367:./lib/chibios/os/rt/include/chsys.h **** 
 405              		.loc 3 367 20 view .LVU126
 406              	.LBB254:
 369:./lib/chibios/os/rt/include/chsys.h ****   _stats_stop_measure_crit_thd();
 407              		.loc 3 369 22 view .LVU127
 370:./lib/chibios/os/rt/include/chsys.h **** 
 408              		.loc 3 370 33 view .LVU128
 376:./lib/chibios/os/rt/include/chsys.h ****               (ch.rlist.current->hdr.pqueue.prio >= ch.rlist.pqueue.next->prio),
 409              		.loc 3 376 3 view .LVU129
 376:./lib/chibios/os/rt/include/chsys.h ****               (ch.rlist.current->hdr.pqueue.prio >= ch.rlist.pqueue.next->prio),
 410              		.loc 3 376 3 view .LVU130
 376:./lib/chibios/os/rt/include/chsys.h ****               (ch.rlist.current->hdr.pqueue.prio >= ch.rlist.pqueue.next->prio),
 411              		.loc 3 376 3 view .LVU131
 412              		.loc 3 380 3 view .LVU132
 413              	.LBB255:
 414              	.LBI255:
 693:./lib/chibios/os/common/ports/ARMCMx/chcore_v7m.h **** 
 415              		.loc 4 693 27 view .LVU133
 416              		.loc 4 696 3 view .LVU134
 417              	.LBB256:
 418              	.LBI256:
 491:./lib/chibios/os/common/ext/ARM/CMSIS/Core/Include/cmsis_gcc.h **** {
 419              		.loc 5 491 27 view .LVU135
 420              	.LBB257:
 421              		.loc 5 493 3 view .LVU136
 422 0014 0023     		movs	r3, #0
 423              		.syntax unified
 424              	@ 493 "./lib/chibios/os/common/ext/ARM/CMSIS/Core/Include/cmsis_gcc.h" 1
 425 0016 83F31188 		MSR basepri, r3
 426              	@ 0 "" 2
 427              	.LVL23:
 428              		.loc 5 493 3 is_stmt 0 view .LVU137
 429              		.thumb
 430              		.syntax unified
 431              	.LBE257:
 432              	.LBE256:
 433              	.LBE255:
 434              	.LBE254:
 435              	.LBE253:
 299:lib/chibios/os/rt/src/chthreads.c **** 
 300:lib/chibios/os/rt/src/chthreads.c ****   return tp;
 436              		.loc 1 300 3 is_stmt 1 view .LVU138
 301:lib/chibios/os/rt/src/chthreads.c **** }
 437              		.loc 1 301 1 is_stmt 0 view .LVU139
 438 001a 2046     		mov	r0, r4
 439 001c 10BD     		pop	{r4, pc}
 440              		.loc 1 301 1 view .LVU140
 441              		.cfi_endproc
 442              	.LFE293:
 444              		.section	.rodata.chThdCreateStatic.str1.1,"aMS",%progbits,1
 445              	.LC0:
 446 0000 6E6F6E61 		.ascii	"noname\000"
 446      6D6500
 447              		.section	.text.chThdCreateStatic,"ax",%progbits
 448              		.align	1
 449              		.global	chThdCreateStatic
 450              		.syntax unified
 451              		.thumb
 452              		.thumb_func
 453              		.fpu fpv4-sp-d16
 455              	chThdCreateStatic:
 456              	.LVL24:
 457              	.LFB294:
 302:lib/chibios/os/rt/src/chthreads.c **** 
 303:lib/chibios/os/rt/src/chthreads.c **** /**
 304:lib/chibios/os/rt/src/chthreads.c ****  * @brief   Creates a new thread into a static memory area.
 305:lib/chibios/os/rt/src/chthreads.c ****  * @post    The created thread has a reference counter set to one, it is
 306:lib/chibios/os/rt/src/chthreads.c ****  *          caller responsibility to call @p chThdRelease() or @p chThdWait()
 307:lib/chibios/os/rt/src/chthreads.c ****  *          in order to release the reference. The thread persists in the
 308:lib/chibios/os/rt/src/chthreads.c ****  *          registry until its reference counter reaches zero.
 309:lib/chibios/os/rt/src/chthreads.c ****  * @note    A thread can terminate by calling @p chThdExit() or by simply
 310:lib/chibios/os/rt/src/chthreads.c ****  *          returning from its main function.
 311:lib/chibios/os/rt/src/chthreads.c ****  *
 312:lib/chibios/os/rt/src/chthreads.c ****  * @param[out] wsp      pointer to a working area dedicated to the thread stack
 313:lib/chibios/os/rt/src/chthreads.c ****  * @param[in] size      size of the working area
 314:lib/chibios/os/rt/src/chthreads.c ****  * @param[in] prio      the priority level for the new thread
 315:lib/chibios/os/rt/src/chthreads.c ****  * @param[in] pf        the thread function
 316:lib/chibios/os/rt/src/chthreads.c ****  * @param[in] arg       an argument passed to the thread function. It can be
 317:lib/chibios/os/rt/src/chthreads.c ****  *                      @p NULL.
 318:lib/chibios/os/rt/src/chthreads.c ****  * @return              The pointer to the @p thread_t structure allocated for
 319:lib/chibios/os/rt/src/chthreads.c ****  *                      the thread into the working space area.
 320:lib/chibios/os/rt/src/chthreads.c ****  *
 321:lib/chibios/os/rt/src/chthreads.c ****  * @api
 322:lib/chibios/os/rt/src/chthreads.c ****  */
 323:lib/chibios/os/rt/src/chthreads.c **** thread_t *chThdCreateStatic(void *wsp, size_t size,
 324:lib/chibios/os/rt/src/chthreads.c ****                             tprio_t prio, tfunc_t pf, void *arg) {
 458              		.loc 1 324 66 is_stmt 1 view -0
 459              		.cfi_startproc
 460              		@ args = 4, pretend = 0, frame = 0
 461              		@ frame_needed = 0, uses_anonymous_args = 0
 325:lib/chibios/os/rt/src/chthreads.c ****   thread_t *tp;
 462              		.loc 1 325 3 view .LVU142
 326:lib/chibios/os/rt/src/chthreads.c **** 
 327:lib/chibios/os/rt/src/chthreads.c ****   chDbgCheck((wsp != NULL) &&
 463              		.loc 1 327 3 view .LVU143
 464              		.loc 1 327 3 view .LVU144
 465              		.loc 1 327 3 view .LVU145
 328:lib/chibios/os/rt/src/chthreads.c ****              MEM_IS_ALIGNED(wsp, PORT_WORKING_AREA_ALIGN) &&
 329:lib/chibios/os/rt/src/chthreads.c ****              (size >= THD_WORKING_AREA_SIZE(0)) &&
 330:lib/chibios/os/rt/src/chthreads.c ****              MEM_IS_ALIGNED(size, PORT_STACK_ALIGN) &&
 331:lib/chibios/os/rt/src/chthreads.c ****              (prio <= HIGHPRIO) && (pf != NULL));
 332:lib/chibios/os/rt/src/chthreads.c **** 
 333:lib/chibios/os/rt/src/chthreads.c **** #if (CH_CFG_USE_REGISTRY == TRUE) &&                                        \
 334:lib/chibios/os/rt/src/chthreads.c ****     ((CH_DBG_ENABLE_STACK_CHECK == TRUE) || (CH_CFG_USE_DYNAMIC == TRUE))
 335:lib/chibios/os/rt/src/chthreads.c ****   chDbgAssert(chRegFindThreadByWorkingArea(wsp) == NULL,
 466              		.loc 1 335 3 view .LVU146
 467              		.loc 1 335 3 view .LVU147
 468              		.loc 1 335 3 view .LVU148
 336:lib/chibios/os/rt/src/chthreads.c ****               "working area in use");
 337:lib/chibios/os/rt/src/chthreads.c **** #endif
 338:lib/chibios/os/rt/src/chthreads.c **** 
 339:lib/chibios/os/rt/src/chthreads.c **** #if CH_DBG_FILL_THREADS == TRUE
 340:lib/chibios/os/rt/src/chthreads.c ****   _thread_memfill((uint8_t *)wsp,
 341:lib/chibios/os/rt/src/chthreads.c ****                   (uint8_t *)wsp + size,
 342:lib/chibios/os/rt/src/chthreads.c ****                   CH_DBG_STACK_FILL_VALUE);
 343:lib/chibios/os/rt/src/chthreads.c **** #endif
 344:lib/chibios/os/rt/src/chthreads.c **** 
 345:lib/chibios/os/rt/src/chthreads.c ****   chSysLock();
 469              		.loc 1 345 3 view .LVU149
 470              	.LBB258:
 471              	.LBI258:
 355:./lib/chibios/os/rt/include/chsys.h **** 
 472              		.loc 3 355 20 view .LVU150
 357:./lib/chibios/os/rt/include/chsys.h ****   _stats_start_measure_crit_thd();
 473              		.loc 3 357 3 view .LVU151
 474              	.LBB259:
 475              	.LBI259:
 669:./lib/chibios/os/common/ports/ARMCMx/chcore_v7m.h **** 
 476              		.loc 4 669 27 view .LVU152
 677:./lib/chibios/os/common/ports/ARMCMx/chcore_v7m.h **** #if defined(__CM7_REV)
 477              		.loc 4 677 3 view .LVU153
 478              	.LBB260:
 479              	.LBI260:
 491:./lib/chibios/os/common/ext/ARM/CMSIS/Core/Include/cmsis_gcc.h **** {
 480              		.loc 5 491 27 view .LVU154
 481              	.LBB261:
 482              		.loc 5 493 3 view .LVU155
 483              	.LBE261:
 484              	.LBE260:
 485              	.LBE259:
 486              	.LBE258:
 324:lib/chibios/os/rt/src/chthreads.c ****   thread_t *tp;
 487              		.loc 1 324 66 is_stmt 0 view .LVU156
 488 0000 10B5     		push	{r4, lr}
 489              		.cfi_def_cfa_offset 8
 490              		.cfi_offset 4, -8
 491              		.cfi_offset 14, -4
 492              	.LBB265:
 493              	.LBB264:
 494              	.LBB263:
 495              	.LBB262:
 496              		.loc 5 493 3 view .LVU157
 497 0002 2024     		movs	r4, #32
 498              		.syntax unified
 499              	@ 493 "./lib/chibios/os/common/ext/ARM/CMSIS/Core/Include/cmsis_gcc.h" 1
 500 0004 84F31188 		MSR basepri, r4
 501              	@ 0 "" 2
 502              	.LVL25:
 503              		.loc 5 493 3 view .LVU158
 504              		.thumb
 505              		.syntax unified
 506              	.LBE262:
 507              	.LBE263:
 508              	.LBE264:
 358:./lib/chibios/os/rt/include/chsys.h ****   _dbg_check_lock();
 509              		.loc 3 358 34 is_stmt 1 view .LVU159
 359:./lib/chibios/os/rt/include/chsys.h **** }
 510              		.loc 3 359 20 view .LVU160
 511              	.LBE265:
 346:lib/chibios/os/rt/src/chthreads.c **** 
 347:lib/chibios/os/rt/src/chthreads.c ****   /* The thread structure is laid out in the upper part of the thread
 348:lib/chibios/os/rt/src/chthreads.c ****      workspace. The thread position structure is aligned to the required
 349:lib/chibios/os/rt/src/chthreads.c ****      stack alignment because it represents the stack top.*/
 350:lib/chibios/os/rt/src/chthreads.c ****   tp = (thread_t *)((uint8_t *)wsp + size -
 512              		.loc 1 350 3 view .LVU161
 513              		.loc 1 350 43 is_stmt 0 view .LVU162
 514 0008 4839     		subs	r1, r1, #72
 515              	.LVL26:
 516              		.loc 1 350 6 view .LVU163
 517 000a 4418     		adds	r4, r0, r1
 518              	.LVL27:
 351:lib/chibios/os/rt/src/chthreads.c ****                     MEM_ALIGN_NEXT(sizeof (thread_t), PORT_STACK_ALIGN));
 352:lib/chibios/os/rt/src/chthreads.c **** 
 353:lib/chibios/os/rt/src/chthreads.c **** #if (CH_DBG_ENABLE_STACK_CHECK == TRUE) || (CH_CFG_USE_DYNAMIC == TRUE)
 354:lib/chibios/os/rt/src/chthreads.c ****   /* Stack boundary.*/
 355:lib/chibios/os/rt/src/chthreads.c ****   tp->wabase = (stkalign_t *)wsp;
 519              		.loc 1 355 3 is_stmt 1 view .LVU164
 356:lib/chibios/os/rt/src/chthreads.c **** #endif
 357:lib/chibios/os/rt/src/chthreads.c **** 
 358:lib/chibios/os/rt/src/chthreads.c ****   /* Setting up the port-dependent part of the working area.*/
 359:lib/chibios/os/rt/src/chthreads.c ****   PORT_SETUP_CONTEXT(tp, wsp, tp, pf, arg);
 520              		.loc 1 359 3 is_stmt 0 view .LVU165
 521 000c A4F16401 		sub	r1, r4, #100
 522              	.LVL28:
 523              		.loc 1 359 3 view .LVU166
 524 0010 44F8243C 		str	r3, [r4, #-36]
 525 0014 029B     		ldr	r3, [sp, #8]
 526              	.LVL29:
 527              		.loc 1 359 3 view .LVU167
 528 0016 44F8203C 		str	r3, [r4, #-32]
 529 001a 094B     		ldr	r3, .L11
 530 001c 44F8043C 		str	r3, [r4, #-4]
 355:lib/chibios/os/rt/src/chthreads.c **** #endif
 531              		.loc 1 355 14 view .LVU168
 532 0020 E061     		str	r0, [r4, #28]
 533              		.loc 1 359 3 is_stmt 1 view .LVU169
 534 0022 E160     		str	r1, [r4, #12]
 535              		.loc 1 359 3 view .LVU170
 536              		.loc 1 359 3 view .LVU171
 537              		.loc 1 359 3 view .LVU172
 538              		.loc 1 359 3 view .LVU173
 539              		.loc 1 359 3 view .LVU174
 540              		.loc 1 359 43 view .LVU175
 360:lib/chibios/os/rt/src/chthreads.c **** 
 361:lib/chibios/os/rt/src/chthreads.c ****   tp = _thread_init(tp, "noname", prio);
 541              		.loc 1 361 3 view .LVU176
 542              		.loc 1 361 8 is_stmt 0 view .LVU177
 543 0024 2046     		mov	r0, r4
 544              	.LVL30:
 545              		.loc 1 361 8 view .LVU178
 546 0026 0749     		ldr	r1, .L11+4
 547 0028 FFF7FEFF 		bl	_thread_init
 548              	.LVL31:
 362:lib/chibios/os/rt/src/chthreads.c **** 
 363:lib/chibios/os/rt/src/chthreads.c ****   /* Starting the thread immediately.*/
 364:lib/chibios/os/rt/src/chthreads.c ****   chSchWakeupS(tp, MSG_OK);
 549              		.loc 1 364 3 view .LVU179
 550 002c 0021     		movs	r1, #0
 361:lib/chibios/os/rt/src/chthreads.c **** 
 551              		.loc 1 361 8 view .LVU180
 552 002e 0446     		mov	r4, r0
 553              	.LVL32:
 554              		.loc 1 364 3 is_stmt 1 view .LVU181
 555 0030 FFF7FEFF 		bl	chSchWakeupS
 556              	.LVL33:
 365:lib/chibios/os/rt/src/chthreads.c ****   chSysUnlock();
 557              		.loc 1 365 3 view .LVU182
 558              	.LBB266:
 559              	.LBI266:
 367:./lib/chibios/os/rt/include/chsys.h **** 
 560              		.loc 3 367 20 view .LVU183
 561              	.LBB267:
 369:./lib/chibios/os/rt/include/chsys.h ****   _stats_stop_measure_crit_thd();
 562              		.loc 3 369 22 view .LVU184
 370:./lib/chibios/os/rt/include/chsys.h **** 
 563              		.loc 3 370 33 view .LVU185
 376:./lib/chibios/os/rt/include/chsys.h ****               (ch.rlist.current->hdr.pqueue.prio >= ch.rlist.pqueue.next->prio),
 564              		.loc 3 376 3 view .LVU186
 376:./lib/chibios/os/rt/include/chsys.h ****               (ch.rlist.current->hdr.pqueue.prio >= ch.rlist.pqueue.next->prio),
 565              		.loc 3 376 3 view .LVU187
 376:./lib/chibios/os/rt/include/chsys.h ****               (ch.rlist.current->hdr.pqueue.prio >= ch.rlist.pqueue.next->prio),
 566              		.loc 3 376 3 view .LVU188
 567              		.loc 3 380 3 view .LVU189
 568              	.LBB268:
 569              	.LBI268:
 693:./lib/chibios/os/common/ports/ARMCMx/chcore_v7m.h **** 
 570              		.loc 4 693 27 view .LVU190
 571              		.loc 4 696 3 view .LVU191
 572              	.LBB269:
 573              	.LBI269:
 491:./lib/chibios/os/common/ext/ARM/CMSIS/Core/Include/cmsis_gcc.h **** {
 574              		.loc 5 491 27 view .LVU192
 575              	.LBB270:
 576              		.loc 5 493 3 view .LVU193
 577 0034 0023     		movs	r3, #0
 578              		.syntax unified
 579              	@ 493 "./lib/chibios/os/common/ext/ARM/CMSIS/Core/Include/cmsis_gcc.h" 1
 580 0036 83F31188 		MSR basepri, r3
 581              	@ 0 "" 2
 582              	.LVL34:
 583              		.loc 5 493 3 is_stmt 0 view .LVU194
 584              		.thumb
 585              		.syntax unified
 586              	.LBE270:
 587              	.LBE269:
 588              	.LBE268:
 589              	.LBE267:
 590              	.LBE266:
 366:lib/chibios/os/rt/src/chthreads.c **** 
 367:lib/chibios/os/rt/src/chthreads.c ****   return tp;
 591              		.loc 1 367 3 is_stmt 1 view .LVU195
 368:lib/chibios/os/rt/src/chthreads.c **** }
 592              		.loc 1 368 1 is_stmt 0 view .LVU196
 593 003a 2046     		mov	r0, r4
 594 003c 10BD     		pop	{r4, pc}
 595              	.LVL35:
 596              	.L12:
 597              		.loc 1 368 1 view .LVU197
 598 003e 00BF     		.align	2
 599              	.L11:
 600 0040 00000000 		.word	_port_thread_start
 601 0044 00000000 		.word	.LC0
 602              		.cfi_endproc
 603              	.LFE294:
 605              		.section	.text.chThdStart,"ax",%progbits
 606              		.align	1
 607              		.global	chThdStart
 608              		.syntax unified
 609              		.thumb
 610              		.thumb_func
 611              		.fpu fpv4-sp-d16
 613              	chThdStart:
 614              	.LVL36:
 615              	.LFB295:
 369:lib/chibios/os/rt/src/chthreads.c **** 
 370:lib/chibios/os/rt/src/chthreads.c **** /**
 371:lib/chibios/os/rt/src/chthreads.c ****  * @brief   Resumes a thread created with @p chThdCreateI().
 372:lib/chibios/os/rt/src/chthreads.c ****  *
 373:lib/chibios/os/rt/src/chthreads.c ****  * @param[in] tp        pointer to the thread
 374:lib/chibios/os/rt/src/chthreads.c ****  * @return              The pointer to the @p thread_t structure allocated for
 375:lib/chibios/os/rt/src/chthreads.c ****  *                      the thread into the working space area.
 376:lib/chibios/os/rt/src/chthreads.c ****  *
 377:lib/chibios/os/rt/src/chthreads.c ****  * @api
 378:lib/chibios/os/rt/src/chthreads.c ****  */
 379:lib/chibios/os/rt/src/chthreads.c **** thread_t *chThdStart(thread_t *tp) {
 616              		.loc 1 379 36 is_stmt 1 view -0
 617              		.cfi_startproc
 618              		@ args = 0, pretend = 0, frame = 0
 619              		@ frame_needed = 0, uses_anonymous_args = 0
 380:lib/chibios/os/rt/src/chthreads.c **** 
 381:lib/chibios/os/rt/src/chthreads.c ****   chSysLock();
 620              		.loc 1 381 3 view .LVU199
 621              	.LBB271:
 622              	.LBI271:
 355:./lib/chibios/os/rt/include/chsys.h **** 
 623              		.loc 3 355 20 view .LVU200
 357:./lib/chibios/os/rt/include/chsys.h ****   _stats_start_measure_crit_thd();
 624              		.loc 3 357 3 view .LVU201
 625              	.LBB272:
 626              	.LBI272:
 669:./lib/chibios/os/common/ports/ARMCMx/chcore_v7m.h **** 
 627              		.loc 4 669 27 view .LVU202
 677:./lib/chibios/os/common/ports/ARMCMx/chcore_v7m.h **** #if defined(__CM7_REV)
 628              		.loc 4 677 3 view .LVU203
 629              	.LBB273:
 630              	.LBI273:
 491:./lib/chibios/os/common/ext/ARM/CMSIS/Core/Include/cmsis_gcc.h **** {
 631              		.loc 5 491 27 view .LVU204
 632              	.LBB274:
 633              		.loc 5 493 3 view .LVU205
 634              	.LBE274:
 635              	.LBE273:
 636              	.LBE272:
 637              	.LBE271:
 379:lib/chibios/os/rt/src/chthreads.c **** 
 638              		.loc 1 379 36 is_stmt 0 view .LVU206
 639 0000 10B5     		push	{r4, lr}
 640              		.cfi_def_cfa_offset 8
 641              		.cfi_offset 4, -8
 642              		.cfi_offset 14, -4
 643              	.LBB281:
 644              	.LBB279:
 645              	.LBB277:
 646              	.LBB275:
 647              		.loc 5 493 3 view .LVU207
 648 0002 2023     		movs	r3, #32
 649              	.LBE275:
 650              	.LBE277:
 651              	.LBE279:
 652              	.LBE281:
 379:lib/chibios/os/rt/src/chthreads.c **** 
 653              		.loc 1 379 36 view .LVU208
 654 0004 0446     		mov	r4, r0
 655              	.LBB282:
 656              	.LBB280:
 657              	.LBB278:
 658              	.LBB276:
 659              		.loc 5 493 3 view .LVU209
 660              		.syntax unified
 661              	@ 493 "./lib/chibios/os/common/ext/ARM/CMSIS/Core/Include/cmsis_gcc.h" 1
 662 0006 83F31188 		MSR basepri, r3
 663              	@ 0 "" 2
 664              	.LVL37:
 665              		.loc 5 493 3 view .LVU210
 666              		.thumb
 667              		.syntax unified
 668              	.LBE276:
 669              	.LBE278:
 670              	.LBE280:
 358:./lib/chibios/os/rt/include/chsys.h ****   _dbg_check_lock();
 671              		.loc 3 358 34 is_stmt 1 view .LVU211
 359:./lib/chibios/os/rt/include/chsys.h **** }
 672              		.loc 3 359 20 view .LVU212
 673              	.LBE282:
 382:lib/chibios/os/rt/src/chthreads.c ****   chDbgAssert(tp->state == CH_STATE_WTSTART, "wrong state");
 674              		.loc 1 382 3 view .LVU213
 675              		.loc 1 382 3 view .LVU214
 676              		.loc 1 382 3 view .LVU215
 383:lib/chibios/os/rt/src/chthreads.c ****   chSchWakeupS(tp, MSG_OK);
 677              		.loc 1 383 3 view .LVU216
 678 000a 0021     		movs	r1, #0
 679 000c FFF7FEFF 		bl	chSchWakeupS
 680              	.LVL38:
 384:lib/chibios/os/rt/src/chthreads.c ****   chSysUnlock();
 681              		.loc 1 384 3 view .LVU217
 682              	.LBB283:
 683              	.LBI283:
 367:./lib/chibios/os/rt/include/chsys.h **** 
 684              		.loc 3 367 20 view .LVU218
 685              	.LBB284:
 369:./lib/chibios/os/rt/include/chsys.h ****   _stats_stop_measure_crit_thd();
 686              		.loc 3 369 22 view .LVU219
 370:./lib/chibios/os/rt/include/chsys.h **** 
 687              		.loc 3 370 33 view .LVU220
 376:./lib/chibios/os/rt/include/chsys.h ****               (ch.rlist.current->hdr.pqueue.prio >= ch.rlist.pqueue.next->prio),
 688              		.loc 3 376 3 view .LVU221
 376:./lib/chibios/os/rt/include/chsys.h ****               (ch.rlist.current->hdr.pqueue.prio >= ch.rlist.pqueue.next->prio),
 689              		.loc 3 376 3 view .LVU222
 376:./lib/chibios/os/rt/include/chsys.h ****               (ch.rlist.current->hdr.pqueue.prio >= ch.rlist.pqueue.next->prio),
 690              		.loc 3 376 3 view .LVU223
 691              		.loc 3 380 3 view .LVU224
 692              	.LBB285:
 693              	.LBI285:
 693:./lib/chibios/os/common/ports/ARMCMx/chcore_v7m.h **** 
 694              		.loc 4 693 27 view .LVU225
 695              		.loc 4 696 3 view .LVU226
 696              	.LBB286:
 697              	.LBI286:
 491:./lib/chibios/os/common/ext/ARM/CMSIS/Core/Include/cmsis_gcc.h **** {
 698              		.loc 5 491 27 view .LVU227
 699              	.LBB287:
 700              		.loc 5 493 3 view .LVU228
 701 0010 0023     		movs	r3, #0
 702              		.syntax unified
 703              	@ 493 "./lib/chibios/os/common/ext/ARM/CMSIS/Core/Include/cmsis_gcc.h" 1
 704 0012 83F31188 		MSR basepri, r3
 705              	@ 0 "" 2
 706              	.LVL39:
 707              		.loc 5 493 3 is_stmt 0 view .LVU229
 708              		.thumb
 709              		.syntax unified
 710              	.LBE287:
 711              	.LBE286:
 712              	.LBE285:
 713              	.LBE284:
 714              	.LBE283:
 385:lib/chibios/os/rt/src/chthreads.c **** 
 386:lib/chibios/os/rt/src/chthreads.c ****   return tp;
 715              		.loc 1 386 3 is_stmt 1 view .LVU230
 387:lib/chibios/os/rt/src/chthreads.c **** }
 716              		.loc 1 387 1 is_stmt 0 view .LVU231
 717 0016 2046     		mov	r0, r4
 718 0018 10BD     		pop	{r4, pc}
 719              		.loc 1 387 1 view .LVU232
 720              		.cfi_endproc
 721              	.LFE295:
 723              		.section	.text.chThdAddRef,"ax",%progbits
 724              		.align	1
 725              		.global	chThdAddRef
 726              		.syntax unified
 727              		.thumb
 728              		.thumb_func
 729              		.fpu fpv4-sp-d16
 731              	chThdAddRef:
 732              	.LVL40:
 733              	.LFB296:
 388:lib/chibios/os/rt/src/chthreads.c **** 
 389:lib/chibios/os/rt/src/chthreads.c **** #if (CH_CFG_USE_REGISTRY == TRUE) || defined(__DOXYGEN__)
 390:lib/chibios/os/rt/src/chthreads.c **** /**
 391:lib/chibios/os/rt/src/chthreads.c ****  * @brief   Adds a reference to a thread object.
 392:lib/chibios/os/rt/src/chthreads.c ****  * @pre     The configuration option @p CH_CFG_USE_REGISTRY must be enabled in
 393:lib/chibios/os/rt/src/chthreads.c ****  *          order to use this function.
 394:lib/chibios/os/rt/src/chthreads.c ****  *
 395:lib/chibios/os/rt/src/chthreads.c ****  * @param[in] tp        pointer to the thread
 396:lib/chibios/os/rt/src/chthreads.c ****  * @return              The same thread pointer passed as parameter
 397:lib/chibios/os/rt/src/chthreads.c ****  *                      representing the new reference.
 398:lib/chibios/os/rt/src/chthreads.c ****  *
 399:lib/chibios/os/rt/src/chthreads.c ****  * @api
 400:lib/chibios/os/rt/src/chthreads.c ****  */
 401:lib/chibios/os/rt/src/chthreads.c **** thread_t *chThdAddRef(thread_t *tp) {
 734              		.loc 1 401 37 is_stmt 1 view -0
 735              		.cfi_startproc
 736              		@ args = 0, pretend = 0, frame = 0
 737              		@ frame_needed = 0, uses_anonymous_args = 0
 738              		@ link register save eliminated.
 402:lib/chibios/os/rt/src/chthreads.c **** 
 403:lib/chibios/os/rt/src/chthreads.c ****   chSysLock();
 739              		.loc 1 403 3 view .LVU234
 740              	.LBB288:
 741              	.LBI288:
 355:./lib/chibios/os/rt/include/chsys.h **** 
 742              		.loc 3 355 20 view .LVU235
 357:./lib/chibios/os/rt/include/chsys.h ****   _stats_start_measure_crit_thd();
 743              		.loc 3 357 3 view .LVU236
 744              	.LBB289:
 745              	.LBI289:
 669:./lib/chibios/os/common/ports/ARMCMx/chcore_v7m.h **** 
 746              		.loc 4 669 27 view .LVU237
 677:./lib/chibios/os/common/ports/ARMCMx/chcore_v7m.h **** #if defined(__CM7_REV)
 747              		.loc 4 677 3 view .LVU238
 748              	.LBB290:
 749              	.LBI290:
 491:./lib/chibios/os/common/ext/ARM/CMSIS/Core/Include/cmsis_gcc.h **** {
 750              		.loc 5 491 27 view .LVU239
 751              	.LBB291:
 752              		.loc 5 493 3 view .LVU240
 753 0000 2022     		movs	r2, #32
 754              		.syntax unified
 755              	@ 493 "./lib/chibios/os/common/ext/ARM/CMSIS/Core/Include/cmsis_gcc.h" 1
 756 0002 82F31188 		MSR basepri, r2
 757              	@ 0 "" 2
 758              	.LVL41:
 759              		.loc 5 493 3 is_stmt 0 view .LVU241
 760              		.thumb
 761              		.syntax unified
 762              	.LBE291:
 763              	.LBE290:
 764              	.LBE289:
 358:./lib/chibios/os/rt/include/chsys.h ****   _dbg_check_lock();
 765              		.loc 3 358 34 is_stmt 1 view .LVU242
 359:./lib/chibios/os/rt/include/chsys.h **** }
 766              		.loc 3 359 20 view .LVU243
 767              	.LBE288:
 404:lib/chibios/os/rt/src/chthreads.c ****   chDbgAssert(tp->refs < (trefs_t)255, "too many references");
 768              		.loc 1 404 3 view .LVU244
 769              		.loc 1 404 3 view .LVU245
 770              		.loc 1 404 3 view .LVU246
 405:lib/chibios/os/rt/src/chthreads.c ****   tp->refs++;
 771              		.loc 1 405 3 view .LVU247
 772              		.loc 1 405 11 is_stmt 0 view .LVU248
 773 0006 90F82220 		ldrb	r2, [r0, #34]	@ zero_extendqisi2
 774 000a 0132     		adds	r2, r2, #1
 775 000c 80F82220 		strb	r2, [r0, #34]
 406:lib/chibios/os/rt/src/chthreads.c ****   chSysUnlock();
 776              		.loc 1 406 3 is_stmt 1 view .LVU249
 777              	.LBB292:
 778              	.LBI292:
 367:./lib/chibios/os/rt/include/chsys.h **** 
 779              		.loc 3 367 20 view .LVU250
 780              	.LBB293:
 369:./lib/chibios/os/rt/include/chsys.h ****   _stats_stop_measure_crit_thd();
 781              		.loc 3 369 22 view .LVU251
 370:./lib/chibios/os/rt/include/chsys.h **** 
 782              		.loc 3 370 33 view .LVU252
 376:./lib/chibios/os/rt/include/chsys.h ****               (ch.rlist.current->hdr.pqueue.prio >= ch.rlist.pqueue.next->prio),
 783              		.loc 3 376 3 view .LVU253
 376:./lib/chibios/os/rt/include/chsys.h ****               (ch.rlist.current->hdr.pqueue.prio >= ch.rlist.pqueue.next->prio),
 784              		.loc 3 376 3 view .LVU254
 376:./lib/chibios/os/rt/include/chsys.h ****               (ch.rlist.current->hdr.pqueue.prio >= ch.rlist.pqueue.next->prio),
 785              		.loc 3 376 3 view .LVU255
 786              		.loc 3 380 3 view .LVU256
 787              	.LBB294:
 788              	.LBI294:
 693:./lib/chibios/os/common/ports/ARMCMx/chcore_v7m.h **** 
 789              		.loc 4 693 27 view .LVU257
 790              		.loc 4 696 3 view .LVU258
 791              	.LVL42:
 792              	.LBB295:
 793              	.LBI295:
 491:./lib/chibios/os/common/ext/ARM/CMSIS/Core/Include/cmsis_gcc.h **** {
 794              		.loc 5 491 27 view .LVU259
 795              	.LBB296:
 796              		.loc 5 493 3 view .LVU260
 797 0010 0023     		movs	r3, #0
 798              		.syntax unified
 799              	@ 493 "./lib/chibios/os/common/ext/ARM/CMSIS/Core/Include/cmsis_gcc.h" 1
 800 0012 83F31188 		MSR basepri, r3
 801              	@ 0 "" 2
 802              	.LVL43:
 803              		.loc 5 493 3 is_stmt 0 view .LVU261
 804              		.thumb
 805              		.syntax unified
 806              	.LBE296:
 807              	.LBE295:
 808              	.LBE294:
 809              	.LBE293:
 810              	.LBE292:
 407:lib/chibios/os/rt/src/chthreads.c **** 
 408:lib/chibios/os/rt/src/chthreads.c ****   return tp;
 811              		.loc 1 408 3 is_stmt 1 view .LVU262
 409:lib/chibios/os/rt/src/chthreads.c **** }
 812              		.loc 1 409 1 is_stmt 0 view .LVU263
 813 0016 7047     		bx	lr
 814              		.cfi_endproc
 815              	.LFE296:
 817              		.section	.text.chThdRelease,"ax",%progbits
 818              		.align	1
 819              		.global	chThdRelease
 820              		.syntax unified
 821              		.thumb
 822              		.thumb_func
 823              		.fpu fpv4-sp-d16
 825              	chThdRelease:
 826              	.LVL44:
 827              	.LFB297:
 410:lib/chibios/os/rt/src/chthreads.c **** 
 411:lib/chibios/os/rt/src/chthreads.c **** /**
 412:lib/chibios/os/rt/src/chthreads.c ****  * @brief   Releases a reference to a thread object.
 413:lib/chibios/os/rt/src/chthreads.c ****  * @details If the references counter reaches zero <b>and</b> the thread
 414:lib/chibios/os/rt/src/chthreads.c ****  *          is in the @p CH_STATE_FINAL state then the thread's memory is
 415:lib/chibios/os/rt/src/chthreads.c ****  *          returned to the proper allocator and the thread is removed
 416:lib/chibios/os/rt/src/chthreads.c ****  *          from the registry.<br>
 417:lib/chibios/os/rt/src/chthreads.c ****  *          Threads whose counter reaches zero and are still active become
 418:lib/chibios/os/rt/src/chthreads.c ****  *          "detached" and will be removed from registry on termination.
 419:lib/chibios/os/rt/src/chthreads.c ****  * @pre     The configuration option @p CH_CFG_USE_REGISTRY must be enabled in
 420:lib/chibios/os/rt/src/chthreads.c ****  *          order to use this function.
 421:lib/chibios/os/rt/src/chthreads.c ****  * @note    Static threads are not affected.
 422:lib/chibios/os/rt/src/chthreads.c ****  *
 423:lib/chibios/os/rt/src/chthreads.c ****  * @param[in] tp        pointer to the thread
 424:lib/chibios/os/rt/src/chthreads.c ****  *
 425:lib/chibios/os/rt/src/chthreads.c ****  * @api
 426:lib/chibios/os/rt/src/chthreads.c ****  */
 427:lib/chibios/os/rt/src/chthreads.c **** void chThdRelease(thread_t *tp) {
 828              		.loc 1 427 33 is_stmt 1 view -0
 829              		.cfi_startproc
 830              		@ args = 0, pretend = 0, frame = 0
 831              		@ frame_needed = 0, uses_anonymous_args = 0
 832              		@ link register save eliminated.
 428:lib/chibios/os/rt/src/chthreads.c **** 
 429:lib/chibios/os/rt/src/chthreads.c ****   chSysLock();
 833              		.loc 1 429 3 view .LVU265
 834              	.LBB326:
 835              	.LBI326:
 355:./lib/chibios/os/rt/include/chsys.h **** 
 836              		.loc 3 355 20 view .LVU266
 357:./lib/chibios/os/rt/include/chsys.h ****   _stats_start_measure_crit_thd();
 837              		.loc 3 357 3 view .LVU267
 838              	.LBB327:
 839              	.LBI327:
 669:./lib/chibios/os/common/ports/ARMCMx/chcore_v7m.h **** 
 840              		.loc 4 669 27 view .LVU268
 677:./lib/chibios/os/common/ports/ARMCMx/chcore_v7m.h **** #if defined(__CM7_REV)
 841              		.loc 4 677 3 view .LVU269
 842              	.LBB328:
 843              	.LBI328:
 491:./lib/chibios/os/common/ext/ARM/CMSIS/Core/Include/cmsis_gcc.h **** {
 844              		.loc 5 491 27 view .LVU270
 845              	.LBB329:
 846              		.loc 5 493 3 view .LVU271
 847 0000 2023     		movs	r3, #32
 848              		.syntax unified
 849              	@ 493 "./lib/chibios/os/common/ext/ARM/CMSIS/Core/Include/cmsis_gcc.h" 1
 850 0002 83F31188 		MSR basepri, r3
 851              	@ 0 "" 2
 852              	.LVL45:
 853              		.loc 5 493 3 is_stmt 0 view .LVU272
 854              		.thumb
 855              		.syntax unified
 856              	.LBE329:
 857              	.LBE328:
 858              	.LBE327:
 358:./lib/chibios/os/rt/include/chsys.h ****   _dbg_check_lock();
 859              		.loc 3 358 34 is_stmt 1 view .LVU273
 359:./lib/chibios/os/rt/include/chsys.h **** }
 860              		.loc 3 359 20 view .LVU274
 861              	.LBE326:
 430:lib/chibios/os/rt/src/chthreads.c ****   chDbgAssert(tp->refs > (trefs_t)0, "not referenced");
 862              		.loc 1 430 3 view .LVU275
 863              		.loc 1 430 3 view .LVU276
 864              		.loc 1 430 3 view .LVU277
 431:lib/chibios/os/rt/src/chthreads.c ****   tp->refs--;
 865              		.loc 1 431 3 view .LVU278
 866              		.loc 1 431 11 is_stmt 0 view .LVU279
 867 0006 90F82230 		ldrb	r3, [r0, #34]	@ zero_extendqisi2
 868 000a 013B     		subs	r3, r3, #1
 869 000c 80F82230 		strb	r3, [r0, #34]
 432:lib/chibios/os/rt/src/chthreads.c **** 
 433:lib/chibios/os/rt/src/chthreads.c ****   /* If the references counter reaches zero and the thread is in its
 434:lib/chibios/os/rt/src/chthreads.c ****      terminated state then the memory can be returned to the proper
 435:lib/chibios/os/rt/src/chthreads.c ****      allocator.*/
 436:lib/chibios/os/rt/src/chthreads.c ****   if ((tp->refs == (trefs_t)0) && (tp->state == CH_STATE_FINAL)) {
 870              		.loc 1 436 3 is_stmt 1 view .LVU280
 871              		.loc 1 436 32 is_stmt 0 view .LVU281
 872 0010 036A     		ldr	r3, [r0, #32]
 873 0012 03F0FF13 		and	r3, r3, #16711935
 874              		.loc 1 436 6 view .LVU282
 875 0016 0F2B     		cmp	r3, #15
 876 0018 17D1     		bne	.L16
 877              	.LVL46:
 878              	.LBB330:
 879              	.LBI330:
 427:lib/chibios/os/rt/src/chthreads.c **** 
 880              		.loc 1 427 6 is_stmt 1 view .LVU283
 881              	.LBB331:
 437:lib/chibios/os/rt/src/chthreads.c ****     REG_REMOVE(tp);
 882              		.loc 1 437 5 view .LVU284
 883 001a D0E90423 		ldrd	r2, r3, [r0, #16]
 884 001e 1A61     		str	r2, [r3, #16]
 885              		.loc 1 437 5 view .LVU285
 886 0020 0269     		ldr	r2, [r0, #16]
 887 0022 5361     		str	r3, [r2, #20]
 888              		.loc 1 437 19 view .LVU286
 438:lib/chibios/os/rt/src/chthreads.c ****     chSysUnlock();
 889              		.loc 1 438 5 view .LVU287
 890              	.LBB332:
 891              	.LBI332:
 367:./lib/chibios/os/rt/include/chsys.h **** 
 892              		.loc 3 367 20 view .LVU288
 893              	.LBB333:
 369:./lib/chibios/os/rt/include/chsys.h ****   _stats_stop_measure_crit_thd();
 894              		.loc 3 369 22 view .LVU289
 370:./lib/chibios/os/rt/include/chsys.h **** 
 895              		.loc 3 370 33 view .LVU290
 376:./lib/chibios/os/rt/include/chsys.h ****               (ch.rlist.current->hdr.pqueue.prio >= ch.rlist.pqueue.next->prio),
 896              		.loc 3 376 3 view .LVU291
 376:./lib/chibios/os/rt/include/chsys.h ****               (ch.rlist.current->hdr.pqueue.prio >= ch.rlist.pqueue.next->prio),
 897              		.loc 3 376 3 view .LVU292
 376:./lib/chibios/os/rt/include/chsys.h ****               (ch.rlist.current->hdr.pqueue.prio >= ch.rlist.pqueue.next->prio),
 898              		.loc 3 376 3 view .LVU293
 899              		.loc 3 380 3 view .LVU294
 900              	.LBB334:
 901              	.LBI334:
 693:./lib/chibios/os/common/ports/ARMCMx/chcore_v7m.h **** 
 902              		.loc 4 693 27 view .LVU295
 903              		.loc 4 696 3 view .LVU296
 904              	.LVL47:
 905              	.LBB335:
 906              	.LBI335:
 491:./lib/chibios/os/common/ext/ARM/CMSIS/Core/Include/cmsis_gcc.h **** {
 907              		.loc 5 491 27 view .LVU297
 908              	.LBB336:
 909              		.loc 5 493 3 view .LVU298
 910 0024 0023     		movs	r3, #0
 911              		.syntax unified
 912              	@ 493 "./lib/chibios/os/common/ext/ARM/CMSIS/Core/Include/cmsis_gcc.h" 1
 913 0026 83F31188 		MSR basepri, r3
 914              	@ 0 "" 2
 915              	.LVL48:
 916              		.loc 5 493 3 is_stmt 0 view .LVU299
 917              		.thumb
 918              		.syntax unified
 919              	.LBE336:
 920              	.LBE335:
 921              	.LBE334:
 922              	.LBE333:
 923              	.LBE332:
 439:lib/chibios/os/rt/src/chthreads.c **** 
 440:lib/chibios/os/rt/src/chthreads.c **** #if CH_CFG_USE_DYNAMIC == TRUE
 441:lib/chibios/os/rt/src/chthreads.c ****     switch (tp->flags & CH_FLAG_MODE_MASK) {
 924              		.loc 1 441 5 is_stmt 1 view .LVU300
 925 002a 90F82130 		ldrb	r3, [r0, #33]	@ zero_extendqisi2
 926 002e 03F00303 		and	r3, r3, #3
 927 0032 012B     		cmp	r3, #1
 928 0034 02D0     		beq	.L17
 929 0036 022B     		cmp	r3, #2
 930 0038 03D0     		beq	.L18
 931 003a 7047     		bx	lr
 932              	.L17:
 442:lib/chibios/os/rt/src/chthreads.c **** #if CH_CFG_USE_HEAP == TRUE
 443:lib/chibios/os/rt/src/chthreads.c ****     case CH_FLAG_MODE_HEAP:
 444:lib/chibios/os/rt/src/chthreads.c ****       chHeapFree(chThdGetWorkingAreaX(tp));
 933              		.loc 1 444 7 view .LVU301
 934              	.LVL49:
 935              	.LBB337:
 936              	.LBI337:
 937              		.file 6 "./lib/chibios/os/rt/include/chthreads.h"
   1:./lib/chibios/os/rt/include/chthreads.h **** /*
   2:./lib/chibios/os/rt/include/chthreads.h ****     ChibiOS - Copyright (C) 2006..2018 Giovanni Di Sirio.
   3:./lib/chibios/os/rt/include/chthreads.h **** 
   4:./lib/chibios/os/rt/include/chthreads.h ****     This file is part of ChibiOS.
   5:./lib/chibios/os/rt/include/chthreads.h **** 
   6:./lib/chibios/os/rt/include/chthreads.h ****     ChibiOS is free software; you can redistribute it and/or modify
   7:./lib/chibios/os/rt/include/chthreads.h ****     it under the terms of the GNU General Public License as published by
   8:./lib/chibios/os/rt/include/chthreads.h ****     the Free Software Foundation; either version 3 of the License, or
   9:./lib/chibios/os/rt/include/chthreads.h ****     (at your option) any later version.
  10:./lib/chibios/os/rt/include/chthreads.h **** 
  11:./lib/chibios/os/rt/include/chthreads.h ****     ChibiOS is distributed in the hope that it will be useful,
  12:./lib/chibios/os/rt/include/chthreads.h ****     but WITHOUT ANY WARRANTY; without even the implied warranty of
  13:./lib/chibios/os/rt/include/chthreads.h ****     MERCHANTABILITY or FITNESS FOR A PARTICULAR PURPOSE.  See the
  14:./lib/chibios/os/rt/include/chthreads.h ****     GNU General Public License for more details.
  15:./lib/chibios/os/rt/include/chthreads.h **** 
  16:./lib/chibios/os/rt/include/chthreads.h ****     You should have received a copy of the GNU General Public License
  17:./lib/chibios/os/rt/include/chthreads.h ****     along with this program.  If not, see <http://www.gnu.org/licenses/>.
  18:./lib/chibios/os/rt/include/chthreads.h **** */
  19:./lib/chibios/os/rt/include/chthreads.h **** 
  20:./lib/chibios/os/rt/include/chthreads.h **** /**
  21:./lib/chibios/os/rt/include/chthreads.h ****  * @file    rt/include/chthreads.h
  22:./lib/chibios/os/rt/include/chthreads.h ****  * @brief   Threads module macros and structures.
  23:./lib/chibios/os/rt/include/chthreads.h ****  *
  24:./lib/chibios/os/rt/include/chthreads.h ****  * @addtogroup threads
  25:./lib/chibios/os/rt/include/chthreads.h ****  * @{
  26:./lib/chibios/os/rt/include/chthreads.h ****  */
  27:./lib/chibios/os/rt/include/chthreads.h **** 
  28:./lib/chibios/os/rt/include/chthreads.h **** #ifndef CHTHREADS_H
  29:./lib/chibios/os/rt/include/chthreads.h **** #define CHTHREADS_H
  30:./lib/chibios/os/rt/include/chthreads.h **** 
  31:./lib/chibios/os/rt/include/chthreads.h **** /*lint -sem(chThdExit, r_no) -sem(chThdExitS, r_no)*/
  32:./lib/chibios/os/rt/include/chthreads.h **** 
  33:./lib/chibios/os/rt/include/chthreads.h **** /*===========================================================================*/
  34:./lib/chibios/os/rt/include/chthreads.h **** /* Module constants.                                                         */
  35:./lib/chibios/os/rt/include/chthreads.h **** /*===========================================================================*/
  36:./lib/chibios/os/rt/include/chthreads.h **** 
  37:./lib/chibios/os/rt/include/chthreads.h **** /*===========================================================================*/
  38:./lib/chibios/os/rt/include/chthreads.h **** /* Module pre-compile time settings.                                         */
  39:./lib/chibios/os/rt/include/chthreads.h **** /*===========================================================================*/
  40:./lib/chibios/os/rt/include/chthreads.h **** 
  41:./lib/chibios/os/rt/include/chthreads.h **** /*===========================================================================*/
  42:./lib/chibios/os/rt/include/chthreads.h **** /* Derived constants and error checks.                                       */
  43:./lib/chibios/os/rt/include/chthreads.h **** /*===========================================================================*/
  44:./lib/chibios/os/rt/include/chthreads.h **** 
  45:./lib/chibios/os/rt/include/chthreads.h **** /*===========================================================================*/
  46:./lib/chibios/os/rt/include/chthreads.h **** /* Module data structures and types.                                         */
  47:./lib/chibios/os/rt/include/chthreads.h **** /*===========================================================================*/
  48:./lib/chibios/os/rt/include/chthreads.h **** 
  49:./lib/chibios/os/rt/include/chthreads.h **** /**
  50:./lib/chibios/os/rt/include/chthreads.h ****  * @brief   Thread function.
  51:./lib/chibios/os/rt/include/chthreads.h ****  */
  52:./lib/chibios/os/rt/include/chthreads.h **** typedef void (*tfunc_t)(void *p);
  53:./lib/chibios/os/rt/include/chthreads.h **** 
  54:./lib/chibios/os/rt/include/chthreads.h **** /**
  55:./lib/chibios/os/rt/include/chthreads.h ****  * @brief   Type of a thread descriptor.
  56:./lib/chibios/os/rt/include/chthreads.h ****  */
  57:./lib/chibios/os/rt/include/chthreads.h **** typedef struct {
  58:./lib/chibios/os/rt/include/chthreads.h ****   /**
  59:./lib/chibios/os/rt/include/chthreads.h ****    * @brief   Thread name.
  60:./lib/chibios/os/rt/include/chthreads.h ****    */
  61:./lib/chibios/os/rt/include/chthreads.h ****   const char        *name;
  62:./lib/chibios/os/rt/include/chthreads.h ****   /**
  63:./lib/chibios/os/rt/include/chthreads.h ****    * @brief   Pointer to the working area base.
  64:./lib/chibios/os/rt/include/chthreads.h ****    */
  65:./lib/chibios/os/rt/include/chthreads.h ****   stkalign_t        *wbase;
  66:./lib/chibios/os/rt/include/chthreads.h ****   /**
  67:./lib/chibios/os/rt/include/chthreads.h ****    * @brief   End of the working area.
  68:./lib/chibios/os/rt/include/chthreads.h ****    */
  69:./lib/chibios/os/rt/include/chthreads.h ****   stkalign_t        *wend;
  70:./lib/chibios/os/rt/include/chthreads.h ****   /**
  71:./lib/chibios/os/rt/include/chthreads.h ****    * @brief   Thread priority.
  72:./lib/chibios/os/rt/include/chthreads.h ****    */
  73:./lib/chibios/os/rt/include/chthreads.h ****   tprio_t           prio;
  74:./lib/chibios/os/rt/include/chthreads.h ****   /**
  75:./lib/chibios/os/rt/include/chthreads.h ****    * @brief   Thread function pointer.
  76:./lib/chibios/os/rt/include/chthreads.h ****    */
  77:./lib/chibios/os/rt/include/chthreads.h ****   tfunc_t           funcp;
  78:./lib/chibios/os/rt/include/chthreads.h ****   /**
  79:./lib/chibios/os/rt/include/chthreads.h ****    * @brief   Thread argument.
  80:./lib/chibios/os/rt/include/chthreads.h ****    */
  81:./lib/chibios/os/rt/include/chthreads.h ****   void              *arg;
  82:./lib/chibios/os/rt/include/chthreads.h **** } thread_descriptor_t;
  83:./lib/chibios/os/rt/include/chthreads.h **** 
  84:./lib/chibios/os/rt/include/chthreads.h **** /*===========================================================================*/
  85:./lib/chibios/os/rt/include/chthreads.h **** /* Module macros.                                                            */
  86:./lib/chibios/os/rt/include/chthreads.h **** /*===========================================================================*/
  87:./lib/chibios/os/rt/include/chthreads.h **** 
  88:./lib/chibios/os/rt/include/chthreads.h **** /**
  89:./lib/chibios/os/rt/include/chthreads.h ****  * @name    Threads queues
  90:./lib/chibios/os/rt/include/chthreads.h ****  * @{
  91:./lib/chibios/os/rt/include/chthreads.h ****  */
  92:./lib/chibios/os/rt/include/chthreads.h **** /**
  93:./lib/chibios/os/rt/include/chthreads.h ****  * @brief   Data part of a static threads queue object initializer.
  94:./lib/chibios/os/rt/include/chthreads.h ****  * @details This macro should be used when statically initializing a threads
  95:./lib/chibios/os/rt/include/chthreads.h ****  *          queue that is part of a bigger structure.
  96:./lib/chibios/os/rt/include/chthreads.h ****  *
  97:./lib/chibios/os/rt/include/chthreads.h ****  * @param[in] name      the name of the threads queue variable
  98:./lib/chibios/os/rt/include/chthreads.h ****  */
  99:./lib/chibios/os/rt/include/chthreads.h **** #define _THREADS_QUEUE_DATA(name) {_CH_QUEUE_DATA(name)}
 100:./lib/chibios/os/rt/include/chthreads.h **** 
 101:./lib/chibios/os/rt/include/chthreads.h **** /**
 102:./lib/chibios/os/rt/include/chthreads.h ****  * @brief   Static threads queue object initializer.
 103:./lib/chibios/os/rt/include/chthreads.h ****  * @details Statically initialized threads queues require no explicit
 104:./lib/chibios/os/rt/include/chthreads.h ****  *          initialization using @p queue_init().
 105:./lib/chibios/os/rt/include/chthreads.h ****  *
 106:./lib/chibios/os/rt/include/chthreads.h ****  * @param[in] name      the name of the threads queue variable
 107:./lib/chibios/os/rt/include/chthreads.h ****  */
