   1              		.cpu cortex-m4
   2              		.arch armv7e-m
   3              		.fpu fpv4-sp-d16
   4              		.eabi_attribute 27, 1
   5              		.eabi_attribute 28, 1
   6              		.eabi_attribute 20, 1
   7              		.eabi_attribute 21, 1
   8              		.eabi_attribute 23, 3
   9              		.eabi_attribute 24, 1
  10              		.eabi_attribute 25, 1
  11              		.eabi_attribute 26, 1
  12              		.eabi_attribute 30, 4
  13              		.eabi_attribute 34, 1
  14              		.eabi_attribute 18, 2
  15              		.file	"keymap.c"
  16              		.text
  17              	.Ltext0:
  18              		.cfi_sections	.debug_frame
  19              		.file 1 "keyboards/planck/keymaps/LohseBoi/keymap.c"
  20              		.section	.text.layer_state_set_user,"ax",%progbits
  21              		.align	1
  22              		.global	layer_state_set_user
  23              		.syntax unified
  24              		.thumb
  25              		.thumb_func
  27              	layer_state_set_user:
  28              	.LVL0:
  29              	.LFB295:
   1:keyboards/planck/keymaps/LohseBoi/keymap.c **** /* Copyright 2015-2021 Jack Humbert
   2:keyboards/planck/keymaps/LohseBoi/keymap.c ****  *
   3:keyboards/planck/keymaps/LohseBoi/keymap.c ****  * This program is free software: you can redistribute it and/or modify
   4:keyboards/planck/keymaps/LohseBoi/keymap.c ****  * it under the terms of the GNU General Public License as published by
   5:keyboards/planck/keymaps/LohseBoi/keymap.c ****  * the Free Software Foundation, either version 2 of the License, or
   6:keyboards/planck/keymaps/LohseBoi/keymap.c ****  * (at your option) any later version.
   7:keyboards/planck/keymaps/LohseBoi/keymap.c ****  *
   8:keyboards/planck/keymaps/LohseBoi/keymap.c ****  * This program is distributed in the hope that it will be useful,
   9:keyboards/planck/keymaps/LohseBoi/keymap.c ****  * but WITHOUT ANY WARRANTY; without even the implied warranty of
  10:keyboards/planck/keymaps/LohseBoi/keymap.c ****  * MERCHANTABILITY or FITNESS FOR A PARTICULAR PURPOSE.  See the
  11:keyboards/planck/keymaps/LohseBoi/keymap.c ****  * GNU General Public License for more details.
  12:keyboards/planck/keymaps/LohseBoi/keymap.c ****  *
  13:keyboards/planck/keymaps/LohseBoi/keymap.c ****  * You should have received a copy of the GNU General Public License
  14:keyboards/planck/keymaps/LohseBoi/keymap.c ****  * along with this program.  If not, see <http://www.gnu.org/licenses/>.
  15:keyboards/planck/keymaps/LohseBoi/keymap.c ****  */
  16:keyboards/planck/keymaps/LohseBoi/keymap.c **** 
  17:keyboards/planck/keymaps/LohseBoi/keymap.c **** #include QMK_KEYBOARD_H
  18:keyboards/planck/keymaps/LohseBoi/keymap.c **** #include "muse.h"
  19:keyboards/planck/keymaps/LohseBoi/keymap.c **** #include "../../../tlohse.h"
  20:keyboards/planck/keymaps/LohseBoi/keymap.c **** 
  21:keyboards/planck/keymaps/LohseBoi/keymap.c **** MACRO_VARS
  22:keyboards/planck/keymaps/LohseBoi/keymap.c **** 
  23:keyboards/planck/keymaps/LohseBoi/keymap.c **** enum planck_layers {
  24:keyboards/planck/keymaps/LohseBoi/keymap.c ****     _DVORAK,
  25:keyboards/planck/keymaps/LohseBoi/keymap.c ****     _QWERTY,
  26:keyboards/planck/keymaps/LohseBoi/keymap.c ****     _LOWER,
  27:keyboards/planck/keymaps/LohseBoi/keymap.c ****     _RAISE,
  28:keyboards/planck/keymaps/LohseBoi/keymap.c ****     _ADJUST,
  29:keyboards/planck/keymaps/LohseBoi/keymap.c **** };
  30:keyboards/planck/keymaps/LohseBoi/keymap.c **** 
  31:keyboards/planck/keymaps/LohseBoi/keymap.c **** KEYCODES(planck_keycodes, BACKLIT)
  32:keyboards/planck/keymaps/LohseBoi/keymap.c **** 
  33:keyboards/planck/keymaps/LohseBoi/keymap.c **** 
  34:keyboards/planck/keymaps/LohseBoi/keymap.c **** const uint16_t PROGMEM keymaps[][MATRIX_ROWS][MATRIX_COLS] = {
  35:keyboards/planck/keymaps/LohseBoi/keymap.c ****     [_DVORAK] = t_DVORAK,
  36:keyboards/planck/keymaps/LohseBoi/keymap.c ****     [_QWERTY] = t_QWERTY,
  37:keyboards/planck/keymaps/LohseBoi/keymap.c ****     [_LOWER] = t_LOWER,
  38:keyboards/planck/keymaps/LohseBoi/keymap.c ****     [_RAISE] = t_RAISE,
  39:keyboards/planck/keymaps/LohseBoi/keymap.c ****     [_ADJUST] = t_ADJUST,
  40:keyboards/planck/keymaps/LohseBoi/keymap.c **** };
  41:keyboards/planck/keymaps/LohseBoi/keymap.c **** 
  42:keyboards/planck/keymaps/LohseBoi/keymap.c **** 
  43:keyboards/planck/keymaps/LohseBoi/keymap.c **** #ifdef AUDIO_ENABLE
  44:keyboards/planck/keymaps/LohseBoi/keymap.c ****   float plover_song[][2]     = SONG(PLOVER_SOUND);
  45:keyboards/planck/keymaps/LohseBoi/keymap.c ****   float plover_gb_song[][2]  = SONG(PLOVER_GOODBYE_SOUND);
  46:keyboards/planck/keymaps/LohseBoi/keymap.c **** #endif
  47:keyboards/planck/keymaps/LohseBoi/keymap.c **** 
  48:keyboards/planck/keymaps/LohseBoi/keymap.c **** 
  49:keyboards/planck/keymaps/LohseBoi/keymap.c **** layer_state_t layer_state_set_user(layer_state_t state) {
  30              		.loc 1 49 57 view -0
  31              		.cfi_startproc
  32              		@ args = 0, pretend = 0, frame = 0
  33              		@ frame_needed = 0, uses_anonymous_args = 0
  34              		@ link register save eliminated.
  50:keyboards/planck/keymaps/LohseBoi/keymap.c ****   return update_tri_layer_state(state, _LOWER, _RAISE, _ADJUST);
  35              		.loc 1 50 3 view .LVU1
  36              		.loc 1 50 10 is_stmt 0 view .LVU2
  37 0000 0423     		movs	r3, #4
  38 0002 0322     		movs	r2, #3
  39 0004 0221     		movs	r1, #2
  40 0006 FFF7FEBF 		b	update_tri_layer_state
  41              	.LVL1:
  42              		.loc 1 50 10 view .LVU3
  43              		.cfi_endproc
  44              	.LFE295:
  46              		.section	.text.process_record_user,"ax",%progbits
  47              		.align	1
  48              		.global	process_record_user
  49              		.syntax unified
  50              		.thumb
  51              		.thumb_func
  53              	process_record_user:
  54              	.LVL2:
  55              	.LFB296:
  51:keyboards/planck/keymaps/LohseBoi/keymap.c **** }
  52:keyboards/planck/keymaps/LohseBoi/keymap.c **** 
  53:keyboards/planck/keymaps/LohseBoi/keymap.c **** int kc;
  54:keyboards/planck/keymaps/LohseBoi/keymap.c **** 
  55:keyboards/planck/keymaps/LohseBoi/keymap.c **** bool process_record_user(uint16_t keycode, keyrecord_t *record) {
  56              		.loc 1 55 65 is_stmt 1 view -0
  57              		.cfi_startproc
  58              		@ args = 0, pretend = 0, frame = 0
  59              		@ frame_needed = 0, uses_anonymous_args = 0
  56:keyboards/planck/keymaps/LohseBoi/keymap.c ****   switch (keycode) {
  60              		.loc 1 56 3 view .LVU5
  61 0000 A0F5BA40 		sub	r0, r0, #23808
  62              	.LVL3:
  63              		.loc 1 56 3 is_stmt 0 view .LVU6
  64 0004 6338     		subs	r0, r0, #99
  55:keyboards/planck/keymaps/LohseBoi/keymap.c ****   switch (keycode) {
  65              		.loc 1 55 65 view .LVU7
  66 0006 10B5     		push	{r4, lr}
  67              		.cfi_def_cfa_offset 8
  68              		.cfi_offset 4, -8
  69              		.cfi_offset 14, -4
  70              		.loc 1 56 3 view .LVU8
  71 0008 0A28     		cmp	r0, #10
  72 000a 00F2A680 		bhi	.L31
  73 000e DFE800F0 		tbb	[pc, r0]
  74              	.L5:
  75 0012 0D       		.byte	(.L15-.L5)/2
  76 0013 06       		.byte	(.L14-.L5)/2
  77 0014 12       		.byte	(.L13-.L5)/2
  78 0015 18       		.byte	(.L12-.L5)/2
  79 0016 45       		.byte	(.L11-.L5)/2
  80 0017 5A       		.byte	(.L10-.L5)/2
  81 0018 66       		.byte	(.L9-.L5)/2
  82 0019 69       		.byte	(.L8-.L5)/2
  83 001a 70       		.byte	(.L7-.L5)/2
  84 001b 77       		.byte	(.L6-.L5)/2
  85 001c 90       		.byte	(.L4-.L5)/2
  86 001d 00       		.p2align 1
  87              	.L14:
  57:keyboards/planck/keymaps/LohseBoi/keymap.c ****       case QWERTY:
  58:keyboards/planck/keymaps/LohseBoi/keymap.c ****           if (record->event.pressed) {
  88              		.loc 1 58 11 is_stmt 1 view .LVU9
  89              		.loc 1 58 14 is_stmt 0 view .LVU10
  90 001e 8B78     		ldrb	r3, [r1, #2]	@ zero_extendqisi2
  91 0020 13B1     		cbz	r3, .L16
  59:keyboards/planck/keymaps/LohseBoi/keymap.c ****               set_single_persistent_default_layer(_QWERTY);
  92              		.loc 1 59 15 is_stmt 1 view .LVU11
  93 0022 0120     		movs	r0, #1
  94              	.L48:
  60:keyboards/planck/keymaps/LohseBoi/keymap.c ****           }
  61:keyboards/planck/keymaps/LohseBoi/keymap.c ****           return false;
  62:keyboards/planck/keymaps/LohseBoi/keymap.c ****           break;
  63:keyboards/planck/keymaps/LohseBoi/keymap.c ****       case DVORAK:
  64:keyboards/planck/keymaps/LohseBoi/keymap.c ****           if (record->event.pressed) {
  65:keyboards/planck/keymaps/LohseBoi/keymap.c ****               set_single_persistent_default_layer(_DVORAK);
  95              		.loc 1 65 15 is_stmt 0 view .LVU12
  96 0024 FFF7FEFF 		bl	set_single_persistent_default_layer
  97              	.LVL4:
  98              	.L16:
  61:keyboards/planck/keymaps/LohseBoi/keymap.c ****           break;
  99              		.loc 1 61 18 view .LVU13
 100 0028 0020     		movs	r0, #0
 101              	.L3:
  66:keyboards/planck/keymaps/LohseBoi/keymap.c ****           }
  67:keyboards/planck/keymaps/LohseBoi/keymap.c ****           return false;
  68:keyboards/planck/keymaps/LohseBoi/keymap.c ****           break;
  69:keyboards/planck/keymaps/LohseBoi/keymap.c ****       case BACKLIT:
  70:keyboards/planck/keymaps/LohseBoi/keymap.c ****           if (record->event.pressed) {
  71:keyboards/planck/keymaps/LohseBoi/keymap.c ****               register_code(KC_RSFT);
  72:keyboards/planck/keymaps/LohseBoi/keymap.c **** #ifdef BACKLIGHT_ENABLE
  73:keyboards/planck/keymaps/LohseBoi/keymap.c ****               backlight_step();
  74:keyboards/planck/keymaps/LohseBoi/keymap.c **** #endif
  75:keyboards/planck/keymaps/LohseBoi/keymap.c **** #ifdef KEYBOARD_planck_rev5
  76:keyboards/planck/keymaps/LohseBoi/keymap.c ****               writePinLow(E6);
  77:keyboards/planck/keymaps/LohseBoi/keymap.c **** #endif
  78:keyboards/planck/keymaps/LohseBoi/keymap.c ****           } else {
  79:keyboards/planck/keymaps/LohseBoi/keymap.c ****               unregister_code(KC_RSFT);
  80:keyboards/planck/keymaps/LohseBoi/keymap.c **** #ifdef KEYBOARD_planck_rev5
  81:keyboards/planck/keymaps/LohseBoi/keymap.c ****               writePinHigh(E6);
  82:keyboards/planck/keymaps/LohseBoi/keymap.c **** #endif
  83:keyboards/planck/keymaps/LohseBoi/keymap.c ****           }
  84:keyboards/planck/keymaps/LohseBoi/keymap.c ****           return false;
  85:keyboards/planck/keymaps/LohseBoi/keymap.c ****           break;
  86:keyboards/planck/keymaps/LohseBoi/keymap.c ****     PROCESS_CUSTOM
  87:keyboards/planck/keymaps/LohseBoi/keymap.c ****   }
  88:keyboards/planck/keymaps/LohseBoi/keymap.c ****   return true;
  89:keyboards/planck/keymaps/LohseBoi/keymap.c **** }
 102              		.loc 1 89 1 view .LVU14
 103 002a 10BD     		pop	{r4, pc}
 104              	.LVL5:
 105              	.L15:
  62:keyboards/planck/keymaps/LohseBoi/keymap.c ****       case DVORAK:
 106              		.loc 1 62 11 is_stmt 1 view .LVU15
  64:keyboards/planck/keymaps/LohseBoi/keymap.c ****               set_single_persistent_default_layer(_DVORAK);
 107              		.loc 1 64 11 view .LVU16
  64:keyboards/planck/keymaps/LohseBoi/keymap.c ****               set_single_persistent_default_layer(_DVORAK);
 108              		.loc 1 64 14 is_stmt 0 view .LVU17
 109 002c 8B78     		ldrb	r3, [r1, #2]	@ zero_extendqisi2
 110 002e 002B     		cmp	r3, #0
 111 0030 FAD0     		beq	.L16
  65:keyboards/planck/keymaps/LohseBoi/keymap.c ****           }
 112              		.loc 1 65 15 is_stmt 1 view .LVU18
 113 0032 0020     		movs	r0, #0
 114 0034 F6E7     		b	.L48
 115              	.L13:
  68:keyboards/planck/keymaps/LohseBoi/keymap.c ****       case BACKLIT:
 116              		.loc 1 68 11 view .LVU19
  70:keyboards/planck/keymaps/LohseBoi/keymap.c ****               register_code(KC_RSFT);
 117              		.loc 1 70 11 view .LVU20
  70:keyboards/planck/keymaps/LohseBoi/keymap.c ****               register_code(KC_RSFT);
 118              		.loc 1 70 14 is_stmt 0 view .LVU21
 119 0036 8B78     		ldrb	r3, [r1, #2]	@ zero_extendqisi2
  71:keyboards/planck/keymaps/LohseBoi/keymap.c **** #ifdef BACKLIGHT_ENABLE
 120              		.loc 1 71 15 view .LVU22
 121 0038 E520     		movs	r0, #229
  70:keyboards/planck/keymaps/LohseBoi/keymap.c ****               register_code(KC_RSFT);
 122              		.loc 1 70 14 view .LVU23
 123 003a 4BB3     		cbz	r3, .L49
 124              	.LVL6:
 125              	.L50:
  86:keyboards/planck/keymaps/LohseBoi/keymap.c ****   }
 126              		.loc 1 86 5 discriminator 37 view .LVU24
 127 003c FFF7FEFF 		bl	register_code
 128              	.LVL7:
 129 0040 F2E7     		b	.L16
 130              	.LVL8:
 131              	.L12:
  85:keyboards/planck/keymaps/LohseBoi/keymap.c ****     PROCESS_CUSTOM
 132              		.loc 1 85 11 is_stmt 1 view .LVU25
  86:keyboards/planck/keymaps/LohseBoi/keymap.c ****   }
 133              		.loc 1 86 5 view .LVU26
 134 0042 8B78     		ldrb	r3, [r1, #2]	@ zero_extendqisi2
 135 0044 464C     		ldr	r4, .L63
 136 0046 5BB1     		cbz	r3, .L18
  86:keyboards/planck/keymaps/LohseBoi/keymap.c ****   }
 137              		.loc 1 86 5 discriminator 1 view .LVU27
 138 0048 0220     		movs	r0, #2
 139              	.L47:
  86:keyboards/planck/keymaps/LohseBoi/keymap.c ****   }
 140              		.loc 1 86 5 is_stmt 0 discriminator 10 view .LVU28
 141 004a FFF7FEFF 		bl	layer_on
 142              	.LVL9:
  86:keyboards/planck/keymaps/LohseBoi/keymap.c ****   }
 143              		.loc 1 86 5 is_stmt 1 discriminator 10 view .LVU29
 144 004e 0422     		movs	r2, #4
 145 0050 0321     		movs	r1, #3
 146 0052 0220     		movs	r0, #2
 147 0054 FFF7FEFF 		bl	update_tri_layer
 148              	.LVL10:
  86:keyboards/planck/keymaps/LohseBoi/keymap.c ****   }
 149              		.loc 1 86 5 discriminator 10 view .LVU30
 150 0058 FFF7FEFF 		bl	timer_read
 151              	.LVL11:
 152 005c 2080     		strh	r0, [r4]	@ movhi
 153 005e E3E7     		b	.L16
 154              	.LVL12:
 155              	.L18:
  86:keyboards/planck/keymaps/LohseBoi/keymap.c ****   }
 156              		.loc 1 86 5 discriminator 2 view .LVU31
 157 0060 2088     		ldrh	r0, [r4]
 158 0062 FFF7FEFF 		bl	timer_elapsed
 159              	.LVL13:
  86:keyboards/planck/keymaps/LohseBoi/keymap.c ****   }
 160              		.loc 1 86 5 is_stmt 0 discriminator 2 view .LVU32
 161 0066 6328     		cmp	r0, #99
 162 0068 4FF00200 		mov	r0, #2
 163 006c 13D8     		bhi	.L19
  86:keyboards/planck/keymaps/LohseBoi/keymap.c ****   }
 164              		.loc 1 86 5 is_stmt 1 discriminator 4 view .LVU33
 165 006e 3D4A     		ldr	r2, .L63+4
 166 0070 1378     		ldrb	r3, [r2]	@ zero_extendqisi2
 167 0072 83F00103 		eor	r3, r3, #1
 168 0076 1370     		strb	r3, [r2]
  86:keyboards/planck/keymaps/LohseBoi/keymap.c ****   }
 169              		.loc 1 86 5 discriminator 4 view .LVU34
 170 0078 6BB1     		cbz	r3, .L19
  86:keyboards/planck/keymaps/LohseBoi/keymap.c ****   }
 171              		.loc 1 86 5 is_stmt 0 discriminator 6 view .LVU35
 172 007a FFF7FEFF 		bl	layer_on
 173              	.LVL14:
 174              	.L20:
  86:keyboards/planck/keymaps/LohseBoi/keymap.c ****   }
 175              		.loc 1 86 5 is_stmt 1 discriminator 8 view .LVU36
 176 007e 0220     		movs	r0, #2
 177 0080 FFF7FEFF 		bl	layer_off
 178              	.LVL15:
  86:keyboards/planck/keymaps/LohseBoi/keymap.c ****   }
 179              		.loc 1 86 5 discriminator 8 view .LVU37
 180 0084 0220     		movs	r0, #2
 181 0086 0422     		movs	r2, #4
 182 0088 0321     		movs	r1, #3
 183 008a FFF7FEFF 		bl	update_tri_layer
 184              	.LVL16:
  86:keyboards/planck/keymaps/LohseBoi/keymap.c ****   }
 185              		.loc 1 86 5 discriminator 8 view .LVU38
 186 008e E220     		movs	r0, #226
 187              	.L49:
  86:keyboards/planck/keymaps/LohseBoi/keymap.c ****   }
 188              		.loc 1 86 5 is_stmt 0 discriminator 41 view .LVU39
 189 0090 FFF7FEFF 		bl	unregister_code
 190              	.LVL17:
 191 0094 C8E7     		b	.L16
 192              	.L19:
  86:keyboards/planck/keymaps/LohseBoi/keymap.c ****   }
 193              		.loc 1 86 5 discriminator 7 view .LVU40
 194 0096 FFF7FEFF 		bl	layer_off
 195              	.LVL18:
 196 009a F0E7     		b	.L20
 197              	.LVL19:
 198              	.L11:
  86:keyboards/planck/keymaps/LohseBoi/keymap.c ****   }
 199              		.loc 1 86 5 is_stmt 1 view .LVU41
 200 009c 8B78     		ldrb	r3, [r1, #2]	@ zero_extendqisi2
 201 009e 324C     		ldr	r4, .L63+8
 202 00a0 0BB1     		cbz	r3, .L21
  86:keyboards/planck/keymaps/LohseBoi/keymap.c ****   }
 203              		.loc 1 86 5 discriminator 10 view .LVU42
 204 00a2 0320     		movs	r0, #3
 205 00a4 D1E7     		b	.L47
 206              	.L21:
  86:keyboards/planck/keymaps/LohseBoi/keymap.c ****   }
 207              		.loc 1 86 5 discriminator 11 view .LVU43
 208 00a6 2088     		ldrh	r0, [r4]
 209 00a8 FFF7FEFF 		bl	timer_elapsed
 210              	.LVL20:
  86:keyboards/planck/keymaps/LohseBoi/keymap.c ****   }
 211              		.loc 1 86 5 is_stmt 0 discriminator 11 view .LVU44
 212 00ac 6328     		cmp	r0, #99
 213 00ae 4FF00300 		mov	r0, #3
 214 00b2 05D8     		bhi	.L57
  86:keyboards/planck/keymaps/LohseBoi/keymap.c ****   }
 215              		.loc 1 86 5 is_stmt 1 discriminator 13 view .LVU45
 216 00b4 2D4A     		ldr	r2, .L63+12
 217 00b6 1378     		ldrb	r3, [r2]	@ zero_extendqisi2
 218 00b8 83F00103 		eor	r3, r3, #1
 219 00bc 1370     		strb	r3, [r2]
  86:keyboards/planck/keymaps/LohseBoi/keymap.c ****   }
 220              		.loc 1 86 5 discriminator 13 view .LVU46
 221              	.L62:
  86:keyboards/planck/keymaps/LohseBoi/keymap.c ****   }
 222              		.loc 1 86 5 is_stmt 0 view .LVU47
 223 00be 33B9     		cbnz	r3, .L58
 224              	.L57:
  86:keyboards/planck/keymaps/LohseBoi/keymap.c ****   }
 225              		.loc 1 86 5 discriminator 24 view .LVU48
 226 00c0 FFF7FEFF 		bl	layer_off
 227              	.LVL21:
  86:keyboards/planck/keymaps/LohseBoi/keymap.c ****   }
 228              		.loc 1 86 5 is_stmt 1 discriminator 24 view .LVU49
 229 00c4 05E0     		b	.L54
 230              	.LVL22:
 231              	.L10:
  86:keyboards/planck/keymaps/LohseBoi/keymap.c ****   }
 232              		.loc 1 86 5 view .LVU50
 233 00c6 8B78     		ldrb	r3, [r1, #2]	@ zero_extendqisi2
 234 00c8 002B     		cmp	r3, #0
 235 00ca D8D0     		beq	.L20
  86:keyboards/planck/keymaps/LohseBoi/keymap.c ****   }
 236              		.loc 1 86 5 discriminator 19 view .LVU51
 237 00cc 0220     		movs	r0, #2
 238              	.LVL23:
 239              	.L58:
  86:keyboards/planck/keymaps/LohseBoi/keymap.c ****   }
 240              		.loc 1 86 5 is_stmt 0 discriminator 19 view .LVU52
 241 00ce FFF7FEFF 		bl	layer_on
 242              	.LVL24:
 243              	.L54:
  86:keyboards/planck/keymaps/LohseBoi/keymap.c ****   }
 244              		.loc 1 86 5 is_stmt 1 discriminator 19 view .LVU53
 245 00d2 0422     		movs	r2, #4
 246 00d4 0321     		movs	r1, #3
 247 00d6 0220     		movs	r0, #2
 248 00d8 FFF7FEFF 		bl	update_tri_layer
 249              	.LVL25:
 250 00dc A4E7     		b	.L16
 251              	.LVL26:
 252              	.L9:
  86:keyboards/planck/keymaps/LohseBoi/keymap.c ****   }
 253              		.loc 1 86 5 view .LVU54
 254 00de 8B78     		ldrb	r3, [r1, #2]	@ zero_extendqisi2
 255 00e0 0320     		movs	r0, #3
 256 00e2 ECE7     		b	.L62
 257              	.L8:
  86:keyboards/planck/keymaps/LohseBoi/keymap.c ****   }
 258              		.loc 1 86 5 view .LVU55
 259 00e4 8B78     		ldrb	r3, [r1, #2]	@ zero_extendqisi2
 260 00e6 9FED220A 		vldr.32	s0, .L63+16
 261              	.L60:
  86:keyboards/planck/keymaps/LohseBoi/keymap.c ****   }
 262              		.loc 1 86 5 is_stmt 0 view .LVU56
 263 00ea 33B1     		cbz	r3, .L56
  86:keyboards/planck/keymaps/LohseBoi/keymap.c ****   }
 264              		.loc 1 86 5 discriminator 31 view .LVU57
 265 00ec FFF7FEFF 		bl	audio_play_tone
 266              	.LVL27:
  86:keyboards/planck/keymaps/LohseBoi/keymap.c ****   }
 267              		.loc 1 86 5 discriminator 31 view .LVU58
 268 00f0 9AE7     		b	.L16
 269              	.LVL28:
 270              	.L7:
  86:keyboards/planck/keymaps/LohseBoi/keymap.c ****   }
 271              		.loc 1 86 5 is_stmt 1 view .LVU59
 272 00f2 8B78     		ldrb	r3, [r1, #2]	@ zero_extendqisi2
 273 00f4 9FED1F0A 		vldr.32	s0, .L63+20
 274 00f8 F7E7     		b	.L60
 275              	.L56:
  86:keyboards/planck/keymaps/LohseBoi/keymap.c ****   }
 276              		.loc 1 86 5 is_stmt 0 discriminator 32 view .LVU60
 277 00fa FFF7FEFF 		bl	audio_stop_tone
 278              	.LVL29:
  86:keyboards/planck/keymaps/LohseBoi/keymap.c ****   }
 279              		.loc 1 86 5 discriminator 32 view .LVU61
 280 00fe 93E7     		b	.L16
 281              	.LVL30:
 282              	.L6:
  86:keyboards/planck/keymaps/LohseBoi/keymap.c ****   }
 283              		.loc 1 86 5 is_stmt 1 view .LVU62
 284 0100 8B78     		ldrb	r3, [r1, #2]	@ zero_extendqisi2
 285 0102 83B1     		cbz	r3, .L27
  86:keyboards/planck/keymaps/LohseBoi/keymap.c ****   }
 286              		.loc 1 86 5 discriminator 35 view .LVU63
 287 0104 FFF7FEFF 		bl	get_mods
 288              	.LVL31:
  86:keyboards/planck/keymaps/LohseBoi/keymap.c ****   }
 289              		.loc 1 86 5 is_stmt 0 discriminator 35 view .LVU64
 290 0108 8207     		lsls	r2, r0, #30
 291 010a 07D5     		bpl	.L28
  86:keyboards/planck/keymaps/LohseBoi/keymap.c ****   }
 292              		.loc 1 86 5 is_stmt 1 discriminator 37 view .LVU65
 293 010c E120     		movs	r0, #225
 294 010e FFF7FEFF 		bl	unregister_code
 295              	.LVL32:
  86:keyboards/planck/keymaps/LohseBoi/keymap.c ****   }
 296              		.loc 1 86 5 discriminator 37 view .LVU66
 297 0112 3420     		movs	r0, #52
 298              	.L55:
  86:keyboards/planck/keymaps/LohseBoi/keymap.c ****   }
 299              		.loc 1 86 5 is_stmt 0 discriminator 37 view .LVU67
 300 0114 FFF7FEFF 		bl	register_code
 301              	.LVL33:
  86:keyboards/planck/keymaps/LohseBoi/keymap.c ****   }
 302              		.loc 1 86 5 is_stmt 1 discriminator 37 view .LVU68
 303 0118 E120     		movs	r0, #225
 304 011a 8FE7     		b	.L50
 305              	.L28:
  86:keyboards/planck/keymaps/LohseBoi/keymap.c ****   }
 306              		.loc 1 86 5 discriminator 38 view .LVU69
 307 011c 4FF40D70 		mov	r0, #564
 308              	.L53:
  86:keyboards/planck/keymaps/LohseBoi/keymap.c ****   }
 309              		.loc 1 86 5 is_stmt 0 discriminator 43 view .LVU70
 310 0120 FFF7FEFF 		bl	register_code16
 311              	.LVL34:
 312 0124 80E7     		b	.L16
 313              	.LVL35:
 314              	.L27:
  86:keyboards/planck/keymaps/LohseBoi/keymap.c ****   }
 315              		.loc 1 86 5 is_stmt 1 discriminator 36 view .LVU71
 316 0126 4FF40D70 		mov	r0, #564
 317 012a FFF7FEFF 		bl	unregister_code16
 318              	.LVL36:
  86:keyboards/planck/keymaps/LohseBoi/keymap.c ****   }
 319              		.loc 1 86 5 discriminator 36 view .LVU72
 320 012e 3420     		movs	r0, #52
 321 0130 AEE7     		b	.L49
 322              	.LVL37:
 323              	.L4:
  86:keyboards/planck/keymaps/LohseBoi/keymap.c ****   }
 324              		.loc 1 86 5 view .LVU73
 325 0132 8B78     		ldrb	r3, [r1, #2]	@ zero_extendqisi2
 326 0134 5BB1     		cbz	r3, .L29
  86:keyboards/planck/keymaps/LohseBoi/keymap.c ****   }
 327              		.loc 1 86 5 discriminator 40 view .LVU74
 328 0136 FFF7FEFF 		bl	get_mods
 329              	.LVL38:
  86:keyboards/planck/keymaps/LohseBoi/keymap.c ****   }
 330              		.loc 1 86 5 is_stmt 0 discriminator 40 view .LVU75
 331 013a 8307     		lsls	r3, r0, #30
 332 013c 04D5     		bpl	.L30
  86:keyboards/planck/keymaps/LohseBoi/keymap.c ****   }
 333              		.loc 1 86 5 is_stmt 1 discriminator 42 view .LVU76
 334 013e E120     		movs	r0, #225
 335 0140 FFF7FEFF 		bl	unregister_code
 336              	.LVL39:
  86:keyboards/planck/keymaps/LohseBoi/keymap.c ****   }
 337              		.loc 1 86 5 discriminator 42 view .LVU77
 338 0144 2D20     		movs	r0, #45
 339 0146 E5E7     		b	.L55
 340              	.L30:
  86:keyboards/planck/keymaps/LohseBoi/keymap.c ****   }
 341              		.loc 1 86 5 discriminator 43 view .LVU78
 342 0148 40F22D20 		movw	r0, #557
 343 014c E8E7     		b	.L53
 344              	.LVL40:
 345              	.L29:
  86:keyboards/planck/keymaps/LohseBoi/keymap.c ****   }
 346              		.loc 1 86 5 discriminator 41 view .LVU79
 347 014e 40F22D20 		movw	r0, #557
 348 0152 FFF7FEFF 		bl	unregister_code16
 349              	.LVL41:
  86:keyboards/planck/keymaps/LohseBoi/keymap.c ****   }
 350              		.loc 1 86 5 discriminator 41 view .LVU80
 351 0156 2D20     		movs	r0, #45
 352 0158 9AE7     		b	.L49
 353              	.LVL42:
 354              	.L31:
  56:keyboards/planck/keymaps/LohseBoi/keymap.c ****       case QWERTY:
 355              		.loc 1 56 3 is_stmt 0 view .LVU81
 356 015a 0120     		movs	r0, #1
 357 015c 65E7     		b	.L3
 358              	.L64:
 359 015e 00BF     		.align	2
 360              	.L63:
 361 0160 00000000 		.word	lwr_timer
 362 0164 00000000 		.word	lwr_tapped
 363 0168 00000000 		.word	rse_timer
 364 016c 00000000 		.word	rse_tapped
 365 0170 A4D08243 		.word	1132646564
 366 0174 0A978A43 		.word	1133156106
 367              		.cfi_endproc
 368              	.LFE296:
 370              		.section	.text.encoder_update_user,"ax",%progbits
 371              		.align	1
 372              		.global	encoder_update_user
 373              		.syntax unified
 374              		.thumb
 375              		.thumb_func
 377              	encoder_update_user:
 378              	.LVL43:
 379              	.LFB297:
  90:keyboards/planck/keymaps/LohseBoi/keymap.c **** 
  91:keyboards/planck/keymaps/LohseBoi/keymap.c **** 
  92:keyboards/planck/keymaps/LohseBoi/keymap.c **** 
  93:keyboards/planck/keymaps/LohseBoi/keymap.c **** bool muse_mode = false;
  94:keyboards/planck/keymaps/LohseBoi/keymap.c **** uint8_t last_muse_note = 0;
  95:keyboards/planck/keymaps/LohseBoi/keymap.c **** uint16_t muse_counter = 0;
  96:keyboards/planck/keymaps/LohseBoi/keymap.c **** uint8_t muse_offset = 70;
  97:keyboards/planck/keymaps/LohseBoi/keymap.c **** uint16_t muse_tempo = 50;
  98:keyboards/planck/keymaps/LohseBoi/keymap.c **** 
  99:keyboards/planck/keymaps/LohseBoi/keymap.c **** bool encoder_update_user(uint8_t index, bool clockwise) {
 380              		.loc 1 99 57 is_stmt 1 view -0
 381              		.cfi_startproc
 382              		@ args = 0, pretend = 0, frame = 0
 383              		@ frame_needed = 0, uses_anonymous_args = 0
 100:keyboards/planck/keymaps/LohseBoi/keymap.c ****   if (muse_mode) {
 384              		.loc 1 100 3 view .LVU83
 385              		.loc 1 100 7 is_stmt 0 view .LVU84
 386 0000 104B     		ldr	r3, .L75
 387              		.loc 1 100 6 view .LVU85
 388 0002 1B78     		ldrb	r3, [r3]	@ zero_extendqisi2
  99:keyboards/planck/keymaps/LohseBoi/keymap.c ****   if (muse_mode) {
 389              		.loc 1 99 57 view .LVU86
 390 0004 10B5     		push	{r4, lr}
 391              		.cfi_def_cfa_offset 8
 392              		.cfi_offset 4, -8
 393              		.cfi_offset 14, -4
  99:keyboards/planck/keymaps/LohseBoi/keymap.c ****   if (muse_mode) {
 394              		.loc 1 99 57 view .LVU87
 395 0006 0C46     		mov	r4, r1
 396              		.loc 1 100 6 view .LVU88
 397 0008 A3B1     		cbz	r3, .L66
 101:keyboards/planck/keymaps/LohseBoi/keymap.c ****     if (IS_LAYER_ON(_RAISE)) {
 398              		.loc 1 101 5 is_stmt 1 view .LVU89
 399              		.loc 1 101 9 is_stmt 0 view .LVU90
 400 000a 0320     		movs	r0, #3
 401              	.LVL44:
 402              		.loc 1 101 9 view .LVU91
 403 000c FFF7FEFF 		bl	layer_state_is
 404              	.LVL45:
 405              		.loc 1 101 8 view .LVU92
 406 0010 40B1     		cbz	r0, .L67
 102:keyboards/planck/keymaps/LohseBoi/keymap.c ****       if (clockwise) {
 407              		.loc 1 102 7 is_stmt 1 view .LVU93
 103:keyboards/planck/keymaps/LohseBoi/keymap.c ****         muse_offset++;
 408              		.loc 1 103 20 is_stmt 0 view .LVU94
 409 0012 0D4A     		ldr	r2, .L75+4
 410 0014 1378     		ldrb	r3, [r2]	@ zero_extendqisi2
 102:keyboards/planck/keymaps/LohseBoi/keymap.c ****       if (clockwise) {
 411              		.loc 1 102 10 view .LVU95
 412 0016 1CB1     		cbz	r4, .L68
 413              		.loc 1 103 9 is_stmt 1 view .LVU96
 414              		.loc 1 103 20 is_stmt 0 view .LVU97
 415 0018 0133     		adds	r3, r3, #1
 416              	.L72:
 104:keyboards/planck/keymaps/LohseBoi/keymap.c ****       } else {
 105:keyboards/planck/keymaps/LohseBoi/keymap.c ****         muse_offset--;
 417              		.loc 1 105 20 view .LVU98
 418 001a 1370     		strb	r3, [r2]
 419              	.L69:
 106:keyboards/planck/keymaps/LohseBoi/keymap.c ****       }
 107:keyboards/planck/keymaps/LohseBoi/keymap.c ****     } else {
 108:keyboards/planck/keymaps/LohseBoi/keymap.c ****       if (clockwise) {
 109:keyboards/planck/keymaps/LohseBoi/keymap.c ****         muse_tempo+=1;
 110:keyboards/planck/keymaps/LohseBoi/keymap.c ****       } else {
 111:keyboards/planck/keymaps/LohseBoi/keymap.c ****         muse_tempo-=1;
 112:keyboards/planck/keymaps/LohseBoi/keymap.c ****       }
 113:keyboards/planck/keymaps/LohseBoi/keymap.c ****     }
 114:keyboards/planck/keymaps/LohseBoi/keymap.c ****   } else {
 115:keyboards/planck/keymaps/LohseBoi/keymap.c ****     if (clockwise) {
 116:keyboards/planck/keymaps/LohseBoi/keymap.c ****       #ifdef MOUSEKEY_ENABLE
 117:keyboards/planck/keymaps/LohseBoi/keymap.c ****         tap_code(KC_MS_WH_DOWN);
 118:keyboards/planck/keymaps/LohseBoi/keymap.c ****       #else
 119:keyboards/planck/keymaps/LohseBoi/keymap.c ****         tap_code(KC_PGDN);
 120:keyboards/planck/keymaps/LohseBoi/keymap.c ****       #endif
 121:keyboards/planck/keymaps/LohseBoi/keymap.c ****     } else {
 122:keyboards/planck/keymaps/LohseBoi/keymap.c ****       #ifdef MOUSEKEY_ENABLE
 123:keyboards/planck/keymaps/LohseBoi/keymap.c ****         tap_code(KC_MS_WH_UP);
 124:keyboards/planck/keymaps/LohseBoi/keymap.c ****       #else
 125:keyboards/planck/keymaps/LohseBoi/keymap.c ****         tap_code(KC_PGUP);
 126:keyboards/planck/keymaps/LohseBoi/keymap.c ****       #endif
 127:keyboards/planck/keymaps/LohseBoi/keymap.c ****     }
 128:keyboards/planck/keymaps/LohseBoi/keymap.c ****   }
 129:keyboards/planck/keymaps/LohseBoi/keymap.c ****     return true;
 420              		.loc 1 129 5 is_stmt 1 view .LVU99
 130:keyboards/planck/keymaps/LohseBoi/keymap.c **** }
 421              		.loc 1 130 1 is_stmt 0 view .LVU100
 422 001c 0120     		movs	r0, #1
 423 001e 10BD     		pop	{r4, pc}
 424              	.L68:
 105:keyboards/planck/keymaps/LohseBoi/keymap.c ****       }
 425              		.loc 1 105 9 is_stmt 1 view .LVU101
 105:keyboards/planck/keymaps/LohseBoi/keymap.c ****       }
 426              		.loc 1 105 20 is_stmt 0 view .LVU102
 427 0020 013B     		subs	r3, r3, #1
 428 0022 FAE7     		b	.L72
 429              	.L67:
 108:keyboards/planck/keymaps/LohseBoi/keymap.c ****         muse_tempo+=1;
 430              		.loc 1 108 7 is_stmt 1 view .LVU103
 109:keyboards/planck/keymaps/LohseBoi/keymap.c ****       } else {
 431              		.loc 1 109 19 is_stmt 0 view .LVU104
 432 0024 094A     		ldr	r2, .L75+8
 433 0026 1388     		ldrh	r3, [r2]
 108:keyboards/planck/keymaps/LohseBoi/keymap.c ****         muse_tempo+=1;
 434              		.loc 1 108 10 view .LVU105
 435 0028 14B1     		cbz	r4, .L70
 109:keyboards/planck/keymaps/LohseBoi/keymap.c ****       } else {
 436              		.loc 1 109 9 is_stmt 1 view .LVU106
 109:keyboards/planck/keymaps/LohseBoi/keymap.c ****       } else {
 437              		.loc 1 109 19 is_stmt 0 view .LVU107
 438 002a 0133     		adds	r3, r3, #1
 439              	.L74:
 111:keyboards/planck/keymaps/LohseBoi/keymap.c ****       }
 440              		.loc 1 111 19 view .LVU108
 441 002c 1380     		strh	r3, [r2]	@ movhi
 442 002e F5E7     		b	.L69
 443              	.L70:
 111:keyboards/planck/keymaps/LohseBoi/keymap.c ****       }
 444              		.loc 1 111 9 is_stmt 1 view .LVU109
 111:keyboards/planck/keymaps/LohseBoi/keymap.c ****       }
 445              		.loc 1 111 19 is_stmt 0 view .LVU110
 446 0030 013B     		subs	r3, r3, #1
 447 0032 FBE7     		b	.L74
 448              	.LVL46:
 449              	.L66:
 115:keyboards/planck/keymaps/LohseBoi/keymap.c ****       #ifdef MOUSEKEY_ENABLE
 450              		.loc 1 115 5 is_stmt 1 view .LVU111
 115:keyboards/planck/keymaps/LohseBoi/keymap.c ****       #ifdef MOUSEKEY_ENABLE
 451              		.loc 1 115 8 is_stmt 0 view .LVU112
 452 0034 19B1     		cbz	r1, .L71
 117:keyboards/planck/keymaps/LohseBoi/keymap.c ****       #else
 453              		.loc 1 117 9 is_stmt 1 view .LVU113
 454 0036 FA20     		movs	r0, #250
 455              	.LVL47:
 456              	.L73:
 123:keyboards/planck/keymaps/LohseBoi/keymap.c ****       #else
 457              		.loc 1 123 9 is_stmt 0 view .LVU114
 458 0038 FFF7FEFF 		bl	tap_code
 459              	.LVL48:
 123:keyboards/planck/keymaps/LohseBoi/keymap.c ****       #else
 460              		.loc 1 123 9 view .LVU115
 461 003c EEE7     		b	.L69
 462              	.LVL49:
 463              	.L71:
 123:keyboards/planck/keymaps/LohseBoi/keymap.c ****       #else
 464              		.loc 1 123 9 is_stmt 1 view .LVU116
 465 003e F920     		movs	r0, #249
 466              	.LVL50:
 123:keyboards/planck/keymaps/LohseBoi/keymap.c ****       #else
 467              		.loc 1 123 9 is_stmt 0 view .LVU117
 468 0040 FAE7     		b	.L73
 469              	.L76:
 470 0042 00BF     		.align	2
 471              	.L75:
 472 0044 00000000 		.word	muse_mode
 473 0048 00000000 		.word	muse_offset
 474 004c 00000000 		.word	muse_tempo
 475              		.cfi_endproc
 476              	.LFE297:
 478              		.section	.text.dip_switch_update_user,"ax",%progbits
 479              		.align	1
 480              		.global	dip_switch_update_user
 481              		.syntax unified
 482              		.thumb
 483              		.thumb_func
 485              	dip_switch_update_user:
 486              	.LVL51:
 487              	.LFB298:
 131:keyboards/planck/keymaps/LohseBoi/keymap.c **** 
 132:keyboards/planck/keymaps/LohseBoi/keymap.c **** bool dip_switch_update_user(uint8_t index, bool active) {
 488              		.loc 1 132 57 is_stmt 1 view -0
 489              		.cfi_startproc
 490              		@ args = 0, pretend = 0, frame = 0
 491              		@ frame_needed = 0, uses_anonymous_args = 0
 133:keyboards/planck/keymaps/LohseBoi/keymap.c ****     switch (index) {
 492              		.loc 1 133 5 view .LVU119
 132:keyboards/planck/keymaps/LohseBoi/keymap.c ****     switch (index) {
 493              		.loc 1 132 57 is_stmt 0 view .LVU120
 494 0000 10B5     		push	{r4, lr}
 495              		.cfi_def_cfa_offset 8
 496              		.cfi_offset 4, -8
 497              		.cfi_offset 14, -4
 498              		.loc 1 133 5 view .LVU121
 499 0002 0246     		mov	r2, r0
 500 0004 18B1     		cbz	r0, .L78
 501 0006 0128     		cmp	r0, #1
 502 0008 19D0     		beq	.L79
 503              	.LVL52:
 504              	.L80:
 134:keyboards/planck/keymaps/LohseBoi/keymap.c ****         case 0: {
 135:keyboards/planck/keymaps/LohseBoi/keymap.c ****             #ifdef AUDIO_ENABLE
 136:keyboards/planck/keymaps/LohseBoi/keymap.c ****             static bool play_sound = false;
 137:keyboards/planck/keymaps/LohseBoi/keymap.c ****             #endif
 138:keyboards/planck/keymaps/LohseBoi/keymap.c ****             if (active) {
 139:keyboards/planck/keymaps/LohseBoi/keymap.c ****                 #ifdef AUDIO_ENABLE
 140:keyboards/planck/keymaps/LohseBoi/keymap.c ****                 if (play_sound) { PLAY_SONG(plover_song); }
 141:keyboards/planck/keymaps/LohseBoi/keymap.c ****                 #endif
 142:keyboards/planck/keymaps/LohseBoi/keymap.c ****                 layer_on(_ADJUST);
 143:keyboards/planck/keymaps/LohseBoi/keymap.c ****             } else {
 144:keyboards/planck/keymaps/LohseBoi/keymap.c ****                 #ifdef AUDIO_ENABLE
 145:keyboards/planck/keymaps/LohseBoi/keymap.c ****                 if (play_sound) { PLAY_SONG(plover_gb_song); }
 146:keyboards/planck/keymaps/LohseBoi/keymap.c ****                 #endif
 147:keyboards/planck/keymaps/LohseBoi/keymap.c ****                 layer_off(_ADJUST);
 148:keyboards/planck/keymaps/LohseBoi/keymap.c ****             }
 149:keyboards/planck/keymaps/LohseBoi/keymap.c ****             #ifdef AUDIO_ENABLE
 150:keyboards/planck/keymaps/LohseBoi/keymap.c ****             play_sound = true;
 151:keyboards/planck/keymaps/LohseBoi/keymap.c ****             #endif
 152:keyboards/planck/keymaps/LohseBoi/keymap.c ****             break;
 153:keyboards/planck/keymaps/LohseBoi/keymap.c ****         }
 154:keyboards/planck/keymaps/LohseBoi/keymap.c ****         case 1:
 155:keyboards/planck/keymaps/LohseBoi/keymap.c ****             if (active) {
 156:keyboards/planck/keymaps/LohseBoi/keymap.c ****                 muse_mode = true;
 157:keyboards/planck/keymaps/LohseBoi/keymap.c ****             } else {
 158:keyboards/planck/keymaps/LohseBoi/keymap.c ****                 muse_mode = false;
 159:keyboards/planck/keymaps/LohseBoi/keymap.c ****             }
 160:keyboards/planck/keymaps/LohseBoi/keymap.c ****     }
 161:keyboards/planck/keymaps/LohseBoi/keymap.c ****     return true;
 505              		.loc 1 161 5 is_stmt 1 view .LVU122
 162:keyboards/planck/keymaps/LohseBoi/keymap.c **** }
 506              		.loc 1 162 1 is_stmt 0 view .LVU123
 507 000a 0120     		movs	r0, #1
 508 000c 10BD     		pop	{r4, pc}
 509              	.LVL53:
 510              	.L78:
 511              	.LBB2:
 136:keyboards/planck/keymaps/LohseBoi/keymap.c ****             #endif
 512              		.loc 1 136 13 is_stmt 1 view .LVU124
 138:keyboards/planck/keymaps/LohseBoi/keymap.c ****                 #ifdef AUDIO_ENABLE
 513              		.loc 1 138 13 view .LVU125
 140:keyboards/planck/keymaps/LohseBoi/keymap.c ****                 #endif
 514              		.loc 1 140 21 is_stmt 0 view .LVU126
 515 000e 0F4C     		ldr	r4, .L92
 516 0010 2378     		ldrb	r3, [r4]	@ zero_extendqisi2
 138:keyboards/planck/keymaps/LohseBoi/keymap.c ****                 #ifdef AUDIO_ENABLE
 517              		.loc 1 138 16 view .LVU127
 518 0012 51B1     		cbz	r1, .L81
 140:keyboards/planck/keymaps/LohseBoi/keymap.c ****                 #endif
 519              		.loc 1 140 17 is_stmt 1 view .LVU128
 140:keyboards/planck/keymaps/LohseBoi/keymap.c ****                 #endif
 520              		.loc 1 140 20 is_stmt 0 view .LVU129
 521 0014 1BB1     		cbz	r3, .L82
 140:keyboards/planck/keymaps/LohseBoi/keymap.c ****                 #endif
 522              		.loc 1 140 35 is_stmt 1 discriminator 1 view .LVU130
 523 0016 0E48     		ldr	r0, .L92+4
 524              	.LVL54:
 140:keyboards/planck/keymaps/LohseBoi/keymap.c ****                 #endif
 525              		.loc 1 140 35 is_stmt 0 discriminator 1 view .LVU131
 526 0018 0621     		movs	r1, #6
 527              	.LVL55:
 140:keyboards/planck/keymaps/LohseBoi/keymap.c ****                 #endif
 528              		.loc 1 140 35 discriminator 1 view .LVU132
 529 001a FFF7FEFF 		bl	audio_play_melody
 530              	.LVL56:
 531              	.L82:
 142:keyboards/planck/keymaps/LohseBoi/keymap.c ****             } else {
 532              		.loc 1 142 17 is_stmt 1 view .LVU133
 533 001e 0420     		movs	r0, #4
 534 0020 FFF7FEFF 		bl	layer_on
 535              	.LVL57:
 536              	.L83:
 150:keyboards/planck/keymaps/LohseBoi/keymap.c ****             #endif
 537              		.loc 1 150 13 view .LVU134
 150:keyboards/planck/keymaps/LohseBoi/keymap.c ****             #endif
 538              		.loc 1 150 24 is_stmt 0 view .LVU135
 539 0024 0123     		movs	r3, #1
 540 0026 2370     		strb	r3, [r4]
 152:keyboards/planck/keymaps/LohseBoi/keymap.c ****         }
 541              		.loc 1 152 13 is_stmt 1 view .LVU136
 542 0028 EFE7     		b	.L80
 543              	.LVL58:
 544              	.L81:
 145:keyboards/planck/keymaps/LohseBoi/keymap.c ****                 #endif
 545              		.loc 1 145 17 view .LVU137
 145:keyboards/planck/keymaps/LohseBoi/keymap.c ****                 #endif
 546              		.loc 1 145 20 is_stmt 0 view .LVU138
 547 002a 23B1     		cbz	r3, .L84
 145:keyboards/planck/keymaps/LohseBoi/keymap.c ****                 #endif
 548              		.loc 1 145 35 is_stmt 1 discriminator 1 view .LVU139
 549 002c 0A46     		mov	r2, r1
 550 002e 0948     		ldr	r0, .L92+8
 551              	.LVL59:
 145:keyboards/planck/keymaps/LohseBoi/keymap.c ****                 #endif
 552              		.loc 1 145 35 is_stmt 0 discriminator 1 view .LVU140
 553 0030 0621     		movs	r1, #6
 554              	.LVL60:
 145:keyboards/planck/keymaps/LohseBoi/keymap.c ****                 #endif
 555              		.loc 1 145 35 discriminator 1 view .LVU141
 556 0032 FFF7FEFF 		bl	audio_play_melody
 557              	.LVL61:
 558              	.L84:
 147:keyboards/planck/keymaps/LohseBoi/keymap.c ****             }
 559              		.loc 1 147 17 is_stmt 1 view .LVU142
 560 0036 0420     		movs	r0, #4
 561 0038 FFF7FEFF 		bl	layer_off
 562              	.LVL62:
 563 003c F2E7     		b	.L83
 564              	.LVL63:
 565              	.L79:
 147:keyboards/planck/keymaps/LohseBoi/keymap.c ****             }
 566              		.loc 1 147 17 is_stmt 0 view .LVU143
 567              	.LBE2:
 155:keyboards/planck/keymaps/LohseBoi/keymap.c ****                 muse_mode = true;
 568              		.loc 1 155 13 is_stmt 1 view .LVU144
 156:keyboards/planck/keymaps/LohseBoi/keymap.c ****             } else {
 569              		.loc 1 156 27 is_stmt 0 view .LVU145
 570 003e 064B     		ldr	r3, .L92+12
 571 0040 0029     		cmp	r1, #0
 572 0042 18BF     		it	ne
 573 0044 0146     		movne	r1, r0
 574              	.LVL64:
 156:keyboards/planck/keymaps/LohseBoi/keymap.c ****             } else {
 575              		.loc 1 156 27 view .LVU146
 576 0046 1970     		strb	r1, [r3]
 577 0048 DFE7     		b	.L80
 578              	.L93:
 579 004a 00BF     		.align	2
 580              	.L92:
 581 004c 00000000 		.word	play_sound.0
 582 0050 00000000 		.word	plover_song
 583 0054 00000000 		.word	plover_gb_song
 584 0058 00000000 		.word	muse_mode
 585              		.cfi_endproc
 586              	.LFE298:
 588              		.section	.text.matrix_scan_user,"ax",%progbits
 589              		.align	1
 590              		.global	matrix_scan_user
 591              		.syntax unified
 592              		.thumb
 593              		.thumb_func
 595              	matrix_scan_user:
 596              	.LFB299:
 163:keyboards/planck/keymaps/LohseBoi/keymap.c **** 
 164:keyboards/planck/keymaps/LohseBoi/keymap.c **** void matrix_scan_user(void) {
 597              		.loc 1 164 29 is_stmt 1 view -0
 598              		.cfi_startproc
 599              		@ args = 0, pretend = 0, frame = 40
 600              		@ frame_needed = 0, uses_anonymous_args = 0
 165:keyboards/planck/keymaps/LohseBoi/keymap.c ****     #ifdef AUDIO_ENABLE
 166:keyboards/planck/keymaps/LohseBoi/keymap.c ****     if (muse_mode) {
 601              		.loc 1 166 5 view .LVU148
 164:keyboards/planck/keymaps/LohseBoi/keymap.c ****     #ifdef AUDIO_ENABLE
 602              		.loc 1 164 29 is_stmt 0 view .LVU149
 603 0000 70B5     		push	{r4, r5, r6, lr}
 604              		.cfi_def_cfa_offset 16
 605              		.cfi_offset 4, -16
 606              		.cfi_offset 5, -12
 607              		.cfi_offset 6, -8
 608              		.cfi_offset 14, -4
 609              		.loc 1 166 9 view .LVU150
 610 0002 214A     		ldr	r2, .L104
 167:keyboards/planck/keymaps/LohseBoi/keymap.c ****         if (muse_counter == 0) {
 611              		.loc 1 167 26 view .LVU151
 612 0004 214D     		ldr	r5, .L104+4
 166:keyboards/planck/keymaps/LohseBoi/keymap.c ****         if (muse_counter == 0) {
 613              		.loc 1 166 8 view .LVU152
 614 0006 1478     		ldrb	r4, [r2]	@ zero_extendqisi2
 615              		.loc 1 167 26 view .LVU153
 616 0008 2B88     		ldrh	r3, [r5]
 164:keyboards/planck/keymaps/LohseBoi/keymap.c ****     #ifdef AUDIO_ENABLE
 617              		.loc 1 164 29 view .LVU154
 618 000a 8AB0     		sub	sp, sp, #40
 619              		.cfi_def_cfa_offset 56
 166:keyboards/planck/keymaps/LohseBoi/keymap.c ****         if (muse_counter == 0) {
 620              		.loc 1 166 8 view .LVU155
 621 000c 002C     		cmp	r4, #0
 622 000e 35D0     		beq	.L95
 623              		.loc 1 167 9 is_stmt 1 view .LVU156
 624              		.loc 1 167 12 is_stmt 0 view .LVU157
 625 0010 4BBB     		cbnz	r3, .L96
 626              	.LBB3:
 168:keyboards/planck/keymaps/LohseBoi/keymap.c ****             uint8_t muse_note = muse_offset + SCALE[muse_clock_pulse()];
 627              		.loc 1 168 13 is_stmt 1 view .LVU158
 628              		.loc 1 168 47 is_stmt 0 view .LVU159
 629 0012 1F4B     		ldr	r3, .L104+8
 630 0014 01AA     		add	r2, sp, #4
 631 0016 03F12006 		add	r6, r3, #32
 632              	.L97:
 633 001a 1868     		ldr	r0, [r3]	@ unaligned
 634 001c 5968     		ldr	r1, [r3, #4]	@ unaligned
 635 001e 1446     		mov	r4, r2
 636 0020 03C4     		stmia	r4!, {r0, r1}
 637 0022 0833     		adds	r3, r3, #8
 638 0024 B342     		cmp	r3, r6
 639 0026 2246     		mov	r2, r4
 640 0028 F7D1     		bne	.L97
 641 002a 1988     		ldrh	r1, [r3]	@ unaligned
 642 002c 9B78     		ldrb	r3, [r3, #2]	@ zero_extendqisi2
 643 002e A370     		strb	r3, [r4, #2]
 644 0030 2180     		strh	r1, [r4]	@ unaligned
 645              		.loc 1 168 53 view .LVU160
 646 0032 FFF7FEFF 		bl	muse_clock_pulse
 647              	.LVL65:
 648              		.loc 1 168 52 view .LVU161
 649 0036 00F12803 		add	r3, r0, #40
 650 003a 0DEB0300 		add	r0, sp, r3
 651              		.loc 1 168 21 view .LVU162
 652 003e 154B     		ldr	r3, .L104+12
 653 0040 10F8244C 		ldrb	r4, [r0, #-36]	@ zero_extendqisi2
 654 0044 1B78     		ldrb	r3, [r3]	@ zero_extendqisi2
 169:keyboards/planck/keymaps/LohseBoi/keymap.c ****             if (muse_note != last_muse_note) {
 655              		.loc 1 169 27 view .LVU163
 656 0046 144E     		ldr	r6, .L104+16
 168:keyboards/planck/keymaps/LohseBoi/keymap.c ****             uint8_t muse_note = muse_offset + SCALE[muse_clock_pulse()];
 657              		.loc 1 168 21 view .LVU164
 658 0048 1C44     		add	r4, r4, r3
 659              		.loc 1 169 27 view .LVU165
 660 004a 3078     		ldrb	r0, [r6]	@ zero_extendqisi2
 168:keyboards/planck/keymaps/LohseBoi/keymap.c ****             uint8_t muse_note = muse_offset + SCALE[muse_clock_pulse()];
 661              		.loc 1 168 21 view .LVU166
 662 004c E4B2     		uxtb	r4, r4
 663              	.LVL66:
 664              		.loc 1 169 13 is_stmt 1 view .LVU167
 665              		.loc 1 169 16 is_stmt 0 view .LVU168
 666 004e A042     		cmp	r0, r4
 667 0050 09D0     		beq	.L96
 170:keyboards/planck/keymaps/LohseBoi/keymap.c ****                 stop_note(compute_freq_for_midi_note(last_muse_note));
 668              		.loc 1 170 17 is_stmt 1 view .LVU169
 669 0052 FFF7FEFF 		bl	compute_freq_for_midi_note
 670              	.LVL67:
 671 0056 FFF7FEFF 		bl	audio_stop_tone
 672              	.LVL68:
 171:keyboards/planck/keymaps/LohseBoi/keymap.c ****                 play_note(compute_freq_for_midi_note(muse_note), 0xF);
 673              		.loc 1 171 17 view .LVU170
 674 005a 2046     		mov	r0, r4
 675 005c FFF7FEFF 		bl	compute_freq_for_midi_note
 676              	.LVL69:
 677 0060 FFF7FEFF 		bl	audio_play_tone
 678              	.LVL70:
 172:keyboards/planck/keymaps/LohseBoi/keymap.c ****                 last_muse_note = muse_note;
 679              		.loc 1 172 17 view .LVU171
 680              		.loc 1 172 32 is_stmt 0 view .LVU172
 681 0064 3470     		strb	r4, [r6]
 682              	.LVL71:
 683              	.L96:
 684              		.loc 1 172 32 view .LVU173
 685              	.LBE3:
 173:keyboards/planck/keymaps/LohseBoi/keymap.c ****             }
 174:keyboards/planck/keymaps/LohseBoi/keymap.c ****         }
 175:keyboards/planck/keymaps/LohseBoi/keymap.c ****         muse_counter = (muse_counter + 1) % muse_tempo;
 686              		.loc 1 175 9 is_stmt 1 view .LVU174
 687              		.loc 1 175 43 is_stmt 0 view .LVU175
 688 0066 0D4A     		ldr	r2, .L104+20
 689              		.loc 1 175 38 view .LVU176
 690 0068 2B88     		ldrh	r3, [r5]
 691              		.loc 1 175 43 view .LVU177
 692 006a 1288     		ldrh	r2, [r2]
 693              		.loc 1 175 38 view .LVU178
 694 006c 0133     		adds	r3, r3, #1
 695              		.loc 1 175 43 view .LVU179
 696 006e B3FBF2F1 		udiv	r1, r3, r2
 697 0072 02FB1133 		mls	r3, r2, r1, r3
 698              		.loc 1 175 22 view .LVU180
 699 0076 2B80     		strh	r3, [r5]	@ movhi
 700              	.L94:
 176:keyboards/planck/keymaps/LohseBoi/keymap.c ****     } else {
 177:keyboards/planck/keymaps/LohseBoi/keymap.c ****         if (muse_counter) {
 178:keyboards/planck/keymaps/LohseBoi/keymap.c ****             stop_all_notes();
 179:keyboards/planck/keymaps/LohseBoi/keymap.c ****             muse_counter = 0;
 180:keyboards/planck/keymaps/LohseBoi/keymap.c ****         }
 181:keyboards/planck/keymaps/LohseBoi/keymap.c ****     }
 182:keyboards/planck/keymaps/LohseBoi/keymap.c ****     #endif
 183:keyboards/planck/keymaps/LohseBoi/keymap.c **** }
 701              		.loc 1 183 1 view .LVU181
 702 0078 0AB0     		add	sp, sp, #40
 703              		.cfi_remember_state
 704              		.cfi_def_cfa_offset 16
 705              		@ sp needed
 706 007a 70BD     		pop	{r4, r5, r6, pc}
 707              	.L95:
 708              		.cfi_restore_state
 177:keyboards/planck/keymaps/LohseBoi/keymap.c ****             stop_all_notes();
 709              		.loc 1 177 9 is_stmt 1 view .LVU182
 177:keyboards/planck/keymaps/LohseBoi/keymap.c ****             stop_all_notes();
 710              		.loc 1 177 12 is_stmt 0 view .LVU183
 711 007c 002B     		cmp	r3, #0
 712 007e FBD0     		beq	.L94
 178:keyboards/planck/keymaps/LohseBoi/keymap.c ****             muse_counter = 0;
 713              		.loc 1 178 13 is_stmt 1 view .LVU184
 714 0080 FFF7FEFF 		bl	audio_stop_all
 715              	.LVL72:
 179:keyboards/planck/keymaps/LohseBoi/keymap.c ****         }
 716              		.loc 1 179 13 view .LVU185
 179:keyboards/planck/keymaps/LohseBoi/keymap.c ****         }
 717              		.loc 1 179 26 is_stmt 0 view .LVU186
 718 0084 2C80     		strh	r4, [r5]	@ movhi
 719              		.loc 1 183 1 view .LVU187
 720 0086 F7E7     		b	.L94
 721              	.L105:
 722              		.align	2
 723              	.L104:
 724 0088 00000000 		.word	muse_mode
 725 008c 00000000 		.word	muse_counter
 726 0090 00000000 		.word	.LANCHOR0
 727 0094 00000000 		.word	muse_offset
 728 0098 00000000 		.word	last_muse_note
 729 009c 00000000 		.word	muse_tempo
 730              		.cfi_endproc
 731              	.LFE299:
 733              		.section	.text.music_mask_user,"ax",%progbits
 734              		.align	1
 735              		.global	music_mask_user
 736              		.syntax unified
 737              		.thumb
 738              		.thumb_func
 740              	music_mask_user:
 741              	.LVL73:
 742              	.LFB300:
 184:keyboards/planck/keymaps/LohseBoi/keymap.c **** 
 185:keyboards/planck/keymaps/LohseBoi/keymap.c **** bool music_mask_user(uint16_t keycode) {
 743              		.loc 1 185 40 is_stmt 1 view -0
 744              		.cfi_startproc
 745              		@ args = 0, pretend = 0, frame = 0
 746              		@ frame_needed = 0, uses_anonymous_args = 0
 747              		@ link register save eliminated.
 186:keyboards/planck/keymaps/LohseBoi/keymap.c ****   switch (keycode) {
 748              		.loc 1 186 3 view .LVU189
 749 0000 A0F5A240 		sub	r0, r0, #20736
 750              	.LVL74:
 751              		.loc 1 186 3 is_stmt 0 view .LVU190
 752 0004 0238     		subs	r0, r0, #2
 187:keyboards/planck/keymaps/LohseBoi/keymap.c ****     case RAISE:
 188:keyboards/planck/keymaps/LohseBoi/keymap.c ****     case LOWER:
 189:keyboards/planck/keymaps/LohseBoi/keymap.c ****       return false;
 190:keyboards/planck/keymaps/LohseBoi/keymap.c ****     default:
 191:keyboards/planck/keymaps/LohseBoi/keymap.c ****       return true;
 192:keyboards/planck/keymaps/LohseBoi/keymap.c ****   }
 193:keyboards/planck/keymaps/LohseBoi/keymap.c **** }
 753              		.loc 1 193 1 view .LVU191
 754 0006 0128     		cmp	r0, #1
 755 0008 94BF     		ite	ls
 756 000a 0020     		movls	r0, #0
 757 000c 0120     		movhi	r0, #1
 758 000e 7047     		bx	lr
 759              		.cfi_endproc
 760              	.LFE300:
 762              		.section	.bss.play_sound.0,"aw",%nobits
 765              	play_sound.0:
 766 0000 00       		.space	1
 767              		.global	muse_tempo
 768              		.section	.data.muse_tempo,"aw"
 769              		.align	1
 772              	muse_tempo:
 773 0000 3200     		.short	50
 774              		.global	muse_offset
 775              		.section	.data.muse_offset,"aw"
 778              	muse_offset:
 779 0000 46       		.byte	70
 780              		.global	muse_counter
 781              		.section	.bss.muse_counter,"aw",%nobits
 782              		.align	1
 785              	muse_counter:
 786 0000 0000     		.space	2
 787              		.global	last_muse_note
 788              		.section	.bss.last_muse_note,"aw",%nobits
 791              	last_muse_note:
 792 0000 00       		.space	1
 793              		.global	muse_mode
 794              		.section	.bss.muse_mode,"aw",%nobits
 797              	muse_mode:
 798 0000 00       		.space	1
 799              		.comm	kc,4,4
 800              		.global	plover_gb_song
 801              		.section	.data.plover_gb_song,"aw"
 802              		.align	2
 805              	plover_gb_song:
 806 0000 0AA7CF44 		.word	1154459402
 807 0004 00000041 		.word	1090519040
 808 0008 0000DC44 		.word	1155268608
 809 000c 00000041 		.word	1090519040
 810 0010 00000000 		.word	0
 811 0014 00008040 		.word	1082130432
 812 0018 00005C45 		.word	1163657216
 813 001c 00004041 		.word	1094713344
 814 0020 00000000 		.word	0
 815 0024 00008040 		.word	1082130432
 816 0028 52D02445 		.word	1160040530
 817 002c 00004041 		.word	1094713344
 818              		.global	plover_song
 819              		.section	.data.plover_song,"aw"
 820              		.align	2
 823              	plover_song:
 824 0000 0AA7CF44 		.word	1154459402
 825 0004 00000041 		.word	1090519040
 826 0008 0000DC44 		.word	1155268608
 827 000c 00000041 		.word	1090519040
 828 0010 00000000 		.word	0
 829 0014 00008040 		.word	1082130432
 830 0018 52D02445 		.word	1160040530
 831 001c 00004041 		.word	1094713344
 832 0020 00000000 		.word	0
 833 0024 00008040 		.word	1082130432
 834 0028 00005C45 		.word	1163657216
 835 002c 00004041 		.word	1094713344
 836              		.global	keymaps
 837              		.section	.rodata.keymaps,"a"
 838              		.align	1
 841              	keymaps:
 842 0000 6D5D     		.short	23917
 843 0002 6C5D     		.short	23916
 844 0004 3600     		.short	54
 845 0006 3700     		.short	55
 846 0008 1300     		.short	19
 847 000a 1C00     		.short	28
 848 000c 165C     		.short	23574
 849 000e 0400     		.short	4
 850 0010 1200     		.short	18
 851 0012 0800     		.short	8
 852 0014 1800     		.short	24
 853 0016 0C00     		.short	12
 854 0018 2B00     		.short	43
 855 001a 3300     		.short	51
 856 001c 1400     		.short	20
 857 001e 0D00     		.short	13
 858 0020 0E00     		.short	14
 859 0022 1B00     		.short	27
 860 0024 E100     		.short	225
 861 0026 E200     		.short	226
 862 0028 E000     		.short	224
 863 002a 4C00     		.short	76
 864 002c 4600     		.short	70
 865 002e 2A00     		.short	42
 866 0030 0900     		.short	9
 867 0032 0A00     		.short	10
 868 0034 0600     		.short	6
 869 0036 1500     		.short	21
 870 0038 0F00     		.short	15
 871 003a 2E00     		.short	46
 872 003c 0700     		.short	7
 873 003e 0B00     		.short	11
 874 0040 1700     		.short	23
 875 0042 1100     		.short	17
 876 0044 1600     		.short	22
 877 0046 3800     		.short	56
 878 0048 0500     		.short	5
 879 004a 1000     		.short	16
 880 004c 1A00     		.short	26
 881 004e 1900     		.short	25
 882 0050 1D00     		.short	29
 883 0052 3100     		.short	49
 884 0054 2800     		.short	40
 885 0056 695D     		.short	23913
 886 0058 E600     		.short	230
 887 005a E300     		.short	227
 888 005c 685D     		.short	23912
 889 005e 2C00     		.short	44
 890 0060 6D5D     		.short	23917
 891 0062 1400     		.short	20
 892 0064 1A00     		.short	26
 893 0066 0800     		.short	8
 894 0068 1500     		.short	21
 895 006a 1700     		.short	23
 896 006c 165C     		.short	23574
 897 006e 0400     		.short	4
 898 0070 1600     		.short	22
 899 0072 0700     		.short	7
 900 0074 0900     		.short	9
 901 0076 0A00     		.short	10
 902 0078 2B00     		.short	43
 903 007a 1D00     		.short	29
 904 007c 1B00     		.short	27
 905 007e 0600     		.short	6
 906 0080 1900     		.short	25
 907 0082 0500     		.short	5
 908 0084 E100     		.short	225
 909 0086 E200     		.short	226
 910 0088 E000     		.short	224
 911 008a 4C00     		.short	76
 912 008c 4600     		.short	70
 913 008e 2A00     		.short	42
 914 0090 1C00     		.short	28
 915 0092 1800     		.short	24
 916 0094 0C00     		.short	12
 917 0096 1200     		.short	18
 918 0098 1300     		.short	19
 919 009a 2E00     		.short	46
 920 009c 0B00     		.short	11
 921 009e 0D00     		.short	13
 922 00a0 0E00     		.short	14
 923 00a2 0F00     		.short	15
 924 00a4 3300     		.short	51
 925 00a6 3100     		.short	49
 926 00a8 1100     		.short	17
 927 00aa 1000     		.short	16
 928 00ac 3600     		.short	54
 929 00ae 3700     		.short	55
 930 00b0 3800     		.short	56
 931 00b2 6C5D     		.short	23916
 932 00b4 2800     		.short	40
 933 00b6 695D     		.short	23913
 934 00b8 E600     		.short	230
 935 00ba E300     		.short	227
 936 00bc 685D     		.short	23912
 937 00be 2C00     		.short	44
 938 00c0 2D00     		.short	45
 939 00c2 2F02     		.short	559
 940 00c4 2602     		.short	550
 941 00c6 2402     		.short	548
 942 00c8 1E02     		.short	542
 943 00ca 2002     		.short	544
 944 00cc 3500     		.short	53
 945 00ce 2F00     		.short	47
 946 00d0 3600     		.short	54
 947 00d2 3700     		.short	55
 948 00d4 1F02     		.short	543
 949 00d6 2102     		.short	545
 950 00d8 2B00     		.short	43
 951 00da 0100     		.short	1
 952 00dc 0000     		.short	0
 953 00de 0000     		.short	0
 954 00e0 0000     		.short	0
 955 00e2 0000     		.short	0
 956 00e4 3962     		.short	25145
 957 00e6 0100     		.short	1
 958 00e8 0100     		.short	1
 959 00ea 0100     		.short	1
 960 00ec 0100     		.short	1
 961 00ee 0100     		.short	1
 962 00f0 2302     		.short	547
 963 00f2 2202     		.short	546
 964 00f4 2502     		.short	549
 965 00f6 2702     		.short	551
 966 00f8 3002     		.short	560
 967 00fa 2E02     		.short	558
 968 00fc 5000     		.short	80
 969 00fe 5100     		.short	81
 970 0100 5200     		.short	82
 971 0102 4F00     		.short	79
 972 0104 3000     		.short	48
 973 0106 0100     		.short	1
 974 0108 AA00     		.short	170
 975 010a A900     		.short	169
 976 010c BE00     		.short	190
 977 010e BD00     		.short	189
 978 0110 A800     		.short	168
 979 0112 0100     		.short	1
 980 0114 0100     		.short	1
 981 0116 0100     		.short	1
 982 0118 0100     		.short	1
 983 011a 0100     		.short	1
 984 011c 0100     		.short	1
 985 011e 0100     		.short	1
 986 0120 2D00     		.short	45
 987 0122 1E00     		.short	30
 988 0124 1F00     		.short	31
 989 0126 2000     		.short	32
 990 0128 2100     		.short	33
 991 012a 2200     		.short	34
 992 012c 3A00     		.short	58
 993 012e 3B00     		.short	59
 994 0130 3C00     		.short	60
 995 0132 3D00     		.short	61
 996 0134 3E00     		.short	62
 997 0136 3F00     		.short	63
 998 0138 0100     		.short	1
 999 013a AC00     		.short	172
 1000 013c AE00     		.short	174
 1001 013e AB00     		.short	171
 1002 0140 0000     		.short	0
 1003 0142 0000     		.short	0
 1004 0144 0100     		.short	1
 1005 0146 0100     		.short	1
 1006 0148 0100     		.short	1
 1007 014a 0100     		.short	1
 1008 014c 0100     		.short	1
 1009 014e 0100     		.short	1
 1010 0150 2300     		.short	35
 1011 0152 2400     		.short	36
 1012 0154 2500     		.short	37
 1013 0156 2600     		.short	38
 1014 0158 2700     		.short	39
 1015 015a 2E02     		.short	558
 1016 015c 4000     		.short	64
 1017 015e 4100     		.short	65
 1018 0160 4200     		.short	66
 1019 0162 4300     		.short	67
 1020 0164 4400     		.short	68
 1021 0166 4500     		.short	69
 1022 0168 0000     		.short	0
 1023 016a 0000     		.short	0
 1024 016c 0000     		.short	0
 1025 016e 0000     		.short	0
 1026 0170 6A5D     		.short	23914
 1027 0172 6B5D     		.short	23915
 1028 0174 0100     		.short	1
 1029 0176 0100     		.short	1
 1030 0178 0100     		.short	1
 1031 017a 0100     		.short	1
 1032 017c 0100     		.short	1
 1033 017e 0100     		.short	1
 1034 0180 0000     		.short	0
 1035 0182 635D     		.short	23907
 1036 0184 645D     		.short	23908
 1037 0186 0000     		.short	0
 1038 0188 0000     		.short	0
 1039 018a 0000     		.short	0
 1040 018c 0000     		.short	0
 1041 018e 0000     		.short	0
 1042 0190 0000     		.short	0
 1043 0192 0000     		.short	0
 1044 0194 0000     		.short	0
 1045 0196 0000     		.short	0
 1046 0198 0000     		.short	0
 1047 019a 0000     		.short	0
 1048 019c 0000     		.short	0
 1049 019e 0000     		.short	0
 1050 01a0 0000     		.short	0
 1051 01a2 0000     		.short	0
 1052 01a4 0000     		.short	0
 1053 01a6 0000     		.short	0
 1054 01a8 0000     		.short	0
 1055 01aa 0000     		.short	0
 1056 01ac 0000     		.short	0
 1057 01ae 0000     		.short	0
 1058 01b0 0000     		.short	0
 1059 01b2 0000     		.short	0
 1060 01b4 0000     		.short	0
 1061 01b6 DF5C     		.short	23775
 1062 01b8 015C     		.short	23553
 1063 01ba 005C     		.short	23552
 1064 01bc 0000     		.short	0
 1065 01be 0000     		.short	0
 1066 01c0 0000     		.short	0
 1067 01c2 0000     		.short	0
 1068 01c4 0000     		.short	0
 1069 01c6 0000     		.short	0
 1070 01c8 0000     		.short	0
 1071 01ca 0000     		.short	0
 1072 01cc 0000     		.short	0
 1073 01ce 0000     		.short	0
 1074 01d0 0000     		.short	0
 1075 01d2 0000     		.short	0
 1076 01d4 0100     		.short	1
 1077 01d6 0100     		.short	1
 1078 01d8 0000     		.short	0
 1079 01da 0000     		.short	0
 1080 01dc 0100     		.short	1
 1081 01de 0100     		.short	1
 1082              		.global	rse_tapped
 1083              		.section	.bss.rse_tapped,"aw",%nobits
 1086              	rse_tapped:
 1087 0000 00       		.space	1
 1088              		.global	rse_timer
 1089              		.section	.bss.rse_timer,"aw",%nobits
 1090              		.align	1
 1093              	rse_timer:
 1094 0000 0000     		.space	2
 1095              		.global	lwr_tapped
 1096              		.section	.bss.lwr_tapped,"aw",%nobits
 1099              	lwr_tapped:
 1100 0000 00       		.space	1
 1101              		.global	lwr_timer
 1102              		.section	.bss.lwr_timer,"aw",%nobits
 1103              		.align	1
 1106              	lwr_timer:
 1107 0000 0000     		.space	2
 1108              		.section	.rodata
 1109              		.set	.LANCHOR0,. + 0
 1110              	.LC0:
 1111 0000 00       		.byte	0
 1112 0001 02       		.byte	2
 1113 0002 04       		.byte	4
 1114 0003 05       		.byte	5
 1115 0004 07       		.byte	7
 1116 0005 09       		.byte	9
 1117 0006 0B       		.byte	11
 1118 0007 0C       		.byte	12
 1119 0008 0E       		.byte	14
 1120 0009 10       		.byte	16
 1121 000a 11       		.byte	17
 1122 000b 13       		.byte	19
 1123 000c 15       		.byte	21
 1124 000d 17       		.byte	23
 1125 000e 18       		.byte	24
 1126 000f 1A       		.byte	26
 1127 0010 1C       		.byte	28
 1128 0011 1D       		.byte	29
 1129 0012 1F       		.byte	31
 1130 0013 21       		.byte	33
 1131 0014 23       		.byte	35
 1132 0015 24       		.byte	36
 1133 0016 26       		.byte	38
 1134 0017 28       		.byte	40
 1135 0018 29       		.byte	41
 1136 0019 2B       		.byte	43
 1137 001a 2D       		.byte	45
 1138 001b 2F       		.byte	47
 1139 001c 30       		.byte	48
 1140 001d 32       		.byte	50
 1141 001e 34       		.byte	52
 1142 001f 35       		.byte	53
 1143 0020 37       		.byte	55
 1144 0021 39       		.byte	57
 1145 0022 3B       		.byte	59
 1146              		.text
 1147              	.Letext0:
 1148              		.file 2 "/usr/arm-none-eabi/include/machine/_default_types.h"
 1149              		.file 3 "/usr/arm-none-eabi/include/sys/_stdint.h"
 1150              		.file 4 "quantum/keyboard.h"
 1151              		.file 5 "quantum/keycode.h"
 1152              		.file 6 "quantum/action_code.h"
 1153              		.file 7 "quantum/action.h"
 1154              		.file 8 "quantum/quantum_keycodes.h"
 1155              		.file 9 "quantum/action_layer.h"
 1156              		.file 10 "quantum/keymap.h"
 1157              		.file 11 "quantum/audio/audio.h"
 1158              		.file 12 "quantum/process_keycode/process_audio.h"
 1159              		.file 13 "quantum/quantum.h"
 1160              		.file 14 "quantum/audio/muse.h"
 1161              		.file 15 "quantum/action_util.h"
 1162              		.file 16 "tmk_core/common/timer.h"
 1163              		.file 17 "quantum/sequencer/sequencer.h"