Archive member included to satisfy reference by file (symbol)

/usr/lib/gcc/avr/11.2.0/../../../../avr/lib/avr5/libm.a(fixunssfsi.o)
                              .build/obj_3key_default/common/host.o (__fixunssfsi)
/usr/lib/gcc/avr/11.2.0/../../../../avr/lib/avr5/libm.a(fp_split3.o)
                              /usr/lib/gcc/avr/11.2.0/../../../../avr/lib/avr5/libm.a(fixunssfsi.o) (__fp_splitA)
/usr/lib/gcc/avr/11.2.0/../../../../avr/lib/avr5/libm.a(fp_zero.o)
                              /usr/lib/gcc/avr/11.2.0/../../../../avr/lib/avr5/libm.a(fixunssfsi.o) (__fp_zero)
/usr/lib/gcc/avr/11.2.0/../../../../avr/lib/avr5/libm.a(mulsf3.o)
                              .build/obj_3key_default/common/host.o (__mulsf3)
/usr/lib/gcc/avr/11.2.0/../../../../avr/lib/avr5/libm.a(mulsf3x.o)
                              /usr/lib/gcc/avr/11.2.0/../../../../avr/lib/avr5/libm.a(mulsf3.o) (__mulsf3x)
/usr/lib/gcc/avr/11.2.0/../../../../avr/lib/avr5/libm.a(fp_inf.o)
                              /usr/lib/gcc/avr/11.2.0/../../../../avr/lib/avr5/libm.a(mulsf3x.o) (__fp_inf)
/usr/lib/gcc/avr/11.2.0/../../../../avr/lib/avr5/libm.a(fp_nan.o)
                              /usr/lib/gcc/avr/11.2.0/../../../../avr/lib/avr5/libm.a(mulsf3x.o) (__fp_nan)
/usr/lib/gcc/avr/11.2.0/../../../../avr/lib/avr5/libm.a(fp_pscA.o)
                              /usr/lib/gcc/avr/11.2.0/../../../../avr/lib/avr5/libm.a(mulsf3x.o) (__fp_pscA)
/usr/lib/gcc/avr/11.2.0/../../../../avr/lib/avr5/libm.a(fp_pscB.o)
                              /usr/lib/gcc/avr/11.2.0/../../../../avr/lib/avr5/libm.a(mulsf3x.o) (__fp_pscB)
/usr/lib/gcc/avr/11.2.0/../../../../avr/lib/avr5/libm.a(fp_round.o)
                              /usr/lib/gcc/avr/11.2.0/../../../../avr/lib/avr5/libm.a(mulsf3.o) (__fp_round)
/usr/lib/gcc/avr/11.2.0/avr5/libgcc.a(_mulsi3.o)
                              .build/obj_3key_default/quantum/backlight/backlight_avr.o (__mulsi3)
/usr/lib/gcc/avr/11.2.0/avr5/libgcc.a(_udivmodhi4.o)
                              .build/obj_3key_default/quantum/color.o (__udivmodhi4)
/usr/lib/gcc/avr/11.2.0/avr5/libgcc.a(_divmodhi4.o)
                              .build/obj_3key_default/quantum/mousekey.o (__divmodhi4)
/usr/lib/gcc/avr/11.2.0/avr5/libgcc.a(_udivmodsi4.o)
                              .build/obj_3key_default/quantum/rgblight/rgblight.o (__udivmodsi4)
/usr/lib/gcc/avr/11.2.0/avr5/libgcc.a(_exit.o)
                              /usr/lib/gcc/avr/11.2.0/../../../../avr/lib/avr5/crtatmega32u4.o (exit)
/usr/lib/gcc/avr/11.2.0/avr5/libgcc.a(_tablejump2.o)
                              .build/obj_3key_default/quantum/action.o (__tablejump2__)
/usr/lib/gcc/avr/11.2.0/avr5/libgcc.a(_copy_data.o)
                              .build/obj_3key_default/quantum/action.o (__do_copy_data)
/usr/lib/gcc/avr/11.2.0/avr5/libgcc.a(_clear_bss.o)
                              .build/obj_3key_default/quantum/action.o (__do_clear_bss)
/usr/lib/gcc/avr/11.2.0/avr5/libgcc.a(_popcounthi2.o)
                              .build/obj_3key_default/quantum/bitwise.o (__popcounthi2)
/usr/lib/gcc/avr/11.2.0/avr5/libgcc.a(_popcountsi2.o)
                              .build/obj_3key_default/quantum/bitwise.o (__popcountsi2)
/usr/lib/gcc/avr/11.2.0/avr5/libgcc.a(_popcountqi2.o)
                              /usr/lib/gcc/avr/11.2.0/avr5/libgcc.a(_popcounthi2.o) (__popcountqi2)
/usr/lib/gcc/avr/11.2.0/avr5/libgcc.a(_mulhisi3.o)
                              .build/obj_3key_default/quantum/rgblight/rgblight.o (__mulhisi3)
/usr/lib/gcc/avr/11.2.0/avr5/libgcc.a(_umulhisi3.o)
                              .build/obj_3key_default/quantum/rgblight/rgblight.o (__umulhisi3)
/usr/lib/gcc/avr/11.2.0/avr5/libgcc.a(_usmulhisi3.o)
                              /usr/lib/gcc/avr/11.2.0/avr5/libgcc.a(_mulhisi3.o) (__usmulhisi3_tail)
/usr/lib/gcc/avr/11.2.0/avr5/libgcc.a(_muluhisi3.o)
                              .build/obj_3key_default/quantum/rgblight/rgblight.o (__muluhisi3)
/usr/lib/gcc/avr/11.2.0/avr5/libgcc.a(_mulshisi3.o)
                              .build/obj_3key_default/quantum/rgblight/rgblight.o (__mulshisi3)
/usr/lib/gcc/avr/11.2.0/../../../../avr/lib/avr5/libc.a(memcpy_P.o)
                              .build/obj_3key_default/quantum/rgblight/rgblight.o (memcpy_P)
/usr/lib/gcc/avr/11.2.0/../../../../avr/lib/avr5/libc.a(memchr.o)
                              .build/obj_3key_default/quantum/rgblight/rgblight.o (memchr)
/usr/lib/gcc/avr/11.2.0/../../../../avr/lib/avr5/libc.a(memmove.o)
                              .build/obj_3key_default/lib/lufa/LUFA/Drivers/USB/Class/Common/HIDParser.o (memmove)
/usr/lib/gcc/avr/11.2.0/../../../../avr/lib/avr5/libc.a(memcpy.o)
                              /usr/lib/gcc/avr/11.2.0/../../../../avr/lib/avr5/libc.a(memmove.o) (memcpy)
/usr/lib/gcc/avr/11.2.0/../../../../avr/lib/avr5/libatmega32u4.a(eerd_byte.o)
                              .build/obj_3key_default/quantum/eeconfig.o (eeprom_read_byte)
/usr/lib/gcc/avr/11.2.0/../../../../avr/lib/avr5/libatmega32u4.a(eerd_dword.o)
                              .build/obj_3key_default/quantum/eeconfig.o (eeprom_read_dword)
/usr/lib/gcc/avr/11.2.0/../../../../avr/lib/avr5/libatmega32u4.a(eerd_word.o)
                              .build/obj_3key_default/quantum/eeconfig.o (eeprom_read_word)
/usr/lib/gcc/avr/11.2.0/../../../../avr/lib/avr5/libatmega32u4.a(eeupd_byte.o)
                              .build/obj_3key_default/quantum/eeconfig.o (eeprom_update_byte)
/usr/lib/gcc/avr/11.2.0/../../../../avr/lib/avr5/libatmega32u4.a(eeupd_dword.o)
                              .build/obj_3key_default/quantum/eeconfig.o (eeprom_update_dword)
/usr/lib/gcc/avr/11.2.0/../../../../avr/lib/avr5/libatmega32u4.a(eeupd_word.o)
                              .build/obj_3key_default/quantum/eeconfig.o (eeprom_update_word)
/usr/lib/gcc/avr/11.2.0/../../../../avr/lib/avr5/libatmega32u4.a(eerd_block.o)
                              /usr/lib/gcc/avr/11.2.0/../../../../avr/lib/avr5/libatmega32u4.a(eerd_dword.o) (eeprom_read_blraw)

Allocating common symbols
Common symbol       size              file

rgblight_config     0x5               .build/obj_3key_default/quantum/rgblight/rgblight.o
USB_IsInitialized   0x1               .build/obj_3key_default/lib/lufa/LUFA/Drivers/USB/Core/USBTask.o
keymap_config       0x2               .build/obj_3key_default/quantum/bootmagic/magic.o
backlight_config    0x1               .build/obj_3key_default/quantum/backlight/backlight.o
USB_DeviceState     0x1               .build/obj_3key_default/lib/lufa/LUFA/Drivers/USB/Core/USBTask.o
USB_Device_ConfigurationNumber
                    0x1               .build/obj_3key_default/lib/lufa/LUFA/Drivers/USB/Core/DeviceStandardReq.o
led                 0x6               .build/obj_3key_default/quantum/rgblight/rgblight.o
raw_matrix          0x1               .build/obj_3key_default/quantum/matrix_common.o
USB_Device_CurrentlySelfPowered
                    0x1               .build/obj_3key_default/lib/lufa/LUFA/Drivers/USB/Core/DeviceStandardReq.o
matrix              0x1               .build/obj_3key_default/quantum/matrix_common.o
USB_ControlRequest  0x8               .build/obj_3key_default/lib/lufa/LUFA/Drivers/USB/Core/USBTask.o
tp_buttons          0x2               .build/obj_3key_default/quantum/action.o
USB_Device_RemoteWakeupEnabled
                    0x1               .build/obj_3key_default/lib/lufa/LUFA/Drivers/USB/Core/DeviceStandardReq.o
timer_count         0x4               .build/obj_3key_default/common/avr/timer.o

Discarded input sections

 .data          0x0000000000000000        0x0 /usr/lib/gcc/avr/11.2.0/../../../../avr/lib/avr5/crtatmega32u4.o
 .bss           0x0000000000000000        0x0 /usr/lib/gcc/avr/11.2.0/../../../../avr/lib/avr5/crtatmega32u4.o
 .text          0x0000000000000000        0x0 .build/obj_3key_default/keyboards/3key/3key.o
 .data          0x0000000000000000        0x0 .build/obj_3key_default/keyboards/3key/3key.o
 .bss           0x0000000000000000        0x0 .build/obj_3key_default/keyboards/3key/3key.o
 .debug_info    0x0000000000000000       0x64 .build/obj_3key_default/keyboards/3key/3key.o
 .debug_abbrev  0x0000000000000000       0x26 .build/obj_3key_default/keyboards/3key/3key.o
 .debug_aranges
                0x0000000000000000       0x18 .build/obj_3key_default/keyboards/3key/3key.o
 .debug_line    0x0000000000000000       0x1d .build/obj_3key_default/keyboards/3key/3key.o
 .debug_str     0x0000000000000000      0x1a1 .build/obj_3key_default/keyboards/3key/3key.o
 .comment       0x0000000000000000       0x13 .build/obj_3key_default/keyboards/3key/3key.o
 .text          0x0000000000000000        0x0 .build/obj_3key_default/keyboards/3key/keymaps/default/keymap.o
 .data          0x0000000000000000        0x0 .build/obj_3key_default/keyboards/3key/keymaps/default/keymap.o
 .bss           0x0000000000000000        0x0 .build/obj_3key_default/keyboards/3key/keymaps/default/keymap.o
 .text          0x0000000000000000        0x0 .build/obj_3key_default/quantum/quantum.o
 .data          0x0000000000000000        0x0 .build/obj_3key_default/quantum/quantum.o
 .bss           0x0000000000000000        0x0 .build/obj_3key_default/quantum/quantum.o
 .text.extract_mod_bits
                0x0000000000000000       0x54 .build/obj_3key_default/quantum/quantum.o
 .text.do_code16
                0x0000000000000000       0x12 .build/obj_3key_default/quantum/quantum.o
 .text.register_code16
                0x0000000000000000       0x2a .build/obj_3key_default/quantum/quantum.o
 .text.unregister_code16
                0x0000000000000000       0x2a .build/obj_3key_default/quantum/quantum.o
 .text.tap_code16
                0x0000000000000000       0x18 .build/obj_3key_default/quantum/quantum.o
 .text.process_record_user
                0x0000000000000000        0x4 .build/obj_3key_default/quantum/quantum.o
 .text.set_single_persistent_default_layer
                0x0000000000000000       0x54 .build/obj_3key_default/quantum/quantum.o
 .text.update_tri_layer_state
                0x0000000000000000       0xdc .build/obj_3key_default/quantum/quantum.o
 .text.update_tri_layer
                0x0000000000000000       0x4a .build/obj_3key_default/quantum/quantum.o
 .text.api_send_unicode
                0x0000000000000000        0x2 .build/obj_3key_default/quantum/quantum.o
 .text.startup_user
                0x0000000000000000        0x2 .build/obj_3key_default/quantum/quantum.o
 .text          0x0000000000000000        0x0 .build/obj_3key_default/quantum/send_string.o
 .data          0x0000000000000000        0x0 .build/obj_3key_default/quantum/send_string.o
 .bss           0x0000000000000000        0x0 .build/obj_3key_default/quantum/send_string.o
 .text.send_char
                0x0000000000000000       0xcc .build/obj_3key_default/quantum/send_string.o
 .text.send_string_with_delay
                0x0000000000000000       0xd4 .build/obj_3key_default/quantum/send_string.o
 .text.send_string
                0x0000000000000000        0x6 .build/obj_3key_default/quantum/send_string.o
 .text.send_string_with_delay_P
                0x0000000000000000       0xd8 .build/obj_3key_default/quantum/send_string.o
 .text.send_string_P
                0x0000000000000000        0x6 .build/obj_3key_default/quantum/send_string.o
 .text.send_nibble
                0x0000000000000000       0x14 .build/obj_3key_default/quantum/send_string.o
 .text.send_byte
                0x0000000000000000       0x16 .build/obj_3key_default/quantum/send_string.o
 .text.send_word
                0x0000000000000000       0x12 .build/obj_3key_default/quantum/send_string.o
 .text.send_dword
                0x0000000000000000       0x18 .build/obj_3key_default/quantum/send_string.o
 .text.tap_random_base64
                0x0000000000000000       0x52 .build/obj_3key_default/quantum/send_string.o
 .progmem.data.ascii_to_keycode_lut
                0x0000000000000000       0x80 .build/obj_3key_default/quantum/send_string.o
 .progmem.data.ascii_to_dead_lut
                0x0000000000000000       0x10 .build/obj_3key_default/quantum/send_string.o
 .progmem.data.ascii_to_altgr_lut
                0x0000000000000000       0x10 .build/obj_3key_default/quantum/send_string.o
 .progmem.data.ascii_to_shift_lut
                0x0000000000000000       0x10 .build/obj_3key_default/quantum/send_string.o
 .debug_info    0x0000000000000000      0xf42 .build/obj_3key_default/quantum/send_string.o
 .debug_abbrev  0x0000000000000000      0x2c1 .build/obj_3key_default/quantum/send_string.o
 .debug_loc     0x0000000000000000      0xf2a .build/obj_3key_default/quantum/send_string.o
 .debug_aranges
                0x0000000000000000       0x68 .build/obj_3key_default/quantum/send_string.o
 .debug_ranges  0x0000000000000000      0x100 .build/obj_3key_default/quantum/send_string.o
 .debug_line    0x0000000000000000      0xb97 .build/obj_3key_default/quantum/send_string.o
 .debug_str     0x0000000000000000      0x984 .build/obj_3key_default/quantum/send_string.o
 .comment       0x0000000000000000       0x13 .build/obj_3key_default/quantum/send_string.o
 .debug_frame   0x0000000000000000      0x134 .build/obj_3key_default/quantum/send_string.o
 .text          0x0000000000000000        0x0 .build/obj_3key_default/quantum/bitwise.o
 .data          0x0000000000000000        0x0 .build/obj_3key_default/quantum/bitwise.o
 .bss           0x0000000000000000        0x0 .build/obj_3key_default/quantum/bitwise.o
 .text.bitpop   0x0000000000000000        0x8 .build/obj_3key_default/quantum/bitwise.o
 .text.bitpop16
                0x0000000000000000        0x6 .build/obj_3key_default/quantum/bitwise.o
 .text.bitpop32
                0x0000000000000000        0x6 .build/obj_3key_default/quantum/bitwise.o
 .text.biton    0x0000000000000000       0x20 .build/obj_3key_default/quantum/bitwise.o
 .text.biton16  0x0000000000000000       0x48 .build/obj_3key_default/quantum/bitwise.o
 .text.biton32  0x0000000000000000       0x96 .build/obj_3key_default/quantum/bitwise.o
 .text.bitrev   0x0000000000000000       0x28 .build/obj_3key_default/quantum/bitwise.o
 .text.bitrev16
                0x0000000000000000       0x1a .build/obj_3key_default/quantum/bitwise.o
 .text.bitrev32
                0x0000000000000000       0x58 .build/obj_3key_default/quantum/bitwise.o
 .debug_info    0x0000000000000000      0x2e1 .build/obj_3key_default/quantum/bitwise.o
 .debug_abbrev  0x0000000000000000       0xec .build/obj_3key_default/quantum/bitwise.o
 .debug_loc     0x0000000000000000      0x503 .build/obj_3key_default/quantum/bitwise.o
 .debug_aranges
                0x0000000000000000       0x60 .build/obj_3key_default/quantum/bitwise.o
 .debug_ranges  0x0000000000000000       0x50 .build/obj_3key_default/quantum/bitwise.o
 .debug_line    0x0000000000000000      0x536 .build/obj_3key_default/quantum/bitwise.o
 .debug_str     0x0000000000000000      0x1f9 .build/obj_3key_default/quantum/bitwise.o
 .comment       0x0000000000000000       0x13 .build/obj_3key_default/quantum/bitwise.o
 .debug_frame   0x0000000000000000       0xd8 .build/obj_3key_default/quantum/bitwise.o
 .text          0x0000000000000000        0x0 .build/obj_3key_default/quantum/led.o
 .data          0x0000000000000000        0x0 .build/obj_3key_default/quantum/led.o
 .bss           0x0000000000000000        0x0 .build/obj_3key_default/quantum/led.o
 .text          0x0000000000000000        0x0 .build/obj_3key_default/quantum/action.o
 .data          0x0000000000000000        0x0 .build/obj_3key_default/quantum/action.o
 .bss           0x0000000000000000        0x0 .build/obj_3key_default/quantum/action.o
 .text.process_record_quantum
                0x0000000000000000        0x4 .build/obj_3key_default/quantum/action.o
 .text.pre_process_record_quantum
                0x0000000000000000        0x4 .build/obj_3key_default/quantum/action.o
 .text.post_process_record_quantum
                0x0000000000000000        0x2 .build/obj_3key_default/quantum/action.o
 .text.process_record_nocache
                0x0000000000000000       0x10 .build/obj_3key_default/quantum/action.o
 .text.register_weak_mods
                0x0000000000000000        0xe .build/obj_3key_default/quantum/action.o
 .text.unregister_weak_mods
                0x0000000000000000        0xe .build/obj_3key_default/quantum/action.o
 .text.is_tap_key
                0x0000000000000000        0x8 .build/obj_3key_default/quantum/action.o
 .text.debug_action
                0x0000000000000000        0x2 .build/obj_3key_default/quantum/action.o
 COMMON         0x0000000000000000        0x2 .build/obj_3key_default/quantum/action.o
 .text          0x0000000000000000        0x0 .build/obj_3key_default/quantum/action_layer.o
 .data          0x0000000000000000        0x0 .build/obj_3key_default/quantum/action_layer.o
 .bss           0x0000000000000000        0x0 .build/obj_3key_default/quantum/action_layer.o
 .text.layer_state_is
                0x0000000000000000       0x36 .build/obj_3key_default/quantum/action_layer.o
 .text.layer_state_cmp
                0x0000000000000000       0x2e .build/obj_3key_default/quantum/action_layer.o
 .text          0x0000000000000000        0x0 .build/obj_3key_default/quantum/action_macro.o
 .data          0x0000000000000000        0x0 .build/obj_3key_default/quantum/action_macro.o
 .bss           0x0000000000000000        0x0 .build/obj_3key_default/quantum/action_macro.o
 .text          0x0000000000000000        0x0 .build/obj_3key_default/quantum/action_tapping.o
 .data          0x0000000000000000        0x0 .build/obj_3key_default/quantum/action_tapping.o
 .bss           0x0000000000000000        0x0 .build/obj_3key_default/quantum/action_tapping.o
 .text.get_tapping_term
                0x0000000000000000        0x6 .build/obj_3key_default/quantum/action_tapping.o
 .text          0x0000000000000000        0x0 .build/obj_3key_default/quantum/action_util.o
 .data          0x0000000000000000        0x0 .build/obj_3key_default/quantum/action_util.o
 .bss           0x0000000000000000        0x0 .build/obj_3key_default/quantum/action_util.o
 .text.get_oneshot_locked_mods
                0x0000000000000000        0x6 .build/obj_3key_default/quantum/action_util.o
 .text.has_oneshot_mods_timed_out
                0x0000000000000000        0x4 .build/obj_3key_default/quantum/action_util.o
 .text.is_oneshot_enabled
                0x0000000000000000        0xc .build/obj_3key_default/quantum/action_util.o
 .text.set_mods
                0x0000000000000000        0x6 .build/obj_3key_default/quantum/action_util.o
 .text.get_weak_mods
                0x0000000000000000        0x6 .build/obj_3key_default/quantum/action_util.o
 .text.set_weak_mods
                0x0000000000000000        0x6 .build/obj_3key_default/quantum/action_util.o
 .text.get_macro_mods
                0x0000000000000000        0x6 .build/obj_3key_default/quantum/action_util.o
 .text.set_macro_mods
                0x0000000000000000        0x6 .build/obj_3key_default/quantum/action_util.o
 .text.oneshot_locked_mods_changed_user
                0x0000000000000000        0x2 .build/obj_3key_default/quantum/action_util.o
 .text.oneshot_locked_mods_changed_kb
                0x0000000000000000        0x4 .build/obj_3key_default/quantum/action_util.o
 .text.set_oneshot_locked_mods
                0x0000000000000000       0x12 .build/obj_3key_default/quantum/action_util.o
 .text.clear_oneshot_locked_mods
                0x0000000000000000       0x14 .build/obj_3key_default/quantum/action_util.o
 .text.add_oneshot_mods
                0x0000000000000000       0x18 .build/obj_3key_default/quantum/action_util.o
 .text.del_oneshot_mods
                0x0000000000000000       0x18 .build/obj_3key_default/quantum/action_util.o
 .text.has_anymod
                0x0000000000000000        0x8 .build/obj_3key_default/quantum/action_util.o
 .bss.oneshot_locked_mods
                0x0000000000000000        0x1 .build/obj_3key_default/quantum/action_util.o
 .text          0x0000000000000000        0x0 .build/obj_3key_default/quantum/eeconfig.o
 .data          0x0000000000000000        0x0 .build/obj_3key_default/quantum/eeconfig.o
 .bss           0x0000000000000000        0x0 .build/obj_3key_default/quantum/eeconfig.o
 .text.eeconfig_enable
                0x0000000000000000        0xc .build/obj_3key_default/quantum/eeconfig.o
 .text.eeconfig_is_disabled
                0x0000000000000000       0x16 .build/obj_3key_default/quantum/eeconfig.o
 .text.eeconfig_update_debug
                0x0000000000000000        0xa .build/obj_3key_default/quantum/eeconfig.o
 .text.eeconfig_update_default_layer
                0x0000000000000000        0xa .build/obj_3key_default/quantum/eeconfig.o
 .text.eeconfig_read_audio
                0x0000000000000000        0x8 .build/obj_3key_default/quantum/eeconfig.o
 .text.eeconfig_update_audio
                0x0000000000000000        0xa .build/obj_3key_default/quantum/eeconfig.o
 .text.eeconfig_read_kb
                0x0000000000000000        0x8 .build/obj_3key_default/quantum/eeconfig.o
 .text.eeconfig_read_user
                0x0000000000000000        0x8 .build/obj_3key_default/quantum/eeconfig.o
 .text.eeconfig_read_haptic
                0x0000000000000000        0x8 .build/obj_3key_default/quantum/eeconfig.o
 .text.eeconfig_update_haptic
                0x0000000000000000        0xc .build/obj_3key_default/quantum/eeconfig.o
 .text.eeconfig_read_handedness
                0x0000000000000000       0x14 .build/obj_3key_default/quantum/eeconfig.o
 .text          0x0000000000000000        0x0 .build/obj_3key_default/quantum/keyboard.o
 .data          0x0000000000000000        0x0 .build/obj_3key_default/quantum/keyboard.o
 .bss           0x0000000000000000        0x0 .build/obj_3key_default/quantum/keyboard.o
 .text.last_input_activity_time
                0x0000000000000000       0x2e .build/obj_3key_default/quantum/keyboard.o
 .text.last_input_activity_elapsed
                0x0000000000000000       0x38 .build/obj_3key_default/quantum/keyboard.o
 .text.last_matrix_activity_time
                0x0000000000000000       0x2e .build/obj_3key_default/quantum/keyboard.o
 .text.last_matrix_activity_elapsed
                0x0000000000000000       0x38 .build/obj_3key_default/quantum/keyboard.o
 .text.last_encoder_activity_time
                0x0000000000000000       0x2e .build/obj_3key_default/quantum/keyboard.o
 .text.last_encoder_activity_elapsed
                0x0000000000000000       0x38 .build/obj_3key_default/quantum/keyboard.o
 .text.last_encoder_activity_trigger
                0x0000000000000000       0x26 .build/obj_3key_default/quantum/keyboard.o
 .text.is_keyboard_left
                0x0000000000000000        0x4 .build/obj_3key_default/quantum/keyboard.o
 .text.switch_events
                0x0000000000000000        0x2 .build/obj_3key_default/quantum/keyboard.o
 .text.keyboard_set_leds
                0x0000000000000000        0x4 .build/obj_3key_default/quantum/keyboard.o
 .bss.last_encoder_modification_time
                0x0000000000000000        0x4 .build/obj_3key_default/quantum/keyboard.o
 .text          0x0000000000000000        0x0 .build/obj_3key_default/quantum/keymap_common.o
 .data          0x0000000000000000        0x0 .build/obj_3key_default/quantum/keymap_common.o
 .bss           0x0000000000000000        0x0 .build/obj_3key_default/quantum/keymap_common.o
 .text.action_get_macro
                0x0000000000000000        0x6 .build/obj_3key_default/quantum/keymap_common.o
 .text          0x0000000000000000        0x0 .build/obj_3key_default/quantum/keycode_config.o
 .data          0x0000000000000000        0x0 .build/obj_3key_default/quantum/keycode_config.o
 .bss           0x0000000000000000        0x0 .build/obj_3key_default/quantum/keycode_config.o
 .text          0x0000000000000000        0x0 .build/obj_3key_default/quantum/logging/debug.o
 .data          0x0000000000000000        0x0 .build/obj_3key_default/quantum/logging/debug.o
 .bss           0x0000000000000000        0x0 .build/obj_3key_default/quantum/logging/debug.o
 .text          0x0000000000000000        0x0 .build/obj_3key_default/quantum/logging/sendchar.o
 .data          0x0000000000000000        0x0 .build/obj_3key_default/quantum/logging/sendchar.o
 .bss           0x0000000000000000        0x0 .build/obj_3key_default/quantum/logging/sendchar.o
 .text          0x0000000000000000        0x0 .build/obj_3key_default/quantum/bootmagic/bootmagic_lite.o
 .data          0x0000000000000000        0x0 .build/obj_3key_default/quantum/bootmagic/bootmagic_lite.o
 .bss           0x0000000000000000        0x0 .build/obj_3key_default/quantum/bootmagic/bootmagic_lite.o
 .text          0x0000000000000000        0x0 .build/obj_3key_default/quantum/bootmagic/magic.o
 .data          0x0000000000000000        0x0 .build/obj_3key_default/quantum/bootmagic/magic.o
 .bss           0x0000000000000000        0x0 .build/obj_3key_default/quantum/bootmagic/magic.o
 .text.bootmagic
                0x0000000000000000        0x2 .build/obj_3key_default/quantum/bootmagic/magic.o
 .text          0x0000000000000000        0x0 .build/obj_3key_default/quantum/matrix_common.o
 .data          0x0000000000000000        0x0 .build/obj_3key_default/quantum/matrix_common.o
 .bss           0x0000000000000000        0x0 .build/obj_3key_default/quantum/matrix_common.o
 .text.matrix_init_user
                0x0000000000000000        0x2 .build/obj_3key_default/quantum/matrix_common.o
 .text.matrix_scan_user
                0x0000000000000000        0x2 .build/obj_3key_default/quantum/matrix_common.o
 .text.matrix_rows
                0x0000000000000000        0x4 .build/obj_3key_default/quantum/matrix_common.o
 .text.matrix_cols
                0x0000000000000000        0x4 .build/obj_3key_default/quantum/matrix_common.o
 .text.matrix_is_on
                0x0000000000000000       0x28 .build/obj_3key_default/quantum/matrix_common.o
 .text.matrix_is_modified
                0x0000000000000000        0xa .build/obj_3key_default/quantum/matrix_common.o
 .text.matrix_key_count
                0x0000000000000000        0x8 .build/obj_3key_default/quantum/matrix_common.o
 .text.matrix_init_custom
                0x0000000000000000        0x2 .build/obj_3key_default/quantum/matrix_common.o
 .text.matrix_scan_custom
                0x0000000000000000        0x4 .build/obj_3key_default/quantum/matrix_common.o
 .text.matrix_init
                0x0000000000000000       0x16 .build/obj_3key_default/quantum/matrix_common.o
 .text.matrix_scan
                0x0000000000000000       0x26 .build/obj_3key_default/quantum/matrix_common.o
 .text.peek_matrix
                0x0000000000000000       0x24 .build/obj_3key_default/quantum/matrix_common.o
 .text          0x0000000000000000        0x0 .build/obj_3key_default/quantum/matrix.o
 .data          0x0000000000000000        0x0 .build/obj_3key_default/quantum/matrix.o
 .bss           0x0000000000000000        0x0 .build/obj_3key_default/quantum/matrix.o
 .text          0x0000000000000000        0x0 .build/obj_3key_default/quantum/debounce/sym_defer_g.o
 .data          0x0000000000000000        0x0 .build/obj_3key_default/quantum/debounce/sym_defer_g.o
 .bss           0x0000000000000000        0x0 .build/obj_3key_default/quantum/debounce/sym_defer_g.o
 .text.debounce_active
                0x0000000000000000        0x6 .build/obj_3key_default/quantum/debounce/sym_defer_g.o
 .text.debounce_free
                0x0000000000000000        0x2 .build/obj_3key_default/quantum/debounce/sym_defer_g.o
 .text          0x0000000000000000        0x0 .build/obj_3key_default/quantum/main.o
 .data          0x0000000000000000        0x0 .build/obj_3key_default/quantum/main.o
 .bss           0x0000000000000000        0x0 .build/obj_3key_default/quantum/main.o
 .text          0x0000000000000000        0x0 .build/obj_3key_default/quantum/mousekey.o
 .data          0x0000000000000000        0x0 .build/obj_3key_default/quantum/mousekey.o
 .bss           0x0000000000000000        0x0 .build/obj_3key_default/quantum/mousekey.o
 .text.mousekey_get_report
                0x0000000000000000       0x42 .build/obj_3key_default/quantum/mousekey.o
 .text          0x0000000000000000        0x0 .build/obj_3key_default/quantum/color.o
 .data          0x0000000000000000        0x0 .build/obj_3key_default/quantum/color.o
 .bss           0x0000000000000000        0x0 .build/obj_3key_default/quantum/color.o
 .text.hsv_to_rgb_nocie
                0x0000000000000000        0x6 .build/obj_3key_default/quantum/color.o
 .text          0x0000000000000000        0x0 .build/obj_3key_default/quantum/rgblight/rgblight.o
 .data          0x0000000000000000        0x0 .build/obj_3key_default/quantum/rgblight/rgblight.o
 .bss           0x0000000000000000        0x0 .build/obj_3key_default/quantum/rgblight/rgblight.o
 .text.rgblight_set_clipping_range
                0x0000000000000000        0xa .build/obj_3key_default/quantum/rgblight/rgblight.o
 .text.rgblight_set_effect_range
                0x0000000000000000       0x22 .build/obj_3key_default/quantum/rgblight/rgblight.o
 .text.sethsv   0x0000000000000000        0x4 .build/obj_3key_default/quantum/rgblight/rgblight.o
 .text.setrgb   0x0000000000000000        0xa .build/obj_3key_default/quantum/rgblight/rgblight.o
 .text.eeconfig_update_rgblight_current
                0x0000000000000000       0x38 .build/obj_3key_default/quantum/rgblight/rgblight.o
 .text.eeconfig_debug_rgblight
                0x0000000000000000        0x2 .build/obj_3key_default/quantum/rgblight/rgblight.o
 .text.rgblight_read_dword
                0x0000000000000000       0x2e .build/obj_3key_default/quantum/rgblight/rgblight.o
 .text.rgblight_is_enabled
                0x0000000000000000        0x8 .build/obj_3key_default/quantum/rgblight/rgblight.o
 .text.rgblight_increase_speed_noeeprom
                0x0000000000000000        0x6 .build/obj_3key_default/quantum/rgblight/rgblight.o
 .text.rgblight_decrease_speed_noeeprom
                0x0000000000000000        0x6 .build/obj_3key_default/quantum/rgblight/rgblight.o
 .text.rgblight_get_speed
                0x0000000000000000        0x6 .build/obj_3key_default/quantum/rgblight/rgblight.o
 .text.rgblight_set_speed_eeprom_helper
                0x0000000000000000       0x4e .build/obj_3key_default/quantum/rgblight/rgblight.o
 .text.rgblight_set_speed
                0x0000000000000000        0x6 .build/obj_3key_default/quantum/rgblight/rgblight.o
 .text.rgblight_set_speed_noeeprom
                0x0000000000000000        0x6 .build/obj_3key_default/quantum/rgblight/rgblight.o
 .text.rgblight_get_hue
                0x0000000000000000        0x6 .build/obj_3key_default/quantum/rgblight/rgblight.o
 .text.rgblight_get_sat
                0x0000000000000000        0x6 .build/obj_3key_default/quantum/rgblight/rgblight.o
 .text.rgblight_get_val
                0x0000000000000000        0x6 .build/obj_3key_default/quantum/rgblight/rgblight.o
 .text.rgblight_get_hsv
                0x0000000000000000        0xc .build/obj_3key_default/quantum/rgblight/rgblight.o
 .text.rgblight_increase_hue_noeeprom
                0x0000000000000000        0x6 .build/obj_3key_default/quantum/rgblight/rgblight.o
 .text.rgblight_decrease_hue_noeeprom
                0x0000000000000000        0x6 .build/obj_3key_default/quantum/rgblight/rgblight.o
 .text.rgblight_increase_sat_noeeprom
                0x0000000000000000        0x6 .build/obj_3key_default/quantum/rgblight/rgblight.o
 .text.rgblight_decrease_sat_noeeprom
                0x0000000000000000        0x6 .build/obj_3key_default/quantum/rgblight/rgblight.o
 .text.rgblight_increase_val_noeeprom
                0x0000000000000000        0x6 .build/obj_3key_default/quantum/rgblight/rgblight.o
 .text.rgblight_decrease_val_noeeprom
                0x0000000000000000        0x6 .build/obj_3key_default/quantum/rgblight/rgblight.o
 .text.rgblight_sethsv
                0x0000000000000000        0x6 .build/obj_3key_default/quantum/rgblight/rgblight.o
 .text.rgblight_setrgb_at
                0x0000000000000000       0x28 .build/obj_3key_default/quantum/rgblight/rgblight.o
 .text.rgblight_sethsv_at
                0x0000000000000000       0x48 .build/obj_3key_default/quantum/rgblight/rgblight.o
 .text.rgblight_setrgb_range
                0x0000000000000000       0x50 .build/obj_3key_default/quantum/rgblight/rgblight.o
 .text.rgblight_sethsv_range
                0x0000000000000000       0x40 .build/obj_3key_default/quantum/rgblight/rgblight.o
 .text.rgblight_sethsv_master
                0x0000000000000000        0xe .build/obj_3key_default/quantum/rgblight/rgblight.o
 .text.rgblight_sethsv_slave
                0x0000000000000000        0xe .build/obj_3key_default/quantum/rgblight/rgblight.o
 .text.rgblight_setrgb_master
                0x0000000000000000        0xe .build/obj_3key_default/quantum/rgblight/rgblight.o
 .text.rgblight_setrgb_slave
                0x0000000000000000        0xe .build/obj_3key_default/quantum/rgblight/rgblight.o
 .text.rgblight_disable_noeeprom
                0x0000000000000000       0x24 .build/obj_3key_default/quantum/rgblight/rgblight.o
 .text.rgblight_timer_init
                0x0000000000000000        0x6 .build/obj_3key_default/quantum/rgblight/rgblight.o
 .text.rgblight_step_noeeprom
                0x0000000000000000        0x6 .build/obj_3key_default/quantum/rgblight/rgblight.o
 .text.rgblight_step_reverse_noeeprom
                0x0000000000000000        0x6 .build/obj_3key_default/quantum/rgblight/rgblight.o
 .text.rgblight_increase
                0x0000000000000000       0x16 .build/obj_3key_default/quantum/rgblight/rgblight.o
 .text.rgblight_decrease
                0x0000000000000000       0x14 .build/obj_3key_default/quantum/rgblight/rgblight.o
 .text.rgblight_reload_from_eeprom
                0x0000000000000000       0x28 .build/obj_3key_default/quantum/rgblight/rgblight.o
 .text.rgblight_enable_noeeprom
                0x0000000000000000       0x10 .build/obj_3key_default/quantum/rgblight/rgblight.o
 .text.rgblight_toggle_noeeprom
                0x0000000000000000        0xe .build/obj_3key_default/quantum/rgblight/rgblight.o
 .text.rgblight_set_layer_state
                0x0000000000000000       0x3a .build/obj_3key_default/quantum/rgblight/rgblight.o
 .text.rgblight_update_dword
                0x0000000000000000       0x24 .build/obj_3key_default/quantum/rgblight/rgblight.o
 .text.rgblight_timer_disable
                0x0000000000000000        0x6 .build/obj_3key_default/quantum/rgblight/rgblight.o
 .text.rgblight_timer_toggle
                0x0000000000000000       0x12 .build/obj_3key_default/quantum/rgblight/rgblight.o
 .text.rgblight_show_solid_color
                0x0000000000000000       0x26 .build/obj_3key_default/quantum/rgblight/rgblight.o
 .text          0x0000000000000000        0x0 .build/obj_3key_default/quantum/process_keycode/process_rgb.o
 .data          0x0000000000000000        0x0 .build/obj_3key_default/quantum/process_keycode/process_rgb.o
 .bss           0x0000000000000000        0x0 .build/obj_3key_default/quantum/process_keycode/process_rgb.o
 .text          0x0000000000000000        0x0 .build/obj_3key_default/quantum/backlight/backlight.o
 .data          0x0000000000000000        0x0 .build/obj_3key_default/quantum/backlight/backlight.o
 .bss           0x0000000000000000        0x0 .build/obj_3key_default/quantum/backlight/backlight.o
 .text.is_backlight_enabled
                0x0000000000000000        0x8 .build/obj_3key_default/quantum/backlight/backlight.o
 .text.eeconfig_update_backlight_current
                0x0000000000000000        0x8 .build/obj_3key_default/quantum/backlight/backlight.o
 .text.get_backlight_level
                0x0000000000000000        0xc .build/obj_3key_default/quantum/backlight/backlight.o
 .text.backlight_init_ports
                0x0000000000000000        0x2 .build/obj_3key_default/quantum/backlight/backlight.o
 .text.backlight_set
                0x0000000000000000        0x2 .build/obj_3key_default/quantum/backlight/backlight.o
 .text.backlight_task
                0x0000000000000000        0x2 .build/obj_3key_default/quantum/backlight/backlight.o
 .text          0x0000000000000000        0x0 .build/obj_3key_default/quantum/process_keycode/process_backlight.o
 .data          0x0000000000000000        0x0 .build/obj_3key_default/quantum/process_keycode/process_backlight.o
 .bss           0x0000000000000000        0x0 .build/obj_3key_default/quantum/process_keycode/process_backlight.o
 .text          0x0000000000000000        0x0 .build/obj_3key_default/quantum/backlight/backlight_driver_common.o
 .data          0x0000000000000000        0x0 .build/obj_3key_default/quantum/backlight/backlight_driver_common.o
 .bss           0x0000000000000000        0x0 .build/obj_3key_default/quantum/backlight/backlight_driver_common.o
 .text.backlight_pins_on
                0x0000000000000000        0x4 .build/obj_3key_default/quantum/backlight/backlight_driver_common.o
 .text          0x0000000000000000        0x0 .build/obj_3key_default/quantum/backlight/backlight_avr.o
 .data          0x0000000000000000        0x0 .build/obj_3key_default/quantum/backlight/backlight_avr.o
 .bss           0x0000000000000000        0x0 .build/obj_3key_default/quantum/backlight/backlight_avr.o
 .text          0x0000000000000000        0x0 .build/obj_3key_default/ws2812.o
 .data          0x0000000000000000        0x0 .build/obj_3key_default/ws2812.o
 .bss           0x0000000000000000        0x0 .build/obj_3key_default/ws2812.o
 .text          0x0000000000000000        0x0 .build/obj_3key_default/quantum/led_tables.o
 .data          0x0000000000000000        0x0 .build/obj_3key_default/quantum/led_tables.o
 .bss           0x0000000000000000        0x0 .build/obj_3key_default/quantum/led_tables.o
 .text          0x0000000000000000        0x0 .build/obj_3key_default/quantum/process_keycode/process_space_cadet.o
 .data          0x0000000000000000        0x0 .build/obj_3key_default/quantum/process_keycode/process_space_cadet.o
 .bss           0x0000000000000000        0x0 .build/obj_3key_default/quantum/process_keycode/process_space_cadet.o
 .text          0x0000000000000000        0x0 .build/obj_3key_default/quantum/process_keycode/process_magic.o
 .data          0x0000000000000000        0x0 .build/obj_3key_default/quantum/process_keycode/process_magic.o
 .bss           0x0000000000000000        0x0 .build/obj_3key_default/quantum/process_keycode/process_magic.o
 .text          0x0000000000000000        0x0 .build/obj_3key_default/quantum/process_keycode/process_grave_esc.o
 .data          0x0000000000000000        0x0 .build/obj_3key_default/quantum/process_keycode/process_grave_esc.o
 .bss           0x0000000000000000        0x0 .build/obj_3key_default/quantum/process_keycode/process_grave_esc.o
 .text          0x0000000000000000        0x0 .build/obj_3key_default/common/host.o
 .data          0x0000000000000000        0x0 .build/obj_3key_default/common/host.o
 .bss           0x0000000000000000        0x0 .build/obj_3key_default/common/host.o
 .text.host_get_driver
                0x0000000000000000        0xa .build/obj_3key_default/common/host.o
 .text.host_keyboard_led_state
                0x0000000000000000        0x6 .build/obj_3key_default/common/host.o
 .text.send_digitizer
                0x0000000000000000        0x2 .build/obj_3key_default/common/host.o
 .text.host_digitizer_send
                0x0000000000000000       0xae .build/obj_3key_default/common/host.o
 .text.host_last_system_report
                0x0000000000000000        0xa .build/obj_3key_default/common/host.o
 .text.host_last_consumer_report
                0x0000000000000000        0xa .build/obj_3key_default/common/host.o
 .text          0x0000000000000000        0x0 .build/obj_3key_default/common/report.o
 .data          0x0000000000000000        0x0 .build/obj_3key_default/common/report.o
 .bss           0x0000000000000000        0x0 .build/obj_3key_default/common/report.o
 .text.get_first_key
                0x0000000000000000       0x4a .build/obj_3key_default/common/report.o
 .text          0x0000000000000000        0x0 .build/obj_3key_default/common/sync_timer.o
 .data          0x0000000000000000        0x0 .build/obj_3key_default/common/sync_timer.o
 .bss           0x0000000000000000        0x0 .build/obj_3key_default/common/sync_timer.o
 .debug_info    0x0000000000000000       0x5d .build/obj_3key_default/common/sync_timer.o
 .debug_abbrev  0x0000000000000000       0x26 .build/obj_3key_default/common/sync_timer.o
 .debug_aranges
                0x0000000000000000       0x18 .build/obj_3key_default/common/sync_timer.o
 .debug_line    0x0000000000000000       0x1d .build/obj_3key_default/common/sync_timer.o
 .debug_str     0x0000000000000000      0x1a3 .build/obj_3key_default/common/sync_timer.o
 .comment       0x0000000000000000       0x13 .build/obj_3key_default/common/sync_timer.o
 .text          0x0000000000000000        0x0 .build/obj_3key_default/common/usb_util.o
 .data          0x0000000000000000        0x0 .build/obj_3key_default/common/usb_util.o
 .bss           0x0000000000000000        0x0 .build/obj_3key_default/common/usb_util.o
 .text.usb_disconnect
                0x0000000000000000        0x2 .build/obj_3key_default/common/usb_util.o
 .text.usb_connected_state
                0x0000000000000000        0x4 .build/obj_3key_default/common/usb_util.o
 .text.usb_vbus_state
                0x0000000000000000        0x4 .build/obj_3key_default/common/usb_util.o
 .debug_info    0x0000000000000000       0xb6 .build/obj_3key_default/common/usb_util.o
 .debug_abbrev  0x0000000000000000       0x7e .build/obj_3key_default/common/usb_util.o
 .debug_aranges
                0x0000000000000000       0x28 .build/obj_3key_default/common/usb_util.o
 .debug_ranges  0x0000000000000000       0x18 .build/obj_3key_default/common/usb_util.o
 .debug_line    0x0000000000000000       0x78 .build/obj_3key_default/common/usb_util.o
 .debug_str     0x0000000000000000      0x1d8 .build/obj_3key_default/common/usb_util.o
 .comment       0x0000000000000000       0x13 .build/obj_3key_default/common/usb_util.o
 .debug_frame   0x0000000000000000       0x44 .build/obj_3key_default/common/usb_util.o
 .text          0x0000000000000000        0x0 .build/obj_3key_default/common/avr/platform.o
 .data          0x0000000000000000        0x0 .build/obj_3key_default/common/avr/platform.o
 .bss           0x0000000000000000        0x0 .build/obj_3key_default/common/avr/platform.o
 .text          0x0000000000000000        0x0 .build/obj_3key_default/common/avr/suspend.o
 .data          0x0000000000000000        0x0 .build/obj_3key_default/common/avr/suspend.o
 .bss           0x0000000000000000        0x0 .build/obj_3key_default/common/avr/suspend.o
 .text.suspend_idle
                0x0000000000000000       0x1a .build/obj_3key_default/common/avr/suspend.o
 .text          0x0000000000000000        0x0 .build/obj_3key_default/common/avr/timer.o
 .data          0x0000000000000000        0x0 .build/obj_3key_default/common/avr/timer.o
 .bss           0x0000000000000000        0x0 .build/obj_3key_default/common/avr/timer.o
 .text.timer_clear
                0x0000000000000000       0x18 .build/obj_3key_default/common/avr/timer.o
 .text.timer_elapsed32
                0x0000000000000000       0x4e .build/obj_3key_default/common/avr/timer.o
 .text          0x0000000000000000        0x0 .build/obj_3key_default/common/avr/bootloader.o
 .data          0x0000000000000000        0x0 .build/obj_3key_default/common/avr/bootloader.o
 .bss           0x0000000000000000        0x0 .build/obj_3key_default/common/avr/bootloader.o
 .text          0x0000000000000000      0x15c .build/obj_3key_default/common/avr/xprintf.o
 .data          0x0000000000000000        0x0 .build/obj_3key_default/common/avr/xprintf.o
 .text          0x0000000000000000        0x0 .build/obj_3key_default/common/avr/printf.o
 .data          0x0000000000000000        0x0 .build/obj_3key_default/common/avr/printf.o
 .bss           0x0000000000000000        0x0 .build/obj_3key_default/common/avr/printf.o
 .text          0x0000000000000000        0x0 .build/obj_3key_default/lufa.o
 .data          0x0000000000000000        0x0 .build/obj_3key_default/lufa.o
 .bss           0x0000000000000000        0x0 .build/obj_3key_default/lufa.o
 .text.send_digitizer
                0x0000000000000000        0x2 .build/obj_3key_default/lufa.o
 .text          0x0000000000000000        0x0 .build/obj_3key_default/usb_descriptor.o
 .data          0x0000000000000000        0x0 .build/obj_3key_default/usb_descriptor.o
 .bss           0x0000000000000000        0x0 .build/obj_3key_default/usb_descriptor.o
 .text          0x0000000000000000        0x0 .build/obj_3key_default/lib/lufa/LUFA/Drivers/USB/Class/Common/HIDParser.o
 .data          0x0000000000000000        0x0 .build/obj_3key_default/lib/lufa/LUFA/Drivers/USB/Class/Common/HIDParser.o
 .bss           0x0000000000000000        0x0 .build/obj_3key_default/lib/lufa/LUFA/Drivers/USB/Class/Common/HIDParser.o
 .text.USB_ProcessHIDReport
                0x0000000000000000      0x6e0 .build/obj_3key_default/lib/lufa/LUFA/Drivers/USB/Class/Common/HIDParser.o
 .text.USB_GetHIDReportItemInfo
                0x0000000000000000       0xb6 .build/obj_3key_default/lib/lufa/LUFA/Drivers/USB/Class/Common/HIDParser.o
 .text.USB_SetHIDReportItemInfo
                0x0000000000000000       0xb8 .build/obj_3key_default/lib/lufa/LUFA/Drivers/USB/Class/Common/HIDParser.o
 .text.USB_GetHIDReportSize
                0x0000000000000000       0x68 .build/obj_3key_default/lib/lufa/LUFA/Drivers/USB/Class/Common/HIDParser.o
 .debug_info    0x0000000000000000      0x8a7 .build/obj_3key_default/lib/lufa/LUFA/Drivers/USB/Class/Common/HIDParser.o
 .debug_abbrev  0x0000000000000000      0x2a8 .build/obj_3key_default/lib/lufa/LUFA/Drivers/USB/Class/Common/HIDParser.o
 .debug_loc     0x0000000000000000      0xbff .build/obj_3key_default/lib/lufa/LUFA/Drivers/USB/Class/Common/HIDParser.o
 .debug_aranges
                0x0000000000000000       0x38 .build/obj_3key_default/lib/lufa/LUFA/Drivers/USB/Class/Common/HIDParser.o
 .debug_ranges  0x0000000000000000       0xf8 .build/obj_3key_default/lib/lufa/LUFA/Drivers/USB/Class/Common/HIDParser.o
 .debug_line    0x0000000000000000      0xd7b .build/obj_3key_default/lib/lufa/LUFA/Drivers/USB/Class/Common/HIDParser.o
 .debug_str     0x0000000000000000      0x6f4 .build/obj_3key_default/lib/lufa/LUFA/Drivers/USB/Class/Common/HIDParser.o
 .comment       0x0000000000000000       0x13 .build/obj_3key_default/lib/lufa/LUFA/Drivers/USB/Class/Common/HIDParser.o
 .debug_frame   0x0000000000000000      0x10c .build/obj_3key_default/lib/lufa/LUFA/Drivers/USB/Class/Common/HIDParser.o
 .text          0x0000000000000000        0x0 .build/obj_3key_default/lib/lufa/LUFA/Drivers/USB/Core/AVR8/Device_AVR8.o
 .data          0x0000000000000000        0x0 .build/obj_3key_default/lib/lufa/LUFA/Drivers/USB/Core/AVR8/Device_AVR8.o
 .bss           0x0000000000000000        0x0 .build/obj_3key_default/lib/lufa/LUFA/Drivers/USB/Core/AVR8/Device_AVR8.o
 .text          0x0000000000000000        0x0 .build/obj_3key_default/lib/lufa/LUFA/Drivers/USB/Core/AVR8/EndpointStream_AVR8.o
 .data          0x0000000000000000        0x0 .build/obj_3key_default/lib/lufa/LUFA/Drivers/USB/Core/AVR8/EndpointStream_AVR8.o
 .bss           0x0000000000000000        0x0 .build/obj_3key_default/lib/lufa/LUFA/Drivers/USB/Core/AVR8/EndpointStream_AVR8.o
 .text.Endpoint_Discard_Stream
                0x0000000000000000       0x7c .build/obj_3key_default/lib/lufa/LUFA/Drivers/USB/Core/AVR8/EndpointStream_AVR8.o
 .text.Endpoint_Null_Stream
                0x0000000000000000       0x7c .build/obj_3key_default/lib/lufa/LUFA/Drivers/USB/Core/AVR8/EndpointStream_AVR8.o
 .text.Endpoint_Write_Stream_BE
                0x0000000000000000       0xa8 .build/obj_3key_default/lib/lufa/LUFA/Drivers/USB/Core/AVR8/EndpointStream_AVR8.o
 .text.Endpoint_Read_Stream_LE
                0x0000000000000000       0x9e .build/obj_3key_default/lib/lufa/LUFA/Drivers/USB/Core/AVR8/EndpointStream_AVR8.o
 .text.Endpoint_Read_Stream_BE
                0x0000000000000000       0xa8 .build/obj_3key_default/lib/lufa/LUFA/Drivers/USB/Core/AVR8/EndpointStream_AVR8.o
 .text.Endpoint_Write_PStream_LE
                0x0000000000000000       0xa0 .build/obj_3key_default/lib/lufa/LUFA/Drivers/USB/Core/AVR8/EndpointStream_AVR8.o
 .text.Endpoint_Write_PStream_BE
                0x0000000000000000       0xaa .build/obj_3key_default/lib/lufa/LUFA/Drivers/USB/Core/AVR8/EndpointStream_AVR8.o
 .text.Endpoint_Write_EStream_LE
                0x0000000000000000       0xa2 .build/obj_3key_default/lib/lufa/LUFA/Drivers/USB/Core/AVR8/EndpointStream_AVR8.o
 .text.Endpoint_Write_EStream_BE
                0x0000000000000000       0xac .build/obj_3key_default/lib/lufa/LUFA/Drivers/USB/Core/AVR8/EndpointStream_AVR8.o
 .text.Endpoint_Read_EStream_LE
                0x0000000000000000       0xa2 .build/obj_3key_default/lib/lufa/LUFA/Drivers/USB/Core/AVR8/EndpointStream_AVR8.o
 .text.Endpoint_Read_EStream_BE
                0x0000000000000000       0xac .build/obj_3key_default/lib/lufa/LUFA/Drivers/USB/Core/AVR8/EndpointStream_AVR8.o
 .text.Endpoint_Write_Control_Stream_BE
                0x0000000000000000       0xc4 .build/obj_3key_default/lib/lufa/LUFA/Drivers/USB/Core/AVR8/EndpointStream_AVR8.o
 .text.Endpoint_Read_Control_Stream_LE
                0x0000000000000000       0x6e .build/obj_3key_default/lib/lufa/LUFA/Drivers/USB/Core/AVR8/EndpointStream_AVR8.o
 .text.Endpoint_Read_Control_Stream_BE
                0x0000000000000000       0x7a .build/obj_3key_default/lib/lufa/LUFA/Drivers/USB/Core/AVR8/EndpointStream_AVR8.o
 .text.Endpoint_Write_Control_PStream_BE
                0x0000000000000000       0xc4 .build/obj_3key_default/lib/lufa/LUFA/Drivers/USB/Core/AVR8/EndpointStream_AVR8.o
 .text.Endpoint_Write_Control_EStream_LE
                0x0000000000000000       0xd8 .build/obj_3key_default/lib/lufa/LUFA/Drivers/USB/Core/AVR8/EndpointStream_AVR8.o
 .text.Endpoint_Write_Control_EStream_BE
                0x0000000000000000       0xe2 .build/obj_3key_default/lib/lufa/LUFA/Drivers/USB/Core/AVR8/EndpointStream_AVR8.o
 .text.Endpoint_Read_Control_EStream_LE
                0x0000000000000000       0x86 .build/obj_3key_default/lib/lufa/LUFA/Drivers/USB/Core/AVR8/EndpointStream_AVR8.o
 .text.Endpoint_Read_Control_EStream_BE
                0x0000000000000000       0x8e .build/obj_3key_default/lib/lufa/LUFA/Drivers/USB/Core/AVR8/EndpointStream_AVR8.o
 .text          0x0000000000000000        0x0 .build/obj_3key_default/lib/lufa/LUFA/Drivers/USB/Core/AVR8/Endpoint_AVR8.o
 .data          0x0000000000000000        0x0 .build/obj_3key_default/lib/lufa/LUFA/Drivers/USB/Core/AVR8/Endpoint_AVR8.o
 .bss           0x0000000000000000        0x0 .build/obj_3key_default/lib/lufa/LUFA/Drivers/USB/Core/AVR8/Endpoint_AVR8.o
 .text.Endpoint_ConfigureEndpointTable
                0x0000000000000000       0x7c .build/obj_3key_default/lib/lufa/LUFA/Drivers/USB/Core/AVR8/Endpoint_AVR8.o
 .text.Endpoint_ClearEndpoints
                0x0000000000000000       0x28 .build/obj_3key_default/lib/lufa/LUFA/Drivers/USB/Core/AVR8/Endpoint_AVR8.o
 .text          0x0000000000000000        0x0 .build/obj_3key_default/lib/lufa/LUFA/Drivers/USB/Core/AVR8/Host_AVR8.o
 .data          0x0000000000000000        0x0 .build/obj_3key_default/lib/lufa/LUFA/Drivers/USB/Core/AVR8/Host_AVR8.o
 .bss           0x0000000000000000        0x0 .build/obj_3key_default/lib/lufa/LUFA/Drivers/USB/Core/AVR8/Host_AVR8.o
 .debug_info    0x0000000000000000       0x56 .build/obj_3key_default/lib/lufa/LUFA/Drivers/USB/Core/AVR8/Host_AVR8.o
 .debug_abbrev  0x0000000000000000       0x26 .build/obj_3key_default/lib/lufa/LUFA/Drivers/USB/Core/AVR8/Host_AVR8.o
 .debug_aranges
                0x0000000000000000       0x18 .build/obj_3key_default/lib/lufa/LUFA/Drivers/USB/Core/AVR8/Host_AVR8.o
 .debug_line    0x0000000000000000       0x1d .build/obj_3key_default/lib/lufa/LUFA/Drivers/USB/Core/AVR8/Host_AVR8.o
 .debug_str     0x0000000000000000      0x1b0 .build/obj_3key_default/lib/lufa/LUFA/Drivers/USB/Core/AVR8/Host_AVR8.o
 .comment       0x0000000000000000       0x13 .build/obj_3key_default/lib/lufa/LUFA/Drivers/USB/Core/AVR8/Host_AVR8.o
 .text          0x0000000000000000        0x0 .build/obj_3key_default/lib/lufa/LUFA/Drivers/USB/Core/AVR8/PipeStream_AVR8.o
 .data          0x0000000000000000        0x0 .build/obj_3key_default/lib/lufa/LUFA/Drivers/USB/Core/AVR8/PipeStream_AVR8.o
 .bss           0x0000000000000000        0x0 .build/obj_3key_default/lib/lufa/LUFA/Drivers/USB/Core/AVR8/PipeStream_AVR8.o
 .debug_info    0x0000000000000000       0x56 .build/obj_3key_default/lib/lufa/LUFA/Drivers/USB/Core/AVR8/PipeStream_AVR8.o
 .debug_abbrev  0x0000000000000000       0x26 .build/obj_3key_default/lib/lufa/LUFA/Drivers/USB/Core/AVR8/PipeStream_AVR8.o
 .debug_aranges
                0x0000000000000000       0x18 .build/obj_3key_default/lib/lufa/LUFA/Drivers/USB/Core/AVR8/PipeStream_AVR8.o
 .debug_line    0x0000000000000000       0x1d .build/obj_3key_default/lib/lufa/LUFA/Drivers/USB/Core/AVR8/PipeStream_AVR8.o
 .debug_str     0x0000000000000000      0x1b6 .build/obj_3key_default/lib/lufa/LUFA/Drivers/USB/Core/AVR8/PipeStream_AVR8.o
 .comment       0x0000000000000000       0x13 .build/obj_3key_default/lib/lufa/LUFA/Drivers/USB/Core/AVR8/PipeStream_AVR8.o
 .text          0x0000000000000000        0x0 .build/obj_3key_default/lib/lufa/LUFA/Drivers/USB/Core/AVR8/Pipe_AVR8.o
 .data          0x0000000000000000        0x0 .build/obj_3key_default/lib/lufa/LUFA/Drivers/USB/Core/AVR8/Pipe_AVR8.o
 .bss           0x0000000000000000        0x0 .build/obj_3key_default/lib/lufa/LUFA/Drivers/USB/Core/AVR8/Pipe_AVR8.o
 .debug_info    0x0000000000000000       0x56 .build/obj_3key_default/lib/lufa/LUFA/Drivers/USB/Core/AVR8/Pipe_AVR8.o
 .debug_abbrev  0x0000000000000000       0x26 .build/obj_3key_default/lib/lufa/LUFA/Drivers/USB/Core/AVR8/Pipe_AVR8.o
 .debug_aranges
                0x0000000000000000       0x18 .build/obj_3key_default/lib/lufa/LUFA/Drivers/USB/Core/AVR8/Pipe_AVR8.o
 .debug_line    0x0000000000000000       0x1d .build/obj_3key_default/lib/lufa/LUFA/Drivers/USB/Core/AVR8/Pipe_AVR8.o
 .debug_str     0x0000000000000000      0x1b0 .build/obj_3key_default/lib/lufa/LUFA/Drivers/USB/Core/AVR8/Pipe_AVR8.o
 .comment       0x0000000000000000       0x13 .build/obj_3key_default/lib/lufa/LUFA/Drivers/USB/Core/AVR8/Pipe_AVR8.o
 .text          0x0000000000000000        0x0 .build/obj_3key_default/lib/lufa/LUFA/Drivers/USB/Core/AVR8/USBController_AVR8.o
 .data          0x0000000000000000        0x0 .build/obj_3key_default/lib/lufa/LUFA/Drivers/USB/Core/AVR8/USBController_AVR8.o
 .bss           0x0000000000000000        0x0 .build/obj_3key_default/lib/lufa/LUFA/Drivers/USB/Core/AVR8/USBController_AVR8.o
 .text          0x0000000000000000        0x0 .build/obj_3key_default/lib/lufa/LUFA/Drivers/USB/Core/AVR8/USBInterrupt_AVR8.o
 .data          0x0000000000000000        0x0 .build/obj_3key_default/lib/lufa/LUFA/Drivers/USB/Core/AVR8/USBInterrupt_AVR8.o
 .bss           0x0000000000000000        0x0 .build/obj_3key_default/lib/lufa/LUFA/Drivers/USB/Core/AVR8/USBInterrupt_AVR8.o
 .text          0x0000000000000000        0x0 .build/obj_3key_default/lib/lufa/LUFA/Drivers/USB/Core/ConfigDescriptors.o
 .data          0x0000000000000000        0x0 .build/obj_3key_default/lib/lufa/LUFA/Drivers/USB/Core/ConfigDescriptors.o
 .bss           0x0000000000000000        0x0 .build/obj_3key_default/lib/lufa/LUFA/Drivers/USB/Core/ConfigDescriptors.o
 .text.USB_GetNextDescriptorOfType
                0x0000000000000000       0x4c .build/obj_3key_default/lib/lufa/LUFA/Drivers/USB/Core/ConfigDescriptors.o
 .text.USB_GetNextDescriptorOfTypeBefore
                0x0000000000000000       0x54 .build/obj_3key_default/lib/lufa/LUFA/Drivers/USB/Core/ConfigDescriptors.o
 .text.USB_GetNextDescriptorOfTypeAfter
                0x0000000000000000       0x3e .build/obj_3key_default/lib/lufa/LUFA/Drivers/USB/Core/ConfigDescriptors.o
 .text.USB_GetNextDescriptorComp
                0x0000000000000000       0x84 .build/obj_3key_default/lib/lufa/LUFA/Drivers/USB/Core/ConfigDescriptors.o
 .debug_info    0x0000000000000000      0x463 .build/obj_3key_default/lib/lufa/LUFA/Drivers/USB/Core/ConfigDescriptors.o
 .debug_abbrev  0x0000000000000000      0x1d5 .build/obj_3key_default/lib/lufa/LUFA/Drivers/USB/Core/ConfigDescriptors.o
 .debug_loc     0x0000000000000000      0x565 .build/obj_3key_default/lib/lufa/LUFA/Drivers/USB/Core/ConfigDescriptors.o
 .debug_aranges
                0x0000000000000000       0x38 .build/obj_3key_default/lib/lufa/LUFA/Drivers/USB/Core/ConfigDescriptors.o
 .debug_ranges  0x0000000000000000       0x28 .build/obj_3key_default/lib/lufa/LUFA/Drivers/USB/Core/ConfigDescriptors.o
 .debug_line    0x0000000000000000      0x3f8 .build/obj_3key_default/lib/lufa/LUFA/Drivers/USB/Core/ConfigDescriptors.o
 .debug_str     0x0000000000000000      0x3f6 .build/obj_3key_default/lib/lufa/LUFA/Drivers/USB/Core/ConfigDescriptors.o
 .comment       0x0000000000000000       0x13 .build/obj_3key_default/lib/lufa/LUFA/Drivers/USB/Core/ConfigDescriptors.o
 .debug_frame   0x0000000000000000       0xbc .build/obj_3key_default/lib/lufa/LUFA/Drivers/USB/Core/ConfigDescriptors.o
 .text          0x0000000000000000        0x0 .build/obj_3key_default/lib/lufa/LUFA/Drivers/USB/Core/DeviceStandardReq.o
 .data          0x0000000000000000        0x0 .build/obj_3key_default/lib/lufa/LUFA/Drivers/USB/Core/DeviceStandardReq.o
 .bss           0x0000000000000000        0x0 .build/obj_3key_default/lib/lufa/LUFA/Drivers/USB/Core/DeviceStandardReq.o
 .text          0x0000000000000000        0x0 .build/obj_3key_default/lib/lufa/LUFA/Drivers/USB/Core/Events.o
 .data          0x0000000000000000        0x0 .build/obj_3key_default/lib/lufa/LUFA/Drivers/USB/Core/Events.o
 .bss           0x0000000000000000        0x0 .build/obj_3key_default/lib/lufa/LUFA/Drivers/USB/Core/Events.o
 .text.USB_Event_Stub_2
                0x0000000000000000        0x2 .build/obj_3key_default/lib/lufa/LUFA/Drivers/USB/Core/Events.o
 .text.USB_Event_Stub_3
                0x0000000000000000        0x2 .build/obj_3key_default/lib/lufa/LUFA/Drivers/USB/Core/Events.o
 .text          0x0000000000000000        0x0 .build/obj_3key_default/lib/lufa/LUFA/Drivers/USB/Core/HostStandardReq.o
 .data          0x0000000000000000        0x0 .build/obj_3key_default/lib/lufa/LUFA/Drivers/USB/Core/HostStandardReq.o
 .bss           0x0000000000000000        0x0 .build/obj_3key_default/lib/lufa/LUFA/Drivers/USB/Core/HostStandardReq.o
 .debug_info    0x0000000000000000       0x56 .build/obj_3key_default/lib/lufa/LUFA/Drivers/USB/Core/HostStandardReq.o
 .debug_abbrev  0x0000000000000000       0x26 .build/obj_3key_default/lib/lufa/LUFA/Drivers/USB/Core/HostStandardReq.o
 .debug_aranges
                0x0000000000000000       0x18 .build/obj_3key_default/lib/lufa/LUFA/Drivers/USB/Core/HostStandardReq.o
 .debug_line    0x0000000000000000       0x1d .build/obj_3key_default/lib/lufa/LUFA/Drivers/USB/Core/HostStandardReq.o
 .debug_str     0x0000000000000000      0x1b1 .build/obj_3key_default/lib/lufa/LUFA/Drivers/USB/Core/HostStandardReq.o
 .comment       0x0000000000000000       0x13 .build/obj_3key_default/lib/lufa/LUFA/Drivers/USB/Core/HostStandardReq.o
 .text          0x0000000000000000        0x0 .build/obj_3key_default/lib/lufa/LUFA/Drivers/USB/Core/USBTask.o
 .data          0x0000000000000000        0x0 .build/obj_3key_default/lib/lufa/LUFA/Drivers/USB/Core/USBTask.o
 .bss           0x0000000000000000        0x0 .build/obj_3key_default/lib/lufa/LUFA/Drivers/USB/Core/USBTask.o
 .text          0x0000000000000000        0x0 .build/obj_3key_default/protocol/lufa/usb_util.o
 .data          0x0000000000000000        0x0 .build/obj_3key_default/protocol/lufa/usb_util.o
 .bss           0x0000000000000000        0x0 .build/obj_3key_default/protocol/lufa/usb_util.o
 .text.usb_disconnect
                0x0000000000000000        0xa .build/obj_3key_default/protocol/lufa/usb_util.o
 .text.usb_connected_state
                0x0000000000000000        0xc .build/obj_3key_default/protocol/lufa/usb_util.o
 .text.usb_vbus_state
                0x0000000000000000       0x1a .build/obj_3key_default/protocol/lufa/usb_util.o
 .debug_info    0x0000000000000000      0x27f .build/obj_3key_default/protocol/lufa/usb_util.o
 .debug_abbrev  0x0000000000000000      0x1c0 .build/obj_3key_default/protocol/lufa/usb_util.o
 .debug_loc     0x0000000000000000       0x4b .build/obj_3key_default/protocol/lufa/usb_util.o
 .debug_aranges
                0x0000000000000000       0x30 .build/obj_3key_default/protocol/lufa/usb_util.o
 .debug_ranges  0x0000000000000000       0x20 .build/obj_3key_default/protocol/lufa/usb_util.o
 .debug_line    0x0000000000000000      0x297 .build/obj_3key_default/protocol/lufa/usb_util.o
 .debug_str     0x0000000000000000      0x331 .build/obj_3key_default/protocol/lufa/usb_util.o
 .comment       0x0000000000000000       0x13 .build/obj_3key_default/protocol/lufa/usb_util.o
 .debug_frame   0x0000000000000000       0x44 .build/obj_3key_default/protocol/lufa/usb_util.o
 .text          0x0000000000000000        0x0 /usr/lib/gcc/avr/11.2.0/../../../../avr/lib/avr5/libm.a(fixunssfsi.o)
 .data          0x0000000000000000        0x0 /usr/lib/gcc/avr/11.2.0/../../../../avr/lib/avr5/libm.a(fixunssfsi.o)
 .bss           0x0000000000000000        0x0 /usr/lib/gcc/avr/11.2.0/../../../../avr/lib/avr5/libm.a(fixunssfsi.o)
 .text.avr-libc.fplib
                0x0000000000000000       0x5e /usr/lib/gcc/avr/11.2.0/../../../../avr/lib/avr5/libm.a(fixunssfsi.o)
 .text          0x0000000000000000        0x0 /usr/lib/gcc/avr/11.2.0/../../../../avr/lib/avr5/libm.a(fp_split3.o)
 .data          0x0000000000000000        0x0 /usr/lib/gcc/avr/11.2.0/../../../../avr/lib/avr5/libm.a(fp_split3.o)
 .bss           0x0000000000000000        0x0 /usr/lib/gcc/avr/11.2.0/../../../../avr/lib/avr5/libm.a(fp_split3.o)
 .text.avr-libc.fplib
                0x0000000000000000       0x44 /usr/lib/gcc/avr/11.2.0/../../../../avr/lib/avr5/libm.a(fp_split3.o)
 .text          0x0000000000000000        0x0 /usr/lib/gcc/avr/11.2.0/../../../../avr/lib/avr5/libm.a(fp_zero.o)
 .data          0x0000000000000000        0x0 /usr/lib/gcc/avr/11.2.0/../../../../avr/lib/avr5/libm.a(fp_zero.o)
 .bss           0x0000000000000000        0x0 /usr/lib/gcc/avr/11.2.0/../../../../avr/lib/avr5/libm.a(fp_zero.o)
 .text.avr-libc.fplib
                0x0000000000000000        0xe /usr/lib/gcc/avr/11.2.0/../../../../avr/lib/avr5/libm.a(fp_zero.o)
 .text          0x0000000000000000        0x0 /usr/lib/gcc/avr/11.2.0/../../../../avr/lib/avr5/libm.a(mulsf3.o)
 .data          0x0000000000000000        0x0 /usr/lib/gcc/avr/11.2.0/../../../../avr/lib/avr5/libm.a(mulsf3.o)
 .bss           0x0000000000000000        0x0 /usr/lib/gcc/avr/11.2.0/../../../../avr/lib/avr5/libm.a(mulsf3.o)
 .text.avr-libc.fplib
                0x0000000000000000        0x8 /usr/lib/gcc/avr/11.2.0/../../../../avr/lib/avr5/libm.a(mulsf3.o)
 .text          0x0000000000000000        0x0 /usr/lib/gcc/avr/11.2.0/../../../../avr/lib/avr5/libm.a(mulsf3x.o)
 .data          0x0000000000000000        0x0 /usr/lib/gcc/avr/11.2.0/../../../../avr/lib/avr5/libm.a(mulsf3x.o)
 .bss           0x0000000000000000        0x0 /usr/lib/gcc/avr/11.2.0/../../../../avr/lib/avr5/libm.a(mulsf3x.o)
 .text.avr-libc.fplib
                0x0000000000000000       0xd2 /usr/lib/gcc/avr/11.2.0/../../../../avr/lib/avr5/libm.a(mulsf3x.o)
 .text          0x0000000000000000        0x0 /usr/lib/gcc/avr/11.2.0/../../../../avr/lib/avr5/libm.a(fp_inf.o)
 .data          0x0000000000000000        0x0 /usr/lib/gcc/avr/11.2.0/../../../../avr/lib/avr5/libm.a(fp_inf.o)
 .bss           0x0000000000000000        0x0 /usr/lib/gcc/avr/11.2.0/../../../../avr/lib/avr5/libm.a(fp_inf.o)
 .text.avr-libc.fplib
                0x0000000000000000        0xc /usr/lib/gcc/avr/11.2.0/../../../../avr/lib/avr5/libm.a(fp_inf.o)
 .text          0x0000000000000000        0x0 /usr/lib/gcc/avr/11.2.0/../../../../avr/lib/avr5/libm.a(fp_nan.o)
 .data          0x0000000000000000        0x0 /usr/lib/gcc/avr/11.2.0/../../../../avr/lib/avr5/libm.a(fp_nan.o)
 .bss           0x0000000000000000        0x0 /usr/lib/gcc/avr/11.2.0/../../../../avr/lib/avr5/libm.a(fp_nan.o)
 .text.avr-libc.fplib
                0x0000000000000000        0x6 /usr/lib/gcc/avr/11.2.0/../../../../avr/lib/avr5/libm.a(fp_nan.o)
 .text          0x0000000000000000        0x0 /usr/lib/gcc/avr/11.2.0/../../../../avr/lib/avr5/libm.a(fp_pscA.o)
 .data          0x0000000000000000        0x0 /usr/lib/gcc/avr/11.2.0/../../../../avr/lib/avr5/libm.a(fp_pscA.o)
 .bss           0x0000000000000000        0x0 /usr/lib/gcc/avr/11.2.0/../../../../avr/lib/avr5/libm.a(fp_pscA.o)
 .text.avr-libc.fplib
                0x0000000000000000        0xe /usr/lib/gcc/avr/11.2.0/../../../../avr/lib/avr5/libm.a(fp_pscA.o)
 .text          0x0000000000000000        0x0 /usr/lib/gcc/avr/11.2.0/../../../../avr/lib/avr5/libm.a(fp_pscB.o)
 .data          0x0000000000000000        0x0 /usr/lib/gcc/avr/11.2.0/../../../../avr/lib/avr5/libm.a(fp_pscB.o)
 .bss           0x0000000000000000        0x0 /usr/lib/gcc/avr/11.2.0/../../../../avr/lib/avr5/libm.a(fp_pscB.o)
 .text.avr-libc.fplib
                0x0000000000000000        0xe /usr/lib/gcc/avr/11.2.0/../../../../avr/lib/avr5/libm.a(fp_pscB.o)
 .text          0x0000000000000000        0x0 /usr/lib/gcc/avr/11.2.0/../../../../avr/lib/avr5/libm.a(fp_round.o)
 .data          0x0000000000000000        0x0 /usr/lib/gcc/avr/11.2.0/../../../../avr/lib/avr5/libm.a(fp_round.o)
 .bss           0x0000000000000000        0x0 /usr/lib/gcc/avr/11.2.0/../../../../avr/lib/avr5/libm.a(fp_round.o)
 .text.avr-libc.fplib
                0x0000000000000000       0x22 /usr/lib/gcc/avr/11.2.0/../../../../avr/lib/avr5/libm.a(fp_round.o)
 .text          0x0000000000000000        0x0 /usr/lib/gcc/avr/11.2.0/avr5/libgcc.a(_mulsi3.o)
 .data          0x0000000000000000        0x0 /usr/lib/gcc/avr/11.2.0/avr5/libgcc.a(_mulsi3.o)
 .bss           0x0000000000000000        0x0 /usr/lib/gcc/avr/11.2.0/avr5/libgcc.a(_mulsi3.o)
 .text.libgcc.div
                0x0000000000000000        0x0 /usr/lib/gcc/avr/11.2.0/avr5/libgcc.a(_mulsi3.o)
 .text.libgcc   0x0000000000000000        0x0 /usr/lib/gcc/avr/11.2.0/avr5/libgcc.a(_mulsi3.o)
 .text.libgcc.prologue
                0x0000000000000000        0x0 /usr/lib/gcc/avr/11.2.0/avr5/libgcc.a(_mulsi3.o)
 .text.libgcc.builtins
                0x0000000000000000        0x0 /usr/lib/gcc/avr/11.2.0/avr5/libgcc.a(_mulsi3.o)
 .text.libgcc.fmul
                0x0000000000000000        0x0 /usr/lib/gcc/avr/11.2.0/avr5/libgcc.a(_mulsi3.o)
 .text.libgcc.fixed
                0x0000000000000000        0x0 /usr/lib/gcc/avr/11.2.0/avr5/libgcc.a(_mulsi3.o)
 .text          0x0000000000000000        0x0 /usr/lib/gcc/avr/11.2.0/avr5/libgcc.a(_udivmodhi4.o)
 .data          0x0000000000000000        0x0 /usr/lib/gcc/avr/11.2.0/avr5/libgcc.a(_udivmodhi4.o)
 .bss           0x0000000000000000        0x0 /usr/lib/gcc/avr/11.2.0/avr5/libgcc.a(_udivmodhi4.o)
 .text.libgcc.mul
                0x0000000000000000        0x0 /usr/lib/gcc/avr/11.2.0/avr5/libgcc.a(_udivmodhi4.o)
 .text.libgcc   0x0000000000000000        0x0 /usr/lib/gcc/avr/11.2.0/avr5/libgcc.a(_udivmodhi4.o)
 .text.libgcc.prologue
                0x0000000000000000        0x0 /usr/lib/gcc/avr/11.2.0/avr5/libgcc.a(_udivmodhi4.o)
 .text.libgcc.builtins
                0x0000000000000000        0x0 /usr/lib/gcc/avr/11.2.0/avr5/libgcc.a(_udivmodhi4.o)
 .text.libgcc.fmul
                0x0000000000000000        0x0 /usr/lib/gcc/avr/11.2.0/avr5/libgcc.a(_udivmodhi4.o)
 .text.libgcc.fixed
                0x0000000000000000        0x0 /usr/lib/gcc/avr/11.2.0/avr5/libgcc.a(_udivmodhi4.o)
 .text          0x0000000000000000        0x0 /usr/lib/gcc/avr/11.2.0/avr5/libgcc.a(_divmodhi4.o)
 .data          0x0000000000000000        0x0 /usr/lib/gcc/avr/11.2.0/avr5/libgcc.a(_divmodhi4.o)
 .bss           0x0000000000000000        0x0 /usr/lib/gcc/avr/11.2.0/avr5/libgcc.a(_divmodhi4.o)
 .text.libgcc.mul
                0x0000000000000000        0x0 /usr/lib/gcc/avr/11.2.0/avr5/libgcc.a(_divmodhi4.o)
 .text.libgcc   0x0000000000000000        0x0 /usr/lib/gcc/avr/11.2.0/avr5/libgcc.a(_divmodhi4.o)
 .text.libgcc.prologue
                0x0000000000000000        0x0 /usr/lib/gcc/avr/11.2.0/avr5/libgcc.a(_divmodhi4.o)
 .text.libgcc.builtins
                0x0000000000000000        0x0 /usr/lib/gcc/avr/11.2.0/avr5/libgcc.a(_divmodhi4.o)
 .text.libgcc.fmul
                0x0000000000000000        0x0 /usr/lib/gcc/avr/11.2.0/avr5/libgcc.a(_divmodhi4.o)
 .text.libgcc.fixed
                0x0000000000000000        0x0 /usr/lib/gcc/avr/11.2.0/avr5/libgcc.a(_divmodhi4.o)
 .text          0x0000000000000000        0x0 /usr/lib/gcc/avr/11.2.0/avr5/libgcc.a(_udivmodsi4.o)
 .data          0x0000000000000000        0x0 /usr/lib/gcc/avr/11.2.0/avr5/libgcc.a(_udivmodsi4.o)
 .bss           0x0000000000000000        0x0 /usr/lib/gcc/avr/11.2.0/avr5/libgcc.a(_udivmodsi4.o)
 .text.libgcc.mul
                0x0000000000000000        0x0 /usr/lib/gcc/avr/11.2.0/avr5/libgcc.a(_udivmodsi4.o)
 .text.libgcc   0x0000000000000000        0x0 /usr/lib/gcc/avr/11.2.0/avr5/libgcc.a(_udivmodsi4.o)
 .text.libgcc.prologue
                0x0000000000000000        0x0 /usr/lib/gcc/avr/11.2.0/avr5/libgcc.a(_udivmodsi4.o)
 .text.libgcc.builtins
                0x0000000000000000        0x0 /usr/lib/gcc/avr/11.2.0/avr5/libgcc.a(_udivmodsi4.o)
 .text.libgcc.fmul
                0x0000000000000000        0x0 /usr/lib/gcc/avr/11.2.0/avr5/libgcc.a(_udivmodsi4.o)
 .text.libgcc.fixed
                0x0000000000000000        0x0 /usr/lib/gcc/avr/11.2.0/avr5/libgcc.a(_udivmodsi4.o)
 .text          0x0000000000000000        0x0 /usr/lib/gcc/avr/11.2.0/avr5/libgcc.a(_exit.o)
 .data          0x0000000000000000        0x0 /usr/lib/gcc/avr/11.2.0/avr5/libgcc.a(_exit.o)
 .bss           0x0000000000000000        0x0 /usr/lib/gcc/avr/11.2.0/avr5/libgcc.a(_exit.o)
 .text.libgcc.mul
                0x0000000000000000        0x0 /usr/lib/gcc/avr/11.2.0/avr5/libgcc.a(_exit.o)
 .text.libgcc.div
                0x0000000000000000        0x0 /usr/lib/gcc/avr/11.2.0/avr5/libgcc.a(_exit.o)
 .text.libgcc   0x0000000000000000        0x0 /usr/lib/gcc/avr/11.2.0/avr5/libgcc.a(_exit.o)
 .text.libgcc.prologue
                0x0000000000000000        0x0 /usr/lib/gcc/avr/11.2.0/avr5/libgcc.a(_exit.o)
 .text.libgcc.builtins
                0x0000000000000000        0x0 /usr/lib/gcc/avr/11.2.0/avr5/libgcc.a(_exit.o)
 .text.libgcc.fmul
                0x0000000000000000        0x0 /usr/lib/gcc/avr/11.2.0/avr5/libgcc.a(_exit.o)
 .text.libgcc.fixed
                0x0000000000000000        0x0 /usr/lib/gcc/avr/11.2.0/avr5/libgcc.a(_exit.o)
 .text          0x0000000000000000        0x0 /usr/lib/gcc/avr/11.2.0/avr5/libgcc.a(_tablejump2.o)
 .data          0x0000000000000000        0x0 /usr/lib/gcc/avr/11.2.0/avr5/libgcc.a(_tablejump2.o)
 .bss           0x0000000000000000        0x0 /usr/lib/gcc/avr/11.2.0/avr5/libgcc.a(_tablejump2.o)
 .text.libgcc.mul
                0x0000000000000000        0x0 /usr/lib/gcc/avr/11.2.0/avr5/libgcc.a(_tablejump2.o)
 .text.libgcc.div
                0x0000000000000000        0x0 /usr/lib/gcc/avr/11.2.0/avr5/libgcc.a(_tablejump2.o)
 .text.libgcc.prologue
                0x0000000000000000        0x0 /usr/lib/gcc/avr/11.2.0/avr5/libgcc.a(_tablejump2.o)
 .text.libgcc.builtins
                0x0000000000000000        0x0 /usr/lib/gcc/avr/11.2.0/avr5/libgcc.a(_tablejump2.o)
 .text.libgcc.fmul
                0x0000000000000000        0x0 /usr/lib/gcc/avr/11.2.0/avr5/libgcc.a(_tablejump2.o)
 .text.libgcc.fixed
                0x0000000000000000        0x0 /usr/lib/gcc/avr/11.2.0/avr5/libgcc.a(_tablejump2.o)
 .text          0x0000000000000000        0x0 /usr/lib/gcc/avr/11.2.0/avr5/libgcc.a(_copy_data.o)
 .data          0x0000000000000000        0x0 /usr/lib/gcc/avr/11.2.0/avr5/libgcc.a(_copy_data.o)
 .bss           0x0000000000000000        0x0 /usr/lib/gcc/avr/11.2.0/avr5/libgcc.a(_copy_data.o)
 .text.libgcc.mul
                0x0000000000000000        0x0 /usr/lib/gcc/avr/11.2.0/avr5/libgcc.a(_copy_data.o)
 .text.libgcc.div
                0x0000000000000000        0x0 /usr/lib/gcc/avr/11.2.0/avr5/libgcc.a(_copy_data.o)
 .text.libgcc   0x0000000000000000        0x0 /usr/lib/gcc/avr/11.2.0/avr5/libgcc.a(_copy_data.o)
 .text.libgcc.prologue
                0x0000000000000000        0x0 /usr/lib/gcc/avr/11.2.0/avr5/libgcc.a(_copy_data.o)
 .text.libgcc.builtins
                0x0000000000000000        0x0 /usr/lib/gcc/avr/11.2.0/avr5/libgcc.a(_copy_data.o)
 .text.libgcc.fmul
                0x0000000000000000        0x0 /usr/lib/gcc/avr/11.2.0/avr5/libgcc.a(_copy_data.o)
 .text.libgcc.fixed
                0x0000000000000000        0x0 /usr/lib/gcc/avr/11.2.0/avr5/libgcc.a(_copy_data.o)
 .text          0x0000000000000000        0x0 /usr/lib/gcc/avr/11.2.0/avr5/libgcc.a(_clear_bss.o)
 .data          0x0000000000000000        0x0 /usr/lib/gcc/avr/11.2.0/avr5/libgcc.a(_clear_bss.o)
 .bss           0x0000000000000000        0x0 /usr/lib/gcc/avr/11.2.0/avr5/libgcc.a(_clear_bss.o)
 .text.libgcc.mul
                0x0000000000000000        0x0 /usr/lib/gcc/avr/11.2.0/avr5/libgcc.a(_clear_bss.o)
 .text.libgcc.div
                0x0000000000000000        0x0 /usr/lib/gcc/avr/11.2.0/avr5/libgcc.a(_clear_bss.o)
 .text.libgcc   0x0000000000000000        0x0 /usr/lib/gcc/avr/11.2.0/avr5/libgcc.a(_clear_bss.o)
 .text.libgcc.prologue
                0x0000000000000000        0x0 /usr/lib/gcc/avr/11.2.0/avr5/libgcc.a(_clear_bss.o)
 .text.libgcc.builtins
                0x0000000000000000        0x0 /usr/lib/gcc/avr/11.2.0/avr5/libgcc.a(_clear_bss.o)
 .text.libgcc.fmul
                0x0000000000000000        0x0 /usr/lib/gcc/avr/11.2.0/avr5/libgcc.a(_clear_bss.o)
 .text.libgcc.fixed
                0x0000000000000000        0x0 /usr/lib/gcc/avr/11.2.0/avr5/libgcc.a(_clear_bss.o)
 .text          0x0000000000000000        0x0 /usr/lib/gcc/avr/11.2.0/avr5/libgcc.a(_popcounthi2.o)
 .data          0x0000000000000000        0x0 /usr/lib/gcc/avr/11.2.0/avr5/libgcc.a(_popcounthi2.o)
 .bss           0x0000000000000000        0x0 /usr/lib/gcc/avr/11.2.0/avr5/libgcc.a(_popcounthi2.o)
 .text.libgcc.mul
                0x0000000000000000        0x0 /usr/lib/gcc/avr/11.2.0/avr5/libgcc.a(_popcounthi2.o)
 .text.libgcc.div
                0x0000000000000000        0x0 /usr/lib/gcc/avr/11.2.0/avr5/libgcc.a(_popcounthi2.o)
 .text.libgcc   0x0000000000000000        0x0 /usr/lib/gcc/avr/11.2.0/avr5/libgcc.a(_popcounthi2.o)
 .text.libgcc.prologue
                0x0000000000000000        0x0 /usr/lib/gcc/avr/11.2.0/avr5/libgcc.a(_popcounthi2.o)
 .text.libgcc.builtins
                0x0000000000000000       0x14 /usr/lib/gcc/avr/11.2.0/avr5/libgcc.a(_popcounthi2.o)
 .text.libgcc.fmul
                0x0000000000000000        0x0 /usr/lib/gcc/avr/11.2.0/avr5/libgcc.a(_popcounthi2.o)
 .text.libgcc.fixed
                0x0000000000000000        0x0 /usr/lib/gcc/avr/11.2.0/avr5/libgcc.a(_popcounthi2.o)
 .text          0x0000000000000000        0x0 /usr/lib/gcc/avr/11.2.0/avr5/libgcc.a(_popcountsi2.o)
 .data          0x0000000000000000        0x0 /usr/lib/gcc/avr/11.2.0/avr5/libgcc.a(_popcountsi2.o)
 .bss           0x0000000000000000        0x0 /usr/lib/gcc/avr/11.2.0/avr5/libgcc.a(_popcountsi2.o)
 .text.libgcc.mul
                0x0000000000000000        0x0 /usr/lib/gcc/avr/11.2.0/avr5/libgcc.a(_popcountsi2.o)
 .text.libgcc.div
                0x0000000000000000        0x0 /usr/lib/gcc/avr/11.2.0/avr5/libgcc.a(_popcountsi2.o)
 .text.libgcc   0x0000000000000000        0x0 /usr/lib/gcc/avr/11.2.0/avr5/libgcc.a(_popcountsi2.o)
 .text.libgcc.prologue
                0x0000000000000000        0x0 /usr/lib/gcc/avr/11.2.0/avr5/libgcc.a(_popcountsi2.o)
 .text.libgcc.builtins
                0x0000000000000000       0x10 /usr/lib/gcc/avr/11.2.0/avr5/libgcc.a(_popcountsi2.o)
 .text.libgcc.fmul
                0x0000000000000000        0x0 /usr/lib/gcc/avr/11.2.0/avr5/libgcc.a(_popcountsi2.o)
 .text.libgcc.fixed
                0x0000000000000000        0x0 /usr/lib/gcc/avr/11.2.0/avr5/libgcc.a(_popcountsi2.o)
 .text          0x0000000000000000        0x0 /usr/lib/gcc/avr/11.2.0/avr5/libgcc.a(_popcountqi2.o)
 .data          0x0000000000000000        0x0 /usr/lib/gcc/avr/11.2.0/avr5/libgcc.a(_popcountqi2.o)
 .bss           0x0000000000000000        0x0 /usr/lib/gcc/avr/11.2.0/avr5/libgcc.a(_popcountqi2.o)
 .text.libgcc.mul
                0x0000000000000000        0x0 /usr/lib/gcc/avr/11.2.0/avr5/libgcc.a(_popcountqi2.o)
 .text.libgcc.div
                0x0000000000000000        0x0 /usr/lib/gcc/avr/11.2.0/avr5/libgcc.a(_popcountqi2.o)
 .text.libgcc   0x0000000000000000        0x0 /usr/lib/gcc/avr/11.2.0/avr5/libgcc.a(_popcountqi2.o)
 .text.libgcc.prologue
                0x0000000000000000        0x0 /usr/lib/gcc/avr/11.2.0/avr5/libgcc.a(_popcountqi2.o)
 .text.libgcc.builtins
                0x0000000000000000       0x20 /usr/lib/gcc/avr/11.2.0/avr5/libgcc.a(_popcountqi2.o)
 .text.libgcc.fmul
                0x0000000000000000        0x0 /usr/lib/gcc/avr/11.2.0/avr5/libgcc.a(_popcountqi2.o)
 .text.libgcc.fixed
                0x0000000000000000        0x0 /usr/lib/gcc/avr/11.2.0/avr5/libgcc.a(_popcountqi2.o)
 .text          0x0000000000000000        0x0 /usr/lib/gcc/avr/11.2.0/avr5/libgcc.a(_mulhisi3.o)
 .data          0x0000000000000000        0x0 /usr/lib/gcc/avr/11.2.0/avr5/libgcc.a(_mulhisi3.o)
 .bss           0x0000000000000000        0x0 /usr/lib/gcc/avr/11.2.0/avr5/libgcc.a(_mulhisi3.o)
 .text.libgcc.div
                0x0000000000000000        0x0 /usr/lib/gcc/avr/11.2.0/avr5/libgcc.a(_mulhisi3.o)
 .text.libgcc   0x0000000000000000        0x0 /usr/lib/gcc/avr/11.2.0/avr5/libgcc.a(_mulhisi3.o)
 .text.libgcc.prologue
                0x0000000000000000        0x0 /usr/lib/gcc/avr/11.2.0/avr5/libgcc.a(_mulhisi3.o)
 .text.libgcc.builtins
                0x0000000000000000        0x0 /usr/lib/gcc/avr/11.2.0/avr5/libgcc.a(_mulhisi3.o)
 .text.libgcc.fmul
                0x0000000000000000        0x0 /usr/lib/gcc/avr/11.2.0/avr5/libgcc.a(_mulhisi3.o)
 .text.libgcc.fixed
                0x0000000000000000        0x0 /usr/lib/gcc/avr/11.2.0/avr5/libgcc.a(_mulhisi3.o)
 .text          0x0000000000000000        0x0 /usr/lib/gcc/avr/11.2.0/avr5/libgcc.a(_umulhisi3.o)
 .data          0x0000000000000000        0x0 /usr/lib/gcc/avr/11.2.0/avr5/libgcc.a(_umulhisi3.o)
 .bss           0x0000000000000000        0x0 /usr/lib/gcc/avr/11.2.0/avr5/libgcc.a(_umulhisi3.o)
 .text.libgcc.div
                0x0000000000000000        0x0 /usr/lib/gcc/avr/11.2.0/avr5/libgcc.a(_umulhisi3.o)
 .text.libgcc   0x0000000000000000        0x0 /usr/lib/gcc/avr/11.2.0/avr5/libgcc.a(_umulhisi3.o)
 .text.libgcc.prologue
                0x0000000000000000        0x0 /usr/lib/gcc/avr/11.2.0/avr5/libgcc.a(_umulhisi3.o)
 .text.libgcc.builtins
                0x0000000000000000        0x0 /usr/lib/gcc/avr/11.2.0/avr5/libgcc.a(_umulhisi3.o)
 .text.libgcc.fmul
                0x0000000000000000        0x0 /usr/lib/gcc/avr/11.2.0/avr5/libgcc.a(_umulhisi3.o)
 .text.libgcc.fixed
                0x0000000000000000        0x0 /usr/lib/gcc/avr/11.2.0/avr5/libgcc.a(_umulhisi3.o)
 .text          0x0000000000000000        0x0 /usr/lib/gcc/avr/11.2.0/avr5/libgcc.a(_usmulhisi3.o)
 .data          0x0000000000000000        0x0 /usr/lib/gcc/avr/11.2.0/avr5/libgcc.a(_usmulhisi3.o)
 .bss           0x0000000000000000        0x0 /usr/lib/gcc/avr/11.2.0/avr5/libgcc.a(_usmulhisi3.o)
 .text.libgcc.div
                0x0000000000000000        0x0 /usr/lib/gcc/avr/11.2.0/avr5/libgcc.a(_usmulhisi3.o)
 .text.libgcc   0x0000000000000000        0x0 /usr/lib/gcc/avr/11.2.0/avr5/libgcc.a(_usmulhisi3.o)
 .text.libgcc.prologue
                0x0000000000000000        0x0 /usr/lib/gcc/avr/11.2.0/avr5/libgcc.a(_usmulhisi3.o)
 .text.libgcc.builtins
                0x0000000000000000        0x0 /usr/lib/gcc/avr/11.2.0/avr5/libgcc.a(_usmulhisi3.o)
 .text.libgcc.fmul
                0x0000000000000000        0x0 /usr/lib/gcc/avr/11.2.0/avr5/libgcc.a(_usmulhisi3.o)
 .text.libgcc.fixed
                0x0000000000000000        0x0 /usr/lib/gcc/avr/11.2.0/avr5/libgcc.a(_usmulhisi3.o)
 .text          0x0000000000000000        0x0 /usr/lib/gcc/avr/11.2.0/avr5/libgcc.a(_muluhisi3.o)
 .data          0x0000000000000000        0x0 /usr/lib/gcc/avr/11.2.0/avr5/libgcc.a(_muluhisi3.o)
 .bss           0x0000000000000000        0x0 /usr/lib/gcc/avr/11.2.0/avr5/libgcc.a(_muluhisi3.o)
 .text.libgcc.div
                0x0000000000000000        0x0 /usr/lib/gcc/avr/11.2.0/avr5/libgcc.a(_muluhisi3.o)
 .text.libgcc   0x0000000000000000        0x0 /usr/lib/gcc/avr/11.2.0/avr5/libgcc.a(_muluhisi3.o)
 .text.libgcc.prologue
                0x0000000000000000        0x0 /usr/lib/gcc/avr/11.2.0/avr5/libgcc.a(_muluhisi3.o)
 .text.libgcc.builtins
                0x0000000000000000        0x0 /usr/lib/gcc/avr/11.2.0/avr5/libgcc.a(_muluhisi3.o)
 .text.libgcc.fmul
                0x0000000000000000        0x0 /usr/lib/gcc/avr/11.2.0/avr5/libgcc.a(_muluhisi3.o)
 .text.libgcc.fixed
                0x0000000000000000        0x0 /usr/lib/gcc/avr/11.2.0/avr5/libgcc.a(_muluhisi3.o)
 .text          0x0000000000000000        0x0 /usr/lib/gcc/avr/11.2.0/avr5/libgcc.a(_mulshisi3.o)
 .data          0x0000000000000000        0x0 /usr/lib/gcc/avr/11.2.0/avr5/libgcc.a(_mulshisi3.o)
 .bss           0x0000000000000000        0x0 /usr/lib/gcc/avr/11.2.0/avr5/libgcc.a(_mulshisi3.o)
 .text.libgcc.div
                0x0000000000000000        0x0 /usr/lib/gcc/avr/11.2.0/avr5/libgcc.a(_mulshisi3.o)
 .text.libgcc   0x0000000000000000        0x0 /usr/lib/gcc/avr/11.2.0/avr5/libgcc.a(_mulshisi3.o)
 .text.libgcc.prologue
                0x0000000000000000        0x0 /usr/lib/gcc/avr/11.2.0/avr5/libgcc.a(_mulshisi3.o)
 .text.libgcc.builtins
                0x0000000000000000        0x0 /usr/lib/gcc/avr/11.2.0/avr5/libgcc.a(_mulshisi3.o)
 .text.libgcc.fmul
                0x0000000000000000        0x0 /usr/lib/gcc/avr/11.2.0/avr5/libgcc.a(_mulshisi3.o)
 .text.libgcc.fixed
                0x0000000000000000        0x0 /usr/lib/gcc/avr/11.2.0/avr5/libgcc.a(_mulshisi3.o)
 .text          0x0000000000000000        0x0 /usr/lib/gcc/avr/11.2.0/../../../../avr/lib/avr5/libc.a(memcpy_P.o)
 .data          0x0000000000000000        0x0 /usr/lib/gcc/avr/11.2.0/../../../../avr/lib/avr5/libc.a(memcpy_P.o)
 .bss           0x0000000000000000        0x0 /usr/lib/gcc/avr/11.2.0/../../../../avr/lib/avr5/libc.a(memcpy_P.o)
 .text          0x0000000000000000        0x0 /usr/lib/gcc/avr/11.2.0/../../../../avr/lib/avr5/libc.a(memchr.o)
 .data          0x0000000000000000        0x0 /usr/lib/gcc/avr/11.2.0/../../../../avr/lib/avr5/libc.a(memchr.o)
 .bss           0x0000000000000000        0x0 /usr/lib/gcc/avr/11.2.0/../../../../avr/lib/avr5/libc.a(memchr.o)
 .text          0x0000000000000000        0x0 /usr/lib/gcc/avr/11.2.0/../../../../avr/lib/avr5/libc.a(memmove.o)
 .data          0x0000000000000000        0x0 /usr/lib/gcc/avr/11.2.0/../../../../avr/lib/avr5/libc.a(memmove.o)
 .bss           0x0000000000000000        0x0 /usr/lib/gcc/avr/11.2.0/../../../../avr/lib/avr5/libc.a(memmove.o)
 .text.avr-libc
                0x0000000000000000       0x24 /usr/lib/gcc/avr/11.2.0/../../../../avr/lib/avr5/libc.a(memmove.o)
 .text          0x0000000000000000        0x0 /usr/lib/gcc/avr/11.2.0/../../../../avr/lib/avr5/libc.a(memcpy.o)
 .data          0x0000000000000000        0x0 /usr/lib/gcc/avr/11.2.0/../../../../avr/lib/avr5/libc.a(memcpy.o)
 .bss           0x0000000000000000        0x0 /usr/lib/gcc/avr/11.2.0/../../../../avr/lib/avr5/libc.a(memcpy.o)
 .text.avr-libc
                0x0000000000000000       0x12 /usr/lib/gcc/avr/11.2.0/../../../../avr/lib/avr5/libc.a(memcpy.o)
 .text          0x0000000000000000        0x0 /usr/lib/gcc/avr/11.2.0/../../../../avr/lib/avr5/libatmega32u4.a(eerd_byte.o)
 .data          0x0000000000000000        0x0 /usr/lib/gcc/avr/11.2.0/../../../../avr/lib/avr5/libatmega32u4.a(eerd_byte.o)
 .bss           0x0000000000000000        0x0 /usr/lib/gcc/avr/11.2.0/../../../../avr/lib/avr5/libatmega32u4.a(eerd_byte.o)
 .text          0x0000000000000000        0x0 /usr/lib/gcc/avr/11.2.0/../../../../avr/lib/avr5/libatmega32u4.a(eerd_dword.o)
 .data          0x0000000000000000        0x0 /usr/lib/gcc/avr/11.2.0/../../../../avr/lib/avr5/libatmega32u4.a(eerd_dword.o)
 .bss           0x0000000000000000        0x0 /usr/lib/gcc/avr/11.2.0/../../../../avr/lib/avr5/libatmega32u4.a(eerd_dword.o)
 .text          0x0000000000000000        0x0 /usr/lib/gcc/avr/11.2.0/../../../../avr/lib/avr5/libatmega32u4.a(eerd_word.o)
 .data          0x0000000000000000        0x0 /usr/lib/gcc/avr/11.2.0/../../../../avr/lib/avr5/libatmega32u4.a(eerd_word.o)
 .bss           0x0000000000000000        0x0 /usr/lib/gcc/avr/11.2.0/../../../../avr/lib/avr5/libatmega32u4.a(eerd_word.o)
 .text          0x0000000000000000        0x0 /usr/lib/gcc/avr/11.2.0/../../../../avr/lib/avr5/libatmega32u4.a(eeupd_byte.o)
 .data          0x0000000000000000        0x0 /usr/lib/gcc/avr/11.2.0/../../../../avr/lib/avr5/libatmega32u4.a(eeupd_byte.o)
 .bss           0x0000000000000000        0x0 /usr/lib/gcc/avr/11.2.0/../../../../avr/lib/avr5/libatmega32u4.a(eeupd_byte.o)
 .text          0x0000000000000000        0x0 /usr/lib/gcc/avr/11.2.0/../../../../avr/lib/avr5/libatmega32u4.a(eeupd_dword.o)
 .data          0x0000000000000000        0x0 /usr/lib/gcc/avr/11.2.0/../../../../avr/lib/avr5/libatmega32u4.a(eeupd_dword.o)
 .bss           0x0000000000000000        0x0 /usr/lib/gcc/avr/11.2.0/../../../../avr/lib/avr5/libatmega32u4.a(eeupd_dword.o)
 .text          0x0000000000000000        0x0 /usr/lib/gcc/avr/11.2.0/../../../../avr/lib/avr5/libatmega32u4.a(eeupd_word.o)
 .data          0x0000000000000000        0x0 /usr/lib/gcc/avr/11.2.0/../../../../avr/lib/avr5/libatmega32u4.a(eeupd_word.o)
 .bss           0x0000000000000000        0x0 /usr/lib/gcc/avr/11.2.0/../../../../avr/lib/avr5/libatmega32u4.a(eeupd_word.o)
 .text          0x0000000000000000        0x0 /usr/lib/gcc/avr/11.2.0/../../../../avr/lib/avr5/libatmega32u4.a(eerd_block.o)
 .data          0x0000000000000000        0x0 /usr/lib/gcc/avr/11.2.0/../../../../avr/lib/avr5/libatmega32u4.a(eerd_block.o)
 .bss           0x0000000000000000        0x0 /usr/lib/gcc/avr/11.2.0/../../../../avr/lib/avr5/libatmega32u4.a(eerd_block.o)

Memory Configuration

Name             Origin             Length             Attributes
text             0x0000000000000000 0x0000000000020000 xr
data             0x0000000000800060 0x000000000000ffa0 rw !x
eeprom           0x0000000000810000 0x0000000000010000 rw !x
fuse             0x0000000000820000 0x0000000000000400 rw !x
lock             0x0000000000830000 0x0000000000000400 rw !x
signature        0x0000000000840000 0x0000000000000400 rw !x
user_signatures  0x0000000000850000 0x0000000000000400 rw !x
*default*        0x0000000000000000 0xffffffffffffffff

Linker script and memory map

Address of section .data set to 0x800100
LOAD /usr/lib/gcc/avr/11.2.0/../../../../avr/lib/avr5/crtatmega32u4.o
LOAD .build/obj_3key_default/keyboards/3key/3key.o
LOAD .build/obj_3key_default/keyboards/3key/keymaps/default/keymap.o
LOAD .build/obj_3key_default/quantum/quantum.o
LOAD .build/obj_3key_default/quantum/send_string.o
LOAD .build/obj_3key_default/quantum/bitwise.o
LOAD .build/obj_3key_default/quantum/led.o
LOAD .build/obj_3key_default/quantum/action.o
LOAD .build/obj_3key_default/quantum/action_layer.o
LOAD .build/obj_3key_default/quantum/action_macro.o
LOAD .build/obj_3key_default/quantum/action_tapping.o
LOAD .build/obj_3key_default/quantum/action_util.o
LOAD .build/obj_3key_default/quantum/eeconfig.o
LOAD .build/obj_3key_default/quantum/keyboard.o
LOAD .build/obj_3key_default/quantum/keymap_common.o
LOAD .build/obj_3key_default/quantum/keycode_config.o
LOAD .build/obj_3key_default/quantum/logging/debug.o
LOAD .build/obj_3key_default/quantum/logging/sendchar.o
LOAD .build/obj_3key_default/quantum/bootmagic/bootmagic_lite.o
LOAD .build/obj_3key_default/quantum/bootmagic/magic.o
LOAD .build/obj_3key_default/quantum/matrix_common.o
LOAD .build/obj_3key_default/quantum/matrix.o
LOAD .build/obj_3key_default/quantum/debounce/sym_defer_g.o
LOAD .build/obj_3key_default/quantum/main.o
LOAD .build/obj_3key_default/quantum/mousekey.o
LOAD .build/obj_3key_default/quantum/color.o
LOAD .build/obj_3key_default/quantum/rgblight/rgblight.o
LOAD .build/obj_3key_default/quantum/process_keycode/process_rgb.o
LOAD .build/obj_3key_default/quantum/backlight/backlight.o
LOAD .build/obj_3key_default/quantum/process_keycode/process_backlight.o
LOAD .build/obj_3key_default/quantum/backlight/backlight_driver_common.o
LOAD .build/obj_3key_default/quantum/backlight/backlight_avr.o
LOAD .build/obj_3key_default/ws2812.o
LOAD .build/obj_3key_default/quantum/led_tables.o
LOAD .build/obj_3key_default/quantum/process_keycode/process_space_cadet.o
LOAD .build/obj_3key_default/quantum/process_keycode/process_magic.o
LOAD .build/obj_3key_default/quantum/process_keycode/process_grave_esc.o
LOAD .build/obj_3key_default/common/host.o
LOAD .build/obj_3key_default/common/report.o
LOAD .build/obj_3key_default/common/sync_timer.o
LOAD .build/obj_3key_default/common/usb_util.o
LOAD .build/obj_3key_default/common/avr/platform.o
LOAD .build/obj_3key_default/common/avr/suspend.o
LOAD .build/obj_3key_default/common/avr/timer.o
LOAD .build/obj_3key_default/common/avr/bootloader.o
LOAD .build/obj_3key_default/common/avr/xprintf.o
LOAD .build/obj_3key_default/common/avr/printf.o
LOAD .build/obj_3key_default/lufa.o
LOAD .build/obj_3key_default/usb_descriptor.o
LOAD .build/obj_3key_default/lib/lufa/LUFA/Drivers/USB/Class/Common/HIDParser.o
LOAD .build/obj_3key_default/lib/lufa/LUFA/Drivers/USB/Core/AVR8/Device_AVR8.o
LOAD .build/obj_3key_default/lib/lufa/LUFA/Drivers/USB/Core/AVR8/EndpointStream_AVR8.o
LOAD .build/obj_3key_default/lib/lufa/LUFA/Drivers/USB/Core/AVR8/Endpoint_AVR8.o
LOAD .build/obj_3key_default/lib/lufa/LUFA/Drivers/USB/Core/AVR8/Host_AVR8.o
LOAD .build/obj_3key_default/lib/lufa/LUFA/Drivers/USB/Core/AVR8/PipeStream_AVR8.o
LOAD .build/obj_3key_default/lib/lufa/LUFA/Drivers/USB/Core/AVR8/Pipe_AVR8.o
LOAD .build/obj_3key_default/lib/lufa/LUFA/Drivers/USB/Core/AVR8/USBController_AVR8.o
LOAD .build/obj_3key_default/lib/lufa/LUFA/Drivers/USB/Core/AVR8/USBInterrupt_AVR8.o
LOAD .build/obj_3key_default/lib/lufa/LUFA/Drivers/USB/Core/ConfigDescriptors.o
LOAD .build/obj_3key_default/lib/lufa/LUFA/Drivers/USB/Core/DeviceStandardReq.o
LOAD .build/obj_3key_default/lib/lufa/LUFA/Drivers/USB/Core/Events.o
LOAD .build/obj_3key_default/lib/lufa/LUFA/Drivers/USB/Core/HostStandardReq.o
LOAD .build/obj_3key_default/lib/lufa/LUFA/Drivers/USB/Core/USBTask.o
LOAD .build/obj_3key_default/protocol/lufa/usb_util.o
LOAD /usr/lib/gcc/avr/11.2.0/../../../../avr/lib/avr5/libm.a
START GROUP
LOAD /usr/lib/gcc/avr/11.2.0/avr5/libgcc.a
LOAD /usr/lib/gcc/avr/11.2.0/../../../../avr/lib/avr5/libm.a
LOAD /usr/lib/gcc/avr/11.2.0/../../../../avr/lib/avr5/libc.a
LOAD /usr/lib/gcc/avr/11.2.0/../../../../avr/lib/avr5/libatmega32u4.a
END GROUP
                0x0000000000020000                __TEXT_REGION_LENGTH__ = DEFINED (__TEXT_REGION_LENGTH__)?__TEXT_REGION_LENGTH__:0x20000
                0x000000000000ffa0                __DATA_REGION_LENGTH__ = DEFINED (__DATA_REGION_LENGTH__)?__DATA_REGION_LENGTH__:0xffa0
                0x0000000000010000                __EEPROM_REGION_LENGTH__ = DEFINED (__EEPROM_REGION_LENGTH__)?__EEPROM_REGION_LENGTH__:0x10000
                0x0000000000000400                __FUSE_REGION_LENGTH__ = DEFINED (__FUSE_REGION_LENGTH__)?__FUSE_REGION_LENGTH__:0x400
                0x0000000000000400                __LOCK_REGION_LENGTH__ = DEFINED (__LOCK_REGION_LENGTH__)?__LOCK_REGION_LENGTH__:0x400
                0x0000000000000400                __SIGNATURE_REGION_LENGTH__ = DEFINED (__SIGNATURE_REGION_LENGTH__)?__SIGNATURE_REGION_LENGTH__:0x400
                0x0000000000000400                __USER_SIGNATURE_REGION_LENGTH__ = DEFINED (__USER_SIGNATURE_REGION_LENGTH__)?__USER_SIGNATURE_REGION_LENGTH__:0x400

.hash
 *(.hash)

.dynsym
 *(.dynsym)

.dynstr
 *(.dynstr)

.gnu.version
 *(.gnu.version)

.gnu.version_d
 *(.gnu.version_d)

.gnu.version_r
 *(.gnu.version_r)

.rel.init
 *(.rel.init)

.rela.init
 *(.rela.init)

.rel.text
 *(.rel.text)
 *(.rel.text.*)
 *(.rel.gnu.linkonce.t*)

.rela.text
 *(.rela.text)
 *(.rela.text.*)
 *(.rela.gnu.linkonce.t*)

.rel.fini
 *(.rel.fini)

.rela.fini
 *(.rela.fini)

.rel.rodata
 *(.rel.rodata)
 *(.rel.rodata.*)
 *(.rel.gnu.linkonce.r*)

.rela.rodata
 *(.rela.rodata)
 *(.rela.rodata.*)
 *(.rela.gnu.linkonce.r*)

.rel.data
 *(.rel.data)
 *(.rel.data.*)
 *(.rel.gnu.linkonce.d*)

.rela.data
 *(.rela.data)
 *(.rela.data.*)
 *(.rela.gnu.linkonce.d*)

.rel.ctors
 *(.rel.ctors)

.rela.ctors
 *(.rela.ctors)

.rel.dtors
 *(.rel.dtors)

.rela.dtors
 *(.rela.dtors)

.rel.got
 *(.rel.got)

.rela.got
 *(.rela.got)

.rel.bss
 *(.rel.bss)

.rela.bss
 *(.rela.bss)

.rel.plt
 *(.rel.plt)

.rela.plt
 *(.rela.plt)

.text           0x0000000000000000     0x56ac
 *(.vectors)
 .vectors       0x0000000000000000       0xac /usr/lib/gcc/avr/11.2.0/../../../../avr/lib/avr5/crtatmega32u4.o
                0x0000000000000000                __vectors
                0x0000000000000000                __vector_default
 *(.vectors)
 *(.progmem.gcc*)
                0x00000000000000ac                . = ALIGN (0x2)
                0x00000000000000ac                __trampolines_start = .
 *(.trampolines)
 .trampolines   0x00000000000000ac        0x0 linker stubs
 *(.trampolines*)
                0x00000000000000ac                __trampolines_end = .
 *libprintf_flt.a:*(.progmem.data)
 *libc.a:*(.progmem.data)
 *(.progmem.*)
 .progmem.data.keymaps
                0x00000000000000ac        0x6 .build/obj_3key_default/keyboards/3key/keymaps/default/keymap.o
                0x00000000000000ac                keymaps
 .progmem.data.fn_actions
                0x00000000000000b2        0x0 .build/obj_3key_default/quantum/keymap_common.o
                0x00000000000000b2                fn_actions
 .progmem.data.RGBLED_RGBTEST_INTERVALS
                0x00000000000000b2        0x2 .build/obj_3key_default/quantum/rgblight/rgblight.o
                0x00000000000000b2                RGBLED_RGBTEST_INTERVALS
 .progmem.data.RGBLED_KNIGHT_INTERVALS
                0x00000000000000b4        0x3 .build/obj_3key_default/quantum/rgblight/rgblight.o
                0x00000000000000b4                RGBLED_KNIGHT_INTERVALS
 .progmem.data.RGBLED_SNAKE_INTERVALS
                0x00000000000000b7        0x3 .build/obj_3key_default/quantum/rgblight/rgblight.o
                0x00000000000000b7                RGBLED_SNAKE_INTERVALS
 .progmem.data.RGBLED_RAINBOW_SWIRL_INTERVALS
                0x00000000000000ba        0x3 .build/obj_3key_default/quantum/rgblight/rgblight.o
                0x00000000000000ba                RGBLED_RAINBOW_SWIRL_INTERVALS
 .progmem.data.RGBLED_RAINBOW_MOOD_INTERVALS
                0x00000000000000bd        0x3 .build/obj_3key_default/quantum/rgblight/rgblight.o
                0x00000000000000bd                RGBLED_RAINBOW_MOOD_INTERVALS
 .progmem.data.RGBLED_BREATHING_INTERVALS
                0x00000000000000c0        0x4 .build/obj_3key_default/quantum/rgblight/rgblight.o
                0x00000000000000c0                RGBLED_BREATHING_INTERVALS
 .progmem.data.rgblight_effect_breathe_table
                0x00000000000000c4      0x100 .build/obj_3key_default/quantum/rgblight/rgblight.o
                0x00000000000000c4                rgblight_effect_breathe_table
 .progmem.data.RGBLED_GRADIENT_RANGES
                0x00000000000001c4        0x5 .build/obj_3key_default/quantum/rgblight/rgblight.o
                0x00000000000001c4                RGBLED_GRADIENT_RANGES
 .progmem.data.CIE1931_CURVE
                0x00000000000001c9      0x100 .build/obj_3key_default/quantum/led_tables.o
                0x00000000000001c9                CIE1931_CURVE
 .progmem.data.ProductString
                0x00000000000002c9       0x14 .build/obj_3key_default/usb_descriptor.o
                0x00000000000002c9                ProductString
 .progmem.data.ManufacturerString
                0x00000000000002dd       0x18 .build/obj_3key_default/usb_descriptor.o
                0x00000000000002dd                ManufacturerString
 .progmem.data.LanguageString
                0x00000000000002f5        0x4 .build/obj_3key_default/usb_descriptor.o
                0x00000000000002f5                LanguageString
 .progmem.data.ConfigurationDescriptor
                0x00000000000002f9       0x3b .build/obj_3key_default/usb_descriptor.o
                0x00000000000002f9                ConfigurationDescriptor
 .progmem.data.DeviceDescriptor
                0x0000000000000334       0x12 .build/obj_3key_default/usb_descriptor.o
                0x0000000000000334                DeviceDescriptor
 .progmem.data.SharedReport
                0x0000000000000346       0xb6 .build/obj_3key_default/usb_descriptor.o
                0x0000000000000346                SharedReport
 .progmem.data.KeyboardReport
                0x00000000000003fc       0x40 .build/obj_3key_default/usb_descriptor.o
                0x00000000000003fc                KeyboardReport
                0x000000000000043c                . = ALIGN (0x2)
 *(.lowtext)
 *(.lowtext*)
                0x000000000000043c                __ctors_start = .
 *(.ctors)
                0x000000000000043c                __ctors_end = .
                0x000000000000043c                __dtors_start = .
 *(.dtors)
                0x000000000000043c                __dtors_end = .
 SORT_BY_NAME(*)(.ctors)
 SORT_BY_NAME(*)(.dtors)
 *(.init0)
 .init0         0x000000000000043c        0x0 /usr/lib/gcc/avr/11.2.0/../../../../avr/lib/avr5/crtatmega32u4.o
                0x000000000000043c                __init
 *(.init0)
 *(.init1)
 *(.init1)
 *(.init2)
 .init2         0x000000000000043c        0xc /usr/lib/gcc/avr/11.2.0/../../../../avr/lib/avr5/crtatmega32u4.o
 *(.init2)
 *(.init3)
 .init3         0x0000000000000448       0x54 .build/obj_3key_default/common/avr/bootloader.o
                0x0000000000000448                bootloader_jump_after_watchdog_reset
 *(.init3)
 *(.init4)
 .init4         0x000000000000049c       0x16 /usr/lib/gcc/avr/11.2.0/avr5/libgcc.a(_copy_data.o)
                0x000000000000049c                __do_copy_data
 .init4         0x00000000000004b2       0x10 /usr/lib/gcc/avr/11.2.0/avr5/libgcc.a(_clear_bss.o)
                0x00000000000004b2                __do_clear_bss
 *(.init4)
 *(.init5)
 *(.init5)
 *(.init6)
 *(.init6)
 *(.init7)
 *(.init7)
 *(.init8)
 *(.init8)
 *(.init9)
 .init9         0x00000000000004c2        0x8 /usr/lib/gcc/avr/11.2.0/../../../../avr/lib/avr5/crtatmega32u4.o
 *(.init9)
 *(.text)
 .text          0x00000000000004ca        0x4 /usr/lib/gcc/avr/11.2.0/../../../../avr/lib/avr5/crtatmega32u4.o
                0x00000000000004ca                __vector_38
                0x00000000000004ca                __vector_22
                0x00000000000004ca                __vector_28
                0x00000000000004ca                __vector_1
                0x00000000000004ca                __vector_32
                0x00000000000004ca                __vector_34
                0x00000000000004ca                __vector_24
                0x00000000000004ca                __bad_interrupt
                0x00000000000004ca                __vector_6
                0x00000000000004ca                __vector_31
                0x00000000000004ca                __vector_35
                0x00000000000004ca                __vector_39
                0x00000000000004ca                __vector_3
                0x00000000000004ca                __vector_23
                0x00000000000004ca                __vector_30
                0x00000000000004ca                __vector_25
                0x00000000000004ca                __vector_13
                0x00000000000004ca                __vector_17
                0x00000000000004ca                __vector_19
                0x00000000000004ca                __vector_7
                0x00000000000004ca                __vector_41
                0x00000000000004ca                __vector_27
                0x00000000000004ca                __vector_5
                0x00000000000004ca                __vector_33
                0x00000000000004ca                __vector_37
                0x00000000000004ca                __vector_4
                0x00000000000004ca                __vector_9
                0x00000000000004ca                __vector_2
                0x00000000000004ca                __vector_15
                0x00000000000004ca                __vector_36
                0x00000000000004ca                __vector_29
                0x00000000000004ca                __vector_40
                0x00000000000004ca                __vector_8
                0x00000000000004ca                __vector_26
                0x00000000000004ca                __vector_14
                0x00000000000004ca                __vector_16
                0x00000000000004ca                __vector_18
                0x00000000000004ca                __vector_20
                0x00000000000004ca                __vector_42
                0x00000000000004ce                . = ALIGN (0x2)
 *(.text.*)
 .text.action_get_macro
                0x00000000000004ce        0x6 .build/obj_3key_default/keyboards/3key/keymaps/default/keymap.o
                0x00000000000004ce                action_get_macro
 .text.matrix_init_user
                0x00000000000004d4        0x2 .build/obj_3key_default/keyboards/3key/keymaps/default/keymap.o
                0x00000000000004d4                matrix_init_user
 .text.matrix_scan_user
                0x00000000000004d6        0x2 .build/obj_3key_default/keyboards/3key/keymaps/default/keymap.o
                0x00000000000004d6                matrix_scan_user
 .text.process_record_user
                0x00000000000004d8        0x4 .build/obj_3key_default/keyboards/3key/keymaps/default/keymap.o
                0x00000000000004d8                process_record_user
 .text.process_action_kb
                0x00000000000004dc        0x4 .build/obj_3key_default/quantum/quantum.o
                0x00000000000004dc                process_action_kb
 .text.process_record_kb
                0x00000000000004e0        0x4 .build/obj_3key_default/quantum/quantum.o
                0x00000000000004e0                process_record_kb
 .text.post_process_record_user
                0x00000000000004e4        0x2 .build/obj_3key_default/quantum/quantum.o
                0x00000000000004e4                post_process_record_user
 .text.post_process_record_kb
                0x00000000000004e6        0x4 .build/obj_3key_default/quantum/quantum.o
                0x00000000000004e6                post_process_record_kb
 .text.get_event_keycode
                0x00000000000004ea       0x66 .build/obj_3key_default/quantum/quantum.o
                0x00000000000004ea                get_event_keycode
 .text.get_record_keycode
                0x0000000000000550       0x12 .build/obj_3key_default/quantum/quantum.o
                0x0000000000000550                get_record_keycode
 .text.pre_process_record_quantum
                0x0000000000000562        0x4 .build/obj_3key_default/quantum/quantum.o
                0x0000000000000562                pre_process_record_quantum
 .text.post_process_record_quantum
                0x0000000000000566       0x1a .build/obj_3key_default/quantum/quantum.o
                0x0000000000000566                post_process_record_quantum
 .text.matrix_init_quantum
                0x0000000000000580       0x10 .build/obj_3key_default/quantum/quantum.o
                0x0000000000000580                matrix_init_quantum
 .text.matrix_scan_quantum
                0x0000000000000590        0x4 .build/obj_3key_default/quantum/quantum.o
                0x0000000000000590                matrix_scan_quantum
 .text.shutdown_user
                0x0000000000000594        0x2 .build/obj_3key_default/quantum/quantum.o
                0x0000000000000594                shutdown_user
 .text.reset_keyboard
                0x0000000000000596       0x1e .build/obj_3key_default/quantum/quantum.o
                0x0000000000000596                reset_keyboard
 .text.process_record_quantum
                0x00000000000005b4       0xbe .build/obj_3key_default/quantum/quantum.o
                0x00000000000005b4                process_record_quantum
 .text.led_set_user
                0x0000000000000672        0x2 .build/obj_3key_default/quantum/led.o
                0x0000000000000672                led_set_user
 .text.led_set_kb
                0x0000000000000674        0x4 .build/obj_3key_default/quantum/led.o
                0x0000000000000674                led_set_kb
 .text.led_update_user
                0x0000000000000678        0x4 .build/obj_3key_default/quantum/led.o
                0x0000000000000678                led_update_user
 .text.led_update_kb
                0x000000000000067c        0x4 .build/obj_3key_default/quantum/led.o
                0x000000000000067c                led_update_kb
 .text.led_init_ports
                0x0000000000000680        0x2 .build/obj_3key_default/quantum/led.o
                0x0000000000000680                led_init_ports
 .text.led_set  0x0000000000000682       0x10 .build/obj_3key_default/quantum/led.o
                0x0000000000000682                led_set
 .text.action_exec
                0x0000000000000692       0x8a .build/obj_3key_default/quantum/action.o
                0x0000000000000692                action_exec
 .text.process_record_tap_hint
                0x000000000000071c        0xa .build/obj_3key_default/quantum/action.o
                0x000000000000071c                process_record_tap_hint
 .text.register_code
                0x0000000000000726      0x122 .build/obj_3key_default/quantum/action.o
                0x0000000000000726                register_code
 .text.unregister_code
                0x0000000000000848       0xac .build/obj_3key_default/quantum/action.o
                0x0000000000000848                unregister_code
 .text.tap_code_delay
                0x00000000000008f4       0x2e .build/obj_3key_default/quantum/action.o
                0x00000000000008f4                tap_code_delay
 .text.tap_code
                0x0000000000000922       0x10 .build/obj_3key_default/quantum/action.o
                0x0000000000000922                tap_code
 .text.register_mods
                0x0000000000000932        0xe .build/obj_3key_default/quantum/action.o
                0x0000000000000932                register_mods
 .text.unregister_mods
                0x0000000000000940        0xe .build/obj_3key_default/quantum/action.o
                0x0000000000000940                unregister_mods
 .text.process_action
                0x000000000000094e      0x4ac .build/obj_3key_default/quantum/action.o
                0x000000000000094e                process_action
 .text.process_record_handler
                0x0000000000000dfa       0x2e .build/obj_3key_default/quantum/action.o
                0x0000000000000dfa                process_record_handler
 .text.process_record
                0x0000000000000e28       0x50 .build/obj_3key_default/quantum/action.o
                0x0000000000000e28                process_record
 .text.clear_keyboard_but_mods_and_keys
                0x0000000000000e78       0x24 .build/obj_3key_default/quantum/action.o
                0x0000000000000e78                clear_keyboard_but_mods_and_keys
 .text.clear_keyboard_but_mods
                0x0000000000000e9c        0x8 .build/obj_3key_default/quantum/action.o
                0x0000000000000e9c                clear_keyboard_but_mods
 .text.clear_keyboard
                0x0000000000000ea4        0x8 .build/obj_3key_default/quantum/action.o
                0x0000000000000ea4                clear_keyboard
 .text.is_tap_action
                0x0000000000000eac       0x52 .build/obj_3key_default/quantum/action.o
                0x0000000000000eac                is_tap_action
 .text.is_tap_record
                0x0000000000000efe        0xe .build/obj_3key_default/quantum/action.o
                0x0000000000000efe                is_tap_record
 .text.debug_event
                0x0000000000000f0c       0x1e .build/obj_3key_default/quantum/action.o
                0x0000000000000f0c                debug_event
 .text.debug_record
                0x0000000000000f2a       0x20 .build/obj_3key_default/quantum/action.o
                0x0000000000000f2a                debug_record
 .text.default_layer_state_set_user
                0x0000000000000f4a        0x2 .build/obj_3key_default/quantum/action_layer.o
                0x0000000000000f4a                default_layer_state_set_user
 .text.default_layer_state_set_kb
                0x0000000000000f4c        0x4 .build/obj_3key_default/quantum/action_layer.o
                0x0000000000000f4c                default_layer_state_set_kb
 .text.default_layer_state_set
                0x0000000000000f50       0x18 .build/obj_3key_default/quantum/action_layer.o
 .text.default_layer_debug
                0x0000000000000f68        0x2 .build/obj_3key_default/quantum/action_layer.o
                0x0000000000000f68                default_layer_debug
 .text.default_layer_set
                0x0000000000000f6a        0x4 .build/obj_3key_default/quantum/action_layer.o
                0x0000000000000f6a                default_layer_set
 .text.default_layer_or
                0x0000000000000f6e       0x50 .build/obj_3key_default/quantum/action_layer.o
                0x0000000000000f6e                default_layer_or
 .text.default_layer_and
                0x0000000000000fbe       0x50 .build/obj_3key_default/quantum/action_layer.o
                0x0000000000000fbe                default_layer_and
 .text.default_layer_xor
                0x000000000000100e       0x50 .build/obj_3key_default/quantum/action_layer.o
                0x000000000000100e                default_layer_xor
 .text.layer_state_set_user
                0x000000000000105e        0x4 .build/obj_3key_default/quantum/action_layer.o
                0x000000000000105e                layer_state_set_user
 .text.layer_state_set_kb
                0x0000000000001062        0x4 .build/obj_3key_default/quantum/action_layer.o
                0x0000000000001062                layer_state_set_kb
 .text.layer_state_set
                0x0000000000001066       0x18 .build/obj_3key_default/quantum/action_layer.o
                0x0000000000001066                layer_state_set
 .text.layer_clear
                0x000000000000107e        0xa .build/obj_3key_default/quantum/action_layer.o
                0x000000000000107e                layer_clear
 .text.layer_move
                0x0000000000001088       0x4a .build/obj_3key_default/quantum/action_layer.o
                0x0000000000001088                layer_move
 .text.layer_on
                0x00000000000010d2       0x62 .build/obj_3key_default/quantum/action_layer.o
                0x00000000000010d2                layer_on
 .text.layer_off
                0x0000000000001134       0x6a .build/obj_3key_default/quantum/action_layer.o
                0x0000000000001134                layer_off
 .text.layer_invert
                0x000000000000119e       0x62 .build/obj_3key_default/quantum/action_layer.o
                0x000000000000119e                layer_invert
 .text.layer_or
                0x0000000000001200       0x50 .build/obj_3key_default/quantum/action_layer.o
                0x0000000000001200                layer_or
 .text.layer_and
                0x0000000000001250       0x50 .build/obj_3key_default/quantum/action_layer.o
                0x0000000000001250                layer_and
 .text.layer_xor
                0x00000000000012a0       0x50 .build/obj_3key_default/quantum/action_layer.o
                0x00000000000012a0                layer_xor
 .text.layer_debug
                0x00000000000012f0        0x2 .build/obj_3key_default/quantum/action_layer.o
                0x00000000000012f0                layer_debug
 .text.update_source_layers_cache
                0x00000000000012f2       0x5a .build/obj_3key_default/quantum/action_layer.o
                0x00000000000012f2                update_source_layers_cache
 .text.read_source_layers_cache
                0x000000000000134c       0x50 .build/obj_3key_default/quantum/action_layer.o
                0x000000000000134c                read_source_layers_cache
 .text.layer_switch_get_layer
                0x000000000000139c       0x84 .build/obj_3key_default/quantum/action_layer.o
                0x000000000000139c                layer_switch_get_layer
 .text.layer_switch_get_action
                0x0000000000001420       0x18 .build/obj_3key_default/quantum/action_layer.o
                0x0000000000001420                layer_switch_get_action
 .text.store_or_get_action
                0x0000000000001438       0x54 .build/obj_3key_default/quantum/action_layer.o
                0x0000000000001438                store_or_get_action
 .text.action_macro_play
                0x000000000000148c       0xfc .build/obj_3key_default/quantum/action_macro.o
                0x000000000000148c                action_macro_play
 .text.debug_waiting_buffer
                0x0000000000001588       0x42 .build/obj_3key_default/quantum/action_tapping.o
 .text.debug_tapping_key
                0x00000000000015ca       0x1c .build/obj_3key_default/quantum/action_tapping.o
 .text.waiting_buffer_scan_tap
                0x00000000000015e6       0xac .build/obj_3key_default/quantum/action_tapping.o
 .text.process_tapping
                0x0000000000001692      0x31e .build/obj_3key_default/quantum/action_tapping.o
 .text.action_tapping_process
                0x00000000000019b0      0x134 .build/obj_3key_default/quantum/action_tapping.o
                0x00000000000019b0                action_tapping_process
 .text.add_key  0x0000000000001ae4        0xe .build/obj_3key_default/quantum/action_util.o
                0x0000000000001ae4                add_key
 .text.del_key  0x0000000000001af2        0xe .build/obj_3key_default/quantum/action_util.o
                0x0000000000001af2                del_key
 .text.clear_keys
                0x0000000000001b00        0xc .build/obj_3key_default/quantum/action_util.o
                0x0000000000001b00                clear_keys
 .text.get_oneshot_layer
                0x0000000000001b0c        0xc .build/obj_3key_default/quantum/action_util.o
                0x0000000000001b0c                get_oneshot_layer
 .text.get_oneshot_layer_state
                0x0000000000001b18        0x8 .build/obj_3key_default/quantum/action_util.o
                0x0000000000001b18                get_oneshot_layer_state
 .text.is_oneshot_layer_active
                0x0000000000001b20        0xe .build/obj_3key_default/quantum/action_util.o
                0x0000000000001b20                is_oneshot_layer_active
 .text.oneshot_set
                0x0000000000001b2e       0x24 .build/obj_3key_default/quantum/action_util.o
                0x0000000000001b2e                oneshot_set
 .text.oneshot_toggle
                0x0000000000001b52       0x12 .build/obj_3key_default/quantum/action_util.o
                0x0000000000001b52                oneshot_toggle
 .text.oneshot_enable
                0x0000000000001b64        0x6 .build/obj_3key_default/quantum/action_util.o
                0x0000000000001b64                oneshot_enable
 .text.oneshot_disable
                0x0000000000001b6a        0x6 .build/obj_3key_default/quantum/action_util.o
                0x0000000000001b6a                oneshot_disable
 .text.get_mods
                0x0000000000001b70        0x6 .build/obj_3key_default/quantum/action_util.o
                0x0000000000001b70                get_mods
 .text.add_mods
                0x0000000000001b76        0xc .build/obj_3key_default/quantum/action_util.o
                0x0000000000001b76                add_mods
 .text.del_mods
                0x0000000000001b82       0x10 .build/obj_3key_default/quantum/action_util.o
                0x0000000000001b82                del_mods
 .text.clear_mods
                0x0000000000001b92        0x6 .build/obj_3key_default/quantum/action_util.o
                0x0000000000001b92                clear_mods
 .text.add_weak_mods
                0x0000000000001b98        0xc .build/obj_3key_default/quantum/action_util.o
                0x0000000000001b98                add_weak_mods
 .text.del_weak_mods
                0x0000000000001ba4       0x10 .build/obj_3key_default/quantum/action_util.o
                0x0000000000001ba4                del_weak_mods
 .text.clear_weak_mods
                0x0000000000001bb4        0x6 .build/obj_3key_default/quantum/action_util.o
                0x0000000000001bb4                clear_weak_mods
 .text.add_macro_mods
                0x0000000000001bba        0xc .build/obj_3key_default/quantum/action_util.o
                0x0000000000001bba                add_macro_mods
 .text.del_macro_mods
                0x0000000000001bc6       0x10 .build/obj_3key_default/quantum/action_util.o
                0x0000000000001bc6                del_macro_mods
 .text.clear_macro_mods
                0x0000000000001bd6        0x6 .build/obj_3key_default/quantum/action_util.o
                0x0000000000001bd6                clear_macro_mods
 .text.get_oneshot_mods
                0x0000000000001bdc        0x6 .build/obj_3key_default/quantum/action_util.o
                0x0000000000001bdc                get_oneshot_mods
 .text.oneshot_mods_changed_user
                0x0000000000001be2        0x2 .build/obj_3key_default/quantum/action_util.o
                0x0000000000001be2                oneshot_mods_changed_user
 .text.oneshot_mods_changed_kb
                0x0000000000001be4        0x4 .build/obj_3key_default/quantum/action_util.o
                0x0000000000001be4                oneshot_mods_changed_kb
 .text.set_oneshot_mods
                0x0000000000001be8       0x1a .build/obj_3key_default/quantum/action_util.o
                0x0000000000001be8                set_oneshot_mods
 .text.clear_oneshot_mods
                0x0000000000001c02       0x14 .build/obj_3key_default/quantum/action_util.o
                0x0000000000001c02                clear_oneshot_mods
 .text.send_keyboard_report
                0x0000000000001c16       0x66 .build/obj_3key_default/quantum/action_util.o
                0x0000000000001c16                send_keyboard_report
 .text.oneshot_layer_changed_user
                0x0000000000001c7c        0x2 .build/obj_3key_default/quantum/action_util.o
                0x0000000000001c7c                oneshot_layer_changed_user
 .text.oneshot_layer_changed_kb
                0x0000000000001c7e        0x4 .build/obj_3key_default/quantum/action_util.o
                0x0000000000001c7e                oneshot_layer_changed_kb
 .text.set_oneshot_layer
                0x0000000000001c82       0x2c .build/obj_3key_default/quantum/action_util.o
                0x0000000000001c82                set_oneshot_layer
 .text.reset_oneshot_layer
                0x0000000000001cae        0xa .build/obj_3key_default/quantum/action_util.o
                0x0000000000001cae                reset_oneshot_layer
 .text.clear_oneshot_layer_state
                0x0000000000001cb8       0x38 .build/obj_3key_default/quantum/action_util.o
                0x0000000000001cb8                clear_oneshot_layer_state
 .text.eeconfig_disable
                0x0000000000001cf0        0xc .build/obj_3key_default/quantum/eeconfig.o
                0x0000000000001cf0                eeconfig_disable
 .text.eeconfig_is_enabled
                0x0000000000001cfc       0x16 .build/obj_3key_default/quantum/eeconfig.o
                0x0000000000001cfc                eeconfig_is_enabled
 .text.eeconfig_read_debug
                0x0000000000001d12        0x8 .build/obj_3key_default/quantum/eeconfig.o
                0x0000000000001d12                eeconfig_read_debug
 .text.eeconfig_read_default_layer
                0x0000000000001d1a        0x8 .build/obj_3key_default/quantum/eeconfig.o
                0x0000000000001d1a                eeconfig_read_default_layer
 .text.eeconfig_read_keymap
                0x0000000000001d22       0x1c .build/obj_3key_default/quantum/eeconfig.o
                0x0000000000001d22                eeconfig_read_keymap
 .text.eeconfig_update_keymap
                0x0000000000001d3e       0x1a .build/obj_3key_default/quantum/eeconfig.o
                0x0000000000001d3e                eeconfig_update_keymap
 .text.eeconfig_update_kb
                0x0000000000001d58        0xc .build/obj_3key_default/quantum/eeconfig.o
                0x0000000000001d58                eeconfig_update_kb
 .text.eeconfig_update_user
                0x0000000000001d64        0xc .build/obj_3key_default/quantum/eeconfig.o
                0x0000000000001d64                eeconfig_update_user
 .text.eeconfig_init_user
                0x0000000000001d70        0xa .build/obj_3key_default/quantum/eeconfig.o
                0x0000000000001d70                eeconfig_init_user
 .text.eeconfig_init_kb
                0x0000000000001d7a        0xe .build/obj_3key_default/quantum/eeconfig.o
                0x0000000000001d7a                eeconfig_init_kb
 .text.eeconfig_init_quantum
                0x0000000000001d88       0xbe .build/obj_3key_default/quantum/eeconfig.o
                0x0000000000001d88                eeconfig_init_quantum
 .text.eeconfig_init
                0x0000000000001e46        0x4 .build/obj_3key_default/quantum/eeconfig.o
                0x0000000000001e46                eeconfig_init
 .text.eeconfig_update_handedness
                0x0000000000001e4a        0xa .build/obj_3key_default/quantum/eeconfig.o
                0x0000000000001e4a                eeconfig_update_handedness
 .text.last_matrix_activity_trigger
                0x0000000000001e54       0x26 .build/obj_3key_default/quantum/keyboard.o
                0x0000000000001e54                last_matrix_activity_trigger
 .text.disable_jtag
                0x0000000000001e7a        0xe .build/obj_3key_default/quantum/keyboard.o
                0x0000000000001e7a                disable_jtag
 .text.keyboard_pre_init_user
                0x0000000000001e88        0x2 .build/obj_3key_default/quantum/keyboard.o
                0x0000000000001e88                keyboard_pre_init_user
 .text.matrix_setup
                0x0000000000001e8a        0x2 .build/obj_3key_default/quantum/keyboard.o
                0x0000000000001e8a                matrix_setup
 .text.keyboard_pre_init_kb
                0x0000000000001e8c        0x4 .build/obj_3key_default/quantum/keyboard.o
                0x0000000000001e8c                keyboard_pre_init_kb
 .text.keyboard_post_init_user
                0x0000000000001e90        0x2 .build/obj_3key_default/quantum/keyboard.o
                0x0000000000001e90                keyboard_post_init_user
 .text.keyboard_post_init_kb
                0x0000000000001e92        0x4 .build/obj_3key_default/quantum/keyboard.o
                0x0000000000001e92                keyboard_post_init_kb
 .text.keyboard_setup
                0x0000000000001e96       0x14 .build/obj_3key_default/quantum/keyboard.o
                0x0000000000001e96                keyboard_setup
 .text.is_keyboard_master
                0x0000000000001eaa        0x4 .build/obj_3key_default/quantum/keyboard.o
                0x0000000000001eaa                is_keyboard_master
 .text.should_process_keypress
                0x0000000000001eae        0x4 .build/obj_3key_default/quantum/keyboard.o
                0x0000000000001eae                should_process_keypress
 .text.housekeeping_task_kb
                0x0000000000001eb2        0x2 .build/obj_3key_default/quantum/keyboard.o
                0x0000000000001eb2                housekeeping_task_kb
 .text.housekeeping_task_user
                0x0000000000001eb4        0x2 .build/obj_3key_default/quantum/keyboard.o
                0x0000000000001eb4                housekeeping_task_user
 .text.housekeeping_task
                0x0000000000001eb6        0x8 .build/obj_3key_default/quantum/keyboard.o
                0x0000000000001eb6                housekeeping_task
 .text.keyboard_init
                0x0000000000001ebe       0x14 .build/obj_3key_default/quantum/keyboard.o
                0x0000000000001ebe                keyboard_init
 .text.keyboard_task
                0x0000000000001ed2      0x108 .build/obj_3key_default/quantum/keyboard.o
                0x0000000000001ed2                keyboard_task
 .text.action_function
                0x0000000000001fda        0x2 .build/obj_3key_default/quantum/keymap_common.o
                0x0000000000001fda                action_function
 .text.keymap_key_to_keycode
                0x0000000000001fdc       0x26 .build/obj_3key_default/quantum/keymap_common.o
                0x0000000000001fdc                keymap_key_to_keycode
 .text.keymap_function_id_to_action
                0x0000000000002002       0x10 .build/obj_3key_default/quantum/keymap_common.o
                0x0000000000002002                keymap_function_id_to_action
 .text.action_for_keycode
                0x0000000000002012      0x224 .build/obj_3key_default/quantum/keymap_common.o
                0x0000000000002012                action_for_keycode
 .text.action_for_key
                0x0000000000002236        0x8 .build/obj_3key_default/quantum/keymap_common.o
                0x0000000000002236                action_for_key
 .text.keycode_config
                0x000000000000223e      0x130 .build/obj_3key_default/quantum/keycode_config.o
                0x000000000000223e                keycode_config
 .text.mod_config
                0x000000000000236e       0x86 .build/obj_3key_default/quantum/keycode_config.o
                0x000000000000236e                mod_config
 .text.sendchar
                0x00000000000023f4        0x4 .build/obj_3key_default/quantum/logging/sendchar.o
                0x00000000000023f4                sendchar
 .text.bootmagic_lite_reset_eeprom
                0x00000000000023f8        0x4 .build/obj_3key_default/quantum/bootmagic/bootmagic_lite.o
                0x00000000000023f8                bootmagic_lite_reset_eeprom
 .text.bootmagic_lite
                0x00000000000023fc       0x2e .build/obj_3key_default/quantum/bootmagic/bootmagic_lite.o
                0x00000000000023fc                bootmagic_lite
 .text.bootmagic
                0x000000000000242a        0x4 .build/obj_3key_default/quantum/bootmagic/bootmagic_lite.o
                0x000000000000242a                bootmagic
 .text.magic    0x000000000000242e       0x70 .build/obj_3key_default/quantum/bootmagic/magic.o
                0x000000000000242e                magic
 .text.matrix_init_kb
                0x000000000000249e        0x4 .build/obj_3key_default/quantum/matrix_common.o
                0x000000000000249e                matrix_init_kb
 .text.matrix_scan_kb
                0x00000000000024a2        0x4 .build/obj_3key_default/quantum/matrix_common.o
                0x00000000000024a2                matrix_scan_kb
 .text.matrix_get_row
                0x00000000000024a6        0xc .build/obj_3key_default/quantum/matrix_common.o
                0x00000000000024a6                matrix_get_row
 .text.matrix_print
                0x00000000000024b2        0x2 .build/obj_3key_default/quantum/matrix_common.o
                0x00000000000024b2                matrix_print
 .text.matrix_io_delay
                0x00000000000024b4        0x8 .build/obj_3key_default/quantum/matrix_common.o
                0x00000000000024b4                matrix_io_delay
 .text.matrix_output_select_delay
                0x00000000000024bc        0x4 .build/obj_3key_default/quantum/matrix_common.o
                0x00000000000024bc                matrix_output_select_delay
 .text.matrix_output_unselect_delay
                0x00000000000024c0        0x4 .build/obj_3key_default/quantum/matrix_common.o
                0x00000000000024c0                matrix_output_unselect_delay
 .text.setPinInputHigh_atomic
                0x00000000000024c4       0x32 .build/obj_3key_default/quantum/matrix.o
 .text.matrix_init_pins
                0x00000000000024f6       0x18 .build/obj_3key_default/quantum/matrix.o
                0x00000000000024f6                matrix_init_pins
 .text.matrix_read_rows_on_col
                0x000000000000250e       0xa6 .build/obj_3key_default/quantum/matrix.o
                0x000000000000250e                matrix_read_rows_on_col
 .text.matrix_init
                0x00000000000025b4       0x16 .build/obj_3key_default/quantum/matrix.o
                0x00000000000025b4                matrix_init
 .text.matrix_scan
                0x00000000000025ca       0x60 .build/obj_3key_default/quantum/matrix.o
                0x00000000000025ca                matrix_scan
 .text.debounce_init
                0x000000000000262a        0x2 .build/obj_3key_default/quantum/debounce/sym_defer_g.o
                0x000000000000262a                debounce_init
 .text.debounce
                0x000000000000262c       0x6c .build/obj_3key_default/quantum/debounce/sym_defer_g.o
                0x000000000000262c                debounce
 .text.startup.main
                0x0000000000002698       0x16 .build/obj_3key_default/quantum/main.o
                0x0000000000002698                main
 .text.move_unit
                0x00000000000026ae       0x94 .build/obj_3key_default/quantum/mousekey.o
 .text.wheel_unit
                0x0000000000002742       0x72 .build/obj_3key_default/quantum/mousekey.o
 .text.mousekey_on
                0x00000000000027b4       0x92 .build/obj_3key_default/quantum/mousekey.o
                0x00000000000027b4                mousekey_on
 .text.mousekey_off
                0x0000000000002846       0xf2 .build/obj_3key_default/quantum/mousekey.o
                0x0000000000002846                mousekey_off
 .text.mousekey_send
                0x0000000000002938       0x34 .build/obj_3key_default/quantum/mousekey.o
                0x0000000000002938                mousekey_send
 .text.mousekey_task
                0x000000000000296c      0x222 .build/obj_3key_default/quantum/mousekey.o
                0x000000000000296c                mousekey_task
 .text.mousekey_clear
                0x0000000000002b8e       0x1c .build/obj_3key_default/quantum/mousekey.o
                0x0000000000002b8e                mousekey_clear
 .text.hsv_to_rgb_impl
                0x0000000000002baa      0x146 .build/obj_3key_default/quantum/color.o
                0x0000000000002baa                hsv_to_rgb_impl
 .text.hsv_to_rgb
                0x0000000000002cf0        0x6 .build/obj_3key_default/quantum/color.o
                0x0000000000002cf0                hsv_to_rgb
 .text.rgblight_effect_dummy
                0x0000000000002cf6        0x2 .build/obj_3key_default/quantum/rgblight/rgblight.o
 .text.rgblight_hsv_to_rgb
                0x0000000000002cf8        0x4 .build/obj_3key_default/quantum/rgblight/rgblight.o
                0x0000000000002cf8                rgblight_hsv_to_rgb
 .text.sethsv_raw
                0x0000000000002cfc       0x1e .build/obj_3key_default/quantum/rgblight/rgblight.o
                0x0000000000002cfc                sethsv_raw
 .text.rgblight_check_config
                0x0000000000002d1a       0x1e .build/obj_3key_default/quantum/rgblight/rgblight.o
                0x0000000000002d1a                rgblight_check_config
 .text.eeconfig_read_rgblight
                0x0000000000002d38        0x8 .build/obj_3key_default/quantum/rgblight/rgblight.o
                0x0000000000002d38                eeconfig_read_rgblight
 .text.eeconfig_update_rgblight
                0x0000000000002d40       0x28 .build/obj_3key_default/quantum/rgblight/rgblight.o
                0x0000000000002d40                eeconfig_update_rgblight
 .text.eeconfig_update_rgblight_default
                0x0000000000002d68       0x20 .build/obj_3key_default/quantum/rgblight/rgblight.o
                0x0000000000002d68                eeconfig_update_rgblight_default
 .text.rgblight_get_mode
                0x0000000000002d88       0x10 .build/obj_3key_default/quantum/rgblight/rgblight.o
                0x0000000000002d88                rgblight_get_mode
 .text.rgblight_increase_speed_helper
                0x0000000000002d98       0x58 .build/obj_3key_default/quantum/rgblight/rgblight.o
                0x0000000000002d98                rgblight_increase_speed_helper
 .text.rgblight_increase_speed
                0x0000000000002df0        0x6 .build/obj_3key_default/quantum/rgblight/rgblight.o
                0x0000000000002df0                rgblight_increase_speed
 .text.rgblight_decrease_speed_helper
                0x0000000000002df6       0x58 .build/obj_3key_default/quantum/rgblight/rgblight.o
                0x0000000000002df6                rgblight_decrease_speed_helper
 .text.rgblight_decrease_speed
                0x0000000000002e4e        0x6 .build/obj_3key_default/quantum/rgblight/rgblight.o
                0x0000000000002e4e                rgblight_decrease_speed
 .text.rgblight_get_layer_state
                0x0000000000002e54       0x1a .build/obj_3key_default/quantum/rgblight/rgblight.o
                0x0000000000002e54                rgblight_get_layer_state
 .text.rgblight_call_driver
                0x0000000000002e6e        0x6 .build/obj_3key_default/quantum/rgblight/rgblight.o
                0x0000000000002e6e                rgblight_call_driver
 .text.rgblight_set
                0x0000000000002e74      0x130 .build/obj_3key_default/quantum/rgblight/rgblight.o
                0x0000000000002e74                rgblight_set
 .text.rgblight_setrgb
                0x0000000000002fa4       0x32 .build/obj_3key_default/quantum/rgblight/rgblight.o
                0x0000000000002fa4                rgblight_setrgb
 .text.rgblight_sethsv_noeeprom_old
                0x0000000000002fd6       0x3e .build/obj_3key_default/quantum/rgblight/rgblight.o
                0x0000000000002fd6                rgblight_sethsv_noeeprom_old
 .text.rgblight_effect_breathing
                0x0000000000003014       0x28 .build/obj_3key_default/quantum/rgblight/rgblight.o
                0x0000000000003014                rgblight_effect_breathing
 .text.rgblight_effect_rainbow_mood
                0x000000000000303c       0x20 .build/obj_3key_default/quantum/rgblight/rgblight.o
                0x000000000000303c                rgblight_effect_rainbow_mood
 .text.rgblight_effect_rgbtest
                0x000000000000305c       0x80 .build/obj_3key_default/quantum/rgblight/rgblight.o
                0x000000000000305c                rgblight_effect_rgbtest
 .text.rgblight_sethsv_eeprom_helper
                0x00000000000030dc      0x158 .build/obj_3key_default/quantum/rgblight/rgblight.o
                0x00000000000030dc                rgblight_sethsv_eeprom_helper
 .text.rgblight_increase_hue_helper
                0x0000000000003234       0x12 .build/obj_3key_default/quantum/rgblight/rgblight.o
                0x0000000000003234                rgblight_increase_hue_helper
 .text.rgblight_increase_hue
                0x0000000000003246        0x6 .build/obj_3key_default/quantum/rgblight/rgblight.o
                0x0000000000003246                rgblight_increase_hue
 .text.rgblight_decrease_hue_helper
                0x000000000000324c       0x12 .build/obj_3key_default/quantum/rgblight/rgblight.o
                0x000000000000324c                rgblight_decrease_hue_helper
 .text.rgblight_decrease_hue
                0x000000000000325e        0x6 .build/obj_3key_default/quantum/rgblight/rgblight.o
                0x000000000000325e                rgblight_decrease_hue
 .text.rgblight_increase_sat_helper
                0x0000000000003264       0x18 .build/obj_3key_default/quantum/rgblight/rgblight.o
                0x0000000000003264                rgblight_increase_sat_helper
 .text.rgblight_increase_sat
                0x000000000000327c        0x6 .build/obj_3key_default/quantum/rgblight/rgblight.o
                0x000000000000327c                rgblight_increase_sat
 .text.rgblight_decrease_sat_helper
                0x0000000000003282       0x18 .build/obj_3key_default/quantum/rgblight/rgblight.o
                0x0000000000003282                rgblight_decrease_sat_helper
 .text.rgblight_decrease_sat
                0x000000000000329a        0x6 .build/obj_3key_default/quantum/rgblight/rgblight.o
                0x000000000000329a                rgblight_decrease_sat
 .text.rgblight_increase_val_helper
                0x00000000000032a0       0x18 .build/obj_3key_default/quantum/rgblight/rgblight.o
                0x00000000000032a0                rgblight_increase_val_helper
 .text.rgblight_increase_val
                0x00000000000032b8        0x6 .build/obj_3key_default/quantum/rgblight/rgblight.o
                0x00000000000032b8                rgblight_increase_val
 .text.rgblight_decrease_val_helper
                0x00000000000032be       0x18 .build/obj_3key_default/quantum/rgblight/rgblight.o
                0x00000000000032be                rgblight_decrease_val_helper
 .text.rgblight_decrease_val
                0x00000000000032d6        0x6 .build/obj_3key_default/quantum/rgblight/rgblight.o
                0x00000000000032d6                rgblight_decrease_val
 .text.rgblight_sethsv_noeeprom
                0x00000000000032dc        0x6 .build/obj_3key_default/quantum/rgblight/rgblight.o
                0x00000000000032dc                rgblight_sethsv_noeeprom
 .text.rgblight_effect_rainbow_swirl
                0x00000000000032e2       0x76 .build/obj_3key_default/quantum/rgblight/rgblight.o
                0x00000000000032e2                rgblight_effect_rainbow_swirl
 .text.rgblight_effect_snake
                0x0000000000003358       0xe6 .build/obj_3key_default/quantum/rgblight/rgblight.o
                0x0000000000003358                rgblight_effect_snake
 .text.rgblight_effect_knight
                0x000000000000343e       0xde .build/obj_3key_default/quantum/rgblight/rgblight.o
                0x000000000000343e                rgblight_effect_knight
 .text.rgblight_effect_christmas
                0x000000000000351c      0x14c .build/obj_3key_default/quantum/rgblight/rgblight.o
                0x000000000000351c                rgblight_effect_christmas
 .text.rgblight_effect_alternating
                0x0000000000003668       0x7a .build/obj_3key_default/quantum/rgblight/rgblight.o
                0x0000000000003668                rgblight_effect_alternating
 .text.rgblight_disable
                0x00000000000036e2       0x54 .build/obj_3key_default/quantum/rgblight/rgblight.o
                0x00000000000036e2                rgblight_disable
 .text.rgblight_timer_enable
                0x0000000000003736       0x2c .build/obj_3key_default/quantum/rgblight/rgblight.o
                0x0000000000003736                rgblight_timer_enable
 .text.rgblight_mode_eeprom_helper
                0x0000000000003762       0xaa .build/obj_3key_default/quantum/rgblight/rgblight.o
                0x0000000000003762                rgblight_mode_eeprom_helper
 .text.rgblight_step_helper
                0x000000000000380c       0x14 .build/obj_3key_default/quantum/rgblight/rgblight.o
                0x000000000000380c                rgblight_step_helper
 .text.rgblight_step
                0x0000000000003820        0x6 .build/obj_3key_default/quantum/rgblight/rgblight.o
                0x0000000000003820                rgblight_step
 .text.rgblight_step_reverse_helper
                0x0000000000003826       0x16 .build/obj_3key_default/quantum/rgblight/rgblight.o
                0x0000000000003826                rgblight_step_reverse_helper
 .text.rgblight_step_reverse
                0x000000000000383c        0x6 .build/obj_3key_default/quantum/rgblight/rgblight.o
                0x000000000000383c                rgblight_step_reverse
 .text.rgblight_mode
                0x0000000000003842        0x6 .build/obj_3key_default/quantum/rgblight/rgblight.o
                0x0000000000003842                rgblight_mode
 .text.rgblight_enable
                0x0000000000003848       0x10 .build/obj_3key_default/quantum/rgblight/rgblight.o
                0x0000000000003848                rgblight_enable
 .text.rgblight_toggle
                0x0000000000003858        0xe .build/obj_3key_default/quantum/rgblight/rgblight.o
                0x0000000000003858                rgblight_toggle
 .text.rgblight_mode_noeeprom
                0x0000000000003866        0x6 .build/obj_3key_default/quantum/rgblight/rgblight.o
                0x0000000000003866                rgblight_mode_noeeprom
 .text.rgblight_init
                0x000000000000386c       0x66 .build/obj_3key_default/quantum/rgblight/rgblight.o
                0x000000000000386c                rgblight_init
 .text.rgblight_task
                0x00000000000038d2      0x130 .build/obj_3key_default/quantum/rgblight/rgblight.o
                0x00000000000038d2                rgblight_task
 .text.handleKeycodeRGB
                0x0000000000003a02        0xa .build/obj_3key_default/quantum/process_keycode/process_rgb.o
 .text.handleKeycodeRGBMode
                0x0000000000003a0c       0x2a .build/obj_3key_default/quantum/process_keycode/process_rgb.o
 .text.process_rgb
                0x0000000000003a36       0xfa .build/obj_3key_default/quantum/process_keycode/process_rgb.o
                0x0000000000003a36                process_rgb
 .text.eeconfig_read_backlight
                0x0000000000003b30        0x8 .build/obj_3key_default/quantum/backlight/backlight.o
                0x0000000000003b30                eeconfig_read_backlight
 .text.eeconfig_update_backlight
                0x0000000000003b38        0xa .build/obj_3key_default/quantum/backlight/backlight.o
                0x0000000000003b38                eeconfig_update_backlight
 .text.eeconfig_update_backlight_default
                0x0000000000003b42       0x10 .build/obj_3key_default/quantum/backlight/backlight.o
                0x0000000000003b42                eeconfig_update_backlight_default
 .text.backlight_init
                0x0000000000003b52       0x3c .build/obj_3key_default/quantum/backlight/backlight.o
                0x0000000000003b52                backlight_init
 .text.backlight_increase
                0x0000000000003b8e       0x3c .build/obj_3key_default/quantum/backlight/backlight.o
                0x0000000000003b8e                backlight_increase
 .text.backlight_decrease
                0x0000000000003bca       0x36 .build/obj_3key_default/quantum/backlight/backlight.o
                0x0000000000003bca                backlight_decrease
 .text.backlight_enable
                0x0000000000003c00       0x30 .build/obj_3key_default/quantum/backlight/backlight.o
                0x0000000000003c00                backlight_enable
 .text.backlight_disable
                0x0000000000003c30       0x1a .build/obj_3key_default/quantum/backlight/backlight.o
                0x0000000000003c30                backlight_disable
 .text.backlight_toggle
                0x0000000000003c4a        0xe .build/obj_3key_default/quantum/backlight/backlight.o
                0x0000000000003c4a                backlight_toggle
 .text.backlight_step
                0x0000000000003c58       0x4c .build/obj_3key_default/quantum/backlight/backlight.o
                0x0000000000003c58                backlight_step
 .text.backlight_level_noeeprom
                0x0000000000003ca4       0x32 .build/obj_3key_default/quantum/backlight/backlight.o
                0x0000000000003ca4                backlight_level_noeeprom
 .text.backlight_level
                0x0000000000003cd6        0xc .build/obj_3key_default/quantum/backlight/backlight.o
                0x0000000000003cd6                backlight_level
 .text.process_backlight
                0x0000000000003ce2       0x66 .build/obj_3key_default/quantum/process_keycode/process_backlight.o
                0x0000000000003ce2                process_backlight
 .text.backlight_pins_init
                0x0000000000003d48        0x6 .build/obj_3key_default/quantum/backlight/backlight_driver_common.o
                0x0000000000003d48                backlight_pins_init
 .text.backlight_pins_off
                0x0000000000003d4e        0x4 .build/obj_3key_default/quantum/backlight/backlight_driver_common.o
                0x0000000000003d4e                backlight_pins_off
 .text.backlight_set
                0x0000000000003d52       0xda .build/obj_3key_default/quantum/backlight/backlight_avr.o
                0x0000000000003d52                backlight_set
 .text.backlight_task
                0x0000000000003e2c        0x2 .build/obj_3key_default/quantum/backlight/backlight_avr.o
                0x0000000000003e2c                backlight_task
 .text.backlight_init_ports
                0x0000000000003e2e       0x20 .build/obj_3key_default/quantum/backlight/backlight_avr.o
                0x0000000000003e2e                backlight_init_ports
 .text.ws2812_setleds
                0x0000000000003e4e       0x5c .build/obj_3key_default/ws2812.o
                0x0000000000003e4e                ws2812_setleds
 .text.perform_space_cadet
                0x0000000000003eaa       0xd8 .build/obj_3key_default/quantum/process_keycode/process_space_cadet.o
                0x0000000000003eaa                perform_space_cadet
 .text.process_space_cadet
                0x0000000000003f82       0xaa .build/obj_3key_default/quantum/process_keycode/process_space_cadet.o
                0x0000000000003f82                process_space_cadet
 .text.process_magic
                0x000000000000402c      0x1d2 .build/obj_3key_default/quantum/process_keycode/process_magic.o
                0x000000000000402c                process_magic
 .text.process_grave_esc
                0x00000000000041fe       0x54 .build/obj_3key_default/quantum/process_keycode/process_grave_esc.o
                0x00000000000041fe                process_grave_esc
 .text.host_set_driver
                0x0000000000004252        0xa .build/obj_3key_default/common/host.o
                0x0000000000004252                host_set_driver
 .text.host_keyboard_leds
                0x000000000000425c       0x18 .build/obj_3key_default/common/host.o
                0x000000000000425c                host_keyboard_leds
 .text.host_keyboard_send
                0x0000000000004274       0x36 .build/obj_3key_default/common/host.o
                0x0000000000004274                host_keyboard_send
 .text.host_mouse_send
                0x00000000000042aa       0x1e .build/obj_3key_default/common/host.o
                0x00000000000042aa                host_mouse_send
 .text.host_system_send
                0x00000000000042c8       0x2c .build/obj_3key_default/common/host.o
                0x00000000000042c8                host_system_send
 .text.host_consumer_send
                0x00000000000042f4       0x2c .build/obj_3key_default/common/host.o
                0x00000000000042f4                host_consumer_send
 .text.has_anykey
                0x0000000000004320       0x28 .build/obj_3key_default/common/report.o
                0x0000000000004320                has_anykey
 .text.is_key_pressed
                0x0000000000004348       0x64 .build/obj_3key_default/common/report.o
                0x0000000000004348                is_key_pressed
 .text.add_key_byte
                0x00000000000043ac       0x34 .build/obj_3key_default/common/report.o
                0x00000000000043ac                add_key_byte
 .text.del_key_byte
                0x00000000000043e0       0x1e .build/obj_3key_default/common/report.o
                0x00000000000043e0                del_key_byte
 .text.add_key_bit
                0x00000000000043fe       0x28 .build/obj_3key_default/common/report.o
                0x00000000000043fe                add_key_bit
 .text.del_key_bit
                0x0000000000004426       0x2a .build/obj_3key_default/common/report.o
                0x0000000000004426                del_key_bit
 .text.add_key_to_report
                0x0000000000004450       0x16 .build/obj_3key_default/common/report.o
                0x0000000000004450                add_key_to_report
 .text.del_key_from_report
                0x0000000000004466       0x16 .build/obj_3key_default/common/report.o
                0x0000000000004466                del_key_from_report
 .text.clear_keys_from_report
                0x000000000000447c       0x24 .build/obj_3key_default/common/report.o
                0x000000000000447c                clear_keys_from_report
 .text.platform_setup
                0x00000000000044a0        0x2 .build/obj_3key_default/common/avr/platform.o
                0x00000000000044a0                platform_setup
 .text.matrix_power_up
                0x00000000000044a2        0x2 .build/obj_3key_default/common/avr/suspend.o
                0x00000000000044a2                matrix_power_up
 .text.suspend_power_down_user
                0x00000000000044a4        0x2 .build/obj_3key_default/common/avr/suspend.o
                0x00000000000044a4                suspend_power_down_user
 .text.suspend_power_down_kb
                0x00000000000044a6        0x4 .build/obj_3key_default/common/avr/suspend.o
                0x00000000000044a6                suspend_power_down_kb
 .text.suspend_power_down
                0x00000000000044aa       0x62 .build/obj_3key_default/common/avr/suspend.o
                0x00000000000044aa                suspend_power_down
 .text.matrix_power_down
                0x000000000000450c        0x2 .build/obj_3key_default/common/avr/suspend.o
                0x000000000000450c                matrix_power_down
 .text.suspend_wakeup_condition
                0x000000000000450e       0x1e .build/obj_3key_default/common/avr/suspend.o
                0x000000000000450e                suspend_wakeup_condition
 .text.suspend_wakeup_init_user
                0x000000000000452c        0x2 .build/obj_3key_default/common/avr/suspend.o
                0x000000000000452c                suspend_wakeup_init_user
 .text.suspend_wakeup_init_kb
                0x000000000000452e        0x4 .build/obj_3key_default/common/avr/suspend.o
                0x000000000000452e                suspend_wakeup_init_kb
 .text.suspend_wakeup_init
                0x0000000000004532       0x14 .build/obj_3key_default/common/avr/suspend.o
                0x0000000000004532                suspend_wakeup_init
 .text.__vector_12
                0x0000000000004546       0x4e .build/obj_3key_default/common/avr/suspend.o
                0x0000000000004546                __vector_12
 .text.timer_init
                0x0000000000004594       0x12 .build/obj_3key_default/common/avr/timer.o
                0x0000000000004594                timer_init
 .text.timer_read
                0x00000000000045a6       0x18 .build/obj_3key_default/common/avr/timer.o
                0x00000000000045a6                timer_read
 .text.timer_read32
                0x00000000000045be       0x40 .build/obj_3key_default/common/avr/timer.o
                0x00000000000045be                timer_read32
 .text.timer_elapsed
                0x00000000000045fe       0x1e .build/obj_3key_default/common/avr/timer.o
                0x00000000000045fe                timer_elapsed
 .text.__vector_21
                0x000000000000461c       0x48 .build/obj_3key_default/common/avr/timer.o
                0x000000000000461c                __vector_21
 .text.bootloader_jump
                0x0000000000004664       0x48 .build/obj_3key_default/common/avr/bootloader.o
                0x0000000000004664                bootloader_jump
 .text.print_set_sendchar
                0x00000000000046ac        0xa .build/obj_3key_default/common/avr/printf.o
                0x00000000000046ac                print_set_sendchar
 .text.keyboard_leds
                0x00000000000046b6        0x6 .build/obj_3key_default/lufa.o
 .text.send_extra
                0x00000000000046bc       0x56 .build/obj_3key_default/lufa.o
 .text.send_consumer
                0x0000000000004712        0x8 .build/obj_3key_default/lufa.o
 .text.send_system
                0x000000000000471a        0x8 .build/obj_3key_default/lufa.o
 .text.send_mouse
                0x0000000000004722       0x3e .build/obj_3key_default/lufa.o
 .text.send_keyboard
                0x0000000000004760       0x86 .build/obj_3key_default/lufa.o
 .text.EVENT_USB_Device_Connect
                0x00000000000047e6       0x1c .build/obj_3key_default/lufa.o
                0x00000000000047e6                EVENT_USB_Device_Connect
 .text.EVENT_USB_Device_Disconnect
                0x0000000000004802        0x6 .build/obj_3key_default/lufa.o
                0x0000000000004802                EVENT_USB_Device_Disconnect
 .text.EVENT_USB_Device_Reset
                0x0000000000004808        0x2 .build/obj_3key_default/lufa.o
                0x0000000000004808                EVENT_USB_Device_Reset
 .text.EVENT_USB_Device_Suspend
                0x000000000000480a        0x2 .build/obj_3key_default/lufa.o
                0x000000000000480a                EVENT_USB_Device_Suspend
 .text.EVENT_USB_Device_WakeUp
                0x000000000000480c        0x2 .build/obj_3key_default/lufa.o
                0x000000000000480c                EVENT_USB_Device_WakeUp
 .text.EVENT_USB_Device_ConfigurationChanged
                0x000000000000480e       0x14 .build/obj_3key_default/lufa.o
                0x000000000000480e                EVENT_USB_Device_ConfigurationChanged
 .text.EVENT_USB_Device_ControlRequest
                0x0000000000004822      0x16c .build/obj_3key_default/lufa.o
                0x0000000000004822                EVENT_USB_Device_ControlRequest
 .text.protocol_setup
                0x000000000000498e       0x32 .build/obj_3key_default/lufa.o
                0x000000000000498e                protocol_setup
 .text.protocol_init
                0x00000000000049c0       0x24 .build/obj_3key_default/lufa.o
                0x00000000000049c0                protocol_init
 .text.protocol_task
                0x00000000000049e4       0x36 .build/obj_3key_default/lufa.o
                0x00000000000049e4                protocol_task
 .text.CALLBACK_USB_GetDescriptor
                0x0000000000004a1a        0x4 .build/obj_3key_default/lufa.o
                0x0000000000004a1a                CALLBACK_USB_GetDescriptor
 .text.get_usb_descriptor
                0x0000000000004a1e       0xb4 .build/obj_3key_default/usb_descriptor.o
                0x0000000000004a1e                get_usb_descriptor
 .text.USB_Device_SendRemoteWakeup
                0x0000000000004ad2       0x2c .build/obj_3key_default/lib/lufa/LUFA/Drivers/USB/Core/AVR8/Device_AVR8.o
                0x0000000000004ad2                USB_Device_SendRemoteWakeup
 .text.Endpoint_Write_Stream_LE
                0x0000000000004afe       0x9e .build/obj_3key_default/lib/lufa/LUFA/Drivers/USB/Core/AVR8/EndpointStream_AVR8.o
                0x0000000000004afe                Endpoint_Write_Stream_LE
 .text.Endpoint_Write_Control_Stream_LE
                0x0000000000004b9c       0xb4 .build/obj_3key_default/lib/lufa/LUFA/Drivers/USB/Core/AVR8/EndpointStream_AVR8.o
                0x0000000000004b9c                Endpoint_Write_Control_Stream_LE
 .text.Endpoint_Write_Control_PStream_LE
                0x0000000000004c50       0xb6 .build/obj_3key_default/lib/lufa/LUFA/Drivers/USB/Core/AVR8/EndpointStream_AVR8.o
                0x0000000000004c50                Endpoint_Write_Control_PStream_LE
 .text.Endpoint_ConfigureEndpoint_Prv
                0x0000000000004d06       0x68 .build/obj_3key_default/lib/lufa/LUFA/Drivers/USB/Core/AVR8/Endpoint_AVR8.o
                0x0000000000004d06                Endpoint_ConfigureEndpoint_Prv
 .text.Endpoint_ClearStatusStage
                0x0000000000004d6e       0x3e .build/obj_3key_default/lib/lufa/LUFA/Drivers/USB/Core/AVR8/Endpoint_AVR8.o
                0x0000000000004d6e                Endpoint_ClearStatusStage
 .text.Endpoint_WaitUntilReady
                0x0000000000004dac       0x62 .build/obj_3key_default/lib/lufa/LUFA/Drivers/USB/Core/AVR8/Endpoint_AVR8.o
                0x0000000000004dac                Endpoint_WaitUntilReady
 .text.USB_Disable
                0x0000000000004e0e       0x34 .build/obj_3key_default/lib/lufa/LUFA/Drivers/USB/Core/AVR8/USBController_AVR8.o
                0x0000000000004e0e                USB_Disable
 .text.USB_ResetInterface
                0x0000000000004e42       0x86 .build/obj_3key_default/lib/lufa/LUFA/Drivers/USB/Core/AVR8/USBController_AVR8.o
                0x0000000000004e42                USB_ResetInterface
 .text.USB_Init
                0x0000000000004ec8       0x22 .build/obj_3key_default/lib/lufa/LUFA/Drivers/USB/Core/AVR8/USBController_AVR8.o
                0x0000000000004ec8                USB_Init
 .text.USB_INT_DisableAllInterrupts
                0x0000000000004eea       0x10 .build/obj_3key_default/lib/lufa/LUFA/Drivers/USB/Core/AVR8/USBInterrupt_AVR8.o
                0x0000000000004eea                USB_INT_DisableAllInterrupts
 .text.USB_INT_ClearAllInterrupts
                0x0000000000004efa        0xa .build/obj_3key_default/lib/lufa/LUFA/Drivers/USB/Core/AVR8/USBInterrupt_AVR8.o
                0x0000000000004efa                USB_INT_ClearAllInterrupts
 .text.__vector_10
                0x0000000000004f04      0x1a6 .build/obj_3key_default/lib/lufa/LUFA/Drivers/USB/Core/AVR8/USBInterrupt_AVR8.o
                0x0000000000004f04                __vector_10
 .text.__vector_11
                0x00000000000050aa       0x92 .build/obj_3key_default/lib/lufa/LUFA/Drivers/USB/Core/AVR8/USBInterrupt_AVR8.o
                0x00000000000050aa                __vector_11
 .text.USB_Device_ProcessControlRequest
                0x000000000000513c      0x2a2 .build/obj_3key_default/lib/lufa/LUFA/Drivers/USB/Core/DeviceStandardReq.o
                0x000000000000513c                USB_Device_ProcessControlRequest
 .text.USB_Event_Stub
                0x00000000000053de        0x2 .build/obj_3key_default/lib/lufa/LUFA/Drivers/USB/Core/Events.o
                0x00000000000053de                USB_Event_Stub
                0x00000000000053de                EVENT_USB_Device_StartOfFrame
 .text.USB_USBTask
                0x00000000000053e0       0x34 .build/obj_3key_default/lib/lufa/LUFA/Drivers/USB/Core/USBTask.o
                0x00000000000053e0                USB_USBTask
 .text.libgcc.mul
                0x0000000000005414       0x20 /usr/lib/gcc/avr/11.2.0/avr5/libgcc.a(_mulsi3.o)
                0x0000000000005414                __mulsi3
 .text.libgcc.div
                0x0000000000005434       0x28 /usr/lib/gcc/avr/11.2.0/avr5/libgcc.a(_udivmodhi4.o)
                0x0000000000005434                __udivmodhi4
 .text.libgcc.div
                0x000000000000545c       0x28 /usr/lib/gcc/avr/11.2.0/avr5/libgcc.a(_divmodhi4.o)
                0x000000000000545c                __divmodhi4
                0x000000000000545c                _div
 .text.libgcc.div
                0x0000000000005484       0x44 /usr/lib/gcc/avr/11.2.0/avr5/libgcc.a(_udivmodsi4.o)
                0x0000000000005484                __udivmodsi4
 .text.libgcc   0x00000000000054c8        0xc /usr/lib/gcc/avr/11.2.0/avr5/libgcc.a(_tablejump2.o)
                0x00000000000054c8                __tablejump2__
 .text.libgcc.mul
                0x00000000000054d4       0x10 /usr/lib/gcc/avr/11.2.0/avr5/libgcc.a(_mulhisi3.o)
                0x00000000000054d4                __mulhisi3
 .text.libgcc.mul
                0x00000000000054e4       0x1e /usr/lib/gcc/avr/11.2.0/avr5/libgcc.a(_umulhisi3.o)
                0x00000000000054e4                __umulhisi3
 .text.libgcc.mul
                0x0000000000005502        0xe /usr/lib/gcc/avr/11.2.0/avr5/libgcc.a(_usmulhisi3.o)
                0x0000000000005502                __usmulhisi3
                0x0000000000005506                __usmulhisi3_tail
 .text.libgcc.mul
                0x0000000000005510       0x16 /usr/lib/gcc/avr/11.2.0/avr5/libgcc.a(_muluhisi3.o)
                0x0000000000005510                __muluhisi3
 .text.libgcc.mul
                0x0000000000005526       0x10 /usr/lib/gcc/avr/11.2.0/avr5/libgcc.a(_mulshisi3.o)
                0x0000000000005526                __mulshisi3
                0x000000000000552c                __mulohisi3
 .text.avr-libc
                0x0000000000005536       0x12 /usr/lib/gcc/avr/11.2.0/../../../../avr/lib/avr5/libc.a(memcpy_P.o)
                0x0000000000005536                memcpy_P
 .text.avr-libc
                0x0000000000005548       0x1a /usr/lib/gcc/avr/11.2.0/../../../../avr/lib/avr5/libc.a(memchr.o)
                0x0000000000005548                memchr
 .text.avr-libc
                0x0000000000005562       0x10 /usr/lib/gcc/avr/11.2.0/../../../../avr/lib/avr5/libatmega32u4.a(eerd_byte.o)
                0x0000000000005562                eeprom_read_byte
 .text.avr-libc
                0x0000000000005572        0xc /usr/lib/gcc/avr/11.2.0/../../../../avr/lib/avr5/libatmega32u4.a(eerd_dword.o)
                0x0000000000005572                eeprom_read_dword
                0x0000000000005572                eeprom_read_float
 .text.avr-libc
                0x000000000000557e        0xc /usr/lib/gcc/avr/11.2.0/../../../../avr/lib/avr5/libatmega32u4.a(eerd_word.o)
                0x000000000000557e                eeprom_read_word
 .text.avr-libc
                0x000000000000558a       0x24 /usr/lib/gcc/avr/11.2.0/../../../../avr/lib/avr5/libatmega32u4.a(eeupd_byte.o)
                0x000000000000558a                eeprom_update_byte
                0x000000000000558c                eeprom_update_r18
 .text.avr-libc
                0x00000000000055ae       0x18 /usr/lib/gcc/avr/11.2.0/../../../../avr/lib/avr5/libatmega32u4.a(eeupd_dword.o)
                0x00000000000055ae                eeprom_update_dword
                0x00000000000055ae                eeprom_update_float
 .text.avr-libc
                0x00000000000055c6        0xc /usr/lib/gcc/avr/11.2.0/../../../../avr/lib/avr5/libatmega32u4.a(eeupd_word.o)
                0x00000000000055c6                eeprom_update_word
 .text.avr-libc
                0x00000000000055d2       0x20 /usr/lib/gcc/avr/11.2.0/../../../../avr/lib/avr5/libatmega32u4.a(eerd_block.o)
                0x00000000000055d2                eeprom_read_block
                0x00000000000055d6                eeprom_read_blraw
                0x00000000000055f2                . = ALIGN (0x2)
 *(.fini9)
 .fini9         0x00000000000055f2        0x0 /usr/lib/gcc/avr/11.2.0/avr5/libgcc.a(_exit.o)
                0x00000000000055f2                exit
                0x00000000000055f2                _exit
 *(.fini9)
 *(.fini8)
 *(.fini8)
 *(.fini7)
 *(.fini7)
 *(.fini6)
 *(.fini6)
 *(.fini5)
 *(.fini5)
 *(.fini4)
 *(.fini4)
 *(.fini3)
 *(.fini3)
 *(.fini2)
 *(.fini2)
 *(.fini1)
 *(.fini1)
 *(.fini0)
 .fini0         0x00000000000055f2        0x4 /usr/lib/gcc/avr/11.2.0/avr5/libgcc.a(_exit.o)
 *(.fini0)
 *(.hightext)
 *(.hightext*)
 *(.progmemx.*)
                0x00000000000055f6                . = ALIGN (0x2)
 *(.jumptables)
 *(.jumptables*)
 .jumptables.gcc.process_action
                0x00000000000055f6       0x20 .build/obj_3key_default/quantum/action.o
 .jumptables.gcc.mousekey_on
                0x0000000000005616       0x26 .build/obj_3key_default/quantum/mousekey.o
 .jumptables.gcc.process_rgb
                0x000000000000563c       0x26 .build/obj_3key_default/quantum/process_keycode/process_rgb.o
 .jumptables.gcc.process_magic
                0x0000000000005662       0x36 .build/obj_3key_default/quantum/process_keycode/process_magic.o
 .jumptables.gcc.USB_Device_ProcessControlRequest
                0x0000000000005698       0x14 .build/obj_3key_default/lib/lufa/LUFA/Drivers/USB/Core/DeviceStandardReq.o
                0x00000000000056ac                _etext = .

.data           0x0000000000800100       0xac load address 0x00000000000056ac
                0x0000000000800100                PROVIDE (__data_start = .)
 *(.data)
 *(.data*)
 .data.keyboard_report
                0x0000000000800100        0x2 .build/obj_3key_default/quantum/action_util.o
                0x0000000000800100                keyboard_report
 .data.mk_wheel_time_to_max
                0x0000000000800102        0x1 .build/obj_3key_default/quantum/mousekey.o
                0x0000000000800102                mk_wheel_time_to_max
 .data.mk_wheel_max_speed
                0x0000000000800103        0x1 .build/obj_3key_default/quantum/mousekey.o
                0x0000000000800103                mk_wheel_max_speed
 .data.mk_wheel_interval
                0x0000000000800104        0x1 .build/obj_3key_default/quantum/mousekey.o
                0x0000000000800104                mk_wheel_interval
 .data.mk_wheel_delay
                0x0000000000800105        0x1 .build/obj_3key_default/quantum/mousekey.o
                0x0000000000800105                mk_wheel_delay
 .data.mk_time_to_max
                0x0000000000800106        0x1 .build/obj_3key_default/quantum/mousekey.o
                0x0000000000800106                mk_time_to_max
 .data.mk_max_speed
                0x0000000000800107        0x1 .build/obj_3key_default/quantum/mousekey.o
                0x0000000000800107                mk_max_speed
 .data.mk_interval
                0x0000000000800108        0x1 .build/obj_3key_default/quantum/mousekey.o
                0x0000000000800108                mk_interval
 .data.mk_delay
                0x0000000000800109        0x1 .build/obj_3key_default/quantum/mousekey.o
                0x0000000000800109                mk_delay
 .data.increment.1
                0x000000000080010a        0x1 .build/obj_3key_default/quantum/rgblight/rgblight.o
 .data.increment.2
                0x000000000080010b        0x1 .build/obj_3key_default/quantum/rgblight/rgblight.o
 .data.high_bound.3
                0x000000000080010c        0x1 .build/obj_3key_default/quantum/rgblight/rgblight.o
 .data.rgblight_ranges
                0x000000000080010d        0x5 .build/obj_3key_default/quantum/rgblight/rgblight.o
                0x000000000080010d                rgblight_ranges
 .data.static_effect_table
                0x0000000000800112        0xb .build/obj_3key_default/quantum/rgblight/rgblight.o
 .data.lufa_driver
                0x000000000080011d        0xa .build/obj_3key_default/lufa.o
                0x000000000080011d                lufa_driver
 .data.keyboard_protocol
                0x0000000000800127        0x1 .build/obj_3key_default/lufa.o
                0x0000000000800127                keyboard_protocol
 *(.gnu.linkonce.d*)
 *(.rodata)
 *(.rodata*)
 .rodata.CSWTCH.14
                0x0000000000800128       0x2e .build/obj_3key_default/quantum/action.o
 .rodata.CSWTCH.2
                0x0000000000800156       0x2e .build/obj_3key_default/quantum/keymap_common.o
 .rodata.col_pins
                0x0000000000800184        0x3 .build/obj_3key_default/quantum/matrix.o
 .rodata.mode_base_table
                0x0000000000800187       0x25 .build/obj_3key_default/quantum/rgblight/rgblight.o
 *(.gnu.linkonce.r*)
                0x00000000008001ac                . = ALIGN (0x2)
                0x00000000008001ac                _edata = .
                0x00000000008001ac                PROVIDE (__data_end = .)

.bss            0x00000000008001ac       0xe8
                0x00000000008001ac                PROVIDE (__bss_start = .)
 *(.bss)
 .bss           0x00000000008001ac        0x2 .build/obj_3key_default/common/avr/xprintf.o
                0x00000000008001ac                xfunc_out
 *(.bss*)
 .bss.disable_action_cache
                0x00000000008001ae        0x1 .build/obj_3key_default/quantum/action.o
                0x00000000008001ae                disable_action_cache
 .bss.source_layers_cache
                0x00000000008001af        0x5 .build/obj_3key_default/quantum/action_layer.o
                0x00000000008001af                source_layers_cache
 .bss.layer_state
                0x00000000008001b4        0x4 .build/obj_3key_default/quantum/action_layer.o
                0x00000000008001b4                layer_state
 .bss.default_layer_state
                0x00000000008001b8        0x4 .build/obj_3key_default/quantum/action_layer.o
                0x00000000008001b8                default_layer_state
 .bss.waiting_buffer_tail
                0x00000000008001bc        0x1 .build/obj_3key_default/quantum/action_tapping.o
 .bss.waiting_buffer_head
                0x00000000008001bd        0x1 .build/obj_3key_default/quantum/action_tapping.o
 .bss.waiting_buffer
                0x00000000008001be       0x30 .build/obj_3key_default/quantum/action_tapping.o
 .bss.tapping_key
                0x00000000008001ee        0x6 .build/obj_3key_default/quantum/action_tapping.o
 .bss.oneshot_layer_data
                0x00000000008001f4        0x1 .build/obj_3key_default/quantum/action_util.o
 .bss.oneshot_mods
                0x00000000008001f5        0x1 .build/obj_3key_default/quantum/action_util.o
 .bss.__compound_literal.0
                0x00000000008001f6       0x20 .build/obj_3key_default/quantum/action_util.o
 .bss.macro_mods
                0x0000000000800216        0x1 .build/obj_3key_default/quantum/action_util.o
 .bss.weak_mods
                0x0000000000800217        0x1 .build/obj_3key_default/quantum/action_util.o
 .bss.real_mods
                0x0000000000800218        0x1 .build/obj_3key_default/quantum/action_util.o
 .bss.led_status.0
                0x0000000000800219        0x1 .build/obj_3key_default/quantum/keyboard.o
 .bss.matrix_prev.1
                0x000000000080021a        0x1 .build/obj_3key_default/quantum/keyboard.o
 .bss.last_matrix_modification_time
                0x000000000080021b        0x4 .build/obj_3key_default/quantum/keyboard.o
 .bss.last_input_modification_time
                0x000000000080021f        0x4 .build/obj_3key_default/quantum/keyboard.o
 .bss.debug_config
                0x0000000000800223        0x1 .build/obj_3key_default/quantum/logging/debug.o
                0x0000000000800223                debug_config
 .bss.debouncing_time
                0x0000000000800224        0x2 .build/obj_3key_default/quantum/debounce/sym_defer_g.o
 .bss.debouncing
                0x0000000000800226        0x1 .build/obj_3key_default/quantum/debounce/sym_defer_g.o
 .bss.last_timer_w
                0x0000000000800227        0x2 .build/obj_3key_default/quantum/mousekey.o
 .bss.last_timer_c
                0x0000000000800229        0x2 .build/obj_3key_default/quantum/mousekey.o
 .bss.mousekey_wheel_repeat
                0x000000000080022b        0x1 .build/obj_3key_default/quantum/mousekey.o
 .bss.mousekey_repeat
                0x000000000080022c        0x1 .build/obj_3key_default/quantum/mousekey.o
 .bss.mousekey_accel
                0x000000000080022d        0x1 .build/obj_3key_default/quantum/mousekey.o
 .bss.mouse_report
                0x000000000080022e        0x6 .build/obj_3key_default/quantum/mousekey.o
 .bss.maxval.0  0x0000000000800234        0x1 .build/obj_3key_default/quantum/rgblight/rgblight.o
 .bss.low_bound.4
                0x0000000000800235        0x1 .build/obj_3key_default/quantum/rgblight/rgblight.o
 .bss.pos.5     0x0000000000800236        0x1 .build/obj_3key_default/quantum/rgblight/rgblight.o
 .bss.rgblight_layers
                0x0000000000800237        0x2 .build/obj_3key_default/quantum/rgblight/rgblight.o
                0x0000000000800237                rgblight_layers
 .bss.animation_status
                0x0000000000800239        0x6 .build/obj_3key_default/quantum/rgblight/rgblight.o
                0x0000000000800239                animation_status
 .bss.is_rgblight_initialized
                0x000000000080023f        0x1 .build/obj_3key_default/quantum/rgblight/rgblight.o
                0x000000000080023f                is_rgblight_initialized
 .bss.rgblight_status
                0x0000000000800240        0x3 .build/obj_3key_default/quantum/rgblight/rgblight.o
                0x0000000000800240                rgblight_status
 .bss.sc_timer  0x0000000000800243        0x2 .build/obj_3key_default/quantum/process_keycode/process_space_cadet.o
 .bss.sc_last   0x0000000000800245        0x1 .build/obj_3key_default/quantum/process_keycode/process_space_cadet.o
 .bss.grave_esc_was_shifted
                0x0000000000800246        0x1 .build/obj_3key_default/quantum/process_keycode/process_grave_esc.o
 .bss.last_consumer_report
                0x0000000000800247        0x2 .build/obj_3key_default/common/host.o
 .bss.last_system_report
                0x0000000000800249        0x2 .build/obj_3key_default/common/host.o
 .bss.driver    0x000000000080024b        0x2 .build/obj_3key_default/common/host.o
 .bss.wdt_timeout
                0x000000000080024d        0x1 .build/obj_3key_default/common/avr/suspend.o
 .bss.r.0       0x000000000080024e        0x3 .build/obj_3key_default/lufa.o
 .bss.keyboard_report_sent
                0x0000000000800251       0x20 .build/obj_3key_default/lufa.o
 .bss.keyboard_led_state
                0x0000000000800271        0x1 .build/obj_3key_default/lufa.o
 .bss.keyboard_idle
                0x0000000000800272        0x1 .build/obj_3key_default/lufa.o
                0x0000000000800272                keyboard_idle
 *(COMMON)
 COMMON         0x0000000000800273        0x2 .build/obj_3key_default/quantum/bootmagic/magic.o
                0x0000000000800273                keymap_config
 COMMON         0x0000000000800275        0x2 .build/obj_3key_default/quantum/matrix_common.o
                0x0000000000800275                raw_matrix
                0x0000000000800276                matrix
 COMMON         0x0000000000800277        0xb .build/obj_3key_default/quantum/rgblight/rgblight.o
                0x0000000000800277                rgblight_config
                0x000000000080027c                led
 COMMON         0x0000000000800282        0x1 .build/obj_3key_default/quantum/backlight/backlight.o
                0x0000000000800282                backlight_config
 COMMON         0x0000000000800283        0x4 .build/obj_3key_default/common/avr/timer.o
                0x0000000000800283                timer_count
 COMMON         0x0000000000800287        0x3 .build/obj_3key_default/lib/lufa/LUFA/Drivers/USB/Core/DeviceStandardReq.o
                0x0000000000800287                USB_Device_ConfigurationNumber
                0x0000000000800288                USB_Device_CurrentlySelfPowered
                0x0000000000800289                USB_Device_RemoteWakeupEnabled
 COMMON         0x000000000080028a        0xa .build/obj_3key_default/lib/lufa/LUFA/Drivers/USB/Core/USBTask.o
                0x000000000080028a                USB_IsInitialized
                0x000000000080028b                USB_DeviceState
                0x000000000080028c                USB_ControlRequest
                0x0000000000800294                PROVIDE (__bss_end = .)
                0x00000000000056ac                __data_load_start = LOADADDR (.data)
                0x0000000000005758                __data_load_end = (__data_load_start + SIZEOF (.data))

.noinit         0x0000000000800294        0x4
                [!provide]                        PROVIDE (__noinit_start = .)
 *(.noinit .noinit.* .gnu.linkonce.n.*)
 .noinit        0x0000000000800294        0x4 .build/obj_3key_default/common/avr/bootloader.o
                0x0000000000800294                reset_key
                [!provide]                        PROVIDE (__noinit_end = .)
                0x0000000000800298                _end = .
                [!provide]                        PROVIDE (__heap_start = .)

.eeprom         0x0000000000810000        0x0
 *(.eeprom*)
                0x0000000000810000                __eeprom_end = .

.fuse
 *(.fuse)
 *(.lfuse)
 *(.hfuse)
 *(.efuse)

.lock
 *(.lock*)

.signature
 *(.signature*)

.stab           0x0000000000000000       0x24
 *(.stab)
 .stab          0x0000000000000000       0x24 .build/obj_3key_default/common/avr/xprintf.o
                                        0x8b8 (size before relaxing)

.stabstr        0x0000000000000000       0x6d
 *(.stabstr)
 .stabstr       0x0000000000000000       0x6d .build/obj_3key_default/common/avr/xprintf.o

.stab.excl
 *(.stab.excl)

.stab.exclstr
 *(.stab.exclstr)

.stab.index
 *(.stab.index)

.stab.indexstr
 *(.stab.indexstr)

.comment        0x0000000000000000       0x12
 *(.comment)
 .comment       0x0000000000000000       0x12 .build/obj_3key_default/keyboards/3key/keymaps/default/keymap.o
                                         0x13 (size before relaxing)
 .comment       0x0000000000000012       0x13 .build/obj_3key_default/quantum/quantum.o
 .comment       0x0000000000000012       0x13 .build/obj_3key_default/quantum/led.o
 .comment       0x0000000000000012       0x13 .build/obj_3key_default/quantum/action.o
 .comment       0x0000000000000012       0x13 .build/obj_3key_default/quantum/action_layer.o
 .comment       0x0000000000000012       0x13 .build/obj_3key_default/quantum/action_macro.o
 .comment       0x0000000000000012       0x13 .build/obj_3key_default/quantum/action_tapping.o
 .comment       0x0000000000000012       0x13 .build/obj_3key_default/quantum/action_util.o
 .comment       0x0000000000000012       0x13 .build/obj_3key_default/quantum/eeconfig.o
 .comment       0x0000000000000012       0x13 .build/obj_3key_default/quantum/keyboard.o
 .comment       0x0000000000000012       0x13 .build/obj_3key_default/quantum/keymap_common.o
 .comment       0x0000000000000012       0x13 .build/obj_3key_default/quantum/keycode_config.o
 .comment       0x0000000000000012       0x13 .build/obj_3key_default/quantum/logging/debug.o
 .comment       0x0000000000000012       0x13 .build/obj_3key_default/quantum/logging/sendchar.o
 .comment       0x0000000000000012       0x13 .build/obj_3key_default/quantum/bootmagic/bootmagic_lite.o
 .comment       0x0000000000000012       0x13 .build/obj_3key_default/quantum/bootmagic/magic.o
 .comment       0x0000000000000012       0x13 .build/obj_3key_default/quantum/matrix_common.o
 .comment       0x0000000000000012       0x13 .build/obj_3key_default/quantum/matrix.o
 .comment       0x0000000000000012       0x13 .build/obj_3key_default/quantum/debounce/sym_defer_g.o
 .comment       0x0000000000000012       0x13 .build/obj_3key_default/quantum/main.o
 .comment       0x0000000000000012       0x13 .build/obj_3key_default/quantum/mousekey.o
 .comment       0x0000000000000012       0x13 .build/obj_3key_default/quantum/color.o
 .comment       0x0000000000000012       0x13 .build/obj_3key_default/quantum/rgblight/rgblight.o
 .comment       0x0000000000000012       0x13 .build/obj_3key_default/quantum/process_keycode/process_rgb.o
 .comment       0x0000000000000012       0x13 .build/obj_3key_default/quantum/backlight/backlight.o
 .comment       0x0000000000000012       0x13 .build/obj_3key_default/quantum/process_keycode/process_backlight.o
 .comment       0x0000000000000012       0x13 .build/obj_3key_default/quantum/backlight/backlight_driver_common.o
 .comment       0x0000000000000012       0x13 .build/obj_3key_default/quantum/backlight/backlight_avr.o
 .comment       0x0000000000000012       0x13 .build/obj_3key_default/ws2812.o
 .comment       0x0000000000000012       0x13 .build/obj_3key_default/quantum/led_tables.o
 .comment       0x0000000000000012       0x13 .build/obj_3key_default/quantum/process_keycode/process_space_cadet.o
 .comment       0x0000000000000012       0x13 .build/obj_3key_default/quantum/process_keycode/process_magic.o
 .comment       0x0000000000000012       0x13 .build/obj_3key_default/quantum/process_keycode/process_grave_esc.o
 .comment       0x0000000000000012       0x13 .build/obj_3key_default/common/host.o
 .comment       0x0000000000000012       0x13 .build/obj_3key_default/common/report.o
 .comment       0x0000000000000012       0x13 .build/obj_3key_default/common/avr/platform.o
 .comment       0x0000000000000012       0x13 .build/obj_3key_default/common/avr/suspend.o
 .comment       0x0000000000000012       0x13 .build/obj_3key_default/common/avr/timer.o
 .comment       0x0000000000000012       0x13 .build/obj_3key_default/common/avr/bootloader.o
 .comment       0x0000000000000012       0x13 .build/obj_3key_default/common/avr/printf.o
 .comment       0x0000000000000012       0x13 .build/obj_3key_default/lufa.o
 .comment       0x0000000000000012       0x13 .build/obj_3key_default/usb_descriptor.o
 .comment       0x0000000000000012       0x13 .build/obj_3key_default/lib/lufa/LUFA/Drivers/USB/Core/AVR8/Device_AVR8.o
 .comment       0x0000000000000012       0x13 .build/obj_3key_default/lib/lufa/LUFA/Drivers/USB/Core/AVR8/EndpointStream_AVR8.o
 .comment       0x0000000000000012       0x13 .build/obj_3key_default/lib/lufa/LUFA/Drivers/USB/Core/AVR8/Endpoint_AVR8.o
 .comment       0x0000000000000012       0x13 .build/obj_3key_default/lib/lufa/LUFA/Drivers/USB/Core/AVR8/USBController_AVR8.o
 .comment       0x0000000000000012       0x13 .build/obj_3key_default/lib/lufa/LUFA/Drivers/USB/Core/AVR8/USBInterrupt_AVR8.o
 .comment       0x0000000000000012       0x13 .build/obj_3key_default/lib/lufa/LUFA/Drivers/USB/Core/DeviceStandardReq.o
 .comment       0x0000000000000012       0x13 .build/obj_3key_default/lib/lufa/LUFA/Drivers/USB/Core/Events.o
 .comment       0x0000000000000012       0x13 .build/obj_3key_default/lib/lufa/LUFA/Drivers/USB/Core/USBTask.o

.note.gnu.avr.deviceinfo
                0x0000000000000000       0x40
 .note.gnu.avr.deviceinfo
                0x0000000000000000       0x40 /usr/lib/gcc/avr/11.2.0/../../../../avr/lib/avr5/crtatmega32u4.o

.note.gnu.build-id
 *(.note.gnu.build-id)

.debug
 *(.debug)

.line
 *(.line)

.debug_srcinfo
 *(.debug_srcinfo)

.debug_sfnames
 *(.debug_sfnames)

.debug_aranges  0x0000000000000000     0x12f8
 *(.debug_aranges)
 .debug_aranges
                0x0000000000000000       0x30 .build/obj_3key_default/keyboards/3key/keymaps/default/keymap.o
 .debug_aranges
                0x0000000000000030       0xd0 .build/obj_3key_default/quantum/quantum.o
 .debug_aranges
                0x0000000000000100       0x48 .build/obj_3key_default/quantum/led.o
 .debug_aranges
                0x0000000000000148       0xe0 .build/obj_3key_default/quantum/action.o
 .debug_aranges
                0x0000000000000228       0xe0 .build/obj_3key_default/quantum/action_layer.o
 .debug_aranges
                0x0000000000000308       0x20 .build/obj_3key_default/quantum/action_macro.o
 .debug_aranges
                0x0000000000000328       0x48 .build/obj_3key_default/quantum/action_tapping.o
 .debug_aranges
                0x0000000000000370      0x178 .build/obj_3key_default/quantum/action_util.o
 .debug_aranges
                0x00000000000004e8       0xd8 .build/obj_3key_default/quantum/eeconfig.o
 .debug_aranges
                0x00000000000005c0       0xb8 .build/obj_3key_default/quantum/keyboard.o
 .debug_aranges
                0x0000000000000678       0x48 .build/obj_3key_default/quantum/keymap_common.o
 .debug_aranges
                0x00000000000006c0       0x28 .build/obj_3key_default/quantum/keycode_config.o
 .debug_aranges
                0x00000000000006e8       0x18 .build/obj_3key_default/quantum/logging/debug.o
 .debug_aranges
                0x0000000000000700       0x20 .build/obj_3key_default/quantum/logging/sendchar.o
 .debug_aranges
                0x0000000000000720       0x30 .build/obj_3key_default/quantum/bootmagic/bootmagic_lite.o
 .debug_aranges
                0x0000000000000750       0x28 .build/obj_3key_default/quantum/bootmagic/magic.o
 .debug_aranges
                0x0000000000000778       0xa0 .build/obj_3key_default/quantum/matrix_common.o
 .debug_aranges
                0x0000000000000818       0x40 .build/obj_3key_default/quantum/matrix.o
 .debug_aranges
                0x0000000000000858       0x38 .build/obj_3key_default/quantum/debounce/sym_defer_g.o
 .debug_aranges
                0x0000000000000890       0x20 .build/obj_3key_default/quantum/main.o
 .debug_aranges
                0x00000000000008b0       0x58 .build/obj_3key_default/quantum/mousekey.o
 .debug_aranges
                0x0000000000000908       0x30 .build/obj_3key_default/quantum/color.o
 .debug_aranges
                0x0000000000000938      0x328 .build/obj_3key_default/quantum/rgblight/rgblight.o
 .debug_aranges
                0x0000000000000c60       0x30 .build/obj_3key_default/quantum/process_keycode/process_rgb.o
 .debug_aranges
                0x0000000000000c90       0xa0 .build/obj_3key_default/quantum/backlight/backlight.o
 .debug_aranges
                0x0000000000000d30       0x20 .build/obj_3key_default/quantum/process_keycode/process_backlight.o
 .debug_aranges
                0x0000000000000d50       0x30 .build/obj_3key_default/quantum/backlight/backlight_driver_common.o
 .debug_aranges
                0x0000000000000d80       0x30 .build/obj_3key_default/quantum/backlight/backlight_avr.o
 .debug_aranges
                0x0000000000000db0       0x20 .build/obj_3key_default/ws2812.o
 .debug_aranges
                0x0000000000000dd0       0x18 .build/obj_3key_default/quantum/led_tables.o
 .debug_aranges
                0x0000000000000de8       0x28 .build/obj_3key_default/quantum/process_keycode/process_space_cadet.o
 .debug_aranges
                0x0000000000000e10       0x20 .build/obj_3key_default/quantum/process_keycode/process_magic.o
 .debug_aranges
                0x0000000000000e30       0x20 .build/obj_3key_default/quantum/process_keycode/process_grave_esc.o
 .debug_aranges
                0x0000000000000e50       0x78 .build/obj_3key_default/common/host.o
 .debug_aranges
                0x0000000000000ec8       0x68 .build/obj_3key_default/common/report.o
 .debug_aranges
                0x0000000000000f30       0x20 .build/obj_3key_default/common/avr/platform.o
 .debug_aranges
                0x0000000000000f50       0x58 .build/obj_3key_default/common/avr/suspend.o
 .debug_aranges
                0x0000000000000fa8       0x50 .build/obj_3key_default/common/avr/timer.o
 .debug_aranges
                0x0000000000000ff8       0x28 .build/obj_3key_default/common/avr/bootloader.o
 .debug_aranges
                0x0000000000001020       0x20 .build/obj_3key_default/common/avr/printf.o
 .debug_aranges
                0x0000000000001040       0x98 .build/obj_3key_default/lufa.o
 .debug_aranges
                0x00000000000010d8       0x20 .build/obj_3key_default/usb_descriptor.o
 .debug_aranges
                0x00000000000010f8       0x20 .build/obj_3key_default/lib/lufa/LUFA/Drivers/USB/Core/AVR8/Device_AVR8.o
 .debug_aranges
                0x0000000000001118       0xc8 .build/obj_3key_default/lib/lufa/LUFA/Drivers/USB/Core/AVR8/EndpointStream_AVR8.o
 .debug_aranges
                0x00000000000011e0       0x40 .build/obj_3key_default/lib/lufa/LUFA/Drivers/USB/Core/AVR8/Endpoint_AVR8.o
 .debug_aranges
                0x0000000000001220       0x30 .build/obj_3key_default/lib/lufa/LUFA/Drivers/USB/Core/AVR8/USBController_AVR8.o
 .debug_aranges
                0x0000000000001250       0x38 .build/obj_3key_default/lib/lufa/LUFA/Drivers/USB/Core/AVR8/USBInterrupt_AVR8.o
 .debug_aranges
                0x0000000000001288       0x20 .build/obj_3key_default/lib/lufa/LUFA/Drivers/USB/Core/DeviceStandardReq.o
 .debug_aranges
                0x00000000000012a8       0x30 .build/obj_3key_default/lib/lufa/LUFA/Drivers/USB/Core/Events.o
 .debug_aranges
                0x00000000000012d8       0x20 .build/obj_3key_default/lib/lufa/LUFA/Drivers/USB/Core/USBTask.o

.debug_pubnames
 *(.debug_pubnames)

.debug_info     0x0000000000000000    0x1f4c0
 *(.debug_info .gnu.linkonce.wi.*)
 .debug_info    0x0000000000000000      0x9f4 /usr/lib/gcc/avr/11.2.0/../../../../avr/lib/avr5/crtatmega32u4.o
 .debug_info    0x00000000000009f4      0x75f .build/obj_3key_default/keyboards/3key/keymaps/default/keymap.o
 .debug_info    0x0000000000001153     0x1d3c .build/obj_3key_default/quantum/quantum.o
 .debug_info    0x0000000000002e8f      0x26c .build/obj_3key_default/quantum/led.o
 .debug_info    0x00000000000030fb     0x23fa .build/obj_3key_default/quantum/action.o
 .debug_info    0x00000000000054f5      0xc32 .build/obj_3key_default/quantum/action_layer.o
 .debug_info    0x0000000000006127      0x84f .build/obj_3key_default/quantum/action_macro.o
 .debug_info    0x0000000000006976      0xf18 .build/obj_3key_default/quantum/action_tapping.o
 .debug_info    0x000000000000788e      0xca5 .build/obj_3key_default/quantum/action_util.o
 .debug_info    0x0000000000008533      0x90b .build/obj_3key_default/quantum/eeconfig.o
 .debug_info    0x0000000000008e3e      0x892 .build/obj_3key_default/quantum/keyboard.o
 .debug_info    0x00000000000096d0     0x1cc4 .build/obj_3key_default/quantum/keymap_common.o
 .debug_info    0x000000000000b394      0x64e .build/obj_3key_default/quantum/keycode_config.o
 .debug_info    0x000000000000b9e2      0x110 .build/obj_3key_default/quantum/logging/debug.o
 .debug_info    0x000000000000baf2       0xa8 .build/obj_3key_default/quantum/logging/sendchar.o
 .debug_info    0x000000000000bb9a      0x25f .build/obj_3key_default/quantum/bootmagic/bootmagic_lite.o
 .debug_info    0x000000000000bdf9      0x3aa .build/obj_3key_default/quantum/bootmagic/magic.o
 .debug_info    0x000000000000c1a3      0x652 .build/obj_3key_default/quantum/matrix_common.o
 .debug_info    0x000000000000c7f5      0x6e2 .build/obj_3key_default/quantum/matrix.o
 .debug_info    0x000000000000ced7      0x29f .build/obj_3key_default/quantum/debounce/sym_defer_g.o
 .debug_info    0x000000000000d176       0xe9 .build/obj_3key_default/quantum/main.o
 .debug_info    0x000000000000d25f      0x666 .build/obj_3key_default/quantum/mousekey.o
 .debug_info    0x000000000000d8c5      0x2f2 .build/obj_3key_default/quantum/color.o
 .debug_info    0x000000000000dbb7     0x342a .build/obj_3key_default/quantum/rgblight/rgblight.o
 .debug_info    0x0000000000010fe1     0x1434 .build/obj_3key_default/quantum/process_keycode/process_rgb.o
 .debug_info    0x0000000000012415      0x50d .build/obj_3key_default/quantum/backlight/backlight.o
 .debug_info    0x0000000000012922      0xd9f .build/obj_3key_default/quantum/process_keycode/process_backlight.o
 .debug_info    0x00000000000136c1      0x189 .build/obj_3key_default/quantum/backlight/backlight_driver_common.o
 .debug_info    0x000000000001384a      0x240 .build/obj_3key_default/quantum/backlight/backlight_avr.o
 .debug_info    0x0000000000013a8a      0x2cf .build/obj_3key_default/ws2812.o
 .debug_info    0x0000000000013d59       0xac .build/obj_3key_default/quantum/led_tables.o
 .debug_info    0x0000000000013e05     0x1325 .build/obj_3key_default/quantum/process_keycode/process_space_cadet.o
 .debug_info    0x000000000001512a      0xeb9 .build/obj_3key_default/quantum/process_keycode/process_magic.o
 .debug_info    0x0000000000015fe3     0x1371 .build/obj_3key_default/quantum/process_keycode/process_grave_esc.o
 .debug_info    0x0000000000017354      0x90e .build/obj_3key_default/common/host.o
 .debug_info    0x0000000000017c62      0xa70 .build/obj_3key_default/common/report.o
 .debug_info    0x00000000000186d2       0x79 .build/obj_3key_default/common/avr/platform.o
 .debug_info    0x000000000001874b      0x3ef .build/obj_3key_default/common/avr/suspend.o
 .debug_info    0x0000000000018b3a      0x45c .build/obj_3key_default/common/avr/timer.o
 .debug_info    0x0000000000018f96      0x246 .build/obj_3key_default/common/avr/bootloader.o
 .debug_info    0x00000000000191dc       0xe7 .build/obj_3key_default/common/avr/printf.o
 .debug_info    0x00000000000192c3     0x1506 .build/obj_3key_default/lufa.o
 .debug_info    0x000000000001a7c9      0x807 .build/obj_3key_default/usb_descriptor.o
 .debug_info    0x000000000001afd0       0xf5 .build/obj_3key_default/lib/lufa/LUFA/Drivers/USB/Core/AVR8/Device_AVR8.o
 .debug_info    0x000000000001b0c5     0x1d7b .build/obj_3key_default/lib/lufa/LUFA/Drivers/USB/Core/AVR8/EndpointStream_AVR8.o
 .debug_info    0x000000000001ce40      0x720 .build/obj_3key_default/lib/lufa/LUFA/Drivers/USB/Core/AVR8/Endpoint_AVR8.o
 .debug_info    0x000000000001d560      0x5a4 .build/obj_3key_default/lib/lufa/LUFA/Drivers/USB/Core/AVR8/USBController_AVR8.o
 .debug_info    0x000000000001db04      0x9ab .build/obj_3key_default/lib/lufa/LUFA/Drivers/USB/Core/AVR8/USBInterrupt_AVR8.o
 .debug_info    0x000000000001e4af      0xc64 .build/obj_3key_default/lib/lufa/LUFA/Drivers/USB/Core/DeviceStandardReq.o
 .debug_info    0x000000000001f113       0xe9 .build/obj_3key_default/lib/lufa/LUFA/Drivers/USB/Core/Events.o
 .debug_info    0x000000000001f1fc      0x2c4 .build/obj_3key_default/lib/lufa/LUFA/Drivers/USB/Core/USBTask.o

.debug_abbrev   0x0000000000000000     0x7463
 *(.debug_abbrev)
 .debug_abbrev  0x0000000000000000      0x96a /usr/lib/gcc/avr/11.2.0/../../../../avr/lib/avr5/crtatmega32u4.o
 .debug_abbrev  0x000000000000096a      0x19b .build/obj_3key_default/keyboards/3key/keymaps/default/keymap.o
 .debug_abbrev  0x0000000000000b05      0x3c1 .build/obj_3key_default/quantum/quantum.o
 .debug_abbrev  0x0000000000000ec6      0x179 .build/obj_3key_default/quantum/led.o
 .debug_abbrev  0x000000000000103f      0x527 .build/obj_3key_default/quantum/action.o
 .debug_abbrev  0x0000000000001566      0x377 .build/obj_3key_default/quantum/action_layer.o
 .debug_abbrev  0x00000000000018dd      0x1ca .build/obj_3key_default/quantum/action_macro.o
 .debug_abbrev  0x0000000000001aa7      0x3b7 .build/obj_3key_default/quantum/action_tapping.o
 .debug_abbrev  0x0000000000001e5e      0x344 .build/obj_3key_default/quantum/action_util.o
 .debug_abbrev  0x00000000000021a2      0x192 .build/obj_3key_default/quantum/eeconfig.o
 .debug_abbrev  0x0000000000002334      0x39a .build/obj_3key_default/quantum/keyboard.o
 .debug_abbrev  0x00000000000026ce      0x304 .build/obj_3key_default/quantum/keymap_common.o
 .debug_abbrev  0x00000000000029d2      0x119 .build/obj_3key_default/quantum/keycode_config.o
 .debug_abbrev  0x0000000000002aeb       0xa2 .build/obj_3key_default/quantum/logging/debug.o
 .debug_abbrev  0x0000000000002b8d       0x6b .build/obj_3key_default/quantum/logging/sendchar.o
 .debug_abbrev  0x0000000000002bf8      0x17d .build/obj_3key_default/quantum/bootmagic/bootmagic_lite.o
 .debug_abbrev  0x0000000000002d75      0x182 .build/obj_3key_default/quantum/bootmagic/magic.o
 .debug_abbrev  0x0000000000002ef7      0x349 .build/obj_3key_default/quantum/matrix_common.o
 .debug_abbrev  0x0000000000003240      0x30e .build/obj_3key_default/quantum/matrix.o
 .debug_abbrev  0x000000000000354e      0x1e8 .build/obj_3key_default/quantum/debounce/sym_defer_g.o
 .debug_abbrev  0x0000000000003736       0x66 .build/obj_3key_default/quantum/main.o
 .debug_abbrev  0x000000000000379c      0x2a6 .build/obj_3key_default/quantum/mousekey.o
 .debug_abbrev  0x0000000000003a42      0x16a .build/obj_3key_default/quantum/color.o
 .debug_abbrev  0x0000000000003bac      0x766 .build/obj_3key_default/quantum/rgblight/rgblight.o
 .debug_abbrev  0x0000000000004312      0x1dd .build/obj_3key_default/quantum/process_keycode/process_rgb.o
 .debug_abbrev  0x00000000000044ef      0x237 .build/obj_3key_default/quantum/backlight/backlight.o
 .debug_abbrev  0x0000000000004726      0x11f .build/obj_3key_default/quantum/process_keycode/process_backlight.o
 .debug_abbrev  0x0000000000004845       0xc4 .build/obj_3key_default/quantum/backlight/backlight_driver_common.o
 .debug_abbrev  0x0000000000004909      0x190 .build/obj_3key_default/quantum/backlight/backlight_avr.o
 .debug_abbrev  0x0000000000004a99      0x1af .build/obj_3key_default/ws2812.o
 .debug_abbrev  0x0000000000004c48       0x77 .build/obj_3key_default/quantum/led_tables.o
 .debug_abbrev  0x0000000000004cbf      0x1ad .build/obj_3key_default/quantum/process_keycode/process_space_cadet.o
 .debug_abbrev  0x0000000000004e6c      0x16c .build/obj_3key_default/quantum/process_keycode/process_magic.o
 .debug_abbrev  0x0000000000004fd8      0x217 .build/obj_3key_default/quantum/process_keycode/process_grave_esc.o
 .debug_abbrev  0x00000000000051ef      0x27b .build/obj_3key_default/common/host.o
 .debug_abbrev  0x000000000000546a      0x286 .build/obj_3key_default/common/report.o
 .debug_abbrev  0x00000000000056f0       0x46 .build/obj_3key_default/common/avr/platform.o
 .debug_abbrev  0x0000000000005736      0x279 .build/obj_3key_default/common/avr/suspend.o
 .debug_abbrev  0x00000000000059af      0x1c1 .build/obj_3key_default/common/avr/timer.o
 .debug_abbrev  0x0000000000005b70      0x1ce .build/obj_3key_default/common/avr/bootloader.o
 .debug_abbrev  0x0000000000005d3e       0x9d .build/obj_3key_default/common/avr/printf.o
 .debug_abbrev  0x0000000000005ddb      0x59d .build/obj_3key_default/lufa.o
 .debug_abbrev  0x0000000000006378      0x189 .build/obj_3key_default/usb_descriptor.o
 .debug_abbrev  0x0000000000006501       0x91 .build/obj_3key_default/lib/lufa/LUFA/Drivers/USB/Core/AVR8/Device_AVR8.o
 .debug_abbrev  0x0000000000006592      0x252 .build/obj_3key_default/lib/lufa/LUFA/Drivers/USB/Core/AVR8/EndpointStream_AVR8.o
 .debug_abbrev  0x00000000000067e4      0x29d .build/obj_3key_default/lib/lufa/LUFA/Drivers/USB/Core/AVR8/Endpoint_AVR8.o
 .debug_abbrev  0x0000000000006a81      0x1d2 .build/obj_3key_default/lib/lufa/LUFA/Drivers/USB/Core/AVR8/USBController_AVR8.o
 .debug_abbrev  0x0000000000006c53      0x26e .build/obj_3key_default/lib/lufa/LUFA/Drivers/USB/Core/AVR8/USBInterrupt_AVR8.o
 .debug_abbrev  0x0000000000006ec1      0x370 .build/obj_3key_default/lib/lufa/LUFA/Drivers/USB/Core/DeviceStandardReq.o
 .debug_abbrev  0x0000000000007231       0x89 .build/obj_3key_default/lib/lufa/LUFA/Drivers/USB/Core/Events.o
 .debug_abbrev  0x00000000000072ba      0x1a9 .build/obj_3key_default/lib/lufa/LUFA/Drivers/USB/Core/USBTask.o

.debug_line     0x0000000000000000    0x15af1
 *(.debug_line .debug_line.* .debug_line_end)
 .debug_line    0x0000000000000000       0x1d /usr/lib/gcc/avr/11.2.0/../../../../avr/lib/avr5/crtatmega32u4.o
 .debug_line    0x000000000000001d      0x14f .build/obj_3key_default/keyboards/3key/keymaps/default/keymap.o
 .debug_line    0x000000000000016c      0xac7 .build/obj_3key_default/quantum/quantum.o
 .debug_line    0x0000000000000c33      0x13e .build/obj_3key_default/quantum/led.o
 .debug_line    0x0000000000000d71     0x1716 .build/obj_3key_default/quantum/action.o
 .debug_line    0x0000000000002487      0x972 .build/obj_3key_default/quantum/action_layer.o
 .debug_line    0x0000000000002df9      0x441 .build/obj_3key_default/quantum/action_macro.o
 .debug_line    0x000000000000323a      0xc42 .build/obj_3key_default/quantum/action_tapping.o
 .debug_line    0x0000000000003e7c      0xaca .build/obj_3key_default/quantum/action_util.o
 .debug_line    0x0000000000004946      0x4bc .build/obj_3key_default/quantum/eeconfig.o
 .debug_line    0x0000000000004e02      0x784 .build/obj_3key_default/quantum/keyboard.o
 .debug_line    0x0000000000005586      0x5c9 .build/obj_3key_default/quantum/keymap_common.o
 .debug_line    0x0000000000005b4f      0x56b .build/obj_3key_default/quantum/keycode_config.o
 .debug_line    0x00000000000060ba       0x60 .build/obj_3key_default/quantum/logging/debug.o
 .debug_line    0x000000000000611a       0x81 .build/obj_3key_default/quantum/logging/sendchar.o
 .debug_line    0x000000000000619b      0x1b6 .build/obj_3key_default/quantum/bootmagic/bootmagic_lite.o
 .debug_line    0x0000000000006351      0x1a0 .build/obj_3key_default/quantum/bootmagic/magic.o
 .debug_line    0x00000000000064f1      0x4b4 .build/obj_3key_default/quantum/matrix_common.o
 .debug_line    0x00000000000069a5      0x5ba .build/obj_3key_default/quantum/matrix.o
 .debug_line    0x0000000000006f5f      0x236 .build/obj_3key_default/quantum/debounce/sym_defer_g.o
 .debug_line    0x0000000000007195       0x8f .build/obj_3key_default/quantum/main.o
 .debug_line    0x0000000000007224      0xd3b .build/obj_3key_default/quantum/mousekey.o
 .debug_line    0x0000000000007f5f      0x301 .build/obj_3key_default/quantum/color.o
 .debug_line    0x0000000000008260     0x32f3 .build/obj_3key_default/quantum/rgblight/rgblight.o
 .debug_line    0x000000000000b553      0x30b .build/obj_3key_default/quantum/process_keycode/process_rgb.o
 .debug_line    0x000000000000b85e      0x5f3 .build/obj_3key_default/quantum/backlight/backlight.o
 .debug_line    0x000000000000be51      0x16f .build/obj_3key_default/quantum/process_keycode/process_backlight.o
 .debug_line    0x000000000000bfc0      0x138 .build/obj_3key_default/quantum/backlight/backlight_driver_common.o
 .debug_line    0x000000000000c0f8      0x292 .build/obj_3key_default/quantum/backlight/backlight_avr.o
 .debug_line    0x000000000000c38a      0x1dd .build/obj_3key_default/ws2812.o
 .debug_line    0x000000000000c567       0x62 .build/obj_3key_default/quantum/led_tables.o
 .debug_line    0x000000000000c5c9      0x3b4 .build/obj_3key_default/quantum/process_keycode/process_space_cadet.o
 .debug_line    0x000000000000c97d      0x3fe .build/obj_3key_default/quantum/process_keycode/process_magic.o
 .debug_line    0x000000000000cd7b      0x1eb .build/obj_3key_default/quantum/process_keycode/process_grave_esc.o
 .debug_line    0x000000000000cf66      0x45d .build/obj_3key_default/common/host.o
 .debug_line    0x000000000000d3c3      0x6af .build/obj_3key_default/common/report.o
 .debug_line    0x000000000000da72       0x59 .build/obj_3key_default/common/avr/platform.o
 .debug_line    0x000000000000dacb      0x3da .build/obj_3key_default/common/avr/suspend.o
 .debug_line    0x000000000000dea5      0x497 .build/obj_3key_default/common/avr/timer.o
 .debug_line    0x000000000000e33c      0x235 .build/obj_3key_default/common/avr/bootloader.o
 .debug_line    0x000000000000e571       0xa8 .build/obj_3key_default/common/avr/printf.o
 .debug_line    0x000000000000e619     0x1043 .build/obj_3key_default/lufa.o
 .debug_line    0x000000000000f65c      0x2e3 .build/obj_3key_default/usb_descriptor.o
 .debug_line    0x000000000000f93f      0x19e .build/obj_3key_default/lib/lufa/LUFA/Drivers/USB/Core/AVR8/Device_AVR8.o
 .debug_line    0x000000000000fadd     0x32d2 .build/obj_3key_default/lib/lufa/LUFA/Drivers/USB/Core/AVR8/EndpointStream_AVR8.o
 .debug_line    0x0000000000012daf      0x992 .build/obj_3key_default/lib/lufa/LUFA/Drivers/USB/Core/AVR8/Endpoint_AVR8.o
 .debug_line    0x0000000000013741      0x640 .build/obj_3key_default/lib/lufa/LUFA/Drivers/USB/Core/AVR8/USBController_AVR8.o
 .debug_line    0x0000000000013d81      0xcd8 .build/obj_3key_default/lib/lufa/LUFA/Drivers/USB/Core/AVR8/USBInterrupt_AVR8.o
 .debug_line    0x0000000000014a59      0xd74 .build/obj_3key_default/lib/lufa/LUFA/Drivers/USB/Core/DeviceStandardReq.o
 .debug_line    0x00000000000157cd       0xd5 .build/obj_3key_default/lib/lufa/LUFA/Drivers/USB/Core/Events.o
 .debug_line    0x00000000000158a2      0x24f .build/obj_3key_default/lib/lufa/LUFA/Drivers/USB/Core/USBTask.o

.debug_frame    0x0000000000000000     0x2d2c
 *(.debug_frame)
 .debug_frame   0x0000000000000000       0x54 .build/obj_3key_default/keyboards/3key/keymaps/default/keymap.o
 .debug_frame   0x0000000000000054      0x274 .build/obj_3key_default/quantum/quantum.o
 .debug_frame   0x00000000000002c8       0x7c .build/obj_3key_default/quantum/led.o
 .debug_frame   0x0000000000000344      0x268 .build/obj_3key_default/quantum/action.o
 .debug_frame   0x00000000000005ac      0x2e0 .build/obj_3key_default/quantum/action_layer.o
 .debug_frame   0x000000000000088c       0x44 .build/obj_3key_default/quantum/action_macro.o
 .debug_frame   0x00000000000008d0       0xe4 .build/obj_3key_default/quantum/action_tapping.o
 .debug_frame   0x00000000000009b4      0x2f4 .build/obj_3key_default/quantum/action_util.o
 .debug_frame   0x0000000000000ca8      0x1a4 .build/obj_3key_default/quantum/eeconfig.o
 .debug_frame   0x0000000000000e4c      0x224 .build/obj_3key_default/quantum/keyboard.o
 .debug_frame   0x0000000000001070       0x80 .build/obj_3key_default/quantum/keymap_common.o
 .debug_frame   0x00000000000010f0       0x34 .build/obj_3key_default/quantum/keycode_config.o
 .debug_frame   0x0000000000001124       0x24 .build/obj_3key_default/quantum/logging/sendchar.o
 .debug_frame   0x0000000000001148       0x44 .build/obj_3key_default/quantum/bootmagic/bootmagic_lite.o
 .debug_frame   0x000000000000118c       0x44 .build/obj_3key_default/quantum/bootmagic/magic.o
 .debug_frame   0x00000000000011d0      0x14c .build/obj_3key_default/quantum/matrix_common.o
 .debug_frame   0x000000000000131c       0xa0 .build/obj_3key_default/quantum/matrix.o
 .debug_frame   0x00000000000013bc       0x70 .build/obj_3key_default/quantum/debounce/sym_defer_g.o
 .debug_frame   0x000000000000142c       0x24 .build/obj_3key_default/quantum/main.o
 .debug_frame   0x0000000000001450       0xd4 .build/obj_3key_default/quantum/mousekey.o
 .debug_frame   0x0000000000001524       0x78 .build/obj_3key_default/quantum/color.o
 .debug_frame   0x000000000000159c      0x8a8 .build/obj_3key_default/quantum/rgblight/rgblight.o
 .debug_frame   0x0000000000001e44       0x60 .build/obj_3key_default/quantum/process_keycode/process_rgb.o
 .debug_frame   0x0000000000001ea4      0x134 .build/obj_3key_default/quantum/backlight/backlight.o
 .debug_frame   0x0000000000001fd8       0x24 .build/obj_3key_default/quantum/process_keycode/process_backlight.o
 .debug_frame   0x0000000000001ffc       0x44 .build/obj_3key_default/quantum/backlight/backlight_driver_common.o
 .debug_frame   0x0000000000002040       0x54 .build/obj_3key_default/quantum/backlight/backlight_avr.o
 .debug_frame   0x0000000000002094       0x24 .build/obj_3key_default/ws2812.o
 .debug_frame   0x00000000000020b8       0x50 .build/obj_3key_default/quantum/process_keycode/process_space_cadet.o
 .debug_frame   0x0000000000002108       0x30 .build/obj_3key_default/quantum/process_keycode/process_magic.o
 .debug_frame   0x0000000000002138       0x30 .build/obj_3key_default/quantum/process_keycode/process_grave_esc.o
 .debug_frame   0x0000000000002168       0xf0 .build/obj_3key_default/common/host.o
 .debug_frame   0x0000000000002258       0xc0 .build/obj_3key_default/common/report.o
 .debug_frame   0x0000000000002318       0x24 .build/obj_3key_default/common/avr/platform.o
 .debug_frame   0x000000000000233c       0xd4 .build/obj_3key_default/common/avr/suspend.o
 .debug_frame   0x0000000000002410       0xc0 .build/obj_3key_default/common/avr/timer.o
 .debug_frame   0x00000000000024d0       0x34 .build/obj_3key_default/common/avr/bootloader.o
 .debug_frame   0x0000000000002504       0x24 .build/obj_3key_default/common/avr/printf.o
 .debug_frame   0x0000000000002528      0x140 .build/obj_3key_default/lufa.o
 .debug_frame   0x0000000000002668       0x24 .build/obj_3key_default/usb_descriptor.o
 .debug_frame   0x000000000000268c       0x24 .build/obj_3key_default/lib/lufa/LUFA/Drivers/USB/Core/AVR8/Device_AVR8.o
 .debug_frame   0x00000000000026b0      0x404 .build/obj_3key_default/lib/lufa/LUFA/Drivers/USB/Core/AVR8/EndpointStream_AVR8.o
 .debug_frame   0x0000000000002ab4       0x78 .build/obj_3key_default/lib/lufa/LUFA/Drivers/USB/Core/AVR8/Endpoint_AVR8.o
 .debug_frame   0x0000000000002b2c       0x58 .build/obj_3key_default/lib/lufa/LUFA/Drivers/USB/Core/AVR8/USBController_AVR8.o
 .debug_frame   0x0000000000002b84       0xfc .build/obj_3key_default/lib/lufa/LUFA/Drivers/USB/Core/AVR8/USBInterrupt_AVR8.o
 .debug_frame   0x0000000000002c80       0x3c .build/obj_3key_default/lib/lufa/LUFA/Drivers/USB/Core/DeviceStandardReq.o
 .debug_frame   0x0000000000002cbc       0x44 .build/obj_3key_default/lib/lufa/LUFA/Drivers/USB/Core/Events.o
 .debug_frame   0x0000000000002d00       0x2c .build/obj_3key_default/lib/lufa/LUFA/Drivers/USB/Core/USBTask.o

.debug_str      0x0000000000000000     0x77a5
 *(.debug_str)
 .debug_str     0x0000000000000000      0x371 /usr/lib/gcc/avr/11.2.0/../../../../avr/lib/avr5/crtatmega32u4.o
 .debug_str     0x0000000000000371      0x848 .build/obj_3key_default/keyboards/3key/keymaps/default/keymap.o
                                        0x8bd (size before relaxing)
 .debug_str     0x0000000000000bb9     0x1564 .build/obj_3key_default/quantum/quantum.o
                                       0x1e09 (size before relaxing)
 .debug_str     0x000000000000211d       0x8f .build/obj_3key_default/quantum/led.o
                                        0x23b (size before relaxing)
 .debug_str     0x00000000000021ac      0xda4 .build/obj_3key_default/quantum/action.o
                                       0x17eb (size before relaxing)
 .debug_str     0x0000000000002f50       0xe7 .build/obj_3key_default/quantum/action_layer.o
                                        0x560 (size before relaxing)
 .debug_str     0x0000000000003037       0x7e .build/obj_3key_default/quantum/action_macro.o
                                        0x882 (size before relaxing)
 .debug_str     0x00000000000030b5       0xef .build/obj_3key_default/quantum/action_tapping.o
                                        0xb26 (size before relaxing)
 .debug_str     0x00000000000031a4      0x2e5 .build/obj_3key_default/quantum/action_util.o
                                        0x74e (size before relaxing)
 .debug_str     0x0000000000003489      0x25b .build/obj_3key_default/quantum/eeconfig.o
                                        0x460 (size before relaxing)
 .debug_str     0x00000000000036e4      0x3ce .build/obj_3key_default/quantum/keyboard.o
                                        0x66f (size before relaxing)
 .debug_str     0x0000000000003ab2       0x95 .build/obj_3key_default/quantum/keymap_common.o
                                       0x23e8 (size before relaxing)
 .debug_str     0x0000000000003b47       0x6a .build/obj_3key_default/quantum/keycode_config.o
                                        0x8a7 (size before relaxing)
 .debug_str     0x0000000000003bb1       0x18 .build/obj_3key_default/quantum/logging/debug.o
                                        0x1e8 (size before relaxing)
 .debug_str     0x0000000000003bc9       0x1b .build/obj_3key_default/quantum/logging/sendchar.o
                                        0x1b3 (size before relaxing)
 .debug_str     0x0000000000003be4       0x58 .build/obj_3key_default/quantum/bootmagic/bootmagic_lite.o
                                        0x28d (size before relaxing)
 .debug_str     0x0000000000003c3c       0x1a .build/obj_3key_default/quantum/bootmagic/magic.o
                                        0x3fb (size before relaxing)
 .debug_str     0x0000000000003c56      0x144 .build/obj_3key_default/quantum/matrix_common.o
                                        0x460 (size before relaxing)
 .debug_str     0x0000000000003d9a       0xea .build/obj_3key_default/quantum/matrix.o
                                        0x363 (size before relaxing)
 .debug_str     0x0000000000003e84       0x96 .build/obj_3key_default/quantum/debounce/sym_defer_g.o
                                        0x2ec (size before relaxing)
 .debug_str     0x0000000000003f1a       0x4e .build/obj_3key_default/quantum/main.o
                                        0x1e6 (size before relaxing)
 .debug_str     0x0000000000003f68      0x156 .build/obj_3key_default/quantum/mousekey.o
                                        0x4a5 (size before relaxing)
 .debug_str     0x00000000000040be       0x5d .build/obj_3key_default/quantum/color.o
                                        0x211 (size before relaxing)
 .debug_str     0x000000000000411b     0x1143 .build/obj_3key_default/quantum/rgblight/rgblight.o
                                       0x1475 (size before relaxing)
 .debug_str     0x000000000000525e       0x7a .build/obj_3key_default/quantum/process_keycode/process_rgb.o
                                       0x1f14 (size before relaxing)
 .debug_str     0x00000000000052d8      0x171 .build/obj_3key_default/quantum/backlight/backlight.o
                                        0x423 (size before relaxing)
 .debug_str     0x0000000000005449       0x2c .build/obj_3key_default/quantum/process_keycode/process_backlight.o
                                       0x141b (size before relaxing)
 .debug_str     0x0000000000005475       0x8e .build/obj_3key_default/quantum/backlight/backlight_driver_common.o
                                        0x227 (size before relaxing)
 .debug_str     0x0000000000005503       0x61 .build/obj_3key_default/quantum/backlight/backlight_avr.o
                                        0x274 (size before relaxing)
 .debug_str     0x0000000000005564       0x74 .build/obj_3key_default/ws2812.o
                                        0x26e (size before relaxing)
 .debug_str     0x00000000000055d8       0x15 .build/obj_3key_default/quantum/led_tables.o
                                        0x1ab (size before relaxing)
 .debug_str     0x00000000000055ed       0x6d .build/obj_3key_default/quantum/process_keycode/process_space_cadet.o
                                       0x1a72 (size before relaxing)
 .debug_str     0x000000000000565a       0x28 .build/obj_3key_default/quantum/process_keycode/process_magic.o
                                       0x14db (size before relaxing)
 .debug_str     0x0000000000005682       0x42 .build/obj_3key_default/quantum/process_keycode/process_grave_esc.o
                                       0x1ab6 (size before relaxing)
 .debug_str     0x00000000000056c4      0x1c9 .build/obj_3key_default/common/host.o
                                        0x61f (size before relaxing)
 .debug_str     0x000000000000588d       0x6c .build/obj_3key_default/common/report.o
                                        0x958 (size before relaxing)
 .debug_str     0x00000000000058f9       0x1f .build/obj_3key_default/common/avr/platform.o
                                        0x1ae (size before relaxing)
 .debug_str     0x0000000000005918      0x1de .build/obj_3key_default/common/avr/suspend.o
                                        0x402 (size before relaxing)
 .debug_str     0x0000000000005af6       0x49 .build/obj_3key_default/common/avr/timer.o
                                        0x253 (size before relaxing)
 .debug_str     0x0000000000005b3f       0x61 .build/obj_3key_default/common/avr/bootloader.o
                                        0x272 (size before relaxing)
 .debug_str     0x0000000000005ba0       0x27 .build/obj_3key_default/common/avr/printf.o
                                        0x1de (size before relaxing)
 .debug_str     0x0000000000005bc7      0x62f .build/obj_3key_default/lufa.o
                                        0xc92 (size before relaxing)
 .debug_str     0x00000000000061f6      0x6a9 .build/obj_3key_default/usb_descriptor.o
                                        0x9e2 (size before relaxing)
 .debug_str     0x000000000000689f       0x5e .build/obj_3key_default/lib/lufa/LUFA/Drivers/USB/Core/AVR8/Device_AVR8.o
                                        0x208 (size before relaxing)
 .debug_str     0x00000000000068fd      0x4a3 .build/obj_3key_default/lib/lufa/LUFA/Drivers/USB/Core/AVR8/EndpointStream_AVR8.o
                                        0x86a (size before relaxing)
 .debug_str     0x0000000000006da0      0x254 .build/obj_3key_default/lib/lufa/LUFA/Drivers/USB/Core/AVR8/Endpoint_AVR8.o
                                        0x62a (size before relaxing)
 .debug_str     0x0000000000006ff4      0x1c0 .build/obj_3key_default/lib/lufa/LUFA/Drivers/USB/Core/AVR8/USBController_AVR8.o
                                        0x569 (size before relaxing)
 .debug_str     0x00000000000071b4      0x146 .build/obj_3key_default/lib/lufa/LUFA/Drivers/USB/Core/AVR8/USBInterrupt_AVR8.o
                                        0x5e8 (size before relaxing)
 .debug_str     0x00000000000072fa      0x40d .build/obj_3key_default/lib/lufa/LUFA/Drivers/USB/Core/DeviceStandardReq.o
                                        0x9b9 (size before relaxing)
 .debug_str     0x0000000000007707       0x59 .build/obj_3key_default/lib/lufa/LUFA/Drivers/USB/Core/Events.o
                                        0x1e1 (size before relaxing)
 .debug_str     0x0000000000007760       0x45 .build/obj_3key_default/lib/lufa/LUFA/Drivers/USB/Core/USBTask.o
                                        0x38f (size before relaxing)

.debug_loc      0x0000000000000000     0xd9d8
 *(.debug_loc)
 .debug_loc     0x0000000000000000       0x70 .build/obj_3key_default/keyboards/3key/keymaps/default/keymap.o
 .debug_loc     0x0000000000000070      0x9fa .build/obj_3key_default/quantum/quantum.o
 .debug_loc     0x0000000000000a6a       0xb0 .build/obj_3key_default/quantum/led.o
 .debug_loc     0x0000000000000b1a      0xe97 .build/obj_3key_default/quantum/action.o
 .debug_loc     0x00000000000019b1      0xb28 .build/obj_3key_default/quantum/action_layer.o
 .debug_loc     0x00000000000024d9      0x5b6 .build/obj_3key_default/quantum/action_macro.o
 .debug_loc     0x0000000000002a8f      0x4f0 .build/obj_3key_default/quantum/action_tapping.o
 .debug_loc     0x0000000000002f7f      0x31a .build/obj_3key_default/quantum/action_util.o
 .debug_loc     0x0000000000003299      0x203 .build/obj_3key_default/quantum/eeconfig.o
 .debug_loc     0x000000000000349c      0x3a9 .build/obj_3key_default/quantum/keyboard.o
 .debug_loc     0x0000000000003845      0x619 .build/obj_3key_default/quantum/keymap_common.o
 .debug_loc     0x0000000000003e5e      0x203 .build/obj_3key_default/quantum/keycode_config.o
 .debug_loc     0x0000000000004061       0x25 .build/obj_3key_default/quantum/logging/sendchar.o
 .debug_loc     0x0000000000004086       0x4e .build/obj_3key_default/quantum/bootmagic/bootmagic_lite.o
 .debug_loc     0x00000000000040d4       0x74 .build/obj_3key_default/quantum/bootmagic/magic.o
 .debug_loc     0x0000000000004148      0x1e4 .build/obj_3key_default/quantum/matrix_common.o
 .debug_loc     0x000000000000432c      0x4b9 .build/obj_3key_default/quantum/matrix.o
 .debug_loc     0x00000000000047e5      0x17c .build/obj_3key_default/quantum/debounce/sym_defer_g.o
 .debug_loc     0x0000000000004961      0x4a1 .build/obj_3key_default/quantum/mousekey.o
 .debug_loc     0x0000000000004e02      0x251 .build/obj_3key_default/quantum/color.o
 .debug_loc     0x0000000000005053     0x30d5 .build/obj_3key_default/quantum/rgblight/rgblight.o
 .debug_loc     0x0000000000008128      0x2ee .build/obj_3key_default/quantum/process_keycode/process_rgb.o
 .debug_loc     0x0000000000008416       0x9f .build/obj_3key_default/quantum/backlight/backlight.o
 .debug_loc     0x00000000000084b5      0x19a .build/obj_3key_default/quantum/process_keycode/process_backlight.o
 .debug_loc     0x000000000000864f       0x45 .build/obj_3key_default/quantum/backlight/backlight_driver_common.o
 .debug_loc     0x0000000000008694      0x116 .build/obj_3key_default/quantum/backlight/backlight_avr.o
 .debug_loc     0x00000000000087aa      0x229 .build/obj_3key_default/ws2812.o
 .debug_loc     0x00000000000089d3      0x4a6 .build/obj_3key_default/quantum/process_keycode/process_space_cadet.o
 .debug_loc     0x0000000000008e79       0xdb .build/obj_3key_default/quantum/process_keycode/process_magic.o
 .debug_loc     0x0000000000008f54      0x143 .build/obj_3key_default/quantum/process_keycode/process_grave_esc.o
 .debug_loc     0x0000000000009097      0x1b1 .build/obj_3key_default/common/host.o
 .debug_loc     0x0000000000009248      0x558 .build/obj_3key_default/common/report.o
 .debug_loc     0x00000000000097a0       0x8d .build/obj_3key_default/common/avr/suspend.o
 .debug_loc     0x000000000000982d      0x321 .build/obj_3key_default/common/avr/timer.o
 .debug_loc     0x0000000000009b4e       0x64 .build/obj_3key_default/common/avr/bootloader.o
 .debug_loc     0x0000000000009bb2      0x5dd .build/obj_3key_default/lufa.o
 .debug_loc     0x000000000000a18f      0x2f8 .build/obj_3key_default/usb_descriptor.o
 .debug_loc     0x000000000000a487     0x271c .build/obj_3key_default/lib/lufa/LUFA/Drivers/USB/Core/AVR8/EndpointStream_AVR8.o
 .debug_loc     0x000000000000cba3      0x4bd .build/obj_3key_default/lib/lufa/LUFA/Drivers/USB/Core/AVR8/Endpoint_AVR8.o
 .debug_loc     0x000000000000d060       0xf9 .build/obj_3key_default/lib/lufa/LUFA/Drivers/USB/Core/AVR8/USBController_AVR8.o
 .debug_loc     0x000000000000d159      0x495 .build/obj_3key_default/lib/lufa/LUFA/Drivers/USB/Core/AVR8/USBInterrupt_AVR8.o
 .debug_loc     0x000000000000d5ee      0x388 .build/obj_3key_default/lib/lufa/LUFA/Drivers/USB/Core/DeviceStandardReq.o
 .debug_loc     0x000000000000d976       0x62 .build/obj_3key_default/lib/lufa/LUFA/Drivers/USB/Core/USBTask.o

.debug_macinfo
 *(.debug_macinfo)

.debug_weaknames
 *(.debug_weaknames)

.debug_funcnames
 *(.debug_funcnames)

.debug_typenames
 *(.debug_typenames)

.debug_varnames
 *(.debug_varnames)

.debug_pubtypes
 *(.debug_pubtypes)

.debug_ranges   0x0000000000000000     0x18d0
 *(.debug_ranges)
 .debug_ranges  0x0000000000000000       0x20 .build/obj_3key_default/keyboards/3key/keymaps/default/keymap.o
 .debug_ranges  0x0000000000000020       0xd8 .build/obj_3key_default/quantum/quantum.o
 .debug_ranges  0x00000000000000f8       0x38 .build/obj_3key_default/quantum/led.o
 .debug_ranges  0x0000000000000130      0x180 .build/obj_3key_default/quantum/action.o
 .debug_ranges  0x00000000000002b0      0x128 .build/obj_3key_default/quantum/action_layer.o
 .debug_ranges  0x00000000000003d8       0x28 .build/obj_3key_default/quantum/action_macro.o
 .debug_ranges  0x0000000000000400       0xf0 .build/obj_3key_default/quantum/action_tapping.o
 .debug_ranges  0x00000000000004f0      0x168 .build/obj_3key_default/quantum/action_util.o
 .debug_ranges  0x0000000000000658       0xc8 .build/obj_3key_default/quantum/eeconfig.o
 .debug_ranges  0x0000000000000720       0xf8 .build/obj_3key_default/quantum/keyboard.o
 .debug_ranges  0x0000000000000818       0x38 .build/obj_3key_default/quantum/keymap_common.o
 .debug_ranges  0x0000000000000850       0x18 .build/obj_3key_default/quantum/keycode_config.o
 .debug_ranges  0x0000000000000868       0x10 .build/obj_3key_default/quantum/logging/sendchar.o
 .debug_ranges  0x0000000000000878       0x20 .build/obj_3key_default/quantum/bootmagic/bootmagic_lite.o
 .debug_ranges  0x0000000000000898       0x18 .build/obj_3key_default/quantum/bootmagic/magic.o
 .debug_ranges  0x00000000000008b0       0x90 .build/obj_3key_default/quantum/matrix_common.o
 .debug_ranges  0x0000000000000940       0x68 .build/obj_3key_default/quantum/matrix.o
 .debug_ranges  0x00000000000009a8       0x40 .build/obj_3key_default/quantum/debounce/sym_defer_g.o
 .debug_ranges  0x00000000000009e8       0x10 .build/obj_3key_default/quantum/main.o
 .debug_ranges  0x00000000000009f8       0x48 .build/obj_3key_default/quantum/mousekey.o
 .debug_ranges  0x0000000000000a40       0x20 .build/obj_3key_default/quantum/color.o
 .debug_ranges  0x0000000000000a60      0x5d8 .build/obj_3key_default/quantum/rgblight/rgblight.o
 .debug_ranges  0x0000000000001038       0x38 .build/obj_3key_default/quantum/process_keycode/process_rgb.o
 .debug_ranges  0x0000000000001070       0x90 .build/obj_3key_default/quantum/backlight/backlight.o
 .debug_ranges  0x0000000000001100       0x10 .build/obj_3key_default/quantum/process_keycode/process_backlight.o
 .debug_ranges  0x0000000000001110       0x20 .build/obj_3key_default/quantum/backlight/backlight_driver_common.o
 .debug_ranges  0x0000000000001130       0x38 .build/obj_3key_default/quantum/backlight/backlight_avr.o
 .debug_ranges  0x0000000000001168       0x30 .build/obj_3key_default/ws2812.o
 .debug_ranges  0x0000000000001198       0x18 .build/obj_3key_default/quantum/process_keycode/process_space_cadet.o
 .debug_ranges  0x00000000000011b0       0x10 .build/obj_3key_default/quantum/process_keycode/process_magic.o
 .debug_ranges  0x00000000000011c0       0x28 .build/obj_3key_default/quantum/process_keycode/process_grave_esc.o
 .debug_ranges  0x00000000000011e8       0x68 .build/obj_3key_default/common/host.o
 .debug_ranges  0x0000000000001250       0x70 .build/obj_3key_default/common/report.o
 .debug_ranges  0x00000000000012c0       0x10 .build/obj_3key_default/common/avr/platform.o
 .debug_ranges  0x00000000000012d0       0x48 .build/obj_3key_default/common/avr/suspend.o
 .debug_ranges  0x0000000000001318       0x40 .build/obj_3key_default/common/avr/timer.o
 .debug_ranges  0x0000000000001358       0x18 .build/obj_3key_default/common/avr/bootloader.o
 .debug_ranges  0x0000000000001370       0x10 .build/obj_3key_default/common/avr/printf.o
 .debug_ranges  0x0000000000001380       0xe8 .build/obj_3key_default/lufa.o
 .debug_ranges  0x0000000000001468       0x28 .build/obj_3key_default/usb_descriptor.o
 .debug_ranges  0x0000000000001490       0x10 .build/obj_3key_default/lib/lufa/LUFA/Drivers/USB/Core/AVR8/Device_AVR8.o
 .debug_ranges  0x00000000000014a0      0x1f8 .build/obj_3key_default/lib/lufa/LUFA/Drivers/USB/Core/AVR8/EndpointStream_AVR8.o
 .debug_ranges  0x0000000000001698       0xd0 .build/obj_3key_default/lib/lufa/LUFA/Drivers/USB/Core/AVR8/Endpoint_AVR8.o
 .debug_ranges  0x0000000000001768       0x20 .build/obj_3key_default/lib/lufa/LUFA/Drivers/USB/Core/AVR8/USBController_AVR8.o
 .debug_ranges  0x0000000000001788       0x28 .build/obj_3key_default/lib/lufa/LUFA/Drivers/USB/Core/AVR8/USBInterrupt_AVR8.o
 .debug_ranges  0x00000000000017b0       0xf0 .build/obj_3key_default/lib/lufa/LUFA/Drivers/USB/Core/DeviceStandardReq.o
 .debug_ranges  0x00000000000018a0       0x20 .build/obj_3key_default/lib/lufa/LUFA/Drivers/USB/Core/Events.o
 .debug_ranges  0x00000000000018c0       0x10 .build/obj_3key_default/lib/lufa/LUFA/Drivers/USB/Core/USBTask.o

.debug_addr
 *(.debug_addr)

.debug_line_str
 *(.debug_line_str)

.debug_loclists
 *(.debug_loclists)

.debug_macro
 *(.debug_macro)

.debug_names
 *(.debug_names)

.debug_rnglists
 *(.debug_rnglists)

.debug_str_offsets
 *(.debug_str_offsets)

.debug_sup
 *(.debug_sup)
OUTPUT(.build/3key_default.elf elf32-avr)
LOAD linker stubs

Cross Reference Table

Symbol                                            File
CALLBACK_HIDParser_FilterHIDReportItem            .build/obj_3key_default/lib/lufa/LUFA/Drivers/USB/Class/Common/HIDParser.o
CALLBACK_USB_GetDescriptor                        .build/obj_3key_default/lufa.o
                                                  .build/obj_3key_default/lib/lufa/LUFA/Drivers/USB/Core/DeviceStandardReq.o
CIE1931_CURVE                                     .build/obj_3key_default/quantum/led_tables.o
                                                  .build/obj_3key_default/quantum/color.o
ConfigurationDescriptor                           .build/obj_3key_default/usb_descriptor.o
DeviceDescriptor                                  .build/obj_3key_default/usb_descriptor.o
EVENT_USB_Device_ConfigurationChanged             .build/obj_3key_default/lufa.o
                                                  .build/obj_3key_default/lib/lufa/LUFA/Drivers/USB/Core/DeviceStandardReq.o
EVENT_USB_Device_Connect                          .build/obj_3key_default/lufa.o
                                                  .build/obj_3key_default/lib/lufa/LUFA/Drivers/USB/Core/AVR8/USBInterrupt_AVR8.o
EVENT_USB_Device_ControlRequest                   .build/obj_3key_default/lufa.o
                                                  .build/obj_3key_default/lib/lufa/LUFA/Drivers/USB/Core/DeviceStandardReq.o
EVENT_USB_Device_Disconnect                       .build/obj_3key_default/lufa.o
                                                  .build/obj_3key_default/lib/lufa/LUFA/Drivers/USB/Core/AVR8/USBInterrupt_AVR8.o
EVENT_USB_Device_Reset                            .build/obj_3key_default/lufa.o
                                                  .build/obj_3key_default/lib/lufa/LUFA/Drivers/USB/Core/AVR8/USBInterrupt_AVR8.o
EVENT_USB_Device_StartOfFrame                     .build/obj_3key_default/lib/lufa/LUFA/Drivers/USB/Core/Events.o
                                                  .build/obj_3key_default/lib/lufa/LUFA/Drivers/USB/Core/AVR8/USBInterrupt_AVR8.o
EVENT_USB_Device_Suspend                          .build/obj_3key_default/lufa.o
                                                  .build/obj_3key_default/lib/lufa/LUFA/Drivers/USB/Core/AVR8/USBInterrupt_AVR8.o
EVENT_USB_Device_WakeUp                           .build/obj_3key_default/lufa.o
                                                  .build/obj_3key_default/lib/lufa/LUFA/Drivers/USB/Core/AVR8/USBInterrupt_AVR8.o
Endpoint_ClearEndpoints                           .build/obj_3key_default/lib/lufa/LUFA/Drivers/USB/Core/AVR8/Endpoint_AVR8.o
Endpoint_ClearStatusStage                         .build/obj_3key_default/lib/lufa/LUFA/Drivers/USB/Core/AVR8/Endpoint_AVR8.o
                                                  .build/obj_3key_default/lib/lufa/LUFA/Drivers/USB/Core/DeviceStandardReq.o
                                                  .build/obj_3key_default/lufa.o
Endpoint_ConfigureEndpointTable                   .build/obj_3key_default/lib/lufa/LUFA/Drivers/USB/Core/AVR8/Endpoint_AVR8.o
Endpoint_ConfigureEndpoint_Prv                    .build/obj_3key_default/lib/lufa/LUFA/Drivers/USB/Core/AVR8/Endpoint_AVR8.o
                                                  .build/obj_3key_default/lib/lufa/LUFA/Drivers/USB/Core/AVR8/USBInterrupt_AVR8.o
                                                  .build/obj_3key_default/lib/lufa/LUFA/Drivers/USB/Core/AVR8/USBController_AVR8.o
                                                  .build/obj_3key_default/lufa.o
Endpoint_Discard_Stream                           .build/obj_3key_default/lib/lufa/LUFA/Drivers/USB/Core/AVR8/EndpointStream_AVR8.o
Endpoint_Null_Stream                              .build/obj_3key_default/lib/lufa/LUFA/Drivers/USB/Core/AVR8/EndpointStream_AVR8.o
Endpoint_Read_Control_EStream_BE                  .build/obj_3key_default/lib/lufa/LUFA/Drivers/USB/Core/AVR8/EndpointStream_AVR8.o
Endpoint_Read_Control_EStream_LE                  .build/obj_3key_default/lib/lufa/LUFA/Drivers/USB/Core/AVR8/EndpointStream_AVR8.o
Endpoint_Read_Control_Stream_BE                   .build/obj_3key_default/lib/lufa/LUFA/Drivers/USB/Core/AVR8/EndpointStream_AVR8.o
Endpoint_Read_Control_Stream_LE                   .build/obj_3key_default/lib/lufa/LUFA/Drivers/USB/Core/AVR8/EndpointStream_AVR8.o
Endpoint_Read_EStream_BE                          .build/obj_3key_default/lib/lufa/LUFA/Drivers/USB/Core/AVR8/EndpointStream_AVR8.o
Endpoint_Read_EStream_LE                          .build/obj_3key_default/lib/lufa/LUFA/Drivers/USB/Core/AVR8/EndpointStream_AVR8.o
Endpoint_Read_Stream_BE                           .build/obj_3key_default/lib/lufa/LUFA/Drivers/USB/Core/AVR8/EndpointStream_AVR8.o
Endpoint_Read_Stream_LE                           .build/obj_3key_default/lib/lufa/LUFA/Drivers/USB/Core/AVR8/EndpointStream_AVR8.o
Endpoint_WaitUntilReady                           .build/obj_3key_default/lib/lufa/LUFA/Drivers/USB/Core/AVR8/Endpoint_AVR8.o
                                                  .build/obj_3key_default/lib/lufa/LUFA/Drivers/USB/Core/AVR8/EndpointStream_AVR8.o
Endpoint_Write_Control_EStream_BE                 .build/obj_3key_default/lib/lufa/LUFA/Drivers/USB/Core/AVR8/EndpointStream_AVR8.o
Endpoint_Write_Control_EStream_LE                 .build/obj_3key_default/lib/lufa/LUFA/Drivers/USB/Core/AVR8/EndpointStream_AVR8.o
Endpoint_Write_Control_PStream_BE                 .build/obj_3key_default/lib/lufa/LUFA/Drivers/USB/Core/AVR8/EndpointStream_AVR8.o
Endpoint_Write_Control_PStream_LE                 .build/obj_3key_default/lib/lufa/LUFA/Drivers/USB/Core/AVR8/EndpointStream_AVR8.o
                                                  .build/obj_3key_default/lib/lufa/LUFA/Drivers/USB/Core/DeviceStandardReq.o
Endpoint_Write_Control_Stream_BE                  .build/obj_3key_default/lib/lufa/LUFA/Drivers/USB/Core/AVR8/EndpointStream_AVR8.o
Endpoint_Write_Control_Stream_LE                  .build/obj_3key_default/lib/lufa/LUFA/Drivers/USB/Core/AVR8/EndpointStream_AVR8.o
                                                  .build/obj_3key_default/lib/lufa/LUFA/Drivers/USB/Core/DeviceStandardReq.o
                                                  .build/obj_3key_default/lufa.o
Endpoint_Write_EStream_BE                         .build/obj_3key_default/lib/lufa/LUFA/Drivers/USB/Core/AVR8/EndpointStream_AVR8.o
Endpoint_Write_EStream_LE                         .build/obj_3key_default/lib/lufa/LUFA/Drivers/USB/Core/AVR8/EndpointStream_AVR8.o
Endpoint_Write_PStream_BE                         .build/obj_3key_default/lib/lufa/LUFA/Drivers/USB/Core/AVR8/EndpointStream_AVR8.o
Endpoint_Write_PStream_LE                         .build/obj_3key_default/lib/lufa/LUFA/Drivers/USB/Core/AVR8/EndpointStream_AVR8.o
Endpoint_Write_Stream_BE                          .build/obj_3key_default/lib/lufa/LUFA/Drivers/USB/Core/AVR8/EndpointStream_AVR8.o
Endpoint_Write_Stream_LE                          .build/obj_3key_default/lib/lufa/LUFA/Drivers/USB/Core/AVR8/EndpointStream_AVR8.o
                                                  .build/obj_3key_default/lufa.o
KeyboardReport                                    .build/obj_3key_default/usb_descriptor.o
LanguageString                                    .build/obj_3key_default/usb_descriptor.o
ManufacturerString                                .build/obj_3key_default/usb_descriptor.o
ProductString                                     .build/obj_3key_default/usb_descriptor.o
RGBLED_BREATHING_INTERVALS                        .build/obj_3key_default/quantum/rgblight/rgblight.o
RGBLED_GRADIENT_RANGES                            .build/obj_3key_default/quantum/rgblight/rgblight.o
RGBLED_KNIGHT_INTERVALS                           .build/obj_3key_default/quantum/rgblight/rgblight.o
RGBLED_RAINBOW_MOOD_INTERVALS                     .build/obj_3key_default/quantum/rgblight/rgblight.o
RGBLED_RAINBOW_SWIRL_INTERVALS                    .build/obj_3key_default/quantum/rgblight/rgblight.o
RGBLED_RGBTEST_INTERVALS                          .build/obj_3key_default/quantum/rgblight/rgblight.o
RGBLED_SNAKE_INTERVALS                            .build/obj_3key_default/quantum/rgblight/rgblight.o
SharedReport                                      .build/obj_3key_default/usb_descriptor.o
USB_ControlRequest                                .build/obj_3key_default/lib/lufa/LUFA/Drivers/USB/Core/USBTask.o
                                                  .build/obj_3key_default/lib/lufa/LUFA/Drivers/USB/Core/DeviceStandardReq.o
                                                  .build/obj_3key_default/lib/lufa/LUFA/Drivers/USB/Core/AVR8/Endpoint_AVR8.o
                                                  .build/obj_3key_default/lib/lufa/LUFA/Drivers/USB/Core/AVR8/EndpointStream_AVR8.o
                                                  .build/obj_3key_default/lufa.o
USB_DeviceState                                   .build/obj_3key_default/lib/lufa/LUFA/Drivers/USB/Core/USBTask.o
                                                  .build/obj_3key_default/protocol/lufa/usb_util.o
                                                  .build/obj_3key_default/lib/lufa/LUFA/Drivers/USB/Core/DeviceStandardReq.o
                                                  .build/obj_3key_default/lib/lufa/LUFA/Drivers/USB/Core/AVR8/USBInterrupt_AVR8.o
                                                  .build/obj_3key_default/lib/lufa/LUFA/Drivers/USB/Core/AVR8/USBController_AVR8.o
                                                  .build/obj_3key_default/lib/lufa/LUFA/Drivers/USB/Core/AVR8/Endpoint_AVR8.o
                                                  .build/obj_3key_default/lib/lufa/LUFA/Drivers/USB/Core/AVR8/EndpointStream_AVR8.o
                                                  .build/obj_3key_default/lufa.o
                                                  .build/obj_3key_default/common/avr/suspend.o
USB_Device_ConfigurationNumber                    .build/obj_3key_default/lib/lufa/LUFA/Drivers/USB/Core/DeviceStandardReq.o
                                                  .build/obj_3key_default/lib/lufa/LUFA/Drivers/USB/Core/AVR8/USBInterrupt_AVR8.o
                                                  .build/obj_3key_default/lib/lufa/LUFA/Drivers/USB/Core/AVR8/USBController_AVR8.o
USB_Device_CurrentlySelfPowered                   .build/obj_3key_default/lib/lufa/LUFA/Drivers/USB/Core/DeviceStandardReq.o
                                                  .build/obj_3key_default/lib/lufa/LUFA/Drivers/USB/Core/AVR8/USBController_AVR8.o
USB_Device_ProcessControlRequest                  .build/obj_3key_default/lib/lufa/LUFA/Drivers/USB/Core/DeviceStandardReq.o
                                                  .build/obj_3key_default/lib/lufa/LUFA/Drivers/USB/Core/USBTask.o
                                                  .build/obj_3key_default/lib/lufa/LUFA/Drivers/USB/Core/AVR8/USBInterrupt_AVR8.o
USB_Device_RemoteWakeupEnabled                    .build/obj_3key_default/lib/lufa/LUFA/Drivers/USB/Core/DeviceStandardReq.o
                                                  .build/obj_3key_default/lib/lufa/LUFA/Drivers/USB/Core/AVR8/USBController_AVR8.o
                                                  .build/obj_3key_default/lufa.o
USB_Device_SendRemoteWakeup                       .build/obj_3key_default/lib/lufa/LUFA/Drivers/USB/Core/AVR8/Device_AVR8.o
                                                  .build/obj_3key_default/lufa.o
USB_Disable                                       .build/obj_3key_default/lib/lufa/LUFA/Drivers/USB/Core/AVR8/USBController_AVR8.o
                                                  .build/obj_3key_default/protocol/lufa/usb_util.o
                                                  .build/obj_3key_default/lufa.o
USB_Event_Stub                                    .build/obj_3key_default/lib/lufa/LUFA/Drivers/USB/Core/Events.o
USB_Event_Stub_2                                  .build/obj_3key_default/lib/lufa/LUFA/Drivers/USB/Core/Events.o
USB_Event_Stub_3                                  .build/obj_3key_default/lib/lufa/LUFA/Drivers/USB/Core/Events.o
USB_GetHIDReportItemInfo                          .build/obj_3key_default/lib/lufa/LUFA/Drivers/USB/Class/Common/HIDParser.o
USB_GetHIDReportSize                              .build/obj_3key_default/lib/lufa/LUFA/Drivers/USB/Class/Common/HIDParser.o
USB_GetNextDescriptorComp                         .build/obj_3key_default/lib/lufa/LUFA/Drivers/USB/Core/ConfigDescriptors.o
USB_GetNextDescriptorOfType                       .build/obj_3key_default/lib/lufa/LUFA/Drivers/USB/Core/ConfigDescriptors.o
USB_GetNextDescriptorOfTypeAfter                  .build/obj_3key_default/lib/lufa/LUFA/Drivers/USB/Core/ConfigDescriptors.o
USB_GetNextDescriptorOfTypeBefore                 .build/obj_3key_default/lib/lufa/LUFA/Drivers/USB/Core/ConfigDescriptors.o
USB_INT_ClearAllInterrupts                        .build/obj_3key_default/lib/lufa/LUFA/Drivers/USB/Core/AVR8/USBInterrupt_AVR8.o
                                                  .build/obj_3key_default/lib/lufa/LUFA/Drivers/USB/Core/AVR8/USBController_AVR8.o
USB_INT_DisableAllInterrupts                      .build/obj_3key_default/lib/lufa/LUFA/Drivers/USB/Core/AVR8/USBInterrupt_AVR8.o
                                                  .build/obj_3key_default/lib/lufa/LUFA/Drivers/USB/Core/AVR8/USBController_AVR8.o
USB_Init                                          .build/obj_3key_default/lib/lufa/LUFA/Drivers/USB/Core/AVR8/USBController_AVR8.o
                                                  .build/obj_3key_default/lufa.o
USB_IsInitialized                                 .build/obj_3key_default/lib/lufa/LUFA/Drivers/USB/Core/USBTask.o
                                                  .build/obj_3key_default/lib/lufa/LUFA/Drivers/USB/Core/AVR8/USBController_AVR8.o
                                                  .build/obj_3key_default/lufa.o
USB_ProcessHIDReport                              .build/obj_3key_default/lib/lufa/LUFA/Drivers/USB/Class/Common/HIDParser.o
USB_ResetInterface                                .build/obj_3key_default/lib/lufa/LUFA/Drivers/USB/Core/AVR8/USBController_AVR8.o
USB_SetHIDReportItemInfo                          .build/obj_3key_default/lib/lufa/LUFA/Drivers/USB/Class/Common/HIDParser.o
USB_USBTask                                       .build/obj_3key_default/lib/lufa/LUFA/Drivers/USB/Core/USBTask.o
                                                  .build/obj_3key_default/lufa.o
__bad_interrupt                                   /usr/lib/gcc/avr/11.2.0/../../../../avr/lib/avr5/crtatmega32u4.o
__bss_end                                         /usr/lib/gcc/avr/11.2.0/avr5/libgcc.a(_clear_bss.o)
__bss_start                                       /usr/lib/gcc/avr/11.2.0/avr5/libgcc.a(_clear_bss.o)
__data_end                                        /usr/lib/gcc/avr/11.2.0/avr5/libgcc.a(_copy_data.o)
__data_load_start                                 /usr/lib/gcc/avr/11.2.0/avr5/libgcc.a(_copy_data.o)
__data_start                                      /usr/lib/gcc/avr/11.2.0/avr5/libgcc.a(_copy_data.o)
__divmodhi4                                       /usr/lib/gcc/avr/11.2.0/avr5/libgcc.a(_divmodhi4.o)
                                                  .build/obj_3key_default/quantum/rgblight/rgblight.o
                                                  .build/obj_3key_default/quantum/mousekey.o
__do_clear_bss                                    /usr/lib/gcc/avr/11.2.0/avr5/libgcc.a(_clear_bss.o)
                                                  .build/obj_3key_default/lib/lufa/LUFA/Drivers/USB/Core/USBTask.o
                                                  .build/obj_3key_default/lib/lufa/LUFA/Drivers/USB/Core/DeviceStandardReq.o
                                                  .build/obj_3key_default/lufa.o
                                                  .build/obj_3key_default/common/avr/timer.o
                                                  .build/obj_3key_default/common/avr/suspend.o
                                                  .build/obj_3key_default/common/host.o
                                                  .build/obj_3key_default/quantum/process_keycode/process_grave_esc.o
                                                  .build/obj_3key_default/quantum/process_keycode/process_space_cadet.o
                                                  .build/obj_3key_default/quantum/backlight/backlight.o
                                                  .build/obj_3key_default/quantum/rgblight/rgblight.o
                                                  .build/obj_3key_default/quantum/mousekey.o
                                                  .build/obj_3key_default/quantum/debounce/sym_defer_g.o
                                                  .build/obj_3key_default/quantum/matrix_common.o
                                                  .build/obj_3key_default/quantum/bootmagic/magic.o
                                                  .build/obj_3key_default/quantum/logging/debug.o
                                                  .build/obj_3key_default/quantum/keyboard.o
                                                  .build/obj_3key_default/quantum/action_util.o
                                                  .build/obj_3key_default/quantum/action_tapping.o
                                                  .build/obj_3key_default/quantum/action_layer.o
                                                  .build/obj_3key_default/quantum/action.o
__do_copy_data                                    /usr/lib/gcc/avr/11.2.0/avr5/libgcc.a(_copy_data.o)
                                                  .build/obj_3key_default/lufa.o
                                                  .build/obj_3key_default/quantum/rgblight/rgblight.o
                                                  .build/obj_3key_default/quantum/mousekey.o
                                                  .build/obj_3key_default/quantum/matrix.o
                                                  .build/obj_3key_default/quantum/keymap_common.o
                                                  .build/obj_3key_default/quantum/action_util.o
                                                  .build/obj_3key_default/quantum/action.o
__fixunssfsi                                      /usr/lib/gcc/avr/11.2.0/../../../../avr/lib/avr5/libm.a(fixunssfsi.o)
                                                  .build/obj_3key_default/common/host.o
__fp_inf                                          /usr/lib/gcc/avr/11.2.0/../../../../avr/lib/avr5/libm.a(fp_inf.o)
                                                  /usr/lib/gcc/avr/11.2.0/../../../../avr/lib/avr5/libm.a(mulsf3x.o)
__fp_nan                                          /usr/lib/gcc/avr/11.2.0/../../../../avr/lib/avr5/libm.a(fp_nan.o)
                                                  /usr/lib/gcc/avr/11.2.0/../../../../avr/lib/avr5/libm.a(mulsf3x.o)
__fp_pscA                                         /usr/lib/gcc/avr/11.2.0/../../../../avr/lib/avr5/libm.a(fp_pscA.o)
                                                  /usr/lib/gcc/avr/11.2.0/../../../../avr/lib/avr5/libm.a(mulsf3x.o)
__fp_pscB                                         /usr/lib/gcc/avr/11.2.0/../../../../avr/lib/avr5/libm.a(fp_pscB.o)
                                                  /usr/lib/gcc/avr/11.2.0/../../../../avr/lib/avr5/libm.a(mulsf3x.o)
__fp_round                                        /usr/lib/gcc/avr/11.2.0/../../../../avr/lib/avr5/libm.a(fp_round.o)
                                                  /usr/lib/gcc/avr/11.2.0/../../../../avr/lib/avr5/libm.a(mulsf3.o)
__fp_split3                                       /usr/lib/gcc/avr/11.2.0/../../../../avr/lib/avr5/libm.a(fp_split3.o)
                                                  /usr/lib/gcc/avr/11.2.0/../../../../avr/lib/avr5/libm.a(mulsf3x.o)
__fp_splitA                                       /usr/lib/gcc/avr/11.2.0/../../../../avr/lib/avr5/libm.a(fp_split3.o)
                                                  /usr/lib/gcc/avr/11.2.0/../../../../avr/lib/avr5/libm.a(fixunssfsi.o)
__fp_szero                                        /usr/lib/gcc/avr/11.2.0/../../../../avr/lib/avr5/libm.a(fp_zero.o)
                                                  /usr/lib/gcc/avr/11.2.0/../../../../avr/lib/avr5/libm.a(mulsf3x.o)
__fp_zero                                         /usr/lib/gcc/avr/11.2.0/../../../../avr/lib/avr5/libm.a(fp_zero.o)
                                                  /usr/lib/gcc/avr/11.2.0/../../../../avr/lib/avr5/libm.a(fixunssfsi.o)
__heap_end                                        /usr/lib/gcc/avr/11.2.0/../../../../avr/lib/avr5/crtatmega32u4.o
__init                                            /usr/lib/gcc/avr/11.2.0/../../../../avr/lib/avr5/crtatmega32u4.o
__mulhisi3                                        /usr/lib/gcc/avr/11.2.0/avr5/libgcc.a(_mulhisi3.o)
                                                  .build/obj_3key_default/quantum/rgblight/rgblight.o
__mulohisi3                                       /usr/lib/gcc/avr/11.2.0/avr5/libgcc.a(_mulshisi3.o)
__mulsf3                                          /usr/lib/gcc/avr/11.2.0/../../../../avr/lib/avr5/libm.a(mulsf3.o)
                                                  .build/obj_3key_default/common/host.o
__mulsf3_pse                                      /usr/lib/gcc/avr/11.2.0/../../../../avr/lib/avr5/libm.a(mulsf3x.o)
__mulsf3x                                         /usr/lib/gcc/avr/11.2.0/../../../../avr/lib/avr5/libm.a(mulsf3x.o)
                                                  /usr/lib/gcc/avr/11.2.0/../../../../avr/lib/avr5/libm.a(mulsf3.o)
__mulshisi3                                       /usr/lib/gcc/avr/11.2.0/avr5/libgcc.a(_mulshisi3.o)
                                                  .build/obj_3key_default/quantum/rgblight/rgblight.o
__mulsi3                                          /usr/lib/gcc/avr/11.2.0/avr5/libgcc.a(_mulsi3.o)
                                                  .build/obj_3key_default/quantum/backlight/backlight_avr.o
__muluhisi3                                       /usr/lib/gcc/avr/11.2.0/avr5/libgcc.a(_muluhisi3.o)
                                                  /usr/lib/gcc/avr/11.2.0/avr5/libgcc.a(_mulshisi3.o)
                                                  /usr/lib/gcc/avr/11.2.0/avr5/libgcc.a(_mulsi3.o)
                                                  .build/obj_3key_default/quantum/rgblight/rgblight.o
__popcounthi2                                     /usr/lib/gcc/avr/11.2.0/avr5/libgcc.a(_popcounthi2.o)
                                                  /usr/lib/gcc/avr/11.2.0/avr5/libgcc.a(_popcountsi2.o)
                                                  .build/obj_3key_default/quantum/bitwise.o
__popcounthi2_tail                                /usr/lib/gcc/avr/11.2.0/avr5/libgcc.a(_popcounthi2.o)
                                                  /usr/lib/gcc/avr/11.2.0/avr5/libgcc.a(_popcountsi2.o)
__popcountqi2                                     /usr/lib/gcc/avr/11.2.0/avr5/libgcc.a(_popcountqi2.o)
                                                  /usr/lib/gcc/avr/11.2.0/avr5/libgcc.a(_popcounthi2.o)
__popcountsi2                                     /usr/lib/gcc/avr/11.2.0/avr5/libgcc.a(_popcountsi2.o)
                                                  .build/obj_3key_default/quantum/bitwise.o
__stack                                           /usr/lib/gcc/avr/11.2.0/../../../../avr/lib/avr5/crtatmega32u4.o
__tablejump2__                                    /usr/lib/gcc/avr/11.2.0/avr5/libgcc.a(_tablejump2.o)
                                                  .build/obj_3key_default/lib/lufa/LUFA/Drivers/USB/Core/DeviceStandardReq.o
                                                  .build/obj_3key_default/quantum/process_keycode/process_magic.o
                                                  .build/obj_3key_default/quantum/process_keycode/process_rgb.o
                                                  .build/obj_3key_default/quantum/mousekey.o
                                                  .build/obj_3key_default/quantum/action.o
__udivmodhi4                                      /usr/lib/gcc/avr/11.2.0/avr5/libgcc.a(_udivmodhi4.o)
                                                  /usr/lib/gcc/avr/11.2.0/avr5/libgcc.a(_divmodhi4.o)
                                                  .build/obj_3key_default/quantum/backlight/backlight_avr.o
                                                  .build/obj_3key_default/quantum/rgblight/rgblight.o
                                                  .build/obj_3key_default/quantum/color.o
__udivmodsi4                                      /usr/lib/gcc/avr/11.2.0/avr5/libgcc.a(_udivmodsi4.o)
                                                  .build/obj_3key_default/quantum/backlight/backlight_avr.o
                                                  .build/obj_3key_default/quantum/rgblight/rgblight.o
__umulhisi3                                       /usr/lib/gcc/avr/11.2.0/avr5/libgcc.a(_umulhisi3.o)
                                                  /usr/lib/gcc/avr/11.2.0/avr5/libgcc.a(_muluhisi3.o)
                                                  /usr/lib/gcc/avr/11.2.0/avr5/libgcc.a(_usmulhisi3.o)
                                                  /usr/lib/gcc/avr/11.2.0/avr5/libgcc.a(_mulhisi3.o)
                                                  .build/obj_3key_default/quantum/backlight/backlight_avr.o
                                                  .build/obj_3key_default/quantum/rgblight/rgblight.o
__usmulhisi3                                      /usr/lib/gcc/avr/11.2.0/avr5/libgcc.a(_usmulhisi3.o)
__usmulhisi3_tail                                 /usr/lib/gcc/avr/11.2.0/avr5/libgcc.a(_usmulhisi3.o)
                                                  /usr/lib/gcc/avr/11.2.0/avr5/libgcc.a(_mulhisi3.o)
__vector_1                                        /usr/lib/gcc/avr/11.2.0/../../../../avr/lib/avr5/crtatmega32u4.o
__vector_10                                       .build/obj_3key_default/lib/lufa/LUFA/Drivers/USB/Core/AVR8/USBInterrupt_AVR8.o
                                                  /usr/lib/gcc/avr/11.2.0/../../../../avr/lib/avr5/crtatmega32u4.o
__vector_11                                       .build/obj_3key_default/lib/lufa/LUFA/Drivers/USB/Core/AVR8/USBInterrupt_AVR8.o
                                                  /usr/lib/gcc/avr/11.2.0/../../../../avr/lib/avr5/crtatmega32u4.o
__vector_12                                       .build/obj_3key_default/common/avr/suspend.o
                                                  /usr/lib/gcc/avr/11.2.0/../../../../avr/lib/avr5/crtatmega32u4.o
__vector_13                                       /usr/lib/gcc/avr/11.2.0/../../../../avr/lib/avr5/crtatmega32u4.o
__vector_14                                       /usr/lib/gcc/avr/11.2.0/../../../../avr/lib/avr5/crtatmega32u4.o
__vector_15                                       /usr/lib/gcc/avr/11.2.0/../../../../avr/lib/avr5/crtatmega32u4.o
__vector_16                                       /usr/lib/gcc/avr/11.2.0/../../../../avr/lib/avr5/crtatmega32u4.o
__vector_17                                       /usr/lib/gcc/avr/11.2.0/../../../../avr/lib/avr5/crtatmega32u4.o
__vector_18                                       /usr/lib/gcc/avr/11.2.0/../../../../avr/lib/avr5/crtatmega32u4.o
__vector_19                                       /usr/lib/gcc/avr/11.2.0/../../../../avr/lib/avr5/crtatmega32u4.o
__vector_2                                        /usr/lib/gcc/avr/11.2.0/../../../../avr/lib/avr5/crtatmega32u4.o
__vector_20                                       /usr/lib/gcc/avr/11.2.0/../../../../avr/lib/avr5/crtatmega32u4.o
__vector_21                                       .build/obj_3key_default/common/avr/timer.o
                                                  /usr/lib/gcc/avr/11.2.0/../../../../avr/lib/avr5/crtatmega32u4.o
__vector_22                                       /usr/lib/gcc/avr/11.2.0/../../../../avr/lib/avr5/crtatmega32u4.o
__vector_23                                       /usr/lib/gcc/avr/11.2.0/../../../../avr/lib/avr5/crtatmega32u4.o
__vector_24                                       /usr/lib/gcc/avr/11.2.0/../../../../avr/lib/avr5/crtatmega32u4.o
__vector_25                                       /usr/lib/gcc/avr/11.2.0/../../../../avr/lib/avr5/crtatmega32u4.o
__vector_26                                       /usr/lib/gcc/avr/11.2.0/../../../../avr/lib/avr5/crtatmega32u4.o
__vector_27                                       /usr/lib/gcc/avr/11.2.0/../../../../avr/lib/avr5/crtatmega32u4.o
__vector_28                                       /usr/lib/gcc/avr/11.2.0/../../../../avr/lib/avr5/crtatmega32u4.o
__vector_29                                       /usr/lib/gcc/avr/11.2.0/../../../../avr/lib/avr5/crtatmega32u4.o
__vector_3                                        /usr/lib/gcc/avr/11.2.0/../../../../avr/lib/avr5/crtatmega32u4.o
__vector_30                                       /usr/lib/gcc/avr/11.2.0/../../../../avr/lib/avr5/crtatmega32u4.o
__vector_31                                       /usr/lib/gcc/avr/11.2.0/../../../../avr/lib/avr5/crtatmega32u4.o
__vector_32                                       /usr/lib/gcc/avr/11.2.0/../../../../avr/lib/avr5/crtatmega32u4.o
__vector_33                                       /usr/lib/gcc/avr/11.2.0/../../../../avr/lib/avr5/crtatmega32u4.o
__vector_34                                       /usr/lib/gcc/avr/11.2.0/../../../../avr/lib/avr5/crtatmega32u4.o
__vector_35                                       /usr/lib/gcc/avr/11.2.0/../../../../avr/lib/avr5/crtatmega32u4.o
__vector_36                                       /usr/lib/gcc/avr/11.2.0/../../../../avr/lib/avr5/crtatmega32u4.o
__vector_37                                       /usr/lib/gcc/avr/11.2.0/../../../../avr/lib/avr5/crtatmega32u4.o
__vector_38                                       /usr/lib/gcc/avr/11.2.0/../../../../avr/lib/avr5/crtatmega32u4.o
__vector_39                                       /usr/lib/gcc/avr/11.2.0/../../../../avr/lib/avr5/crtatmega32u4.o
__vector_4                                        /usr/lib/gcc/avr/11.2.0/../../../../avr/lib/avr5/crtatmega32u4.o
__vector_40                                       /usr/lib/gcc/avr/11.2.0/../../../../avr/lib/avr5/crtatmega32u4.o
__vector_41                                       /usr/lib/gcc/avr/11.2.0/../../../../avr/lib/avr5/crtatmega32u4.o
__vector_42                                       /usr/lib/gcc/avr/11.2.0/../../../../avr/lib/avr5/crtatmega32u4.o
__vector_5                                        /usr/lib/gcc/avr/11.2.0/../../../../avr/lib/avr5/crtatmega32u4.o
__vector_6                                        /usr/lib/gcc/avr/11.2.0/../../../../avr/lib/avr5/crtatmega32u4.o
__vector_7                                        /usr/lib/gcc/avr/11.2.0/../../../../avr/lib/avr5/crtatmega32u4.o
__vector_8                                        /usr/lib/gcc/avr/11.2.0/../../../../avr/lib/avr5/crtatmega32u4.o
__vector_9                                        /usr/lib/gcc/avr/11.2.0/../../../../avr/lib/avr5/crtatmega32u4.o
__vector_default                                  /usr/lib/gcc/avr/11.2.0/../../../../avr/lib/avr5/crtatmega32u4.o
__vectors                                         /usr/lib/gcc/avr/11.2.0/../../../../avr/lib/avr5/crtatmega32u4.o
__xprintf                                         .build/obj_3key_default/common/avr/xprintf.o
_div                                              /usr/lib/gcc/avr/11.2.0/avr5/libgcc.a(_divmodhi4.o)
_exit                                             /usr/lib/gcc/avr/11.2.0/avr5/libgcc.a(_exit.o)
action_exec                                       .build/obj_3key_default/quantum/action.o
                                                  .build/obj_3key_default/quantum/keyboard.o
action_for_key                                    .build/obj_3key_default/quantum/keymap_common.o
                                                  .build/obj_3key_default/quantum/action_layer.o
action_for_keycode                                .build/obj_3key_default/quantum/keymap_common.o
action_function                                   .build/obj_3key_default/quantum/keymap_common.o
                                                  .build/obj_3key_default/quantum/action.o
action_get_macro                                  .build/obj_3key_default/keyboards/3key/keymaps/default/keymap.o
                                                  .build/obj_3key_default/quantum/action.o
action_macro_play                                 .build/obj_3key_default/quantum/action_macro.o
                                                  .build/obj_3key_default/quantum/action.o
action_tapping_process                            .build/obj_3key_default/quantum/action_tapping.o
                                                  .build/obj_3key_default/quantum/action.o
add_key                                           .build/obj_3key_default/quantum/action_util.o
                                                  .build/obj_3key_default/quantum/process_keycode/process_grave_esc.o
                                                  .build/obj_3key_default/quantum/action.o
add_key_bit                                       .build/obj_3key_default/common/report.o
add_key_byte                                      .build/obj_3key_default/common/report.o
add_key_to_report                                 .build/obj_3key_default/common/report.o
                                                  .build/obj_3key_default/quantum/action_util.o
add_macro_mods                                    .build/obj_3key_default/quantum/action_util.o
                                                  .build/obj_3key_default/quantum/action_macro.o
add_mods                                          .build/obj_3key_default/quantum/action_util.o
                                                  .build/obj_3key_default/quantum/action.o
add_oneshot_mods                                  .build/obj_3key_default/quantum/action_util.o
add_weak_mods                                     .build/obj_3key_default/quantum/action_util.o
                                                  .build/obj_3key_default/quantum/action.o
animation_status                                  .build/obj_3key_default/quantum/rgblight/rgblight.o
api_send_unicode                                  .build/obj_3key_default/quantum/quantum.o
ascii_to_altgr_lut                                .build/obj_3key_default/quantum/send_string.o
ascii_to_dead_lut                                 .build/obj_3key_default/quantum/send_string.o
ascii_to_keycode_lut                              .build/obj_3key_default/quantum/send_string.o
ascii_to_shift_lut                                .build/obj_3key_default/quantum/send_string.o
backlight_config                                  .build/obj_3key_default/quantum/backlight/backlight.o
backlight_decrease                                .build/obj_3key_default/quantum/backlight/backlight.o
                                                  .build/obj_3key_default/quantum/process_keycode/process_backlight.o
backlight_disable                                 .build/obj_3key_default/quantum/backlight/backlight.o
backlight_enable                                  .build/obj_3key_default/quantum/backlight/backlight.o
backlight_increase                                .build/obj_3key_default/quantum/backlight/backlight.o
                                                  .build/obj_3key_default/quantum/process_keycode/process_backlight.o
backlight_init                                    .build/obj_3key_default/quantum/backlight/backlight.o
                                                  .build/obj_3key_default/common/avr/suspend.o
                                                  .build/obj_3key_default/quantum/backlight/backlight_avr.o
                                                  .build/obj_3key_default/quantum/keyboard.o
backlight_init_ports                              .build/obj_3key_default/quantum/backlight/backlight_avr.o
                                                  .build/obj_3key_default/quantum/backlight/backlight.o
                                                  .build/obj_3key_default/quantum/quantum.o
backlight_level                                   .build/obj_3key_default/quantum/backlight/backlight.o
                                                  .build/obj_3key_default/quantum/process_keycode/process_backlight.o
backlight_level_noeeprom                          .build/obj_3key_default/quantum/backlight/backlight.o
backlight_pins_init                               .build/obj_3key_default/quantum/backlight/backlight_driver_common.o
                                                  .build/obj_3key_default/quantum/backlight/backlight_avr.o
backlight_pins_off                                .build/obj_3key_default/quantum/backlight/backlight_driver_common.o
                                                  .build/obj_3key_default/quantum/backlight/backlight_avr.o
backlight_pins_on                                 .build/obj_3key_default/quantum/backlight/backlight_driver_common.o
backlight_set                                     .build/obj_3key_default/quantum/backlight/backlight_avr.o
                                                  .build/obj_3key_default/quantum/backlight/backlight.o
                                                  .build/obj_3key_default/common/avr/suspend.o
backlight_step                                    .build/obj_3key_default/quantum/backlight/backlight.o
                                                  .build/obj_3key_default/quantum/process_keycode/process_backlight.o
backlight_task                                    .build/obj_3key_default/quantum/backlight/backlight_avr.o
                                                  .build/obj_3key_default/quantum/backlight/backlight.o
                                                  .build/obj_3key_default/quantum/keyboard.o
backlight_toggle                                  .build/obj_3key_default/quantum/backlight/backlight.o
                                                  .build/obj_3key_default/quantum/process_keycode/process_backlight.o
biton                                             .build/obj_3key_default/quantum/bitwise.o
                                                  .build/obj_3key_default/common/report.o
biton16                                           .build/obj_3key_default/quantum/bitwise.o
biton32                                           .build/obj_3key_default/quantum/bitwise.o
bitpop                                            .build/obj_3key_default/quantum/bitwise.o
                                                  .build/obj_3key_default/quantum/matrix_common.o
                                                  .build/obj_3key_default/quantum/action_util.o
bitpop16                                          .build/obj_3key_default/quantum/bitwise.o
bitpop32                                          .build/obj_3key_default/quantum/bitwise.o
bitrev                                            .build/obj_3key_default/quantum/bitwise.o
bitrev16                                          .build/obj_3key_default/quantum/bitwise.o
bitrev32                                          .build/obj_3key_default/quantum/bitwise.o
bootloader_jump                                   .build/obj_3key_default/common/avr/bootloader.o
                                                  .build/obj_3key_default/quantum/bootmagic/bootmagic_lite.o
                                                  .build/obj_3key_default/quantum/quantum.o
bootloader_jump_after_watchdog_reset              .build/obj_3key_default/common/avr/bootloader.o
bootmagic                                         .build/obj_3key_default/quantum/bootmagic/bootmagic_lite.o
bootmagic_lite                                    .build/obj_3key_default/quantum/bootmagic/bootmagic_lite.o
bootmagic_lite_reset_eeprom                       .build/obj_3key_default/quantum/bootmagic/bootmagic_lite.o
clear_keyboard                                    .build/obj_3key_default/quantum/action.o
                                                  .build/obj_3key_default/lufa.o
                                                  .build/obj_3key_default/common/avr/suspend.o
                                                  .build/obj_3key_default/quantum/process_keycode/process_magic.o
                                                  .build/obj_3key_default/quantum/action_tapping.o
                                                  .build/obj_3key_default/quantum/quantum.o
clear_keyboard_but_mods                           .build/obj_3key_default/quantum/action.o
clear_keyboard_but_mods_and_keys                  .build/obj_3key_default/quantum/action.o
                                                  .build/obj_3key_default/quantum/action_layer.o
clear_keys                                        .build/obj_3key_default/quantum/action_util.o
                                                  .build/obj_3key_default/quantum/action.o
clear_keys_from_report                            .build/obj_3key_default/common/report.o
                                                  .build/obj_3key_default/quantum/action_util.o
clear_macro_mods                                  .build/obj_3key_default/quantum/action_util.o
                                                  .build/obj_3key_default/quantum/action.o
clear_mods                                        .build/obj_3key_default/quantum/action_util.o
                                                  .build/obj_3key_default/quantum/action.o
clear_oneshot_layer_state                         .build/obj_3key_default/quantum/action_util.o
                                                  .build/obj_3key_default/quantum/action.o
clear_oneshot_locked_mods                         .build/obj_3key_default/quantum/action_util.o
clear_oneshot_mods                                .build/obj_3key_default/quantum/action_util.o
                                                  .build/obj_3key_default/quantum/action.o
clear_weak_mods                                   .build/obj_3key_default/quantum/action_util.o
                                                  .build/obj_3key_default/quantum/action.o
debounce                                          .build/obj_3key_default/quantum/debounce/sym_defer_g.o
                                                  .build/obj_3key_default/quantum/matrix.o
                                                  .build/obj_3key_default/quantum/matrix_common.o
debounce_active                                   .build/obj_3key_default/quantum/debounce/sym_defer_g.o
                                                  .build/obj_3key_default/quantum/matrix_common.o
debounce_free                                     .build/obj_3key_default/quantum/debounce/sym_defer_g.o
debounce_init                                     .build/obj_3key_default/quantum/debounce/sym_defer_g.o
                                                  .build/obj_3key_default/quantum/matrix.o
                                                  .build/obj_3key_default/quantum/matrix_common.o
debug_action                                      .build/obj_3key_default/quantum/action.o
debug_config                                      .build/obj_3key_default/quantum/logging/debug.o
                                                  .build/obj_3key_default/quantum/bootmagic/magic.o
                                                  .build/obj_3key_default/quantum/keyboard.o
debug_event                                       .build/obj_3key_default/quantum/action.o
                                                  .build/obj_3key_default/quantum/action_tapping.o
debug_record                                      .build/obj_3key_default/quantum/action.o
                                                  .build/obj_3key_default/quantum/action_tapping.o
default_layer_and                                 .build/obj_3key_default/quantum/action_layer.o
                                                  .build/obj_3key_default/quantum/action.o
default_layer_debug                               .build/obj_3key_default/quantum/action_layer.o
                                                  .build/obj_3key_default/quantum/action.o
default_layer_or                                  .build/obj_3key_default/quantum/action_layer.o
                                                  .build/obj_3key_default/quantum/action.o
default_layer_set                                 .build/obj_3key_default/quantum/action_layer.o
                                                  .build/obj_3key_default/quantum/bootmagic/magic.o
                                                  .build/obj_3key_default/quantum/action.o
                                                  .build/obj_3key_default/quantum/quantum.o
default_layer_state                               .build/obj_3key_default/quantum/action_layer.o
                                                  .build/obj_3key_default/quantum/eeconfig.o
default_layer_state_set_kb                        .build/obj_3key_default/quantum/action_layer.o
default_layer_state_set_user                      .build/obj_3key_default/quantum/action_layer.o
default_layer_xor                                 .build/obj_3key_default/quantum/action_layer.o
                                                  .build/obj_3key_default/quantum/action.o
del_key                                           .build/obj_3key_default/quantum/action_util.o
                                                  .build/obj_3key_default/quantum/process_keycode/process_grave_esc.o
                                                  .build/obj_3key_default/quantum/action.o
del_key_bit                                       .build/obj_3key_default/common/report.o
del_key_byte                                      .build/obj_3key_default/common/report.o
del_key_from_report                               .build/obj_3key_default/common/report.o
                                                  .build/obj_3key_default/quantum/action_util.o
del_macro_mods                                    .build/obj_3key_default/quantum/action_util.o
                                                  .build/obj_3key_default/quantum/action_macro.o
del_mods                                          .build/obj_3key_default/quantum/action_util.o
                                                  .build/obj_3key_default/quantum/action.o
del_oneshot_mods                                  .build/obj_3key_default/quantum/action_util.o
del_weak_mods                                     .build/obj_3key_default/quantum/action_util.o
                                                  .build/obj_3key_default/quantum/action.o
disable_action_cache                              .build/obj_3key_default/quantum/action.o
                                                  .build/obj_3key_default/quantum/action_layer.o
                                                  .build/obj_3key_default/quantum/quantum.o
disable_jtag                                      .build/obj_3key_default/quantum/keyboard.o
eeconfig_debug_rgblight                           .build/obj_3key_default/quantum/rgblight/rgblight.o
eeconfig_disable                                  .build/obj_3key_default/quantum/eeconfig.o
                                                  .build/obj_3key_default/quantum/bootmagic/bootmagic_lite.o
eeconfig_enable                                   .build/obj_3key_default/quantum/eeconfig.o
eeconfig_init                                     .build/obj_3key_default/quantum/eeconfig.o
                                                  .build/obj_3key_default/quantum/backlight/backlight.o
                                                  .build/obj_3key_default/quantum/rgblight/rgblight.o
                                                  .build/obj_3key_default/quantum/bootmagic/magic.o
                                                  .build/obj_3key_default/quantum/quantum.o
eeconfig_init_kb                                  .build/obj_3key_default/quantum/eeconfig.o
eeconfig_init_quantum                             .build/obj_3key_default/quantum/eeconfig.o
eeconfig_init_user                                .build/obj_3key_default/quantum/eeconfig.o
eeconfig_is_disabled                              .build/obj_3key_default/quantum/eeconfig.o
eeconfig_is_enabled                               .build/obj_3key_default/quantum/eeconfig.o
                                                  .build/obj_3key_default/quantum/backlight/backlight.o
                                                  .build/obj_3key_default/quantum/rgblight/rgblight.o
                                                  .build/obj_3key_default/quantum/bootmagic/magic.o
eeconfig_read_audio                               .build/obj_3key_default/quantum/eeconfig.o
eeconfig_read_backlight                           .build/obj_3key_default/quantum/backlight/backlight.o
eeconfig_read_debug                               .build/obj_3key_default/quantum/eeconfig.o
                                                  .build/obj_3key_default/quantum/bootmagic/magic.o
eeconfig_read_default_layer                       .build/obj_3key_default/quantum/eeconfig.o
                                                  .build/obj_3key_default/quantum/bootmagic/magic.o
eeconfig_read_handedness                          .build/obj_3key_default/quantum/eeconfig.o
eeconfig_read_haptic                              .build/obj_3key_default/quantum/eeconfig.o
eeconfig_read_kb                                  .build/obj_3key_default/quantum/eeconfig.o
eeconfig_read_keymap                              .build/obj_3key_default/quantum/eeconfig.o
                                                  .build/obj_3key_default/quantum/process_keycode/process_magic.o
                                                  .build/obj_3key_default/quantum/bootmagic/magic.o
eeconfig_read_rgblight                            .build/obj_3key_default/quantum/rgblight/rgblight.o
eeconfig_read_user                                .build/obj_3key_default/quantum/eeconfig.o
eeconfig_update_audio                             .build/obj_3key_default/quantum/eeconfig.o
eeconfig_update_backlight                         .build/obj_3key_default/quantum/backlight/backlight.o
eeconfig_update_backlight_current                 .build/obj_3key_default/quantum/backlight/backlight.o
eeconfig_update_backlight_default                 .build/obj_3key_default/quantum/backlight/backlight.o
eeconfig_update_debug                             .build/obj_3key_default/quantum/eeconfig.o
eeconfig_update_default_layer                     .build/obj_3key_default/quantum/eeconfig.o
                                                  .build/obj_3key_default/quantum/quantum.o
eeconfig_update_handedness                        .build/obj_3key_default/quantum/eeconfig.o
                                                  .build/obj_3key_default/quantum/process_keycode/process_magic.o
eeconfig_update_haptic                            .build/obj_3key_default/quantum/eeconfig.o
eeconfig_update_kb                                .build/obj_3key_default/quantum/eeconfig.o
eeconfig_update_keymap                            .build/obj_3key_default/quantum/eeconfig.o
                                                  .build/obj_3key_default/quantum/process_keycode/process_magic.o
                                                  .build/obj_3key_default/quantum/action_util.o
eeconfig_update_rgblight                          .build/obj_3key_default/quantum/rgblight/rgblight.o
eeconfig_update_rgblight_current                  .build/obj_3key_default/quantum/rgblight/rgblight.o
eeconfig_update_rgblight_default                  .build/obj_3key_default/quantum/rgblight/rgblight.o
eeconfig_update_user                              .build/obj_3key_default/quantum/eeconfig.o
eeprom_read_block                                 /usr/lib/gcc/avr/11.2.0/../../../../avr/lib/avr5/libatmega32u4.a(eerd_block.o)
eeprom_read_blraw                                 /usr/lib/gcc/avr/11.2.0/../../../../avr/lib/avr5/libatmega32u4.a(eerd_block.o)
                                                  /usr/lib/gcc/avr/11.2.0/../../../../avr/lib/avr5/libatmega32u4.a(eerd_word.o)
                                                  /usr/lib/gcc/avr/11.2.0/../../../../avr/lib/avr5/libatmega32u4.a(eerd_dword.o)
eeprom_read_byte                                  /usr/lib/gcc/avr/11.2.0/../../../../avr/lib/avr5/libatmega32u4.a(eerd_byte.o)
                                                  .build/obj_3key_default/lib/lufa/LUFA/Drivers/USB/Core/AVR8/EndpointStream_AVR8.o
                                                  .build/obj_3key_default/quantum/backlight/backlight.o
                                                  .build/obj_3key_default/quantum/eeconfig.o
eeprom_read_dword                                 /usr/lib/gcc/avr/11.2.0/../../../../avr/lib/avr5/libatmega32u4.a(eerd_dword.o)
                                                  .build/obj_3key_default/quantum/rgblight/rgblight.o
                                                  .build/obj_3key_default/quantum/eeconfig.o
eeprom_read_float                                 /usr/lib/gcc/avr/11.2.0/../../../../avr/lib/avr5/libatmega32u4.a(eerd_dword.o)
eeprom_read_word                                  /usr/lib/gcc/avr/11.2.0/../../../../avr/lib/avr5/libatmega32u4.a(eerd_word.o)
                                                  .build/obj_3key_default/quantum/eeconfig.o
eeprom_update_byte                                /usr/lib/gcc/avr/11.2.0/../../../../avr/lib/avr5/libatmega32u4.a(eeupd_byte.o)
                                                  /usr/lib/gcc/avr/11.2.0/../../../../avr/lib/avr5/libatmega32u4.a(eeupd_word.o)
                                                  /usr/lib/gcc/avr/11.2.0/../../../../avr/lib/avr5/libatmega32u4.a(eeupd_dword.o)
                                                  .build/obj_3key_default/lib/lufa/LUFA/Drivers/USB/Core/AVR8/EndpointStream_AVR8.o
                                                  .build/obj_3key_default/quantum/backlight/backlight.o
                                                  .build/obj_3key_default/quantum/eeconfig.o
eeprom_update_dword                               /usr/lib/gcc/avr/11.2.0/../../../../avr/lib/avr5/libatmega32u4.a(eeupd_dword.o)
                                                  .build/obj_3key_default/quantum/rgblight/rgblight.o
                                                  .build/obj_3key_default/quantum/eeconfig.o
eeprom_update_float                               /usr/lib/gcc/avr/11.2.0/../../../../avr/lib/avr5/libatmega32u4.a(eeupd_dword.o)
eeprom_update_r18                                 /usr/lib/gcc/avr/11.2.0/../../../../avr/lib/avr5/libatmega32u4.a(eeupd_byte.o)
                                                  /usr/lib/gcc/avr/11.2.0/../../../../avr/lib/avr5/libatmega32u4.a(eeupd_word.o)
                                                  /usr/lib/gcc/avr/11.2.0/../../../../avr/lib/avr5/libatmega32u4.a(eeupd_dword.o)
eeprom_update_word                                /usr/lib/gcc/avr/11.2.0/../../../../avr/lib/avr5/libatmega32u4.a(eeupd_word.o)
                                                  .build/obj_3key_default/quantum/eeconfig.o
exit                                              /usr/lib/gcc/avr/11.2.0/avr5/libgcc.a(_exit.o)
                                                  /usr/lib/gcc/avr/11.2.0/../../../../avr/lib/avr5/crtatmega32u4.o
extract_mod_bits                                  .build/obj_3key_default/quantum/quantum.o
fn_actions                                        .build/obj_3key_default/quantum/keymap_common.o
get_backlight_level                               .build/obj_3key_default/quantum/backlight/backlight.o
get_event_keycode                                 .build/obj_3key_default/quantum/quantum.o
get_first_key                                     .build/obj_3key_default/common/report.o
get_macro_mods                                    .build/obj_3key_default/quantum/action_util.o
get_mods                                          .build/obj_3key_default/quantum/action_util.o
                                                  .build/obj_3key_default/quantum/process_keycode/process_grave_esc.o
                                                  .build/obj_3key_default/quantum/process_keycode/process_rgb.o
get_oneshot_layer                                 .build/obj_3key_default/quantum/action_util.o
                                                  .build/obj_3key_default/quantum/action.o
get_oneshot_layer_state                           .build/obj_3key_default/quantum/action_util.o
                                                  .build/obj_3key_default/quantum/action.o
get_oneshot_locked_mods                           .build/obj_3key_default/quantum/action_util.o
get_oneshot_mods                                  .build/obj_3key_default/quantum/action_util.o
                                                  .build/obj_3key_default/quantum/action.o
get_record_keycode                                .build/obj_3key_default/quantum/quantum.o
get_tapping_term                                  .build/obj_3key_default/quantum/action_tapping.o
get_usb_descriptor                                .build/obj_3key_default/usb_descriptor.o
                                                  .build/obj_3key_default/lufa.o
get_weak_mods                                     .build/obj_3key_default/quantum/action_util.o
has_anykey                                        .build/obj_3key_default/common/report.o
                                                  .build/obj_3key_default/quantum/action_util.o
has_anymod                                        .build/obj_3key_default/quantum/action_util.o
has_oneshot_mods_timed_out                        .build/obj_3key_default/quantum/action_util.o
host_consumer_send                                .build/obj_3key_default/common/host.o
                                                  .build/obj_3key_default/quantum/action.o
host_digitizer_send                               .build/obj_3key_default/common/host.o
host_get_driver                                   .build/obj_3key_default/common/host.o
host_keyboard_led_state                           .build/obj_3key_default/common/host.o
host_keyboard_leds                                .build/obj_3key_default/common/host.o
                                                  .build/obj_3key_default/common/avr/suspend.o
                                                  .build/obj_3key_default/quantum/keyboard.o
                                                  .build/obj_3key_default/quantum/action.o
host_keyboard_send                                .build/obj_3key_default/common/host.o
                                                  .build/obj_3key_default/quantum/action_util.o
host_last_consumer_report                         .build/obj_3key_default/common/host.o
host_last_system_report                           .build/obj_3key_default/common/host.o
host_mouse_send                                   .build/obj_3key_default/common/host.o
                                                  .build/obj_3key_default/quantum/mousekey.o
host_set_driver                                   .build/obj_3key_default/common/host.o
                                                  .build/obj_3key_default/lufa.o
host_system_send                                  .build/obj_3key_default/common/host.o
                                                  .build/obj_3key_default/quantum/action.o
housekeeping_task                                 .build/obj_3key_default/quantum/keyboard.o
                                                  .build/obj_3key_default/quantum/main.o
housekeeping_task_kb                              .build/obj_3key_default/quantum/keyboard.o
housekeeping_task_user                            .build/obj_3key_default/quantum/keyboard.o
hsv_to_rgb                                        .build/obj_3key_default/quantum/color.o
                                                  .build/obj_3key_default/quantum/rgblight/rgblight.o
hsv_to_rgb_impl                                   .build/obj_3key_default/quantum/color.o
hsv_to_rgb_nocie                                  .build/obj_3key_default/quantum/color.o
is_backlight_enabled                              .build/obj_3key_default/quantum/backlight/backlight.o
is_key_pressed                                    .build/obj_3key_default/common/report.o
                                                  .build/obj_3key_default/quantum/action.o
is_keyboard_left                                  .build/obj_3key_default/quantum/keyboard.o
is_keyboard_master                                .build/obj_3key_default/quantum/keyboard.o
is_oneshot_enabled                                .build/obj_3key_default/quantum/action_util.o
is_oneshot_layer_active                           .build/obj_3key_default/quantum/action_util.o
                                                  .build/obj_3key_default/quantum/action.o
is_rgblight_initialized                           .build/obj_3key_default/quantum/rgblight/rgblight.o
is_tap_action                                     .build/obj_3key_default/quantum/action.o
is_tap_key                                        .build/obj_3key_default/quantum/action.o
is_tap_record                                     .build/obj_3key_default/quantum/action.o
                                                  .build/obj_3key_default/quantum/action_tapping.o
keyboard_idle                                     .build/obj_3key_default/lufa.o
keyboard_init                                     .build/obj_3key_default/quantum/keyboard.o
                                                  .build/obj_3key_default/lufa.o
keyboard_post_init_kb                             .build/obj_3key_default/quantum/keyboard.o
keyboard_post_init_user                           .build/obj_3key_default/quantum/keyboard.o
keyboard_pre_init_kb                              .build/obj_3key_default/quantum/keyboard.o
keyboard_pre_init_user                            .build/obj_3key_default/quantum/keyboard.o
keyboard_protocol                                 .build/obj_3key_default/lufa.o
                                                  .build/obj_3key_default/common/report.o
                                                  .build/obj_3key_default/common/host.o
keyboard_report                                   .build/obj_3key_default/quantum/action_util.o
                                                  .build/obj_3key_default/quantum/action.o
keyboard_set_leds                                 .build/obj_3key_default/quantum/keyboard.o
keyboard_setup                                    .build/obj_3key_default/quantum/keyboard.o
                                                  .build/obj_3key_default/lufa.o
keyboard_task                                     .build/obj_3key_default/quantum/keyboard.o
                                                  .build/obj_3key_default/lufa.o
keycode_config                                    .build/obj_3key_default/quantum/keycode_config.o
                                                  .build/obj_3key_default/quantum/keymap_common.o
keymap_config                                     .build/obj_3key_default/quantum/bootmagic/magic.o
                                                  .build/obj_3key_default/lufa.o
                                                  .build/obj_3key_default/common/report.o
                                                  .build/obj_3key_default/common/host.o
                                                  .build/obj_3key_default/quantum/process_keycode/process_magic.o
                                                  .build/obj_3key_default/quantum/keycode_config.o
                                                  .build/obj_3key_default/quantum/action_util.o
keymap_function_id_to_action                      .build/obj_3key_default/quantum/keymap_common.o
keymap_key_to_keycode                             .build/obj_3key_default/quantum/keymap_common.o
                                                  .build/obj_3key_default/quantum/quantum.o
keymaps                                           .build/obj_3key_default/keyboards/3key/keymaps/default/keymap.o
                                                  .build/obj_3key_default/quantum/keymap_common.o
last_encoder_activity_elapsed                     .build/obj_3key_default/quantum/keyboard.o
last_encoder_activity_time                        .build/obj_3key_default/quantum/keyboard.o
last_encoder_activity_trigger                     .build/obj_3key_default/quantum/keyboard.o
last_input_activity_elapsed                       .build/obj_3key_default/quantum/keyboard.o
last_input_activity_time                          .build/obj_3key_default/quantum/keyboard.o
last_matrix_activity_elapsed                      .build/obj_3key_default/quantum/keyboard.o
last_matrix_activity_time                         .build/obj_3key_default/quantum/keyboard.o
last_matrix_activity_trigger                      .build/obj_3key_default/quantum/keyboard.o
layer_and                                         .build/obj_3key_default/quantum/action_layer.o
                                                  .build/obj_3key_default/quantum/action.o
layer_clear                                       .build/obj_3key_default/quantum/action_layer.o
                                                  .build/obj_3key_default/quantum/action.o
layer_debug                                       .build/obj_3key_default/quantum/action_layer.o
                                                  .build/obj_3key_default/quantum/action.o
layer_invert                                      .build/obj_3key_default/quantum/action_layer.o
                                                  .build/obj_3key_default/quantum/action.o
layer_move                                        .build/obj_3key_default/quantum/action_layer.o
                                                  .build/obj_3key_default/quantum/action.o
layer_off                                         .build/obj_3key_default/quantum/action_layer.o
                                                  .build/obj_3key_default/quantum/action_util.o
                                                  .build/obj_3key_default/quantum/action.o
layer_on                                          .build/obj_3key_default/quantum/action_layer.o
                                                  .build/obj_3key_default/quantum/action_util.o
                                                  .build/obj_3key_default/quantum/action.o
layer_or                                          .build/obj_3key_default/quantum/action_layer.o
                                                  .build/obj_3key_default/quantum/action.o
layer_state                                       .build/obj_3key_default/quantum/action_layer.o
                                                  .build/obj_3key_default/quantum/bootmagic/magic.o
                                                  .build/obj_3key_default/quantum/quantum.o
layer_state_cmp                                   .build/obj_3key_default/quantum/action_layer.o
layer_state_is                                    .build/obj_3key_default/quantum/action_layer.o
layer_state_set                                   .build/obj_3key_default/quantum/action_layer.o
                                                  .build/obj_3key_default/quantum/action.o
                                                  .build/obj_3key_default/quantum/quantum.o
layer_state_set_kb                                .build/obj_3key_default/quantum/action_layer.o
                                                  .build/obj_3key_default/quantum/bootmagic/magic.o
layer_state_set_user                              .build/obj_3key_default/quantum/action_layer.o
layer_switch_get_action                           .build/obj_3key_default/quantum/action_layer.o
                                                  .build/obj_3key_default/quantum/action_tapping.o
                                                  .build/obj_3key_default/quantum/action.o
layer_switch_get_layer                            .build/obj_3key_default/quantum/action_layer.o
                                                  .build/obj_3key_default/quantum/quantum.o
layer_xor                                         .build/obj_3key_default/quantum/action_layer.o
                                                  .build/obj_3key_default/quantum/action.o
led                                               .build/obj_3key_default/quantum/rgblight/rgblight.o
led_init_ports                                    .build/obj_3key_default/quantum/led.o
                                                  .build/obj_3key_default/quantum/quantum.o
led_set                                           .build/obj_3key_default/quantum/led.o
                                                  .build/obj_3key_default/common/avr/suspend.o
                                                  .build/obj_3key_default/quantum/keyboard.o
                                                  .build/obj_3key_default/quantum/action.o
led_set_kb                                        .build/obj_3key_default/quantum/led.o
led_set_user                                      .build/obj_3key_default/quantum/led.o
led_update_kb                                     .build/obj_3key_default/quantum/led.o
led_update_user                                   .build/obj_3key_default/quantum/led.o
lufa_driver                                       .build/obj_3key_default/lufa.o
magic                                             .build/obj_3key_default/quantum/bootmagic/magic.o
                                                  .build/obj_3key_default/quantum/quantum.o
main                                              .build/obj_3key_default/quantum/main.o
                                                  /usr/lib/gcc/avr/11.2.0/../../../../avr/lib/avr5/crtatmega32u4.o
matrix                                            .build/obj_3key_default/quantum/matrix_common.o
                                                  .build/obj_3key_default/quantum/matrix.o
matrix_cols                                       .build/obj_3key_default/quantum/matrix_common.o
matrix_get_row                                    .build/obj_3key_default/quantum/matrix_common.o
                                                  .build/obj_3key_default/common/avr/suspend.o
                                                  .build/obj_3key_default/quantum/bootmagic/bootmagic_lite.o
                                                  .build/obj_3key_default/quantum/keyboard.o
matrix_init                                       .build/obj_3key_default/quantum/matrix.o
                                                  .build/obj_3key_default/quantum/matrix_common.o
                                                  .build/obj_3key_default/quantum/keyboard.o
matrix_init_custom                                .build/obj_3key_default/quantum/matrix_common.o
matrix_init_kb                                    .build/obj_3key_default/quantum/matrix_common.o
                                                  .build/obj_3key_default/quantum/quantum.o
matrix_init_pins                                  .build/obj_3key_default/quantum/matrix.o
matrix_init_quantum                               .build/obj_3key_default/quantum/quantum.o
                                                  .build/obj_3key_default/quantum/matrix.o
                                                  .build/obj_3key_default/quantum/matrix_common.o
matrix_init_user                                  .build/obj_3key_default/keyboards/3key/keymaps/default/keymap.o
matrix_io_delay                                   .build/obj_3key_default/quantum/matrix_common.o
matrix_is_modified                                .build/obj_3key_default/quantum/matrix_common.o
matrix_is_on                                      .build/obj_3key_default/quantum/matrix_common.o
matrix_key_count                                  .build/obj_3key_default/quantum/matrix_common.o
matrix_output_select_delay                        .build/obj_3key_default/quantum/matrix_common.o
                                                  .build/obj_3key_default/quantum/matrix.o
matrix_output_unselect_delay                      .build/obj_3key_default/quantum/matrix_common.o
                                                  .build/obj_3key_default/quantum/matrix.o
matrix_power_down                                 .build/obj_3key_default/common/avr/suspend.o
matrix_power_up                                   .build/obj_3key_default/common/avr/suspend.o
matrix_print                                      .build/obj_3key_default/quantum/matrix_common.o
                                                  .build/obj_3key_default/quantum/keyboard.o
matrix_read_rows_on_col                           .build/obj_3key_default/quantum/matrix.o
matrix_rows                                       .build/obj_3key_default/quantum/matrix_common.o
matrix_scan                                       .build/obj_3key_default/quantum/matrix.o
                                                  .build/obj_3key_default/quantum/matrix_common.o
                                                  .build/obj_3key_default/common/avr/suspend.o
                                                  .build/obj_3key_default/quantum/bootmagic/bootmagic_lite.o
                                                  .build/obj_3key_default/quantum/keyboard.o
matrix_scan_custom                                .build/obj_3key_default/quantum/matrix_common.o
matrix_scan_kb                                    .build/obj_3key_default/quantum/matrix_common.o
                                                  .build/obj_3key_default/quantum/quantum.o
matrix_scan_quantum                               .build/obj_3key_default/quantum/quantum.o
                                                  .build/obj_3key_default/quantum/matrix.o
                                                  .build/obj_3key_default/quantum/matrix_common.o
matrix_scan_user                                  .build/obj_3key_default/keyboards/3key/keymaps/default/keymap.o
matrix_setup                                      .build/obj_3key_default/quantum/keyboard.o
memchr                                            /usr/lib/gcc/avr/11.2.0/../../../../avr/lib/avr5/libc.a(memchr.o)
                                                  .build/obj_3key_default/quantum/rgblight/rgblight.o
memcpy                                            /usr/lib/gcc/avr/11.2.0/../../../../avr/lib/avr5/libc.a(memcpy.o)
                                                  /usr/lib/gcc/avr/11.2.0/../../../../avr/lib/avr5/libc.a(memmove.o)
memcpy_P                                          /usr/lib/gcc/avr/11.2.0/../../../../avr/lib/avr5/libc.a(memcpy_P.o)
                                                  .build/obj_3key_default/quantum/rgblight/rgblight.o
memmove                                           /usr/lib/gcc/avr/11.2.0/../../../../avr/lib/avr5/libc.a(memmove.o)
                                                  .build/obj_3key_default/lib/lufa/LUFA/Drivers/USB/Class/Common/HIDParser.o
mk_delay                                          .build/obj_3key_default/quantum/mousekey.o
mk_interval                                       .build/obj_3key_default/quantum/mousekey.o
mk_max_speed                                      .build/obj_3key_default/quantum/mousekey.o
mk_time_to_max                                    .build/obj_3key_default/quantum/mousekey.o
mk_wheel_delay                                    .build/obj_3key_default/quantum/mousekey.o
mk_wheel_interval                                 .build/obj_3key_default/quantum/mousekey.o
mk_wheel_max_speed                                .build/obj_3key_default/quantum/mousekey.o
mk_wheel_time_to_max                              .build/obj_3key_default/quantum/mousekey.o
mod_config                                        .build/obj_3key_default/quantum/keycode_config.o
                                                  .build/obj_3key_default/quantum/keymap_common.o
mousekey_clear                                    .build/obj_3key_default/quantum/mousekey.o
                                                  .build/obj_3key_default/quantum/action.o
mousekey_get_report                               .build/obj_3key_default/quantum/mousekey.o
mousekey_off                                      .build/obj_3key_default/quantum/mousekey.o
                                                  .build/obj_3key_default/quantum/action.o
mousekey_on                                       .build/obj_3key_default/quantum/mousekey.o
                                                  .build/obj_3key_default/quantum/action.o
mousekey_send                                     .build/obj_3key_default/quantum/mousekey.o
                                                  .build/obj_3key_default/quantum/action.o
mousekey_task                                     .build/obj_3key_default/quantum/mousekey.o
                                                  .build/obj_3key_default/quantum/keyboard.o
oneshot_disable                                   .build/obj_3key_default/quantum/action_util.o
                                                  .build/obj_3key_default/quantum/quantum.o
oneshot_enable                                    .build/obj_3key_default/quantum/action_util.o
                                                  .build/obj_3key_default/quantum/quantum.o
oneshot_layer_changed_kb                          .build/obj_3key_default/quantum/action_util.o
oneshot_layer_changed_user                        .build/obj_3key_default/quantum/action_util.o
oneshot_locked_mods_changed_kb                    .build/obj_3key_default/quantum/action_util.o
oneshot_locked_mods_changed_user                  .build/obj_3key_default/quantum/action_util.o
oneshot_mods_changed_kb                           .build/obj_3key_default/quantum/action_util.o
oneshot_mods_changed_user                         .build/obj_3key_default/quantum/action_util.o
oneshot_set                                       .build/obj_3key_default/quantum/action_util.o
oneshot_toggle                                    .build/obj_3key_default/quantum/action_util.o
                                                  .build/obj_3key_default/quantum/quantum.o
peek_matrix                                       .build/obj_3key_default/quantum/matrix_common.o
perform_space_cadet                               .build/obj_3key_default/quantum/process_keycode/process_space_cadet.o
platform_setup                                    .build/obj_3key_default/common/avr/platform.o
                                                  .build/obj_3key_default/quantum/main.o
post_process_record_kb                            .build/obj_3key_default/quantum/quantum.o
post_process_record_quantum                       .build/obj_3key_default/quantum/quantum.o
post_process_record_user                          .build/obj_3key_default/quantum/quantum.o
pre_process_record_quantum                        .build/obj_3key_default/quantum/quantum.o
print_set_sendchar                                .build/obj_3key_default/common/avr/printf.o
                                                  .build/obj_3key_default/quantum/keyboard.o
process_action                                    .build/obj_3key_default/quantum/action.o
process_action_kb                                 .build/obj_3key_default/quantum/quantum.o
process_backlight                                 .build/obj_3key_default/quantum/process_keycode/process_backlight.o
                                                  .build/obj_3key_default/quantum/quantum.o
process_grave_esc                                 .build/obj_3key_default/quantum/process_keycode/process_grave_esc.o
                                                  .build/obj_3key_default/quantum/quantum.o
process_magic                                     .build/obj_3key_default/quantum/process_keycode/process_magic.o
                                                  .build/obj_3key_default/quantum/quantum.o
process_record                                    .build/obj_3key_default/quantum/action.o
                                                  .build/obj_3key_default/quantum/action_tapping.o
process_record_handler                            .build/obj_3key_default/quantum/action.o
process_record_kb                                 .build/obj_3key_default/quantum/quantum.o
process_record_nocache                            .build/obj_3key_default/quantum/action.o
process_record_quantum                            .build/obj_3key_default/quantum/quantum.o
process_record_tap_hint                           .build/obj_3key_default/quantum/action.o
                                                  .build/obj_3key_default/quantum/action_tapping.o
process_record_user                               .build/obj_3key_default/keyboards/3key/keymaps/default/keymap.o
process_rgb                                       .build/obj_3key_default/quantum/process_keycode/process_rgb.o
                                                  .build/obj_3key_default/quantum/quantum.o
process_space_cadet                               .build/obj_3key_default/quantum/process_keycode/process_space_cadet.o
                                                  .build/obj_3key_default/quantum/quantum.o
protocol_init                                     .build/obj_3key_default/lufa.o
                                                  .build/obj_3key_default/quantum/main.o
protocol_setup                                    .build/obj_3key_default/lufa.o
                                                  .build/obj_3key_default/quantum/main.o
protocol_task                                     .build/obj_3key_default/lufa.o
                                                  .build/obj_3key_default/quantum/main.o
raw_matrix                                        .build/obj_3key_default/quantum/matrix_common.o
                                                  .build/obj_3key_default/quantum/matrix.o
read_source_layers_cache                          .build/obj_3key_default/quantum/action_layer.o
                                                  .build/obj_3key_default/quantum/quantum.o
register_code                                     .build/obj_3key_default/quantum/action.o
                                                  .build/obj_3key_default/quantum/action_macro.o
                                                  .build/obj_3key_default/quantum/send_string.o
                                                  .build/obj_3key_default/quantum/quantum.o
register_code16                                   .build/obj_3key_default/quantum/quantum.o
register_mods                                     .build/obj_3key_default/quantum/action.o
                                                  .build/obj_3key_default/quantum/process_keycode/process_space_cadet.o
                                                  .build/obj_3key_default/quantum/quantum.o
register_weak_mods                                .build/obj_3key_default/quantum/action.o
                                                  .build/obj_3key_default/quantum/quantum.o
reset_key                                         .build/obj_3key_default/common/avr/bootloader.o
reset_keyboard                                    .build/obj_3key_default/quantum/quantum.o
reset_oneshot_layer                               .build/obj_3key_default/quantum/action_util.o
rgblight_call_driver                              .build/obj_3key_default/quantum/rgblight/rgblight.o
rgblight_check_config                             .build/obj_3key_default/quantum/rgblight/rgblight.o
rgblight_config                                   .build/obj_3key_default/quantum/rgblight/rgblight.o
rgblight_decrease                                 .build/obj_3key_default/quantum/rgblight/rgblight.o
rgblight_decrease_hue                             .build/obj_3key_default/quantum/rgblight/rgblight.o
                                                  .build/obj_3key_default/quantum/process_keycode/process_rgb.o
rgblight_decrease_hue_helper                      .build/obj_3key_default/quantum/rgblight/rgblight.o
rgblight_decrease_hue_noeeprom                    .build/obj_3key_default/quantum/rgblight/rgblight.o
rgblight_decrease_sat                             .build/obj_3key_default/quantum/rgblight/rgblight.o
                                                  .build/obj_3key_default/quantum/process_keycode/process_rgb.o
rgblight_decrease_sat_helper                      .build/obj_3key_default/quantum/rgblight/rgblight.o
rgblight_decrease_sat_noeeprom                    .build/obj_3key_default/quantum/rgblight/rgblight.o
rgblight_decrease_speed                           .build/obj_3key_default/quantum/rgblight/rgblight.o
                                                  .build/obj_3key_default/quantum/process_keycode/process_rgb.o
rgblight_decrease_speed_helper                    .build/obj_3key_default/quantum/rgblight/rgblight.o
rgblight_decrease_speed_noeeprom                  .build/obj_3key_default/quantum/rgblight/rgblight.o
rgblight_decrease_val                             .build/obj_3key_default/quantum/rgblight/rgblight.o
                                                  .build/obj_3key_default/quantum/process_keycode/process_rgb.o
rgblight_decrease_val_helper                      .build/obj_3key_default/quantum/rgblight/rgblight.o
rgblight_decrease_val_noeeprom                    .build/obj_3key_default/quantum/rgblight/rgblight.o
rgblight_disable                                  .build/obj_3key_default/quantum/rgblight/rgblight.o
rgblight_disable_noeeprom                         .build/obj_3key_default/quantum/rgblight/rgblight.o
rgblight_effect_alternating                       .build/obj_3key_default/quantum/rgblight/rgblight.o
rgblight_effect_breathe_table                     .build/obj_3key_default/quantum/rgblight/rgblight.o
rgblight_effect_breathing                         .build/obj_3key_default/quantum/rgblight/rgblight.o
rgblight_effect_christmas                         .build/obj_3key_default/quantum/rgblight/rgblight.o
rgblight_effect_knight                            .build/obj_3key_default/quantum/rgblight/rgblight.o
rgblight_effect_rainbow_mood                      .build/obj_3key_default/quantum/rgblight/rgblight.o
rgblight_effect_rainbow_swirl                     .build/obj_3key_default/quantum/rgblight/rgblight.o
rgblight_effect_rgbtest                           .build/obj_3key_default/quantum/rgblight/rgblight.o
rgblight_effect_snake                             .build/obj_3key_default/quantum/rgblight/rgblight.o
rgblight_enable                                   .build/obj_3key_default/quantum/rgblight/rgblight.o
rgblight_enable_noeeprom                          .build/obj_3key_default/quantum/rgblight/rgblight.o
rgblight_get_hsv                                  .build/obj_3key_default/quantum/rgblight/rgblight.o
rgblight_get_hue                                  .build/obj_3key_default/quantum/rgblight/rgblight.o
rgblight_get_layer_state                          .build/obj_3key_default/quantum/rgblight/rgblight.o
rgblight_get_mode                                 .build/obj_3key_default/quantum/rgblight/rgblight.o
                                                  .build/obj_3key_default/quantum/process_keycode/process_rgb.o
rgblight_get_sat                                  .build/obj_3key_default/quantum/rgblight/rgblight.o
rgblight_get_speed                                .build/obj_3key_default/quantum/rgblight/rgblight.o
rgblight_get_val                                  .build/obj_3key_default/quantum/rgblight/rgblight.o
rgblight_hsv_to_rgb                               .build/obj_3key_default/quantum/rgblight/rgblight.o
rgblight_increase                                 .build/obj_3key_default/quantum/rgblight/rgblight.o
rgblight_increase_hue                             .build/obj_3key_default/quantum/rgblight/rgblight.o
                                                  .build/obj_3key_default/quantum/process_keycode/process_rgb.o
rgblight_increase_hue_helper                      .build/obj_3key_default/quantum/rgblight/rgblight.o
rgblight_increase_hue_noeeprom                    .build/obj_3key_default/quantum/rgblight/rgblight.o
rgblight_increase_sat                             .build/obj_3key_default/quantum/rgblight/rgblight.o
                                                  .build/obj_3key_default/quantum/process_keycode/process_rgb.o
rgblight_increase_sat_helper                      .build/obj_3key_default/quantum/rgblight/rgblight.o
rgblight_increase_sat_noeeprom                    .build/obj_3key_default/quantum/rgblight/rgblight.o
rgblight_increase_speed                           .build/obj_3key_default/quantum/rgblight/rgblight.o
                                                  .build/obj_3key_default/quantum/process_keycode/process_rgb.o
rgblight_increase_speed_helper                    .build/obj_3key_default/quantum/rgblight/rgblight.o
rgblight_increase_speed_noeeprom                  .build/obj_3key_default/quantum/rgblight/rgblight.o
rgblight_increase_val                             .build/obj_3key_default/quantum/rgblight/rgblight.o
                                                  .build/obj_3key_default/quantum/process_keycode/process_rgb.o
rgblight_increase_val_helper                      .build/obj_3key_default/quantum/rgblight/rgblight.o
rgblight_increase_val_noeeprom                    .build/obj_3key_default/quantum/rgblight/rgblight.o
rgblight_init                                     .build/obj_3key_default/quantum/rgblight/rgblight.o
                                                  .build/obj_3key_default/quantum/keyboard.o
rgblight_is_enabled                               .build/obj_3key_default/quantum/rgblight/rgblight.o
rgblight_layers                                   .build/obj_3key_default/quantum/rgblight/rgblight.o
rgblight_mode                                     .build/obj_3key_default/quantum/rgblight/rgblight.o
                                                  .build/obj_3key_default/quantum/process_keycode/process_rgb.o
rgblight_mode_eeprom_helper                       .build/obj_3key_default/quantum/rgblight/rgblight.o
rgblight_mode_noeeprom                            .build/obj_3key_default/quantum/rgblight/rgblight.o
rgblight_ranges                                   .build/obj_3key_default/quantum/rgblight/rgblight.o
rgblight_read_dword                               .build/obj_3key_default/quantum/rgblight/rgblight.o
rgblight_reload_from_eeprom                       .build/obj_3key_default/quantum/rgblight/rgblight.o
rgblight_set                                      .build/obj_3key_default/quantum/rgblight/rgblight.o
rgblight_set_clipping_range                       .build/obj_3key_default/quantum/rgblight/rgblight.o
rgblight_set_effect_range                         .build/obj_3key_default/quantum/rgblight/rgblight.o
rgblight_set_layer_state                          .build/obj_3key_default/quantum/rgblight/rgblight.o
rgblight_set_speed                                .build/obj_3key_default/quantum/rgblight/rgblight.o
rgblight_set_speed_eeprom_helper                  .build/obj_3key_default/quantum/rgblight/rgblight.o
rgblight_set_speed_noeeprom                       .build/obj_3key_default/quantum/rgblight/rgblight.o
rgblight_sethsv                                   .build/obj_3key_default/quantum/rgblight/rgblight.o
rgblight_sethsv_at                                .build/obj_3key_default/quantum/rgblight/rgblight.o
rgblight_sethsv_eeprom_helper                     .build/obj_3key_default/quantum/rgblight/rgblight.o
rgblight_sethsv_master                            .build/obj_3key_default/quantum/rgblight/rgblight.o
rgblight_sethsv_noeeprom                          .build/obj_3key_default/quantum/rgblight/rgblight.o
rgblight_sethsv_noeeprom_old                      .build/obj_3key_default/quantum/rgblight/rgblight.o
rgblight_sethsv_range                             .build/obj_3key_default/quantum/rgblight/rgblight.o
rgblight_sethsv_slave                             .build/obj_3key_default/quantum/rgblight/rgblight.o
rgblight_setrgb                                   .build/obj_3key_default/quantum/rgblight/rgblight.o
rgblight_setrgb_at                                .build/obj_3key_default/quantum/rgblight/rgblight.o
rgblight_setrgb_master                            .build/obj_3key_default/quantum/rgblight/rgblight.o
rgblight_setrgb_range                             .build/obj_3key_default/quantum/rgblight/rgblight.o
rgblight_setrgb_slave                             .build/obj_3key_default/quantum/rgblight/rgblight.o
rgblight_show_solid_color                         .build/obj_3key_default/quantum/rgblight/rgblight.o
rgblight_status                                   .build/obj_3key_default/quantum/rgblight/rgblight.o
rgblight_step                                     .build/obj_3key_default/quantum/rgblight/rgblight.o
                                                  .build/obj_3key_default/quantum/process_keycode/process_rgb.o
rgblight_step_helper                              .build/obj_3key_default/quantum/rgblight/rgblight.o
rgblight_step_noeeprom                            .build/obj_3key_default/quantum/rgblight/rgblight.o
rgblight_step_reverse                             .build/obj_3key_default/quantum/rgblight/rgblight.o
                                                  .build/obj_3key_default/quantum/process_keycode/process_rgb.o
rgblight_step_reverse_helper                      .build/obj_3key_default/quantum/rgblight/rgblight.o
rgblight_step_reverse_noeeprom                    .build/obj_3key_default/quantum/rgblight/rgblight.o
rgblight_task                                     .build/obj_3key_default/quantum/rgblight/rgblight.o
                                                  .build/obj_3key_default/quantum/keyboard.o
rgblight_timer_disable                            .build/obj_3key_default/quantum/rgblight/rgblight.o
rgblight_timer_enable                             .build/obj_3key_default/quantum/rgblight/rgblight.o
rgblight_timer_init                               .build/obj_3key_default/quantum/rgblight/rgblight.o
rgblight_timer_toggle                             .build/obj_3key_default/quantum/rgblight/rgblight.o
rgblight_toggle                                   .build/obj_3key_default/quantum/rgblight/rgblight.o
                                                  .build/obj_3key_default/quantum/process_keycode/process_rgb.o
rgblight_toggle_noeeprom                          .build/obj_3key_default/quantum/rgblight/rgblight.o
rgblight_update_dword                             .build/obj_3key_default/quantum/rgblight/rgblight.o
send_byte                                         .build/obj_3key_default/quantum/send_string.o
send_char                                         .build/obj_3key_default/quantum/send_string.o
send_digitizer                                    .build/obj_3key_default/lufa.o
                                                  .build/obj_3key_default/common/host.o
send_dword                                        .build/obj_3key_default/quantum/send_string.o
send_keyboard_report                              .build/obj_3key_default/quantum/action_util.o
                                                  .build/obj_3key_default/quantum/process_keycode/process_grave_esc.o
                                                  .build/obj_3key_default/quantum/action_macro.o
                                                  .build/obj_3key_default/quantum/action.o
send_nibble                                       .build/obj_3key_default/quantum/send_string.o
send_string                                       .build/obj_3key_default/quantum/send_string.o
send_string_P                                     .build/obj_3key_default/quantum/send_string.o
send_string_with_delay                            .build/obj_3key_default/quantum/send_string.o
send_string_with_delay_P                          .build/obj_3key_default/quantum/send_string.o
send_word                                         .build/obj_3key_default/quantum/send_string.o
sendchar                                          .build/obj_3key_default/quantum/logging/sendchar.o
                                                  .build/obj_3key_default/quantum/keyboard.o
set_macro_mods                                    .build/obj_3key_default/quantum/action_util.o
set_mods                                          .build/obj_3key_default/quantum/action_util.o
set_oneshot_layer                                 .build/obj_3key_default/quantum/action_util.o
                                                  .build/obj_3key_default/quantum/action.o
set_oneshot_locked_mods                           .build/obj_3key_default/quantum/action_util.o
set_oneshot_mods                                  .build/obj_3key_default/quantum/action_util.o
                                                  .build/obj_3key_default/quantum/action.o
set_single_persistent_default_layer               .build/obj_3key_default/quantum/quantum.o
set_weak_mods                                     .build/obj_3key_default/quantum/action_util.o
sethsv                                            .build/obj_3key_default/quantum/rgblight/rgblight.o
sethsv_raw                                        .build/obj_3key_default/quantum/rgblight/rgblight.o
setrgb                                            .build/obj_3key_default/quantum/rgblight/rgblight.o
should_process_keypress                           .build/obj_3key_default/quantum/keyboard.o
shutdown_user                                     .build/obj_3key_default/quantum/quantum.o
source_layers_cache                               .build/obj_3key_default/quantum/action_layer.o
startup_user                                      .build/obj_3key_default/quantum/quantum.o
store_or_get_action                               .build/obj_3key_default/quantum/action_layer.o
                                                  .build/obj_3key_default/quantum/action.o
suspend_idle                                      .build/obj_3key_default/common/avr/suspend.o
suspend_power_down                                .build/obj_3key_default/common/avr/suspend.o
                                                  .build/obj_3key_default/lufa.o
suspend_power_down_kb                             .build/obj_3key_default/common/avr/suspend.o
suspend_power_down_user                           .build/obj_3key_default/common/avr/suspend.o
suspend_wakeup_condition                          .build/obj_3key_default/common/avr/suspend.o
                                                  .build/obj_3key_default/lufa.o
suspend_wakeup_init                               .build/obj_3key_default/common/avr/suspend.o
                                                  .build/obj_3key_default/lufa.o
suspend_wakeup_init_kb                            .build/obj_3key_default/common/avr/suspend.o
suspend_wakeup_init_user                          .build/obj_3key_default/common/avr/suspend.o
switch_events                                     .build/obj_3key_default/quantum/keyboard.o
tap_code                                          .build/obj_3key_default/quantum/action.o
                                                  .build/obj_3key_default/quantum/process_keycode/process_space_cadet.o
                                                  .build/obj_3key_default/quantum/send_string.o
tap_code16                                        .build/obj_3key_default/quantum/quantum.o
tap_code_delay                                    .build/obj_3key_default/quantum/action.o
tap_random_base64                                 .build/obj_3key_default/quantum/send_string.o
timer_clear                                       .build/obj_3key_default/common/avr/timer.o
timer_count                                       .build/obj_3key_default/common/avr/timer.o
                                                  .build/obj_3key_default/common/avr/suspend.o
timer_elapsed                                     .build/obj_3key_default/common/avr/timer.o
                                                  .build/obj_3key_default/quantum/process_keycode/process_space_cadet.o
                                                  .build/obj_3key_default/quantum/mousekey.o
                                                  .build/obj_3key_default/quantum/debounce/sym_defer_g.o
timer_elapsed32                                   .build/obj_3key_default/common/avr/timer.o
                                                  .build/obj_3key_default/quantum/keyboard.o
timer_init                                        .build/obj_3key_default/common/avr/timer.o
                                                  .build/obj_3key_default/quantum/keyboard.o
timer_read                                        .build/obj_3key_default/common/avr/timer.o
                                                  .build/obj_3key_default/quantum/process_keycode/process_space_cadet.o
                                                  .build/obj_3key_default/quantum/rgblight/rgblight.o
                                                  .build/obj_3key_default/quantum/mousekey.o
                                                  .build/obj_3key_default/quantum/debounce/sym_defer_g.o
                                                  .build/obj_3key_default/quantum/keyboard.o
timer_read32                                      .build/obj_3key_default/common/avr/timer.o
                                                  .build/obj_3key_default/quantum/keyboard.o
tp_buttons                                        .build/obj_3key_default/quantum/action.o
unregister_code                                   .build/obj_3key_default/quantum/action.o
                                                  .build/obj_3key_default/quantum/action_macro.o
                                                  .build/obj_3key_default/quantum/send_string.o
                                                  .build/obj_3key_default/quantum/quantum.o
unregister_code16                                 .build/obj_3key_default/quantum/quantum.o
unregister_mods                                   .build/obj_3key_default/quantum/action.o
                                                  .build/obj_3key_default/quantum/process_keycode/process_space_cadet.o
                                                  .build/obj_3key_default/quantum/quantum.o
unregister_weak_mods                              .build/obj_3key_default/quantum/action.o
                                                  .build/obj_3key_default/quantum/quantum.o
update_source_layers_cache                        .build/obj_3key_default/quantum/action_layer.o
                                                  .build/obj_3key_default/quantum/quantum.o
update_tri_layer                                  .build/obj_3key_default/quantum/quantum.o
update_tri_layer_state                            .build/obj_3key_default/quantum/quantum.o
usb_connected_state                               .build/obj_3key_default/protocol/lufa/usb_util.o
                                                  .build/obj_3key_default/common/usb_util.o
usb_disconnect                                    .build/obj_3key_default/protocol/lufa/usb_util.o
                                                  .build/obj_3key_default/common/usb_util.o
usb_vbus_state                                    .build/obj_3key_default/protocol/lufa/usb_util.o
                                                  .build/obj_3key_default/common/usb_util.o
ws2812_setleds                                    .build/obj_3key_default/ws2812.o
                                                  .build/obj_3key_default/quantum/rgblight/rgblight.o
xfunc_out                                         .build/obj_3key_default/common/avr/xprintf.o
                                                  .build/obj_3key_default/common/avr/printf.o
xitoa                                             .build/obj_3key_default/common/avr/xprintf.o
xputc                                             .build/obj_3key_default/common/avr/xprintf.o
xputs                                             .build/obj_3key_default/common/avr/xprintf.o
