Archive member included to satisfy reference by file (symbol)

/usr/lib/gcc/avr/11.2.0/../../../../avr/lib/avr5/libm.a(fixunssfsi.o)
                              .build/obj_3key_LohseBoi/common/host.o (__fixunssfsi)
/usr/lib/gcc/avr/11.2.0/../../../../avr/lib/avr5/libm.a(fp_split3.o)
                              /usr/lib/gcc/avr/11.2.0/../../../../avr/lib/avr5/libm.a(fixunssfsi.o) (__fp_splitA)
/usr/lib/gcc/avr/11.2.0/../../../../avr/lib/avr5/libm.a(fp_zero.o)
                              /usr/lib/gcc/avr/11.2.0/../../../../avr/lib/avr5/libm.a(fixunssfsi.o) (__fp_zero)
/usr/lib/gcc/avr/11.2.0/../../../../avr/lib/avr5/libm.a(mulsf3.o)
                              .build/obj_3key_LohseBoi/common/host.o (__mulsf3)
/usr/lib/gcc/avr/11.2.0/../../../../avr/lib/avr5/libm.a(mulsf3x.o)
                              /usr/lib/gcc/avr/11.2.0/../../../../avr/lib/avr5/libm.a(mulsf3.o) (__mulsf3x)
/usr/lib/gcc/avr/11.2.0/../../../../avr/lib/avr5/libm.a(fp_inf.o)
                              /usr/lib/gcc/avr/11.2.0/../../../../avr/lib/avr5/libm.a(mulsf3x.o) (__fp_inf)
/usr/lib/gcc/avr/11.2.0/../../../../avr/lib/avr5/libm.a(fp_nan.o)
                              /usr/lib/gcc/avr/11.2.0/../../../../avr/lib/avr5/libm.a(mulsf3x.o) (__fp_nan)
/usr/lib/gcc/avr/11.2.0/../../../../avr/lib/avr5/libm.a(fp_pscA.o)
                              /usr/lib/gcc/avr/11.2.0/../../../../avr/lib/avr5/libm.a(mulsf3x.o) (__fp_pscA)
/usr/lib/gcc/avr/11.2.0/../../../../avr/lib/avr5/libm.a(fp_pscB.o)
                              /usr/lib/gcc/avr/11.2.0/../../../../avr/lib/avr5/libm.a(mulsf3x.o) (__fp_pscB)
/usr/lib/gcc/avr/11.2.0/../../../../avr/lib/avr5/libm.a(fp_round.o)
                              /usr/lib/gcc/avr/11.2.0/../../../../avr/lib/avr5/libm.a(mulsf3.o) (__fp_round)
/usr/lib/gcc/avr/11.2.0/avr5/libgcc.a(_mulsi3.o)
                              .build/obj_3key_LohseBoi/quantum/backlight/backlight_avr.o (__mulsi3)
/usr/lib/gcc/avr/11.2.0/avr5/libgcc.a(_udivmodhi4.o)
                              .build/obj_3key_LohseBoi/quantum/color.o (__udivmodhi4)
/usr/lib/gcc/avr/11.2.0/avr5/libgcc.a(_divmodhi4.o)
                              .build/obj_3key_LohseBoi/quantum/mousekey.o (__divmodhi4)
/usr/lib/gcc/avr/11.2.0/avr5/libgcc.a(_udivmodsi4.o)
                              .build/obj_3key_LohseBoi/quantum/rgblight/rgblight.o (__udivmodsi4)
/usr/lib/gcc/avr/11.2.0/avr5/libgcc.a(_exit.o)
                              /usr/lib/gcc/avr/11.2.0/../../../../avr/lib/avr5/crtatmega32u4.o (exit)
/usr/lib/gcc/avr/11.2.0/avr5/libgcc.a(_tablejump2.o)
                              .build/obj_3key_LohseBoi/quantum/action.o (__tablejump2__)
/usr/lib/gcc/avr/11.2.0/avr5/libgcc.a(_copy_data.o)
                              .build/obj_3key_LohseBoi/keyboards/3key/keymaps/LohseBoi/keymap.o (__do_copy_data)
/usr/lib/gcc/avr/11.2.0/avr5/libgcc.a(_clear_bss.o)
                              .build/obj_3key_LohseBoi/keyboards/3key/keymaps/LohseBoi/keymap.o (__do_clear_bss)
/usr/lib/gcc/avr/11.2.0/avr5/libgcc.a(_popcounthi2.o)
                              .build/obj_3key_LohseBoi/quantum/bitwise.o (__popcounthi2)
/usr/lib/gcc/avr/11.2.0/avr5/libgcc.a(_popcountsi2.o)
                              .build/obj_3key_LohseBoi/quantum/bitwise.o (__popcountsi2)
/usr/lib/gcc/avr/11.2.0/avr5/libgcc.a(_popcountqi2.o)
                              /usr/lib/gcc/avr/11.2.0/avr5/libgcc.a(_popcounthi2.o) (__popcountqi2)
/usr/lib/gcc/avr/11.2.0/avr5/libgcc.a(_mulhisi3.o)
                              .build/obj_3key_LohseBoi/quantum/rgblight/rgblight.o (__mulhisi3)
/usr/lib/gcc/avr/11.2.0/avr5/libgcc.a(_umulhisi3.o)
                              .build/obj_3key_LohseBoi/quantum/rgblight/rgblight.o (__umulhisi3)
/usr/lib/gcc/avr/11.2.0/avr5/libgcc.a(_usmulhisi3.o)
                              /usr/lib/gcc/avr/11.2.0/avr5/libgcc.a(_mulhisi3.o) (__usmulhisi3_tail)
/usr/lib/gcc/avr/11.2.0/avr5/libgcc.a(_muluhisi3.o)
                              .build/obj_3key_LohseBoi/quantum/rgblight/rgblight.o (__muluhisi3)
/usr/lib/gcc/avr/11.2.0/avr5/libgcc.a(_mulshisi3.o)
                              .build/obj_3key_LohseBoi/quantum/rgblight/rgblight.o (__mulshisi3)
/usr/lib/gcc/avr/11.2.0/../../../../avr/lib/avr5/libc.a(memcpy_P.o)
                              .build/obj_3key_LohseBoi/quantum/rgblight/rgblight.o (memcpy_P)
/usr/lib/gcc/avr/11.2.0/../../../../avr/lib/avr5/libc.a(memchr.o)
                              .build/obj_3key_LohseBoi/quantum/rgblight/rgblight.o (memchr)
/usr/lib/gcc/avr/11.2.0/../../../../avr/lib/avr5/libc.a(memmove.o)
                              .build/obj_3key_LohseBoi/lib/lufa/LUFA/Drivers/USB/Class/Common/HIDParser.o (memmove)
/usr/lib/gcc/avr/11.2.0/../../../../avr/lib/avr5/libc.a(sprintf.o)
                              .build/obj_3key_LohseBoi/keyboards/3key/keymaps/LohseBoi/keymap.o (sprintf)
/usr/lib/gcc/avr/11.2.0/../../../../avr/lib/avr5/libc.a(vfprintf_std.o)
                              /usr/lib/gcc/avr/11.2.0/../../../../avr/lib/avr5/libc.a(sprintf.o) (vfprintf)
/usr/lib/gcc/avr/11.2.0/../../../../avr/lib/avr5/libc.a(strnlen_P.o)
                              /usr/lib/gcc/avr/11.2.0/../../../../avr/lib/avr5/libc.a(vfprintf_std.o) (strnlen_P)
/usr/lib/gcc/avr/11.2.0/../../../../avr/lib/avr5/libc.a(memcpy.o)
                              /usr/lib/gcc/avr/11.2.0/../../../../avr/lib/avr5/libc.a(memmove.o) (memcpy)
/usr/lib/gcc/avr/11.2.0/../../../../avr/lib/avr5/libc.a(strnlen.o)
                              /usr/lib/gcc/avr/11.2.0/../../../../avr/lib/avr5/libc.a(vfprintf_std.o) (strnlen)
/usr/lib/gcc/avr/11.2.0/../../../../avr/lib/avr5/libc.a(fputc.o)
                              /usr/lib/gcc/avr/11.2.0/../../../../avr/lib/avr5/libc.a(vfprintf_std.o) (fputc)
/usr/lib/gcc/avr/11.2.0/../../../../avr/lib/avr5/libc.a(ultoa_invert.o)
                              /usr/lib/gcc/avr/11.2.0/../../../../avr/lib/avr5/libc.a(vfprintf_std.o) (__ultoa_invert)
/usr/lib/gcc/avr/11.2.0/../../../../avr/lib/avr5/libatmega32u4.a(eerd_byte.o)
                              .build/obj_3key_LohseBoi/quantum/eeconfig.o (eeprom_read_byte)
/usr/lib/gcc/avr/11.2.0/../../../../avr/lib/avr5/libatmega32u4.a(eerd_dword.o)
                              .build/obj_3key_LohseBoi/quantum/eeconfig.o (eeprom_read_dword)
/usr/lib/gcc/avr/11.2.0/../../../../avr/lib/avr5/libatmega32u4.a(eerd_word.o)
                              .build/obj_3key_LohseBoi/quantum/eeconfig.o (eeprom_read_word)
/usr/lib/gcc/avr/11.2.0/../../../../avr/lib/avr5/libatmega32u4.a(eeupd_byte.o)
                              .build/obj_3key_LohseBoi/quantum/eeconfig.o (eeprom_update_byte)
/usr/lib/gcc/avr/11.2.0/../../../../avr/lib/avr5/libatmega32u4.a(eeupd_dword.o)
                              .build/obj_3key_LohseBoi/quantum/eeconfig.o (eeprom_update_dword)
/usr/lib/gcc/avr/11.2.0/../../../../avr/lib/avr5/libatmega32u4.a(eeupd_word.o)
                              .build/obj_3key_LohseBoi/quantum/eeconfig.o (eeprom_update_word)
/usr/lib/gcc/avr/11.2.0/../../../../avr/lib/avr5/libatmega32u4.a(eerd_block.o)
                              /usr/lib/gcc/avr/11.2.0/../../../../avr/lib/avr5/libatmega32u4.a(eerd_dword.o) (eeprom_read_blraw)
/usr/lib/gcc/avr/11.2.0/avr5/libgcc.a(_prologue.o)
                              /usr/lib/gcc/avr/11.2.0/../../../../avr/lib/avr5/libc.a(sprintf.o) (__prologue_saves__)
/usr/lib/gcc/avr/11.2.0/avr5/libgcc.a(_epilogue.o)
                              /usr/lib/gcc/avr/11.2.0/../../../../avr/lib/avr5/libc.a(sprintf.o) (__epilogue_restores__)

Allocating common symbols
Common symbol       size              file

rgblight_config     0x5               .build/obj_3key_LohseBoi/quantum/rgblight/rgblight.o
USB_IsInitialized   0x1               .build/obj_3key_LohseBoi/lib/lufa/LUFA/Drivers/USB/Core/USBTask.o
keymap_config       0x2               .build/obj_3key_LohseBoi/quantum/bootmagic/magic.o
backlight_config    0x1               .build/obj_3key_LohseBoi/quantum/backlight/backlight.o
USB_DeviceState     0x1               .build/obj_3key_LohseBoi/lib/lufa/LUFA/Drivers/USB/Core/USBTask.o
USB_Device_ConfigurationNumber
                    0x1               .build/obj_3key_LohseBoi/lib/lufa/LUFA/Drivers/USB/Core/DeviceStandardReq.o
led                 0x6               .build/obj_3key_LohseBoi/quantum/rgblight/rgblight.o
raw_matrix          0x1               .build/obj_3key_LohseBoi/quantum/matrix_common.o
USB_Device_CurrentlySelfPowered
                    0x1               .build/obj_3key_LohseBoi/lib/lufa/LUFA/Drivers/USB/Core/DeviceStandardReq.o
matrix              0x1               .build/obj_3key_LohseBoi/quantum/matrix_common.o
USB_ControlRequest  0x8               .build/obj_3key_LohseBoi/lib/lufa/LUFA/Drivers/USB/Core/USBTask.o
tp_buttons          0x2               .build/obj_3key_LohseBoi/quantum/action.o
USB_Device_RemoteWakeupEnabled
                    0x1               .build/obj_3key_LohseBoi/lib/lufa/LUFA/Drivers/USB/Core/DeviceStandardReq.o
timer_count         0x4               .build/obj_3key_LohseBoi/common/avr/timer.o

Discarded input sections

 .data          0x0000000000000000        0x0 /usr/lib/gcc/avr/11.2.0/../../../../avr/lib/avr5/crtatmega32u4.o
 .bss           0x0000000000000000        0x0 /usr/lib/gcc/avr/11.2.0/../../../../avr/lib/avr5/crtatmega32u4.o
 .text          0x0000000000000000        0x0 .build/obj_3key_LohseBoi/keyboards/3key/3key.o
 .data          0x0000000000000000        0x0 .build/obj_3key_LohseBoi/keyboards/3key/3key.o
 .bss           0x0000000000000000        0x0 .build/obj_3key_LohseBoi/keyboards/3key/3key.o
 .debug_info    0x0000000000000000       0x64 .build/obj_3key_LohseBoi/keyboards/3key/3key.o
 .debug_abbrev  0x0000000000000000       0x26 .build/obj_3key_LohseBoi/keyboards/3key/3key.o
 .debug_aranges
                0x0000000000000000       0x18 .build/obj_3key_LohseBoi/keyboards/3key/3key.o
 .debug_line    0x0000000000000000       0x1d .build/obj_3key_LohseBoi/keyboards/3key/3key.o
 .debug_str     0x0000000000000000      0x1a1 .build/obj_3key_LohseBoi/keyboards/3key/3key.o
 .comment       0x0000000000000000       0x13 .build/obj_3key_LohseBoi/keyboards/3key/3key.o
 .text          0x0000000000000000        0x0 .build/obj_3key_LohseBoi/keyboards/3key/keymaps/LohseBoi/keymap.o
 .data          0x0000000000000000        0x0 .build/obj_3key_LohseBoi/keyboards/3key/keymaps/LohseBoi/keymap.o
 .bss           0x0000000000000000        0x0 .build/obj_3key_LohseBoi/keyboards/3key/keymaps/LohseBoi/keymap.o
 .text          0x0000000000000000        0x0 .build/obj_3key_LohseBoi/quantum/quantum.o
 .data          0x0000000000000000        0x0 .build/obj_3key_LohseBoi/quantum/quantum.o
 .bss           0x0000000000000000        0x0 .build/obj_3key_LohseBoi/quantum/quantum.o
 .text.extract_mod_bits
                0x0000000000000000       0x54 .build/obj_3key_LohseBoi/quantum/quantum.o
 .text.do_code16
                0x0000000000000000       0x12 .build/obj_3key_LohseBoi/quantum/quantum.o
 .text.register_code16
                0x0000000000000000       0x2a .build/obj_3key_LohseBoi/quantum/quantum.o
 .text.unregister_code16
                0x0000000000000000       0x2a .build/obj_3key_LohseBoi/quantum/quantum.o
 .text.tap_code16
                0x0000000000000000       0x18 .build/obj_3key_LohseBoi/quantum/quantum.o
 .text.process_record_user
                0x0000000000000000        0x4 .build/obj_3key_LohseBoi/quantum/quantum.o
 .text.set_single_persistent_default_layer
                0x0000000000000000       0x54 .build/obj_3key_LohseBoi/quantum/quantum.o
 .text.update_tri_layer_state
                0x0000000000000000       0xdc .build/obj_3key_LohseBoi/quantum/quantum.o
 .text.update_tri_layer
                0x0000000000000000       0x4a .build/obj_3key_LohseBoi/quantum/quantum.o
 .text.api_send_unicode
                0x0000000000000000        0x2 .build/obj_3key_LohseBoi/quantum/quantum.o
 .text.startup_user
                0x0000000000000000        0x2 .build/obj_3key_LohseBoi/quantum/quantum.o
 .text          0x0000000000000000        0x0 .build/obj_3key_LohseBoi/quantum/send_string.o
 .data          0x0000000000000000        0x0 .build/obj_3key_LohseBoi/quantum/send_string.o
 .bss           0x0000000000000000        0x0 .build/obj_3key_LohseBoi/quantum/send_string.o
 .text.send_string_with_delay_P
                0x0000000000000000       0xd8 .build/obj_3key_LohseBoi/quantum/send_string.o
 .text.send_string_P
                0x0000000000000000        0x6 .build/obj_3key_LohseBoi/quantum/send_string.o
 .text.send_nibble
                0x0000000000000000       0x14 .build/obj_3key_LohseBoi/quantum/send_string.o
 .text.send_byte
                0x0000000000000000       0x16 .build/obj_3key_LohseBoi/quantum/send_string.o
 .text.send_word
                0x0000000000000000       0x12 .build/obj_3key_LohseBoi/quantum/send_string.o
 .text.send_dword
                0x0000000000000000       0x18 .build/obj_3key_LohseBoi/quantum/send_string.o
 .text.tap_random_base64
                0x0000000000000000       0x52 .build/obj_3key_LohseBoi/quantum/send_string.o
 .text          0x0000000000000000        0x0 .build/obj_3key_LohseBoi/quantum/bitwise.o
 .data          0x0000000000000000        0x0 .build/obj_3key_LohseBoi/quantum/bitwise.o
 .bss           0x0000000000000000        0x0 .build/obj_3key_LohseBoi/quantum/bitwise.o
 .text.bitpop   0x0000000000000000        0x8 .build/obj_3key_LohseBoi/quantum/bitwise.o
 .text.bitpop16
                0x0000000000000000        0x6 .build/obj_3key_LohseBoi/quantum/bitwise.o
 .text.bitpop32
                0x0000000000000000        0x6 .build/obj_3key_LohseBoi/quantum/bitwise.o
 .text.biton    0x0000000000000000       0x20 .build/obj_3key_LohseBoi/quantum/bitwise.o
 .text.biton16  0x0000000000000000       0x48 .build/obj_3key_LohseBoi/quantum/bitwise.o
 .text.biton32  0x0000000000000000       0x96 .build/obj_3key_LohseBoi/quantum/bitwise.o
 .text.bitrev   0x0000000000000000       0x28 .build/obj_3key_LohseBoi/quantum/bitwise.o
 .text.bitrev16
                0x0000000000000000       0x1a .build/obj_3key_LohseBoi/quantum/bitwise.o
 .text.bitrev32
                0x0000000000000000       0x58 .build/obj_3key_LohseBoi/quantum/bitwise.o
 .debug_info    0x0000000000000000      0x2e1 .build/obj_3key_LohseBoi/quantum/bitwise.o
 .debug_abbrev  0x0000000000000000       0xec .build/obj_3key_LohseBoi/quantum/bitwise.o
 .debug_loc     0x0000000000000000      0x503 .build/obj_3key_LohseBoi/quantum/bitwise.o
 .debug_aranges
                0x0000000000000000       0x60 .build/obj_3key_LohseBoi/quantum/bitwise.o
 .debug_ranges  0x0000000000000000       0x50 .build/obj_3key_LohseBoi/quantum/bitwise.o
 .debug_line    0x0000000000000000      0x536 .build/obj_3key_LohseBoi/quantum/bitwise.o
 .debug_str     0x0000000000000000      0x1f9 .build/obj_3key_LohseBoi/quantum/bitwise.o
 .comment       0x0000000000000000       0x13 .build/obj_3key_LohseBoi/quantum/bitwise.o
 .debug_frame   0x0000000000000000       0xd8 .build/obj_3key_LohseBoi/quantum/bitwise.o
 .text          0x0000000000000000        0x0 .build/obj_3key_LohseBoi/quantum/led.o
 .data          0x0000000000000000        0x0 .build/obj_3key_LohseBoi/quantum/led.o
 .bss           0x0000000000000000        0x0 .build/obj_3key_LohseBoi/quantum/led.o
 .text          0x0000000000000000        0x0 .build/obj_3key_LohseBoi/quantum/action.o
 .data          0x0000000000000000        0x0 .build/obj_3key_LohseBoi/quantum/action.o
 .bss           0x0000000000000000        0x0 .build/obj_3key_LohseBoi/quantum/action.o
 .text.process_record_quantum
                0x0000000000000000        0x4 .build/obj_3key_LohseBoi/quantum/action.o
 .text.pre_process_record_quantum
                0x0000000000000000        0x4 .build/obj_3key_LohseBoi/quantum/action.o
 .text.post_process_record_quantum
                0x0000000000000000        0x2 .build/obj_3key_LohseBoi/quantum/action.o
 .text.process_record_nocache
                0x0000000000000000       0x10 .build/obj_3key_LohseBoi/quantum/action.o
 .text.register_weak_mods
                0x0000000000000000        0xe .build/obj_3key_LohseBoi/quantum/action.o
 .text.unregister_weak_mods
                0x0000000000000000        0xe .build/obj_3key_LohseBoi/quantum/action.o
 .text.is_tap_key
                0x0000000000000000        0x8 .build/obj_3key_LohseBoi/quantum/action.o
 .text.debug_action
                0x0000000000000000        0x2 .build/obj_3key_LohseBoi/quantum/action.o
 COMMON         0x0000000000000000        0x2 .build/obj_3key_LohseBoi/quantum/action.o
 .text          0x0000000000000000        0x0 .build/obj_3key_LohseBoi/quantum/action_layer.o
 .data          0x0000000000000000        0x0 .build/obj_3key_LohseBoi/quantum/action_layer.o
 .bss           0x0000000000000000        0x0 .build/obj_3key_LohseBoi/quantum/action_layer.o
 .text.layer_state_is
                0x0000000000000000       0x36 .build/obj_3key_LohseBoi/quantum/action_layer.o
 .text.layer_state_cmp
                0x0000000000000000       0x2e .build/obj_3key_LohseBoi/quantum/action_layer.o
 .text          0x0000000000000000        0x0 .build/obj_3key_LohseBoi/quantum/action_macro.o
 .data          0x0000000000000000        0x0 .build/obj_3key_LohseBoi/quantum/action_macro.o
 .bss           0x0000000000000000        0x0 .build/obj_3key_LohseBoi/quantum/action_macro.o
 .text          0x0000000000000000        0x0 .build/obj_3key_LohseBoi/quantum/action_tapping.o
 .data          0x0000000000000000        0x0 .build/obj_3key_LohseBoi/quantum/action_tapping.o
 .bss           0x0000000000000000        0x0 .build/obj_3key_LohseBoi/quantum/action_tapping.o
 .text.get_tapping_term
                0x0000000000000000        0x6 .build/obj_3key_LohseBoi/quantum/action_tapping.o
 .text          0x0000000000000000        0x0 .build/obj_3key_LohseBoi/quantum/action_util.o
 .data          0x0000000000000000        0x0 .build/obj_3key_LohseBoi/quantum/action_util.o
 .bss           0x0000000000000000        0x0 .build/obj_3key_LohseBoi/quantum/action_util.o
 .text.get_oneshot_locked_mods
                0x0000000000000000        0x6 .build/obj_3key_LohseBoi/quantum/action_util.o
 .text.has_oneshot_mods_timed_out
                0x0000000000000000        0x4 .build/obj_3key_LohseBoi/quantum/action_util.o
 .text.is_oneshot_enabled
                0x0000000000000000        0xc .build/obj_3key_LohseBoi/quantum/action_util.o
 .text.set_mods
                0x0000000000000000        0x6 .build/obj_3key_LohseBoi/quantum/action_util.o
 .text.get_weak_mods
                0x0000000000000000        0x6 .build/obj_3key_LohseBoi/quantum/action_util.o
 .text.set_weak_mods
                0x0000000000000000        0x6 .build/obj_3key_LohseBoi/quantum/action_util.o
 .text.get_macro_mods
                0x0000000000000000        0x6 .build/obj_3key_LohseBoi/quantum/action_util.o
 .text.set_macro_mods
                0x0000000000000000        0x6 .build/obj_3key_LohseBoi/quantum/action_util.o
 .text.oneshot_locked_mods_changed_user
                0x0000000000000000        0x2 .build/obj_3key_LohseBoi/quantum/action_util.o
 .text.oneshot_locked_mods_changed_kb
                0x0000000000000000        0x4 .build/obj_3key_LohseBoi/quantum/action_util.o
 .text.set_oneshot_locked_mods
                0x0000000000000000       0x12 .build/obj_3key_LohseBoi/quantum/action_util.o
 .text.clear_oneshot_locked_mods
                0x0000000000000000       0x14 .build/obj_3key_LohseBoi/quantum/action_util.o
 .text.add_oneshot_mods
                0x0000000000000000       0x18 .build/obj_3key_LohseBoi/quantum/action_util.o
 .text.del_oneshot_mods
                0x0000000000000000       0x18 .build/obj_3key_LohseBoi/quantum/action_util.o
 .text.has_anymod
                0x0000000000000000        0x8 .build/obj_3key_LohseBoi/quantum/action_util.o
 .bss.oneshot_locked_mods
                0x0000000000000000        0x1 .build/obj_3key_LohseBoi/quantum/action_util.o
 .text          0x0000000000000000        0x0 .build/obj_3key_LohseBoi/quantum/eeconfig.o
 .data          0x0000000000000000        0x0 .build/obj_3key_LohseBoi/quantum/eeconfig.o
 .bss           0x0000000000000000        0x0 .build/obj_3key_LohseBoi/quantum/eeconfig.o
 .text.eeconfig_enable
                0x0000000000000000        0xc .build/obj_3key_LohseBoi/quantum/eeconfig.o
 .text.eeconfig_is_disabled
                0x0000000000000000       0x16 .build/obj_3key_LohseBoi/quantum/eeconfig.o
 .text.eeconfig_update_debug
                0x0000000000000000        0xa .build/obj_3key_LohseBoi/quantum/eeconfig.o
 .text.eeconfig_update_default_layer
                0x0000000000000000        0xa .build/obj_3key_LohseBoi/quantum/eeconfig.o
 .text.eeconfig_read_audio
                0x0000000000000000        0x8 .build/obj_3key_LohseBoi/quantum/eeconfig.o
 .text.eeconfig_update_audio
                0x0000000000000000        0xa .build/obj_3key_LohseBoi/quantum/eeconfig.o
 .text.eeconfig_read_kb
                0x0000000000000000        0x8 .build/obj_3key_LohseBoi/quantum/eeconfig.o
 .text.eeconfig_read_user
                0x0000000000000000        0x8 .build/obj_3key_LohseBoi/quantum/eeconfig.o
 .text.eeconfig_read_haptic
                0x0000000000000000        0x8 .build/obj_3key_LohseBoi/quantum/eeconfig.o
 .text.eeconfig_update_haptic
                0x0000000000000000        0xc .build/obj_3key_LohseBoi/quantum/eeconfig.o
 .text.eeconfig_read_handedness
                0x0000000000000000       0x14 .build/obj_3key_LohseBoi/quantum/eeconfig.o
 .text          0x0000000000000000        0x0 .build/obj_3key_LohseBoi/quantum/keyboard.o
 .data          0x0000000000000000        0x0 .build/obj_3key_LohseBoi/quantum/keyboard.o
 .bss           0x0000000000000000        0x0 .build/obj_3key_LohseBoi/quantum/keyboard.o
 .text.last_input_activity_time
                0x0000000000000000       0x2e .build/obj_3key_LohseBoi/quantum/keyboard.o
 .text.last_input_activity_elapsed
                0x0000000000000000       0x38 .build/obj_3key_LohseBoi/quantum/keyboard.o
 .text.last_matrix_activity_time
                0x0000000000000000       0x2e .build/obj_3key_LohseBoi/quantum/keyboard.o
 .text.last_matrix_activity_elapsed
                0x0000000000000000       0x38 .build/obj_3key_LohseBoi/quantum/keyboard.o
 .text.last_encoder_activity_time
                0x0000000000000000       0x2e .build/obj_3key_LohseBoi/quantum/keyboard.o
 .text.last_encoder_activity_elapsed
                0x0000000000000000       0x38 .build/obj_3key_LohseBoi/quantum/keyboard.o
 .text.last_encoder_activity_trigger
                0x0000000000000000       0x26 .build/obj_3key_LohseBoi/quantum/keyboard.o
 .text.is_keyboard_left
                0x0000000000000000        0x4 .build/obj_3key_LohseBoi/quantum/keyboard.o
 .text.switch_events
                0x0000000000000000        0x2 .build/obj_3key_LohseBoi/quantum/keyboard.o
 .text.keyboard_set_leds
                0x0000000000000000        0x4 .build/obj_3key_LohseBoi/quantum/keyboard.o
 .bss.last_encoder_modification_time
                0x0000000000000000        0x4 .build/obj_3key_LohseBoi/quantum/keyboard.o
 .text          0x0000000000000000        0x0 .build/obj_3key_LohseBoi/quantum/keymap_common.o
 .data          0x0000000000000000        0x0 .build/obj_3key_LohseBoi/quantum/keymap_common.o
 .bss           0x0000000000000000        0x0 .build/obj_3key_LohseBoi/quantum/keymap_common.o
 .text.action_get_macro
                0x0000000000000000        0x6 .build/obj_3key_LohseBoi/quantum/keymap_common.o
 .text          0x0000000000000000        0x0 .build/obj_3key_LohseBoi/quantum/keycode_config.o
 .data          0x0000000000000000        0x0 .build/obj_3key_LohseBoi/quantum/keycode_config.o
 .bss           0x0000000000000000        0x0 .build/obj_3key_LohseBoi/quantum/keycode_config.o
 .text          0x0000000000000000        0x0 .build/obj_3key_LohseBoi/quantum/logging/debug.o
 .data          0x0000000000000000        0x0 .build/obj_3key_LohseBoi/quantum/logging/debug.o
 .bss           0x0000000000000000        0x0 .build/obj_3key_LohseBoi/quantum/logging/debug.o
 .text          0x0000000000000000        0x0 .build/obj_3key_LohseBoi/quantum/logging/sendchar.o
 .data          0x0000000000000000        0x0 .build/obj_3key_LohseBoi/quantum/logging/sendchar.o
 .bss           0x0000000000000000        0x0 .build/obj_3key_LohseBoi/quantum/logging/sendchar.o
 .text          0x0000000000000000        0x0 .build/obj_3key_LohseBoi/quantum/bootmagic/bootmagic_lite.o
 .data          0x0000000000000000        0x0 .build/obj_3key_LohseBoi/quantum/bootmagic/bootmagic_lite.o
 .bss           0x0000000000000000        0x0 .build/obj_3key_LohseBoi/quantum/bootmagic/bootmagic_lite.o
 .text          0x0000000000000000        0x0 .build/obj_3key_LohseBoi/quantum/bootmagic/magic.o
 .data          0x0000000000000000        0x0 .build/obj_3key_LohseBoi/quantum/bootmagic/magic.o
 .bss           0x0000000000000000        0x0 .build/obj_3key_LohseBoi/quantum/bootmagic/magic.o
 .text.bootmagic
                0x0000000000000000        0x2 .build/obj_3key_LohseBoi/quantum/bootmagic/magic.o
 .text          0x0000000000000000        0x0 .build/obj_3key_LohseBoi/quantum/matrix_common.o
 .data          0x0000000000000000        0x0 .build/obj_3key_LohseBoi/quantum/matrix_common.o
 .bss           0x0000000000000000        0x0 .build/obj_3key_LohseBoi/quantum/matrix_common.o
 .text.matrix_init_user
                0x0000000000000000        0x2 .build/obj_3key_LohseBoi/quantum/matrix_common.o
 .text.matrix_scan_user
                0x0000000000000000        0x2 .build/obj_3key_LohseBoi/quantum/matrix_common.o
 .text.matrix_rows
                0x0000000000000000        0x4 .build/obj_3key_LohseBoi/quantum/matrix_common.o
 .text.matrix_cols
                0x0000000000000000        0x4 .build/obj_3key_LohseBoi/quantum/matrix_common.o
 .text.matrix_is_on
                0x0000000000000000       0x28 .build/obj_3key_LohseBoi/quantum/matrix_common.o
 .text.matrix_is_modified
                0x0000000000000000        0xa .build/obj_3key_LohseBoi/quantum/matrix_common.o
 .text.matrix_key_count
                0x0000000000000000        0x8 .build/obj_3key_LohseBoi/quantum/matrix_common.o
 .text.matrix_init_custom
                0x0000000000000000        0x2 .build/obj_3key_LohseBoi/quantum/matrix_common.o
 .text.matrix_scan_custom
                0x0000000000000000        0x4 .build/obj_3key_LohseBoi/quantum/matrix_common.o
 .text.matrix_init
                0x0000000000000000       0x16 .build/obj_3key_LohseBoi/quantum/matrix_common.o
 .text.matrix_scan
                0x0000000000000000       0x26 .build/obj_3key_LohseBoi/quantum/matrix_common.o
 .text.peek_matrix
                0x0000000000000000       0x24 .build/obj_3key_LohseBoi/quantum/matrix_common.o
 .text          0x0000000000000000        0x0 .build/obj_3key_LohseBoi/quantum/matrix.o
 .data          0x0000000000000000        0x0 .build/obj_3key_LohseBoi/quantum/matrix.o
 .bss           0x0000000000000000        0x0 .build/obj_3key_LohseBoi/quantum/matrix.o
 .text          0x0000000000000000        0x0 .build/obj_3key_LohseBoi/quantum/debounce/sym_defer_g.o
 .data          0x0000000000000000        0x0 .build/obj_3key_LohseBoi/quantum/debounce/sym_defer_g.o
 .bss           0x0000000000000000        0x0 .build/obj_3key_LohseBoi/quantum/debounce/sym_defer_g.o
 .text.debounce_active
                0x0000000000000000        0x6 .build/obj_3key_LohseBoi/quantum/debounce/sym_defer_g.o
 .text.debounce_free
                0x0000000000000000        0x2 .build/obj_3key_LohseBoi/quantum/debounce/sym_defer_g.o
 .text          0x0000000000000000        0x0 .build/obj_3key_LohseBoi/quantum/main.o
 .data          0x0000000000000000        0x0 .build/obj_3key_LohseBoi/quantum/main.o
 .bss           0x0000000000000000        0x0 .build/obj_3key_LohseBoi/quantum/main.o
 .text          0x0000000000000000        0x0 .build/obj_3key_LohseBoi/quantum/mousekey.o
 .data          0x0000000000000000        0x0 .build/obj_3key_LohseBoi/quantum/mousekey.o
 .bss           0x0000000000000000        0x0 .build/obj_3key_LohseBoi/quantum/mousekey.o
 .text.mousekey_get_report
                0x0000000000000000       0x42 .build/obj_3key_LohseBoi/quantum/mousekey.o
 .text          0x0000000000000000        0x0 .build/obj_3key_LohseBoi/quantum/color.o
 .data          0x0000000000000000        0x0 .build/obj_3key_LohseBoi/quantum/color.o
 .bss           0x0000000000000000        0x0 .build/obj_3key_LohseBoi/quantum/color.o
 .text.hsv_to_rgb_nocie
                0x0000000000000000        0x6 .build/obj_3key_LohseBoi/quantum/color.o
 .text          0x0000000000000000        0x0 .build/obj_3key_LohseBoi/quantum/rgblight/rgblight.o
 .data          0x0000000000000000        0x0 .build/obj_3key_LohseBoi/quantum/rgblight/rgblight.o
 .bss           0x0000000000000000        0x0 .build/obj_3key_LohseBoi/quantum/rgblight/rgblight.o
 .text.rgblight_set_clipping_range
                0x0000000000000000        0xa .build/obj_3key_LohseBoi/quantum/rgblight/rgblight.o
 .text.rgblight_set_effect_range
                0x0000000000000000       0x22 .build/obj_3key_LohseBoi/quantum/rgblight/rgblight.o
 .text.sethsv   0x0000000000000000        0x4 .build/obj_3key_LohseBoi/quantum/rgblight/rgblight.o
 .text.setrgb   0x0000000000000000        0xa .build/obj_3key_LohseBoi/quantum/rgblight/rgblight.o
 .text.eeconfig_update_rgblight_current
                0x0000000000000000       0x38 .build/obj_3key_LohseBoi/quantum/rgblight/rgblight.o
 .text.eeconfig_debug_rgblight
                0x0000000000000000        0x2 .build/obj_3key_LohseBoi/quantum/rgblight/rgblight.o
 .text.rgblight_read_dword
                0x0000000000000000       0x2e .build/obj_3key_LohseBoi/quantum/rgblight/rgblight.o
 .text.rgblight_is_enabled
                0x0000000000000000        0x8 .build/obj_3key_LohseBoi/quantum/rgblight/rgblight.o
 .text.rgblight_increase_speed_noeeprom
                0x0000000000000000        0x6 .build/obj_3key_LohseBoi/quantum/rgblight/rgblight.o
 .text.rgblight_decrease_speed_noeeprom
                0x0000000000000000        0x6 .build/obj_3key_LohseBoi/quantum/rgblight/rgblight.o
 .text.rgblight_get_speed
                0x0000000000000000        0x6 .build/obj_3key_LohseBoi/quantum/rgblight/rgblight.o
 .text.rgblight_set_speed_eeprom_helper
                0x0000000000000000       0x4e .build/obj_3key_LohseBoi/quantum/rgblight/rgblight.o
 .text.rgblight_set_speed
                0x0000000000000000        0x6 .build/obj_3key_LohseBoi/quantum/rgblight/rgblight.o
 .text.rgblight_set_speed_noeeprom
                0x0000000000000000        0x6 .build/obj_3key_LohseBoi/quantum/rgblight/rgblight.o
 .text.rgblight_get_hue
                0x0000000000000000        0x6 .build/obj_3key_LohseBoi/quantum/rgblight/rgblight.o
 .text.rgblight_get_sat
                0x0000000000000000        0x6 .build/obj_3key_LohseBoi/quantum/rgblight/rgblight.o
 .text.rgblight_get_val
                0x0000000000000000        0x6 .build/obj_3key_LohseBoi/quantum/rgblight/rgblight.o
 .text.rgblight_get_hsv
                0x0000000000000000        0xc .build/obj_3key_LohseBoi/quantum/rgblight/rgblight.o
 .text.rgblight_increase_hue_noeeprom
                0x0000000000000000        0x6 .build/obj_3key_LohseBoi/quantum/rgblight/rgblight.o
 .text.rgblight_decrease_hue_noeeprom
                0x0000000000000000        0x6 .build/obj_3key_LohseBoi/quantum/rgblight/rgblight.o
 .text.rgblight_increase_sat_noeeprom
                0x0000000000000000        0x6 .build/obj_3key_LohseBoi/quantum/rgblight/rgblight.o
 .text.rgblight_decrease_sat_noeeprom
                0x0000000000000000        0x6 .build/obj_3key_LohseBoi/quantum/rgblight/rgblight.o
 .text.rgblight_increase_val_noeeprom
                0x0000000000000000        0x6 .build/obj_3key_LohseBoi/quantum/rgblight/rgblight.o
 .text.rgblight_decrease_val_noeeprom
                0x0000000000000000        0x6 .build/obj_3key_LohseBoi/quantum/rgblight/rgblight.o
 .text.rgblight_setrgb_at
                0x0000000000000000       0x28 .build/obj_3key_LohseBoi/quantum/rgblight/rgblight.o
 .text.rgblight_sethsv_at
                0x0000000000000000       0x48 .build/obj_3key_LohseBoi/quantum/rgblight/rgblight.o
 .text.rgblight_setrgb_range
                0x0000000000000000       0x50 .build/obj_3key_LohseBoi/quantum/rgblight/rgblight.o
 .text.rgblight_sethsv_range
                0x0000000000000000       0x40 .build/obj_3key_LohseBoi/quantum/rgblight/rgblight.o
 .text.rgblight_sethsv_master
                0x0000000000000000        0xe .build/obj_3key_LohseBoi/quantum/rgblight/rgblight.o
 .text.rgblight_sethsv_slave
                0x0000000000000000        0xe .build/obj_3key_LohseBoi/quantum/rgblight/rgblight.o
 .text.rgblight_setrgb_master
                0x0000000000000000        0xe .build/obj_3key_LohseBoi/quantum/rgblight/rgblight.o
 .text.rgblight_setrgb_slave
                0x0000000000000000        0xe .build/obj_3key_LohseBoi/quantum/rgblight/rgblight.o
 .text.rgblight_disable_noeeprom
                0x0000000000000000       0x24 .build/obj_3key_LohseBoi/quantum/rgblight/rgblight.o
 .text.rgblight_timer_init
                0x0000000000000000        0x6 .build/obj_3key_LohseBoi/quantum/rgblight/rgblight.o
 .text.rgblight_step_noeeprom
                0x0000000000000000        0x6 .build/obj_3key_LohseBoi/quantum/rgblight/rgblight.o
 .text.rgblight_step_reverse_noeeprom
                0x0000000000000000        0x6 .build/obj_3key_LohseBoi/quantum/rgblight/rgblight.o
 .text.rgblight_increase
                0x0000000000000000       0x16 .build/obj_3key_LohseBoi/quantum/rgblight/rgblight.o
 .text.rgblight_decrease
                0x0000000000000000       0x14 .build/obj_3key_LohseBoi/quantum/rgblight/rgblight.o
 .text.rgblight_reload_from_eeprom
                0x0000000000000000       0x28 .build/obj_3key_LohseBoi/quantum/rgblight/rgblight.o
 .text.rgblight_enable_noeeprom
                0x0000000000000000       0x10 .build/obj_3key_LohseBoi/quantum/rgblight/rgblight.o
 .text.rgblight_toggle_noeeprom
                0x0000000000000000        0xe .build/obj_3key_LohseBoi/quantum/rgblight/rgblight.o
 .text.rgblight_set_layer_state
                0x0000000000000000       0x3a .build/obj_3key_LohseBoi/quantum/rgblight/rgblight.o
 .text.rgblight_update_dword
                0x0000000000000000       0x24 .build/obj_3key_LohseBoi/quantum/rgblight/rgblight.o
 .text.rgblight_timer_disable
                0x0000000000000000        0x6 .build/obj_3key_LohseBoi/quantum/rgblight/rgblight.o
 .text.rgblight_timer_toggle
                0x0000000000000000       0x12 .build/obj_3key_LohseBoi/quantum/rgblight/rgblight.o
 .text.rgblight_show_solid_color
                0x0000000000000000       0x26 .build/obj_3key_LohseBoi/quantum/rgblight/rgblight.o
 .text          0x0000000000000000        0x0 .build/obj_3key_LohseBoi/quantum/process_keycode/process_rgb.o
 .data          0x0000000000000000        0x0 .build/obj_3key_LohseBoi/quantum/process_keycode/process_rgb.o
 .bss           0x0000000000000000        0x0 .build/obj_3key_LohseBoi/quantum/process_keycode/process_rgb.o
 .text          0x0000000000000000        0x0 .build/obj_3key_LohseBoi/quantum/backlight/backlight.o
 .data          0x0000000000000000        0x0 .build/obj_3key_LohseBoi/quantum/backlight/backlight.o
 .bss           0x0000000000000000        0x0 .build/obj_3key_LohseBoi/quantum/backlight/backlight.o
 .text.is_backlight_enabled
                0x0000000000000000        0x8 .build/obj_3key_LohseBoi/quantum/backlight/backlight.o
 .text.eeconfig_update_backlight_current
                0x0000000000000000        0x8 .build/obj_3key_LohseBoi/quantum/backlight/backlight.o
 .text.get_backlight_level
                0x0000000000000000        0xc .build/obj_3key_LohseBoi/quantum/backlight/backlight.o
 .text.backlight_init_ports
                0x0000000000000000        0x2 .build/obj_3key_LohseBoi/quantum/backlight/backlight.o
 .text.backlight_set
                0x0000000000000000        0x2 .build/obj_3key_LohseBoi/quantum/backlight/backlight.o
 .text.backlight_task
                0x0000000000000000        0x2 .build/obj_3key_LohseBoi/quantum/backlight/backlight.o
 .text          0x0000000000000000        0x0 .build/obj_3key_LohseBoi/quantum/process_keycode/process_backlight.o
 .data          0x0000000000000000        0x0 .build/obj_3key_LohseBoi/quantum/process_keycode/process_backlight.o
 .bss           0x0000000000000000        0x0 .build/obj_3key_LohseBoi/quantum/process_keycode/process_backlight.o
 .text          0x0000000000000000        0x0 .build/obj_3key_LohseBoi/quantum/backlight/backlight_driver_common.o
 .data          0x0000000000000000        0x0 .build/obj_3key_LohseBoi/quantum/backlight/backlight_driver_common.o
 .bss           0x0000000000000000        0x0 .build/obj_3key_LohseBoi/quantum/backlight/backlight_driver_common.o
 .text.backlight_pins_on
                0x0000000000000000        0x4 .build/obj_3key_LohseBoi/quantum/backlight/backlight_driver_common.o
 .text          0x0000000000000000        0x0 .build/obj_3key_LohseBoi/quantum/backlight/backlight_avr.o
 .data          0x0000000000000000        0x0 .build/obj_3key_LohseBoi/quantum/backlight/backlight_avr.o
 .bss           0x0000000000000000        0x0 .build/obj_3key_LohseBoi/quantum/backlight/backlight_avr.o
 .text          0x0000000000000000        0x0 .build/obj_3key_LohseBoi/ws2812.o
 .data          0x0000000000000000        0x0 .build/obj_3key_LohseBoi/ws2812.o
 .bss           0x0000000000000000        0x0 .build/obj_3key_LohseBoi/ws2812.o
 .text          0x0000000000000000        0x0 .build/obj_3key_LohseBoi/quantum/led_tables.o
 .data          0x0000000000000000        0x0 .build/obj_3key_LohseBoi/quantum/led_tables.o
 .bss           0x0000000000000000        0x0 .build/obj_3key_LohseBoi/quantum/led_tables.o
 .text          0x0000000000000000        0x0 .build/obj_3key_LohseBoi/quantum/process_keycode/process_space_cadet.o
 .data          0x0000000000000000        0x0 .build/obj_3key_LohseBoi/quantum/process_keycode/process_space_cadet.o
 .bss           0x0000000000000000        0x0 .build/obj_3key_LohseBoi/quantum/process_keycode/process_space_cadet.o
 .text          0x0000000000000000        0x0 .build/obj_3key_LohseBoi/quantum/process_keycode/process_magic.o
 .data          0x0000000000000000        0x0 .build/obj_3key_LohseBoi/quantum/process_keycode/process_magic.o
 .bss           0x0000000000000000        0x0 .build/obj_3key_LohseBoi/quantum/process_keycode/process_magic.o
 .text          0x0000000000000000        0x0 .build/obj_3key_LohseBoi/quantum/process_keycode/process_grave_esc.o
 .data          0x0000000000000000        0x0 .build/obj_3key_LohseBoi/quantum/process_keycode/process_grave_esc.o
 .bss           0x0000000000000000        0x0 .build/obj_3key_LohseBoi/quantum/process_keycode/process_grave_esc.o
 .text          0x0000000000000000        0x0 .build/obj_3key_LohseBoi/common/host.o
 .data          0x0000000000000000        0x0 .build/obj_3key_LohseBoi/common/host.o
 .bss           0x0000000000000000        0x0 .build/obj_3key_LohseBoi/common/host.o
 .text.host_get_driver
                0x0000000000000000        0xa .build/obj_3key_LohseBoi/common/host.o
 .text.host_keyboard_led_state
                0x0000000000000000        0x6 .build/obj_3key_LohseBoi/common/host.o
 .text.send_digitizer
                0x0000000000000000        0x2 .build/obj_3key_LohseBoi/common/host.o
 .text.host_digitizer_send
                0x0000000000000000       0xae .build/obj_3key_LohseBoi/common/host.o
 .text.host_last_system_report
                0x0000000000000000        0xa .build/obj_3key_LohseBoi/common/host.o
 .text.host_last_consumer_report
                0x0000000000000000        0xa .build/obj_3key_LohseBoi/common/host.o
 .text          0x0000000000000000        0x0 .build/obj_3key_LohseBoi/common/report.o
 .data          0x0000000000000000        0x0 .build/obj_3key_LohseBoi/common/report.o
 .bss           0x0000000000000000        0x0 .build/obj_3key_LohseBoi/common/report.o
 .text.get_first_key
                0x0000000000000000       0x4a .build/obj_3key_LohseBoi/common/report.o
 .text          0x0000000000000000        0x0 .build/obj_3key_LohseBoi/common/sync_timer.o
 .data          0x0000000000000000        0x0 .build/obj_3key_LohseBoi/common/sync_timer.o
 .bss           0x0000000000000000        0x0 .build/obj_3key_LohseBoi/common/sync_timer.o
 .debug_info    0x0000000000000000       0x5d .build/obj_3key_LohseBoi/common/sync_timer.o
 .debug_abbrev  0x0000000000000000       0x26 .build/obj_3key_LohseBoi/common/sync_timer.o
 .debug_aranges
                0x0000000000000000       0x18 .build/obj_3key_LohseBoi/common/sync_timer.o
 .debug_line    0x0000000000000000       0x1d .build/obj_3key_LohseBoi/common/sync_timer.o
 .debug_str     0x0000000000000000      0x1a3 .build/obj_3key_LohseBoi/common/sync_timer.o
 .comment       0x0000000000000000       0x13 .build/obj_3key_LohseBoi/common/sync_timer.o
 .text          0x0000000000000000        0x0 .build/obj_3key_LohseBoi/common/usb_util.o
 .data          0x0000000000000000        0x0 .build/obj_3key_LohseBoi/common/usb_util.o
 .bss           0x0000000000000000        0x0 .build/obj_3key_LohseBoi/common/usb_util.o
 .text.usb_disconnect
                0x0000000000000000        0x2 .build/obj_3key_LohseBoi/common/usb_util.o
 .text.usb_connected_state
                0x0000000000000000        0x4 .build/obj_3key_LohseBoi/common/usb_util.o
 .text.usb_vbus_state
                0x0000000000000000        0x4 .build/obj_3key_LohseBoi/common/usb_util.o
 .debug_info    0x0000000000000000       0xb6 .build/obj_3key_LohseBoi/common/usb_util.o
 .debug_abbrev  0x0000000000000000       0x7e .build/obj_3key_LohseBoi/common/usb_util.o
 .debug_aranges
                0x0000000000000000       0x28 .build/obj_3key_LohseBoi/common/usb_util.o
 .debug_ranges  0x0000000000000000       0x18 .build/obj_3key_LohseBoi/common/usb_util.o
 .debug_line    0x0000000000000000       0x78 .build/obj_3key_LohseBoi/common/usb_util.o
 .debug_str     0x0000000000000000      0x1d8 .build/obj_3key_LohseBoi/common/usb_util.o
 .comment       0x0000000000000000       0x13 .build/obj_3key_LohseBoi/common/usb_util.o
 .debug_frame   0x0000000000000000       0x44 .build/obj_3key_LohseBoi/common/usb_util.o
 .text          0x0000000000000000        0x0 .build/obj_3key_LohseBoi/common/avr/platform.o
 .data          0x0000000000000000        0x0 .build/obj_3key_LohseBoi/common/avr/platform.o
 .bss           0x0000000000000000        0x0 .build/obj_3key_LohseBoi/common/avr/platform.o
 .text          0x0000000000000000        0x0 .build/obj_3key_LohseBoi/common/avr/suspend.o
 .data          0x0000000000000000        0x0 .build/obj_3key_LohseBoi/common/avr/suspend.o
 .bss           0x0000000000000000        0x0 .build/obj_3key_LohseBoi/common/avr/suspend.o
 .text.suspend_idle
                0x0000000000000000       0x1a .build/obj_3key_LohseBoi/common/avr/suspend.o
 .text          0x0000000000000000        0x0 .build/obj_3key_LohseBoi/common/avr/timer.o
 .data          0x0000000000000000        0x0 .build/obj_3key_LohseBoi/common/avr/timer.o
 .bss           0x0000000000000000        0x0 .build/obj_3key_LohseBoi/common/avr/timer.o
 .text.timer_clear
                0x0000000000000000       0x18 .build/obj_3key_LohseBoi/common/avr/timer.o
 .text.timer_elapsed32
                0x0000000000000000       0x4e .build/obj_3key_LohseBoi/common/avr/timer.o
 .text          0x0000000000000000        0x0 .build/obj_3key_LohseBoi/common/avr/bootloader.o
 .data          0x0000000000000000        0x0 .build/obj_3key_LohseBoi/common/avr/bootloader.o
 .bss           0x0000000000000000        0x0 .build/obj_3key_LohseBoi/common/avr/bootloader.o
 .text          0x0000000000000000      0x15c .build/obj_3key_LohseBoi/common/avr/xprintf.o
 .data          0x0000000000000000        0x0 .build/obj_3key_LohseBoi/common/avr/xprintf.o
 .text          0x0000000000000000        0x0 .build/obj_3key_LohseBoi/common/avr/printf.o
 .data          0x0000000000000000        0x0 .build/obj_3key_LohseBoi/common/avr/printf.o
 .bss           0x0000000000000000        0x0 .build/obj_3key_LohseBoi/common/avr/printf.o
 .text          0x0000000000000000        0x0 .build/obj_3key_LohseBoi/lufa.o
 .data          0x0000000000000000        0x0 .build/obj_3key_LohseBoi/lufa.o
 .bss           0x0000000000000000        0x0 .build/obj_3key_LohseBoi/lufa.o
 .text.send_digitizer
                0x0000000000000000        0x2 .build/obj_3key_LohseBoi/lufa.o
 .text          0x0000000000000000        0x0 .build/obj_3key_LohseBoi/usb_descriptor.o
 .data          0x0000000000000000        0x0 .build/obj_3key_LohseBoi/usb_descriptor.o
 .bss           0x0000000000000000        0x0 .build/obj_3key_LohseBoi/usb_descriptor.o
 .text          0x0000000000000000        0x0 .build/obj_3key_LohseBoi/lib/lufa/LUFA/Drivers/USB/Class/Common/HIDParser.o
 .data          0x0000000000000000        0x0 .build/obj_3key_LohseBoi/lib/lufa/LUFA/Drivers/USB/Class/Common/HIDParser.o
 .bss           0x0000000000000000        0x0 .build/obj_3key_LohseBoi/lib/lufa/LUFA/Drivers/USB/Class/Common/HIDParser.o
 .text.USB_ProcessHIDReport
                0x0000000000000000      0x6e0 .build/obj_3key_LohseBoi/lib/lufa/LUFA/Drivers/USB/Class/Common/HIDParser.o
 .text.USB_GetHIDReportItemInfo
                0x0000000000000000       0xb6 .build/obj_3key_LohseBoi/lib/lufa/LUFA/Drivers/USB/Class/Common/HIDParser.o
 .text.USB_SetHIDReportItemInfo
                0x0000000000000000       0xb8 .build/obj_3key_LohseBoi/lib/lufa/LUFA/Drivers/USB/Class/Common/HIDParser.o
 .text.USB_GetHIDReportSize
                0x0000000000000000       0x68 .build/obj_3key_LohseBoi/lib/lufa/LUFA/Drivers/USB/Class/Common/HIDParser.o
 .debug_info    0x0000000000000000      0x8a7 .build/obj_3key_LohseBoi/lib/lufa/LUFA/Drivers/USB/Class/Common/HIDParser.o
 .debug_abbrev  0x0000000000000000      0x2a8 .build/obj_3key_LohseBoi/lib/lufa/LUFA/Drivers/USB/Class/Common/HIDParser.o
 .debug_loc     0x0000000000000000      0xbff .build/obj_3key_LohseBoi/lib/lufa/LUFA/Drivers/USB/Class/Common/HIDParser.o
 .debug_aranges
                0x0000000000000000       0x38 .build/obj_3key_LohseBoi/lib/lufa/LUFA/Drivers/USB/Class/Common/HIDParser.o
 .debug_ranges  0x0000000000000000       0xf8 .build/obj_3key_LohseBoi/lib/lufa/LUFA/Drivers/USB/Class/Common/HIDParser.o
 .debug_line    0x0000000000000000      0xd7b .build/obj_3key_LohseBoi/lib/lufa/LUFA/Drivers/USB/Class/Common/HIDParser.o
 .debug_str     0x0000000000000000      0x6f4 .build/obj_3key_LohseBoi/lib/lufa/LUFA/Drivers/USB/Class/Common/HIDParser.o
 .comment       0x0000000000000000       0x13 .build/obj_3key_LohseBoi/lib/lufa/LUFA/Drivers/USB/Class/Common/HIDParser.o
 .debug_frame   0x0000000000000000      0x10c .build/obj_3key_LohseBoi/lib/lufa/LUFA/Drivers/USB/Class/Common/HIDParser.o
 .text          0x0000000000000000        0x0 .build/obj_3key_LohseBoi/lib/lufa/LUFA/Drivers/USB/Core/AVR8/Device_AVR8.o
 .data          0x0000000000000000        0x0 .build/obj_3key_LohseBoi/lib/lufa/LUFA/Drivers/USB/Core/AVR8/Device_AVR8.o
 .bss           0x0000000000000000        0x0 .build/obj_3key_LohseBoi/lib/lufa/LUFA/Drivers/USB/Core/AVR8/Device_AVR8.o
 .text          0x0000000000000000        0x0 .build/obj_3key_LohseBoi/lib/lufa/LUFA/Drivers/USB/Core/AVR8/EndpointStream_AVR8.o
 .data          0x0000000000000000        0x0 .build/obj_3key_LohseBoi/lib/lufa/LUFA/Drivers/USB/Core/AVR8/EndpointStream_AVR8.o
 .bss           0x0000000000000000        0x0 .build/obj_3key_LohseBoi/lib/lufa/LUFA/Drivers/USB/Core/AVR8/EndpointStream_AVR8.o
 .text.Endpoint_Discard_Stream
                0x0000000000000000       0x7c .build/obj_3key_LohseBoi/lib/lufa/LUFA/Drivers/USB/Core/AVR8/EndpointStream_AVR8.o
 .text.Endpoint_Null_Stream
                0x0000000000000000       0x7c .build/obj_3key_LohseBoi/lib/lufa/LUFA/Drivers/USB/Core/AVR8/EndpointStream_AVR8.o
 .text.Endpoint_Write_Stream_BE
                0x0000000000000000       0xa8 .build/obj_3key_LohseBoi/lib/lufa/LUFA/Drivers/USB/Core/AVR8/EndpointStream_AVR8.o
 .text.Endpoint_Read_Stream_LE
                0x0000000000000000       0x9e .build/obj_3key_LohseBoi/lib/lufa/LUFA/Drivers/USB/Core/AVR8/EndpointStream_AVR8.o
 .text.Endpoint_Read_Stream_BE
                0x0000000000000000       0xa8 .build/obj_3key_LohseBoi/lib/lufa/LUFA/Drivers/USB/Core/AVR8/EndpointStream_AVR8.o
 .text.Endpoint_Write_PStream_LE
                0x0000000000000000       0xa0 .build/obj_3key_LohseBoi/lib/lufa/LUFA/Drivers/USB/Core/AVR8/EndpointStream_AVR8.o
 .text.Endpoint_Write_PStream_BE
                0x0000000000000000       0xaa .build/obj_3key_LohseBoi/lib/lufa/LUFA/Drivers/USB/Core/AVR8/EndpointStream_AVR8.o
 .text.Endpoint_Write_EStream_LE
                0x0000000000000000       0xa2 .build/obj_3key_LohseBoi/lib/lufa/LUFA/Drivers/USB/Core/AVR8/EndpointStream_AVR8.o
 .text.Endpoint_Write_EStream_BE
                0x0000000000000000       0xac .build/obj_3key_LohseBoi/lib/lufa/LUFA/Drivers/USB/Core/AVR8/EndpointStream_AVR8.o
 .text.Endpoint_Read_EStream_LE
                0x0000000000000000       0xa2 .build/obj_3key_LohseBoi/lib/lufa/LUFA/Drivers/USB/Core/AVR8/EndpointStream_AVR8.o
 .text.Endpoint_Read_EStream_BE
                0x0000000000000000       0xac .build/obj_3key_LohseBoi/lib/lufa/LUFA/Drivers/USB/Core/AVR8/EndpointStream_AVR8.o
 .text.Endpoint_Write_Control_Stream_BE
                0x0000000000000000       0xc4 .build/obj_3key_LohseBoi/lib/lufa/LUFA/Drivers/USB/Core/AVR8/EndpointStream_AVR8.o
 .text.Endpoint_Read_Control_Stream_LE
                0x0000000000000000       0x6e .build/obj_3key_LohseBoi/lib/lufa/LUFA/Drivers/USB/Core/AVR8/EndpointStream_AVR8.o
 .text.Endpoint_Read_Control_Stream_BE
                0x0000000000000000       0x7a .build/obj_3key_LohseBoi/lib/lufa/LUFA/Drivers/USB/Core/AVR8/EndpointStream_AVR8.o
 .text.Endpoint_Write_Control_PStream_BE
                0x0000000000000000       0xc4 .build/obj_3key_LohseBoi/lib/lufa/LUFA/Drivers/USB/Core/AVR8/EndpointStream_AVR8.o
 .text.Endpoint_Write_Control_EStream_LE
                0x0000000000000000       0xd8 .build/obj_3key_LohseBoi/lib/lufa/LUFA/Drivers/USB/Core/AVR8/EndpointStream_AVR8.o
 .text.Endpoint_Write_Control_EStream_BE
                0x0000000000000000       0xe2 .build/obj_3key_LohseBoi/lib/lufa/LUFA/Drivers/USB/Core/AVR8/EndpointStream_AVR8.o
 .text.Endpoint_Read_Control_EStream_LE
                0x0000000000000000       0x86 .build/obj_3key_LohseBoi/lib/lufa/LUFA/Drivers/USB/Core/AVR8/EndpointStream_AVR8.o
 .text.Endpoint_Read_Control_EStream_BE
                0x0000000000000000       0x8e .build/obj_3key_LohseBoi/lib/lufa/LUFA/Drivers/USB/Core/AVR8/EndpointStream_AVR8.o
 .text          0x0000000000000000        0x0 .build/obj_3key_LohseBoi/lib/lufa/LUFA/Drivers/USB/Core/AVR8/Endpoint_AVR8.o
 .data          0x0000000000000000        0x0 .build/obj_3key_LohseBoi/lib/lufa/LUFA/Drivers/USB/Core/AVR8/Endpoint_AVR8.o
 .bss           0x0000000000000000        0x0 .build/obj_3key_LohseBoi/lib/lufa/LUFA/Drivers/USB/Core/AVR8/Endpoint_AVR8.o
 .text.Endpoint_ConfigureEndpointTable
                0x0000000000000000       0x7c .build/obj_3key_LohseBoi/lib/lufa/LUFA/Drivers/USB/Core/AVR8/Endpoint_AVR8.o
 .text.Endpoint_ClearEndpoints
                0x0000000000000000       0x28 .build/obj_3key_LohseBoi/lib/lufa/LUFA/Drivers/USB/Core/AVR8/Endpoint_AVR8.o
 .text          0x0000000000000000        0x0 .build/obj_3key_LohseBoi/lib/lufa/LUFA/Drivers/USB/Core/AVR8/Host_AVR8.o
 .data          0x0000000000000000        0x0 .build/obj_3key_LohseBoi/lib/lufa/LUFA/Drivers/USB/Core/AVR8/Host_AVR8.o
 .bss           0x0000000000000000        0x0 .build/obj_3key_LohseBoi/lib/lufa/LUFA/Drivers/USB/Core/AVR8/Host_AVR8.o
 .debug_info    0x0000000000000000       0x56 .build/obj_3key_LohseBoi/lib/lufa/LUFA/Drivers/USB/Core/AVR8/Host_AVR8.o
 .debug_abbrev  0x0000000000000000       0x26 .build/obj_3key_LohseBoi/lib/lufa/LUFA/Drivers/USB/Core/AVR8/Host_AVR8.o
 .debug_aranges
                0x0000000000000000       0x18 .build/obj_3key_LohseBoi/lib/lufa/LUFA/Drivers/USB/Core/AVR8/Host_AVR8.o
 .debug_line    0x0000000000000000       0x1d .build/obj_3key_LohseBoi/lib/lufa/LUFA/Drivers/USB/Core/AVR8/Host_AVR8.o
 .debug_str     0x0000000000000000      0x1b0 .build/obj_3key_LohseBoi/lib/lufa/LUFA/Drivers/USB/Core/AVR8/Host_AVR8.o
 .comment       0x0000000000000000       0x13 .build/obj_3key_LohseBoi/lib/lufa/LUFA/Drivers/USB/Core/AVR8/Host_AVR8.o
 .text          0x0000000000000000        0x0 .build/obj_3key_LohseBoi/lib/lufa/LUFA/Drivers/USB/Core/AVR8/PipeStream_AVR8.o
 .data          0x0000000000000000        0x0 .build/obj_3key_LohseBoi/lib/lufa/LUFA/Drivers/USB/Core/AVR8/PipeStream_AVR8.o
 .bss           0x0000000000000000        0x0 .build/obj_3key_LohseBoi/lib/lufa/LUFA/Drivers/USB/Core/AVR8/PipeStream_AVR8.o
 .debug_info    0x0000000000000000       0x56 .build/obj_3key_LohseBoi/lib/lufa/LUFA/Drivers/USB/Core/AVR8/PipeStream_AVR8.o
 .debug_abbrev  0x0000000000000000       0x26 .build/obj_3key_LohseBoi/lib/lufa/LUFA/Drivers/USB/Core/AVR8/PipeStream_AVR8.o
 .debug_aranges
                0x0000000000000000       0x18 .build/obj_3key_LohseBoi/lib/lufa/LUFA/Drivers/USB/Core/AVR8/PipeStream_AVR8.o
 .debug_line    0x0000000000000000       0x1d .build/obj_3key_LohseBoi/lib/lufa/LUFA/Drivers/USB/Core/AVR8/PipeStream_AVR8.o
 .debug_str     0x0000000000000000      0x1b6 .build/obj_3key_LohseBoi/lib/lufa/LUFA/Drivers/USB/Core/AVR8/PipeStream_AVR8.o
 .comment       0x0000000000000000       0x13 .build/obj_3key_LohseBoi/lib/lufa/LUFA/Drivers/USB/Core/AVR8/PipeStream_AVR8.o
 .text          0x0000000000000000        0x0 .build/obj_3key_LohseBoi/lib/lufa/LUFA/Drivers/USB/Core/AVR8/Pipe_AVR8.o
 .data          0x0000000000000000        0x0 .build/obj_3key_LohseBoi/lib/lufa/LUFA/Drivers/USB/Core/AVR8/Pipe_AVR8.o
 .bss           0x0000000000000000        0x0 .build/obj_3key_LohseBoi/lib/lufa/LUFA/Drivers/USB/Core/AVR8/Pipe_AVR8.o
 .debug_info    0x0000000000000000       0x56 .build/obj_3key_LohseBoi/lib/lufa/LUFA/Drivers/USB/Core/AVR8/Pipe_AVR8.o
 .debug_abbrev  0x0000000000000000       0x26 .build/obj_3key_LohseBoi/lib/lufa/LUFA/Drivers/USB/Core/AVR8/Pipe_AVR8.o
 .debug_aranges
                0x0000000000000000       0x18 .build/obj_3key_LohseBoi/lib/lufa/LUFA/Drivers/USB/Core/AVR8/Pipe_AVR8.o
 .debug_line    0x0000000000000000       0x1d .build/obj_3key_LohseBoi/lib/lufa/LUFA/Drivers/USB/Core/AVR8/Pipe_AVR8.o
 .debug_str     0x0000000000000000      0x1b0 .build/obj_3key_LohseBoi/lib/lufa/LUFA/Drivers/USB/Core/AVR8/Pipe_AVR8.o
 .comment       0x0000000000000000       0x13 .build/obj_3key_LohseBoi/lib/lufa/LUFA/Drivers/USB/Core/AVR8/Pipe_AVR8.o
 .text          0x0000000000000000        0x0 .build/obj_3key_LohseBoi/lib/lufa/LUFA/Drivers/USB/Core/AVR8/USBController_AVR8.o
 .data          0x0000000000000000        0x0 .build/obj_3key_LohseBoi/lib/lufa/LUFA/Drivers/USB/Core/AVR8/USBController_AVR8.o
 .bss           0x0000000000000000        0x0 .build/obj_3key_LohseBoi/lib/lufa/LUFA/Drivers/USB/Core/AVR8/USBController_AVR8.o
 .text          0x0000000000000000        0x0 .build/obj_3key_LohseBoi/lib/lufa/LUFA/Drivers/USB/Core/AVR8/USBInterrupt_AVR8.o
 .data          0x0000000000000000        0x0 .build/obj_3key_LohseBoi/lib/lufa/LUFA/Drivers/USB/Core/AVR8/USBInterrupt_AVR8.o
 .bss           0x0000000000000000        0x0 .build/obj_3key_LohseBoi/lib/lufa/LUFA/Drivers/USB/Core/AVR8/USBInterrupt_AVR8.o
 .text          0x0000000000000000        0x0 .build/obj_3key_LohseBoi/lib/lufa/LUFA/Drivers/USB/Core/ConfigDescriptors.o
 .data          0x0000000000000000        0x0 .build/obj_3key_LohseBoi/lib/lufa/LUFA/Drivers/USB/Core/ConfigDescriptors.o
 .bss           0x0000000000000000        0x0 .build/obj_3key_LohseBoi/lib/lufa/LUFA/Drivers/USB/Core/ConfigDescriptors.o
 .text.USB_GetNextDescriptorOfType
                0x0000000000000000       0x4c .build/obj_3key_LohseBoi/lib/lufa/LUFA/Drivers/USB/Core/ConfigDescriptors.o
 .text.USB_GetNextDescriptorOfTypeBefore
                0x0000000000000000       0x54 .build/obj_3key_LohseBoi/lib/lufa/LUFA/Drivers/USB/Core/ConfigDescriptors.o
 .text.USB_GetNextDescriptorOfTypeAfter
                0x0000000000000000       0x3e .build/obj_3key_LohseBoi/lib/lufa/LUFA/Drivers/USB/Core/ConfigDescriptors.o
 .text.USB_GetNextDescriptorComp
                0x0000000000000000       0x84 .build/obj_3key_LohseBoi/lib/lufa/LUFA/Drivers/USB/Core/ConfigDescriptors.o
 .debug_info    0x0000000000000000      0x463 .build/obj_3key_LohseBoi/lib/lufa/LUFA/Drivers/USB/Core/ConfigDescriptors.o
 .debug_abbrev  0x0000000000000000      0x1d5 .build/obj_3key_LohseBoi/lib/lufa/LUFA/Drivers/USB/Core/ConfigDescriptors.o
 .debug_loc     0x0000000000000000      0x565 .build/obj_3key_LohseBoi/lib/lufa/LUFA/Drivers/USB/Core/ConfigDescriptors.o
 .debug_aranges
                0x0000000000000000       0x38 .build/obj_3key_LohseBoi/lib/lufa/LUFA/Drivers/USB/Core/ConfigDescriptors.o
 .debug_ranges  0x0000000000000000       0x28 .build/obj_3key_LohseBoi/lib/lufa/LUFA/Drivers/USB/Core/ConfigDescriptors.o
 .debug_line    0x0000000000000000      0x3f8 .build/obj_3key_LohseBoi/lib/lufa/LUFA/Drivers/USB/Core/ConfigDescriptors.o
 .debug_str     0x0000000000000000      0x3f6 .build/obj_3key_LohseBoi/lib/lufa/LUFA/Drivers/USB/Core/ConfigDescriptors.o
 .comment       0x0000000000000000       0x13 .build/obj_3key_LohseBoi/lib/lufa/LUFA/Drivers/USB/Core/ConfigDescriptors.o
 .debug_frame   0x0000000000000000       0xbc .build/obj_3key_LohseBoi/lib/lufa/LUFA/Drivers/USB/Core/ConfigDescriptors.o
 .text          0x0000000000000000        0x0 .build/obj_3key_LohseBoi/lib/lufa/LUFA/Drivers/USB/Core/DeviceStandardReq.o
 .data          0x0000000000000000        0x0 .build/obj_3key_LohseBoi/lib/lufa/LUFA/Drivers/USB/Core/DeviceStandardReq.o
 .bss           0x0000000000000000        0x0 .build/obj_3key_LohseBoi/lib/lufa/LUFA/Drivers/USB/Core/DeviceStandardReq.o
 .text          0x0000000000000000        0x0 .build/obj_3key_LohseBoi/lib/lufa/LUFA/Drivers/USB/Core/Events.o
 .data          0x0000000000000000        0x0 .build/obj_3key_LohseBoi/lib/lufa/LUFA/Drivers/USB/Core/Events.o
 .bss           0x0000000000000000        0x0 .build/obj_3key_LohseBoi/lib/lufa/LUFA/Drivers/USB/Core/Events.o
 .text.USB_Event_Stub_2
                0x0000000000000000        0x2 .build/obj_3key_LohseBoi/lib/lufa/LUFA/Drivers/USB/Core/Events.o
 .text.USB_Event_Stub_3
                0x0000000000000000        0x2 .build/obj_3key_LohseBoi/lib/lufa/LUFA/Drivers/USB/Core/Events.o
 .text          0x0000000000000000        0x0 .build/obj_3key_LohseBoi/lib/lufa/LUFA/Drivers/USB/Core/HostStandardReq.o
 .data          0x0000000000000000        0x0 .build/obj_3key_LohseBoi/lib/lufa/LUFA/Drivers/USB/Core/HostStandardReq.o
 .bss           0x0000000000000000        0x0 .build/obj_3key_LohseBoi/lib/lufa/LUFA/Drivers/USB/Core/HostStandardReq.o
 .debug_info    0x0000000000000000       0x56 .build/obj_3key_LohseBoi/lib/lufa/LUFA/Drivers/USB/Core/HostStandardReq.o
 .debug_abbrev  0x0000000000000000       0x26 .build/obj_3key_LohseBoi/lib/lufa/LUFA/Drivers/USB/Core/HostStandardReq.o
 .debug_aranges
                0x0000000000000000       0x18 .build/obj_3key_LohseBoi/lib/lufa/LUFA/Drivers/USB/Core/HostStandardReq.o
 .debug_line    0x0000000000000000       0x1d .build/obj_3key_LohseBoi/lib/lufa/LUFA/Drivers/USB/Core/HostStandardReq.o
 .debug_str     0x0000000000000000      0x1b1 .build/obj_3key_LohseBoi/lib/lufa/LUFA/Drivers/USB/Core/HostStandardReq.o
 .comment       0x0000000000000000       0x13 .build/obj_3key_LohseBoi/lib/lufa/LUFA/Drivers/USB/Core/HostStandardReq.o
 .text          0x0000000000000000        0x0 .build/obj_3key_LohseBoi/lib/lufa/LUFA/Drivers/USB/Core/USBTask.o
 .data          0x0000000000000000        0x0 .build/obj_3key_LohseBoi/lib/lufa/LUFA/Drivers/USB/Core/USBTask.o
 .bss           0x0000000000000000        0x0 .build/obj_3key_LohseBoi/lib/lufa/LUFA/Drivers/USB/Core/USBTask.o
 .text          0x0000000000000000        0x0 .build/obj_3key_LohseBoi/protocol/lufa/usb_util.o
 .data          0x0000000000000000        0x0 .build/obj_3key_LohseBoi/protocol/lufa/usb_util.o
 .bss           0x0000000000000000        0x0 .build/obj_3key_LohseBoi/protocol/lufa/usb_util.o
 .text.usb_disconnect
                0x0000000000000000        0xa .build/obj_3key_LohseBoi/protocol/lufa/usb_util.o
 .text.usb_connected_state
                0x0000000000000000        0xc .build/obj_3key_LohseBoi/protocol/lufa/usb_util.o
 .text.usb_vbus_state
                0x0000000000000000       0x1a .build/obj_3key_LohseBoi/protocol/lufa/usb_util.o
 .debug_info    0x0000000000000000      0x27f .build/obj_3key_LohseBoi/protocol/lufa/usb_util.o
 .debug_abbrev  0x0000000000000000      0x1c0 .build/obj_3key_LohseBoi/protocol/lufa/usb_util.o
 .debug_loc     0x0000000000000000       0x4b .build/obj_3key_LohseBoi/protocol/lufa/usb_util.o
 .debug_aranges
                0x0000000000000000       0x30 .build/obj_3key_LohseBoi/protocol/lufa/usb_util.o
 .debug_ranges  0x0000000000000000       0x20 .build/obj_3key_LohseBoi/protocol/lufa/usb_util.o
 .debug_line    0x0000000000000000      0x297 .build/obj_3key_LohseBoi/protocol/lufa/usb_util.o
 .debug_str     0x0000000000000000      0x331 .build/obj_3key_LohseBoi/protocol/lufa/usb_util.o
 .comment       0x0000000000000000       0x13 .build/obj_3key_LohseBoi/protocol/lufa/usb_util.o
 .debug_frame   0x0000000000000000       0x44 .build/obj_3key_LohseBoi/protocol/lufa/usb_util.o
 .text          0x0000000000000000        0x0 /usr/lib/gcc/avr/11.2.0/../../../../avr/lib/avr5/libm.a(fixunssfsi.o)
 .data          0x0000000000000000        0x0 /usr/lib/gcc/avr/11.2.0/../../../../avr/lib/avr5/libm.a(fixunssfsi.o)
 .bss           0x0000000000000000        0x0 /usr/lib/gcc/avr/11.2.0/../../../../avr/lib/avr5/libm.a(fixunssfsi.o)
 .text.avr-libc.fplib
                0x0000000000000000       0x5e /usr/lib/gcc/avr/11.2.0/../../../../avr/lib/avr5/libm.a(fixunssfsi.o)
 .text          0x0000000000000000        0x0 /usr/lib/gcc/avr/11.2.0/../../../../avr/lib/avr5/libm.a(fp_split3.o)
 .data          0x0000000000000000        0x0 /usr/lib/gcc/avr/11.2.0/../../../../avr/lib/avr5/libm.a(fp_split3.o)
 .bss           0x0000000000000000        0x0 /usr/lib/gcc/avr/11.2.0/../../../../avr/lib/avr5/libm.a(fp_split3.o)
 .text.avr-libc.fplib
                0x0000000000000000       0x44 /usr/lib/gcc/avr/11.2.0/../../../../avr/lib/avr5/libm.a(fp_split3.o)
 .text          0x0000000000000000        0x0 /usr/lib/gcc/avr/11.2.0/../../../../avr/lib/avr5/libm.a(fp_zero.o)
 .data          0x0000000000000000        0x0 /usr/lib/gcc/avr/11.2.0/../../../../avr/lib/avr5/libm.a(fp_zero.o)
 .bss           0x0000000000000000        0x0 /usr/lib/gcc/avr/11.2.0/../../../../avr/lib/avr5/libm.a(fp_zero.o)
 .text.avr-libc.fplib
                0x0000000000000000        0xe /usr/lib/gcc/avr/11.2.0/../../../../avr/lib/avr5/libm.a(fp_zero.o)
 .text          0x0000000000000000        0x0 /usr/lib/gcc/avr/11.2.0/../../../../avr/lib/avr5/libm.a(mulsf3.o)
 .data          0x0000000000000000        0x0 /usr/lib/gcc/avr/11.2.0/../../../../avr/lib/avr5/libm.a(mulsf3.o)
 .bss           0x0000000000000000        0x0 /usr/lib/gcc/avr/11.2.0/../../../../avr/lib/avr5/libm.a(mulsf3.o)
 .text.avr-libc.fplib
                0x0000000000000000        0x8 /usr/lib/gcc/avr/11.2.0/../../../../avr/lib/avr5/libm.a(mulsf3.o)
 .text          0x0000000000000000        0x0 /usr/lib/gcc/avr/11.2.0/../../../../avr/lib/avr5/libm.a(mulsf3x.o)
 .data          0x0000000000000000        0x0 /usr/lib/gcc/avr/11.2.0/../../../../avr/lib/avr5/libm.a(mulsf3x.o)
 .bss           0x0000000000000000        0x0 /usr/lib/gcc/avr/11.2.0/../../../../avr/lib/avr5/libm.a(mulsf3x.o)
 .text.avr-libc.fplib
                0x0000000000000000       0xd2 /usr/lib/gcc/avr/11.2.0/../../../../avr/lib/avr5/libm.a(mulsf3x.o)
 .text          0x0000000000000000        0x0 /usr/lib/gcc/avr/11.2.0/../../../../avr/lib/avr5/libm.a(fp_inf.o)
 .data          0x0000000000000000        0x0 /usr/lib/gcc/avr/11.2.0/../../../../avr/lib/avr5/libm.a(fp_inf.o)
 .bss           0x0000000000000000        0x0 /usr/lib/gcc/avr/11.2.0/../../../../avr/lib/avr5/libm.a(fp_inf.o)
 .text.avr-libc.fplib
                0x0000000000000000        0xc /usr/lib/gcc/avr/11.2.0/../../../../avr/lib/avr5/libm.a(fp_inf.o)
 .text          0x0000000000000000        0x0 /usr/lib/gcc/avr/11.2.0/../../../../avr/lib/avr5/libm.a(fp_nan.o)
 .data          0x0000000000000000        0x0 /usr/lib/gcc/avr/11.2.0/../../../../avr/lib/avr5/libm.a(fp_nan.o)
 .bss           0x0000000000000000        0x0 /usr/lib/gcc/avr/11.2.0/../../../../avr/lib/avr5/libm.a(fp_nan.o)
 .text.avr-libc.fplib
                0x0000000000000000        0x6 /usr/lib/gcc/avr/11.2.0/../../../../avr/lib/avr5/libm.a(fp_nan.o)
 .text          0x0000000000000000        0x0 /usr/lib/gcc/avr/11.2.0/../../../../avr/lib/avr5/libm.a(fp_pscA.o)
 .data          0x0000000000000000        0x0 /usr/lib/gcc/avr/11.2.0/../../../../avr/lib/avr5/libm.a(fp_pscA.o)
 .bss           0x0000000000000000        0x0 /usr/lib/gcc/avr/11.2.0/../../../../avr/lib/avr5/libm.a(fp_pscA.o)
 .text.avr-libc.fplib
                0x0000000000000000        0xe /usr/lib/gcc/avr/11.2.0/../../../../avr/lib/avr5/libm.a(fp_pscA.o)
 .text          0x0000000000000000        0x0 /usr/lib/gcc/avr/11.2.0/../../../../avr/lib/avr5/libm.a(fp_pscB.o)
 .data          0x0000000000000000        0x0 /usr/lib/gcc/avr/11.2.0/../../../../avr/lib/avr5/libm.a(fp_pscB.o)
 .bss           0x0000000000000000        0x0 /usr/lib/gcc/avr/11.2.0/../../../../avr/lib/avr5/libm.a(fp_pscB.o)
 .text.avr-libc.fplib
                0x0000000000000000        0xe /usr/lib/gcc/avr/11.2.0/../../../../avr/lib/avr5/libm.a(fp_pscB.o)
 .text          0x0000000000000000        0x0 /usr/lib/gcc/avr/11.2.0/../../../../avr/lib/avr5/libm.a(fp_round.o)
 .data          0x0000000000000000        0x0 /usr/lib/gcc/avr/11.2.0/../../../../avr/lib/avr5/libm.a(fp_round.o)
 .bss           0x0000000000000000        0x0 /usr/lib/gcc/avr/11.2.0/../../../../avr/lib/avr5/libm.a(fp_round.o)
 .text.avr-libc.fplib
                0x0000000000000000       0x22 /usr/lib/gcc/avr/11.2.0/../../../../avr/lib/avr5/libm.a(fp_round.o)
 .text          0x0000000000000000        0x0 /usr/lib/gcc/avr/11.2.0/avr5/libgcc.a(_mulsi3.o)
 .data          0x0000000000000000        0x0 /usr/lib/gcc/avr/11.2.0/avr5/libgcc.a(_mulsi3.o)
 .bss           0x0000000000000000        0x0 /usr/lib/gcc/avr/11.2.0/avr5/libgcc.a(_mulsi3.o)
 .text.libgcc.div
                0x0000000000000000        0x0 /usr/lib/gcc/avr/11.2.0/avr5/libgcc.a(_mulsi3.o)
 .text.libgcc   0x0000000000000000        0x0 /usr/lib/gcc/avr/11.2.0/avr5/libgcc.a(_mulsi3.o)
 .text.libgcc.prologue
                0x0000000000000000        0x0 /usr/lib/gcc/avr/11.2.0/avr5/libgcc.a(_mulsi3.o)
 .text.libgcc.builtins
                0x0000000000000000        0x0 /usr/lib/gcc/avr/11.2.0/avr5/libgcc.a(_mulsi3.o)
 .text.libgcc.fmul
                0x0000000000000000        0x0 /usr/lib/gcc/avr/11.2.0/avr5/libgcc.a(_mulsi3.o)
 .text.libgcc.fixed
                0x0000000000000000        0x0 /usr/lib/gcc/avr/11.2.0/avr5/libgcc.a(_mulsi3.o)
 .text          0x0000000000000000        0x0 /usr/lib/gcc/avr/11.2.0/avr5/libgcc.a(_udivmodhi4.o)
 .data          0x0000000000000000        0x0 /usr/lib/gcc/avr/11.2.0/avr5/libgcc.a(_udivmodhi4.o)
 .bss           0x0000000000000000        0x0 /usr/lib/gcc/avr/11.2.0/avr5/libgcc.a(_udivmodhi4.o)
 .text.libgcc.mul
                0x0000000000000000        0x0 /usr/lib/gcc/avr/11.2.0/avr5/libgcc.a(_udivmodhi4.o)
 .text.libgcc   0x0000000000000000        0x0 /usr/lib/gcc/avr/11.2.0/avr5/libgcc.a(_udivmodhi4.o)
 .text.libgcc.prologue
                0x0000000000000000        0x0 /usr/lib/gcc/avr/11.2.0/avr5/libgcc.a(_udivmodhi4.o)
 .text.libgcc.builtins
                0x0000000000000000        0x0 /usr/lib/gcc/avr/11.2.0/avr5/libgcc.a(_udivmodhi4.o)
 .text.libgcc.fmul
                0x0000000000000000        0x0 /usr/lib/gcc/avr/11.2.0/avr5/libgcc.a(_udivmodhi4.o)
 .text.libgcc.fixed
                0x0000000000000000        0x0 /usr/lib/gcc/avr/11.2.0/avr5/libgcc.a(_udivmodhi4.o)
 .text          0x0000000000000000        0x0 /usr/lib/gcc/avr/11.2.0/avr5/libgcc.a(_divmodhi4.o)
 .data          0x0000000000000000        0x0 /usr/lib/gcc/avr/11.2.0/avr5/libgcc.a(_divmodhi4.o)
 .bss           0x0000000000000000        0x0 /usr/lib/gcc/avr/11.2.0/avr5/libgcc.a(_divmodhi4.o)
 .text.libgcc.mul
                0x0000000000000000        0x0 /usr/lib/gcc/avr/11.2.0/avr5/libgcc.a(_divmodhi4.o)
 .text.libgcc   0x0000000000000000        0x0 /usr/lib/gcc/avr/11.2.0/avr5/libgcc.a(_divmodhi4.o)
 .text.libgcc.prologue
                0x0000000000000000        0x0 /usr/lib/gcc/avr/11.2.0/avr5/libgcc.a(_divmodhi4.o)
 .text.libgcc.builtins
                0x0000000000000000        0x0 /usr/lib/gcc/avr/11.2.0/avr5/libgcc.a(_divmodhi4.o)
 .text.libgcc.fmul
                0x0000000000000000        0x0 /usr/lib/gcc/avr/11.2.0/avr5/libgcc.a(_divmodhi4.o)
 .text.libgcc.fixed
                0x0000000000000000        0x0 /usr/lib/gcc/avr/11.2.0/avr5/libgcc.a(_divmodhi4.o)
 .text          0x0000000000000000        0x0 /usr/lib/gcc/avr/11.2.0/avr5/libgcc.a(_udivmodsi4.o)
 .data          0x0000000000000000        0x0 /usr/lib/gcc/avr/11.2.0/avr5/libgcc.a(_udivmodsi4.o)
 .bss           0x0000000000000000        0x0 /usr/lib/gcc/avr/11.2.0/avr5/libgcc.a(_udivmodsi4.o)
 .text.libgcc.mul
                0x0000000000000000        0x0 /usr/lib/gcc/avr/11.2.0/avr5/libgcc.a(_udivmodsi4.o)
 .text.libgcc   0x0000000000000000        0x0 /usr/lib/gcc/avr/11.2.0/avr5/libgcc.a(_udivmodsi4.o)
 .text.libgcc.prologue
                0x0000000000000000        0x0 /usr/lib/gcc/avr/11.2.0/avr5/libgcc.a(_udivmodsi4.o)
 .text.libgcc.builtins
                0x0000000000000000        0x0 /usr/lib/gcc/avr/11.2.0/avr5/libgcc.a(_udivmodsi4.o)
 .text.libgcc.fmul
                0x0000000000000000        0x0 /usr/lib/gcc/avr/11.2.0/avr5/libgcc.a(_udivmodsi4.o)
 .text.libgcc.fixed
                0x0000000000000000        0x0 /usr/lib/gcc/avr/11.2.0/avr5/libgcc.a(_udivmodsi4.o)
 .text          0x0000000000000000        0x0 /usr/lib/gcc/avr/11.2.0/avr5/libgcc.a(_exit.o)
 .data          0x0000000000000000        0x0 /usr/lib/gcc/avr/11.2.0/avr5/libgcc.a(_exit.o)
 .bss           0x0000000000000000        0x0 /usr/lib/gcc/avr/11.2.0/avr5/libgcc.a(_exit.o)
 .text.libgcc.mul
                0x0000000000000000        0x0 /usr/lib/gcc/avr/11.2.0/avr5/libgcc.a(_exit.o)
 .text.libgcc.div
                0x0000000000000000        0x0 /usr/lib/gcc/avr/11.2.0/avr5/libgcc.a(_exit.o)
 .text.libgcc   0x0000000000000000        0x0 /usr/lib/gcc/avr/11.2.0/avr5/libgcc.a(_exit.o)
 .text.libgcc.prologue
                0x0000000000000000        0x0 /usr/lib/gcc/avr/11.2.0/avr5/libgcc.a(_exit.o)
 .text.libgcc.builtins
                0x0000000000000000        0x0 /usr/lib/gcc/avr/11.2.0/avr5/libgcc.a(_exit.o)
 .text.libgcc.fmul
                0x0000000000000000        0x0 /usr/lib/gcc/avr/11.2.0/avr5/libgcc.a(_exit.o)
 .text.libgcc.fixed
                0x0000000000000000        0x0 /usr/lib/gcc/avr/11.2.0/avr5/libgcc.a(_exit.o)
 .text          0x0000000000000000        0x0 /usr/lib/gcc/avr/11.2.0/avr5/libgcc.a(_tablejump2.o)
 .data          0x0000000000000000        0x0 /usr/lib/gcc/avr/11.2.0/avr5/libgcc.a(_tablejump2.o)
 .bss           0x0000000000000000        0x0 /usr/lib/gcc/avr/11.2.0/avr5/libgcc.a(_tablejump2.o)
 .text.libgcc.mul
                0x0000000000000000        0x0 /usr/lib/gcc/avr/11.2.0/avr5/libgcc.a(_tablejump2.o)
 .text.libgcc.div
                0x0000000000000000        0x0 /usr/lib/gcc/avr/11.2.0/avr5/libgcc.a(_tablejump2.o)
 .text.libgcc.prologue
                0x0000000000000000        0x0 /usr/lib/gcc/avr/11.2.0/avr5/libgcc.a(_tablejump2.o)
 .text.libgcc.builtins
                0x0000000000000000        0x0 /usr/lib/gcc/avr/11.2.0/avr5/libgcc.a(_tablejump2.o)
 .text.libgcc.fmul
                0x0000000000000000        0x0 /usr/lib/gcc/avr/11.2.0/avr5/libgcc.a(_tablejump2.o)
 .text.libgcc.fixed
                0x0000000000000000        0x0 /usr/lib/gcc/avr/11.2.0/avr5/libgcc.a(_tablejump2.o)
 .text          0x0000000000000000        0x0 /usr/lib/gcc/avr/11.2.0/avr5/libgcc.a(_copy_data.o)
 .data          0x0000000000000000        0x0 /usr/lib/gcc/avr/11.2.0/avr5/libgcc.a(_copy_data.o)
 .bss           0x0000000000000000        0x0 /usr/lib/gcc/avr/11.2.0/avr5/libgcc.a(_copy_data.o)
 .text.libgcc.mul
                0x0000000000000000        0x0 /usr/lib/gcc/avr/11.2.0/avr5/libgcc.a(_copy_data.o)
 .text.libgcc.div
                0x0000000000000000        0x0 /usr/lib/gcc/avr/11.2.0/avr5/libgcc.a(_copy_data.o)
 .text.libgcc   0x0000000000000000        0x0 /usr/lib/gcc/avr/11.2.0/avr5/libgcc.a(_copy_data.o)
 .text.libgcc.prologue
                0x0000000000000000        0x0 /usr/lib/gcc/avr/11.2.0/avr5/libgcc.a(_copy_data.o)
 .text.libgcc.builtins
                0x0000000000000000        0x0 /usr/lib/gcc/avr/11.2.0/avr5/libgcc.a(_copy_data.o)
 .text.libgcc.fmul
                0x0000000000000000        0x0 /usr/lib/gcc/avr/11.2.0/avr5/libgcc.a(_copy_data.o)
 .text.libgcc.fixed
                0x0000000000000000        0x0 /usr/lib/gcc/avr/11.2.0/avr5/libgcc.a(_copy_data.o)
 .text          0x0000000000000000        0x0 /usr/lib/gcc/avr/11.2.0/avr5/libgcc.a(_clear_bss.o)
 .data          0x0000000000000000        0x0 /usr/lib/gcc/avr/11.2.0/avr5/libgcc.a(_clear_bss.o)
 .bss           0x0000000000000000        0x0 /usr/lib/gcc/avr/11.2.0/avr5/libgcc.a(_clear_bss.o)
 .text.libgcc.mul
                0x0000000000000000        0x0 /usr/lib/gcc/avr/11.2.0/avr5/libgcc.a(_clear_bss.o)
 .text.libgcc.div
                0x0000000000000000        0x0 /usr/lib/gcc/avr/11.2.0/avr5/libgcc.a(_clear_bss.o)
 .text.libgcc   0x0000000000000000        0x0 /usr/lib/gcc/avr/11.2.0/avr5/libgcc.a(_clear_bss.o)
 .text.libgcc.prologue
                0x0000000000000000        0x0 /usr/lib/gcc/avr/11.2.0/avr5/libgcc.a(_clear_bss.o)
 .text.libgcc.builtins
                0x0000000000000000        0x0 /usr/lib/gcc/avr/11.2.0/avr5/libgcc.a(_clear_bss.o)
 .text.libgcc.fmul
                0x0000000000000000        0x0 /usr/lib/gcc/avr/11.2.0/avr5/libgcc.a(_clear_bss.o)
 .text.libgcc.fixed
                0x0000000000000000        0x0 /usr/lib/gcc/avr/11.2.0/avr5/libgcc.a(_clear_bss.o)
 .text          0x0000000000000000        0x0 /usr/lib/gcc/avr/11.2.0/avr5/libgcc.a(_popcounthi2.o)
 .data          0x0000000000000000        0x0 /usr/lib/gcc/avr/11.2.0/avr5/libgcc.a(_popcounthi2.o)
 .bss           0x0000000000000000        0x0 /usr/lib/gcc/avr/11.2.0/avr5/libgcc.a(_popcounthi2.o)
 .text.libgcc.mul
                0x0000000000000000        0x0 /usr/lib/gcc/avr/11.2.0/avr5/libgcc.a(_popcounthi2.o)
 .text.libgcc.div
                0x0000000000000000        0x0 /usr/lib/gcc/avr/11.2.0/avr5/libgcc.a(_popcounthi2.o)
 .text.libgcc   0x0000000000000000        0x0 /usr/lib/gcc/avr/11.2.0/avr5/libgcc.a(_popcounthi2.o)
 .text.libgcc.prologue
                0x0000000000000000        0x0 /usr/lib/gcc/avr/11.2.0/avr5/libgcc.a(_popcounthi2.o)
 .text.libgcc.builtins
                0x0000000000000000       0x14 /usr/lib/gcc/avr/11.2.0/avr5/libgcc.a(_popcounthi2.o)
 .text.libgcc.fmul
                0x0000000000000000        0x0 /usr/lib/gcc/avr/11.2.0/avr5/libgcc.a(_popcounthi2.o)
 .text.libgcc.fixed
                0x0000000000000000        0x0 /usr/lib/gcc/avr/11.2.0/avr5/libgcc.a(_popcounthi2.o)
 .text          0x0000000000000000        0x0 /usr/lib/gcc/avr/11.2.0/avr5/libgcc.a(_popcountsi2.o)
 .data          0x0000000000000000        0x0 /usr/lib/gcc/avr/11.2.0/avr5/libgcc.a(_popcountsi2.o)
 .bss           0x0000000000000000        0x0 /usr/lib/gcc/avr/11.2.0/avr5/libgcc.a(_popcountsi2.o)
 .text.libgcc.mul
                0x0000000000000000        0x0 /usr/lib/gcc/avr/11.2.0/avr5/libgcc.a(_popcountsi2.o)
 .text.libgcc.div
                0x0000000000000000        0x0 /usr/lib/gcc/avr/11.2.0/avr5/libgcc.a(_popcountsi2.o)
 .text.libgcc   0x0000000000000000        0x0 /usr/lib/gcc/avr/11.2.0/avr5/libgcc.a(_popcountsi2.o)
 .text.libgcc.prologue
                0x0000000000000000        0x0 /usr/lib/gcc/avr/11.2.0/avr5/libgcc.a(_popcountsi2.o)
 .text.libgcc.builtins
                0x0000000000000000       0x10 /usr/lib/gcc/avr/11.2.0/avr5/libgcc.a(_popcountsi2.o)
 .text.libgcc.fmul
                0x0000000000000000        0x0 /usr/lib/gcc/avr/11.2.0/avr5/libgcc.a(_popcountsi2.o)
 .text.libgcc.fixed
                0x0000000000000000        0x0 /usr/lib/gcc/avr/11.2.0/avr5/libgcc.a(_popcountsi2.o)
 .text          0x0000000000000000        0x0 /usr/lib/gcc/avr/11.2.0/avr5/libgcc.a(_popcountqi2.o)
 .data          0x0000000000000000        0x0 /usr/lib/gcc/avr/11.2.0/avr5/libgcc.a(_popcountqi2.o)
 .bss           0x0000000000000000        0x0 /usr/lib/gcc/avr/11.2.0/avr5/libgcc.a(_popcountqi2.o)
 .text.libgcc.mul
                0x0000000000000000        0x0 /usr/lib/gcc/avr/11.2.0/avr5/libgcc.a(_popcountqi2.o)
 .text.libgcc.div
                0x0000000000000000        0x0 /usr/lib/gcc/avr/11.2.0/avr5/libgcc.a(_popcountqi2.o)
 .text.libgcc   0x0000000000000000        0x0 /usr/lib/gcc/avr/11.2.0/avr5/libgcc.a(_popcountqi2.o)
 .text.libgcc.prologue
                0x0000000000000000        0x0 /usr/lib/gcc/avr/11.2.0/avr5/libgcc.a(_popcountqi2.o)
 .text.libgcc.builtins
                0x0000000000000000       0x20 /usr/lib/gcc/avr/11.2.0/avr5/libgcc.a(_popcountqi2.o)
 .text.libgcc.fmul
                0x0000000000000000        0x0 /usr/lib/gcc/avr/11.2.0/avr5/libgcc.a(_popcountqi2.o)
 .text.libgcc.fixed
                0x0000000000000000        0x0 /usr/lib/gcc/avr/11.2.0/avr5/libgcc.a(_popcountqi2.o)
 .text          0x0000000000000000        0x0 /usr/lib/gcc/avr/11.2.0/avr5/libgcc.a(_mulhisi3.o)
 .data          0x0000000000000000        0x0 /usr/lib/gcc/avr/11.2.0/avr5/libgcc.a(_mulhisi3.o)
 .bss           0x0000000000000000        0x0 /usr/lib/gcc/avr/11.2.0/avr5/libgcc.a(_mulhisi3.o)
 .text.libgcc.div
                0x0000000000000000        0x0 /usr/lib/gcc/avr/11.2.0/avr5/libgcc.a(_mulhisi3.o)
 .text.libgcc   0x0000000000000000        0x0 /usr/lib/gcc/avr/11.2.0/avr5/libgcc.a(_mulhisi3.o)
 .text.libgcc.prologue
                0x0000000000000000        0x0 /usr/lib/gcc/avr/11.2.0/avr5/libgcc.a(_mulhisi3.o)
 .text.libgcc.builtins
                0x0000000000000000        0x0 /usr/lib/gcc/avr/11.2.0/avr5/libgcc.a(_mulhisi3.o)
 .text.libgcc.fmul
                0x0000000000000000        0x0 /usr/lib/gcc/avr/11.2.0/avr5/libgcc.a(_mulhisi3.o)
 .text.libgcc.fixed
                0x0000000000000000        0x0 /usr/lib/gcc/avr/11.2.0/avr5/libgcc.a(_mulhisi3.o)
 .text          0x0000000000000000        0x0 /usr/lib/gcc/avr/11.2.0/avr5/libgcc.a(_umulhisi3.o)
 .data          0x0000000000000000        0x0 /usr/lib/gcc/avr/11.2.0/avr5/libgcc.a(_umulhisi3.o)
 .bss           0x0000000000000000        0x0 /usr/lib/gcc/avr/11.2.0/avr5/libgcc.a(_umulhisi3.o)
 .text.libgcc.div
                0x0000000000000000        0x0 /usr/lib/gcc/avr/11.2.0/avr5/libgcc.a(_umulhisi3.o)
 .text.libgcc   0x0000000000000000        0x0 /usr/lib/gcc/avr/11.2.0/avr5/libgcc.a(_umulhisi3.o)
 .text.libgcc.prologue
                0x0000000000000000        0x0 /usr/lib/gcc/avr/11.2.0/avr5/libgcc.a(_umulhisi3.o)
 .text.libgcc.builtins
                0x0000000000000000        0x0 /usr/lib/gcc/avr/11.2.0/avr5/libgcc.a(_umulhisi3.o)
 .text.libgcc.fmul
                0x0000000000000000        0x0 /usr/lib/gcc/avr/11.2.0/avr5/libgcc.a(_umulhisi3.o)
 .text.libgcc.fixed
                0x0000000000000000        0x0 /usr/lib/gcc/avr/11.2.0/avr5/libgcc.a(_umulhisi3.o)
 .text          0x0000000000000000        0x0 /usr/lib/gcc/avr/11.2.0/avr5/libgcc.a(_usmulhisi3.o)
 .data          0x0000000000000000        0x0 /usr/lib/gcc/avr/11.2.0/avr5/libgcc.a(_usmulhisi3.o)
 .bss           0x0000000000000000        0x0 /usr/lib/gcc/avr/11.2.0/avr5/libgcc.a(_usmulhisi3.o)
 .text.libgcc.div
                0x0000000000000000        0x0 /usr/lib/gcc/avr/11.2.0/avr5/libgcc.a(_usmulhisi3.o)
 .text.libgcc   0x0000000000000000        0x0 /usr/lib/gcc/avr/11.2.0/avr5/libgcc.a(_usmulhisi3.o)
 .text.libgcc.prologue
                0x0000000000000000        0x0 /usr/lib/gcc/avr/11.2.0/avr5/libgcc.a(_usmulhisi3.o)
 .text.libgcc.builtins
                0x0000000000000000        0x0 /usr/lib/gcc/avr/11.2.0/avr5/libgcc.a(_usmulhisi3.o)
 .text.libgcc.fmul
                0x0000000000000000        0x0 /usr/lib/gcc/avr/11.2.0/avr5/libgcc.a(_usmulhisi3.o)
 .text.libgcc.fixed
                0x0000000000000000        0x0 /usr/lib/gcc/avr/11.2.0/avr5/libgcc.a(_usmulhisi3.o)
 .text          0x0000000000000000        0x0 /usr/lib/gcc/avr/11.2.0/avr5/libgcc.a(_muluhisi3.o)
 .data          0x0000000000000000        0x0 /usr/lib/gcc/avr/11.2.0/avr5/libgcc.a(_muluhisi3.o)
 .bss           0x0000000000000000        0x0 /usr/lib/gcc/avr/11.2.0/avr5/libgcc.a(_muluhisi3.o)
 .text.libgcc.div
                0x0000000000000000        0x0 /usr/lib/gcc/avr/11.2.0/avr5/libgcc.a(_muluhisi3.o)
 .text.libgcc   0x0000000000000000        0x0 /usr/lib/gcc/avr/11.2.0/avr5/libgcc.a(_muluhisi3.o)
 .text.libgcc.prologue
                0x0000000000000000        0x0 /usr/lib/gcc/avr/11.2.0/avr5/libgcc.a(_muluhisi3.o)
 .text.libgcc.builtins
                0x0000000000000000        0x0 /usr/lib/gcc/avr/11.2.0/avr5/libgcc.a(_muluhisi3.o)
 .text.libgcc.fmul
                0x0000000000000000        0x0 /usr/lib/gcc/avr/11.2.0/avr5/libgcc.a(_muluhisi3.o)
 .text.libgcc.fixed
                0x0000000000000000        0x0 /usr/lib/gcc/avr/11.2.0/avr5/libgcc.a(_muluhisi3.o)
 .text          0x0000000000000000        0x0 /usr/lib/gcc/avr/11.2.0/avr5/libgcc.a(_mulshisi3.o)
 .data          0x0000000000000000        0x0 /usr/lib/gcc/avr/11.2.0/avr5/libgcc.a(_mulshisi3.o)
 .bss           0x0000000000000000        0x0 /usr/lib/gcc/avr/11.2.0/avr5/libgcc.a(_mulshisi3.o)
 .text.libgcc.div
                0x0000000000000000        0x0 /usr/lib/gcc/avr/11.2.0/avr5/libgcc.a(_mulshisi3.o)
 .text.libgcc   0x0000000000000000        0x0 /usr/lib/gcc/avr/11.2.0/avr5/libgcc.a(_mulshisi3.o)
 .text.libgcc.prologue
                0x0000000000000000        0x0 /usr/lib/gcc/avr/11.2.0/avr5/libgcc.a(_mulshisi3.o)
 .text.libgcc.builtins
                0x0000000000000000        0x0 /usr/lib/gcc/avr/11.2.0/avr5/libgcc.a(_mulshisi3.o)
 .text.libgcc.fmul
                0x0000000000000000        0x0 /usr/lib/gcc/avr/11.2.0/avr5/libgcc.a(_mulshisi3.o)
 .text.libgcc.fixed
                0x0000000000000000        0x0 /usr/lib/gcc/avr/11.2.0/avr5/libgcc.a(_mulshisi3.o)
 .text          0x0000000000000000        0x0 /usr/lib/gcc/avr/11.2.0/../../../../avr/lib/avr5/libc.a(memcpy_P.o)
 .data          0x0000000000000000        0x0 /usr/lib/gcc/avr/11.2.0/../../../../avr/lib/avr5/libc.a(memcpy_P.o)
 .bss           0x0000000000000000        0x0 /usr/lib/gcc/avr/11.2.0/../../../../avr/lib/avr5/libc.a(memcpy_P.o)
 .text          0x0000000000000000        0x0 /usr/lib/gcc/avr/11.2.0/../../../../avr/lib/avr5/libc.a(memchr.o)
 .data          0x0000000000000000        0x0 /usr/lib/gcc/avr/11.2.0/../../../../avr/lib/avr5/libc.a(memchr.o)
 .bss           0x0000000000000000        0x0 /usr/lib/gcc/avr/11.2.0/../../../../avr/lib/avr5/libc.a(memchr.o)
 .text          0x0000000000000000        0x0 /usr/lib/gcc/avr/11.2.0/../../../../avr/lib/avr5/libc.a(memmove.o)
 .data          0x0000000000000000        0x0 /usr/lib/gcc/avr/11.2.0/../../../../avr/lib/avr5/libc.a(memmove.o)
 .bss           0x0000000000000000        0x0 /usr/lib/gcc/avr/11.2.0/../../../../avr/lib/avr5/libc.a(memmove.o)
 .text.avr-libc
                0x0000000000000000       0x24 /usr/lib/gcc/avr/11.2.0/../../../../avr/lib/avr5/libc.a(memmove.o)
 .text          0x0000000000000000        0x0 /usr/lib/gcc/avr/11.2.0/../../../../avr/lib/avr5/libc.a(sprintf.o)
 .data          0x0000000000000000        0x0 /usr/lib/gcc/avr/11.2.0/../../../../avr/lib/avr5/libc.a(sprintf.o)
 .bss           0x0000000000000000        0x0 /usr/lib/gcc/avr/11.2.0/../../../../avr/lib/avr5/libc.a(sprintf.o)
 .text          0x0000000000000000        0x0 /usr/lib/gcc/avr/11.2.0/../../../../avr/lib/avr5/libc.a(vfprintf_std.o)
 .data          0x0000000000000000        0x0 /usr/lib/gcc/avr/11.2.0/../../../../avr/lib/avr5/libc.a(vfprintf_std.o)
 .bss           0x0000000000000000        0x0 /usr/lib/gcc/avr/11.2.0/../../../../avr/lib/avr5/libc.a(vfprintf_std.o)
 .text          0x0000000000000000        0x0 /usr/lib/gcc/avr/11.2.0/../../../../avr/lib/avr5/libc.a(strnlen_P.o)
 .data          0x0000000000000000        0x0 /usr/lib/gcc/avr/11.2.0/../../../../avr/lib/avr5/libc.a(strnlen_P.o)
 .bss           0x0000000000000000        0x0 /usr/lib/gcc/avr/11.2.0/../../../../avr/lib/avr5/libc.a(strnlen_P.o)
 .text          0x0000000000000000        0x0 /usr/lib/gcc/avr/11.2.0/../../../../avr/lib/avr5/libc.a(memcpy.o)
 .data          0x0000000000000000        0x0 /usr/lib/gcc/avr/11.2.0/../../../../avr/lib/avr5/libc.a(memcpy.o)
 .bss           0x0000000000000000        0x0 /usr/lib/gcc/avr/11.2.0/../../../../avr/lib/avr5/libc.a(memcpy.o)
 .text.avr-libc
                0x0000000000000000       0x12 /usr/lib/gcc/avr/11.2.0/../../../../avr/lib/avr5/libc.a(memcpy.o)
 .text          0x0000000000000000        0x0 /usr/lib/gcc/avr/11.2.0/../../../../avr/lib/avr5/libc.a(strnlen.o)
 .data          0x0000000000000000        0x0 /usr/lib/gcc/avr/11.2.0/../../../../avr/lib/avr5/libc.a(strnlen.o)
 .bss           0x0000000000000000        0x0 /usr/lib/gcc/avr/11.2.0/../../../../avr/lib/avr5/libc.a(strnlen.o)
 .text          0x0000000000000000        0x0 /usr/lib/gcc/avr/11.2.0/../../../../avr/lib/avr5/libc.a(fputc.o)
 .data          0x0000000000000000        0x0 /usr/lib/gcc/avr/11.2.0/../../../../avr/lib/avr5/libc.a(fputc.o)
 .bss           0x0000000000000000        0x0 /usr/lib/gcc/avr/11.2.0/../../../../avr/lib/avr5/libc.a(fputc.o)
 .text          0x0000000000000000        0x0 /usr/lib/gcc/avr/11.2.0/../../../../avr/lib/avr5/libc.a(ultoa_invert.o)
 .data          0x0000000000000000        0x0 /usr/lib/gcc/avr/11.2.0/../../../../avr/lib/avr5/libc.a(ultoa_invert.o)
 .bss           0x0000000000000000        0x0 /usr/lib/gcc/avr/11.2.0/../../../../avr/lib/avr5/libc.a(ultoa_invert.o)
 .text          0x0000000000000000        0x0 /usr/lib/gcc/avr/11.2.0/../../../../avr/lib/avr5/libatmega32u4.a(eerd_byte.o)
 .data          0x0000000000000000        0x0 /usr/lib/gcc/avr/11.2.0/../../../../avr/lib/avr5/libatmega32u4.a(eerd_byte.o)
 .bss           0x0000000000000000        0x0 /usr/lib/gcc/avr/11.2.0/../../../../avr/lib/avr5/libatmega32u4.a(eerd_byte.o)
 .text          0x0000000000000000        0x0 /usr/lib/gcc/avr/11.2.0/../../../../avr/lib/avr5/libatmega32u4.a(eerd_dword.o)
 .data          0x0000000000000000        0x0 /usr/lib/gcc/avr/11.2.0/../../../../avr/lib/avr5/libatmega32u4.a(eerd_dword.o)
 .bss           0x0000000000000000        0x0 /usr/lib/gcc/avr/11.2.0/../../../../avr/lib/avr5/libatmega32u4.a(eerd_dword.o)
 .text          0x0000000000000000        0x0 /usr/lib/gcc/avr/11.2.0/../../../../avr/lib/avr5/libatmega32u4.a(eerd_word.o)
 .data          0x0000000000000000        0x0 /usr/lib/gcc/avr/11.2.0/../../../../avr/lib/avr5/libatmega32u4.a(eerd_word.o)
 .bss           0x0000000000000000        0x0 /usr/lib/gcc/avr/11.2.0/../../../../avr/lib/avr5/libatmega32u4.a(eerd_word.o)
 .text          0x0000000000000000        0x0 /usr/lib/gcc/avr/11.2.0/../../../../avr/lib/avr5/libatmega32u4.a(eeupd_byte.o)
 .data          0x0000000000000000        0x0 /usr/lib/gcc/avr/11.2.0/../../../../avr/lib/avr5/libatmega32u4.a(eeupd_byte.o)
 .bss           0x0000000000000000        0x0 /usr/lib/gcc/avr/11.2.0/../../../../avr/lib/avr5/libatmega32u4.a(eeupd_byte.o)
 .text          0x0000000000000000        0x0 /usr/lib/gcc/avr/11.2.0/../../../../avr/lib/avr5/libatmega32u4.a(eeupd_dword.o)
 .data          0x0000000000000000        0x0 /usr/lib/gcc/avr/11.2.0/../../../../avr/lib/avr5/libatmega32u4.a(eeupd_dword.o)
 .bss           0x0000000000000000        0x0 /usr/lib/gcc/avr/11.2.0/../../../../avr/lib/avr5/libatmega32u4.a(eeupd_dword.o)
 .text          0x0000000000000000        0x0 /usr/lib/gcc/avr/11.2.0/../../../../avr/lib/avr5/libatmega32u4.a(eeupd_word.o)
 .data          0x0000000000000000        0x0 /usr/lib/gcc/avr/11.2.0/../../../../avr/lib/avr5/libatmega32u4.a(eeupd_word.o)
 .bss           0x0000000000000000        0x0 /usr/lib/gcc/avr/11.2.0/../../../../avr/lib/avr5/libatmega32u4.a(eeupd_word.o)
 .text          0x0000000000000000        0x0 /usr/lib/gcc/avr/11.2.0/../../../../avr/lib/avr5/libatmega32u4.a(eerd_block.o)
 .data          0x0000000000000000        0x0 /usr/lib/gcc/avr/11.2.0/../../../../avr/lib/avr5/libatmega32u4.a(eerd_block.o)
 .bss           0x0000000000000000        0x0 /usr/lib/gcc/avr/11.2.0/../../../../avr/lib/avr5/libatmega32u4.a(eerd_block.o)
 .text          0x0000000000000000        0x0 /usr/lib/gcc/avr/11.2.0/avr5/libgcc.a(_prologue.o)
 .data          0x0000000000000000        0x0 /usr/lib/gcc/avr/11.2.0/avr5/libgcc.a(_prologue.o)
 .bss           0x0000000000000000        0x0 /usr/lib/gcc/avr/11.2.0/avr5/libgcc.a(_prologue.o)
 .text.libgcc.mul
                0x0000000000000000        0x0 /usr/lib/gcc/avr/11.2.0/avr5/libgcc.a(_prologue.o)
 .text.libgcc.div
                0x0000000000000000        0x0 /usr/lib/gcc/avr/11.2.0/avr5/libgcc.a(_prologue.o)
 .text.libgcc   0x0000000000000000        0x0 /usr/lib/gcc/avr/11.2.0/avr5/libgcc.a(_prologue.o)
 .text.libgcc.builtins
                0x0000000000000000        0x0 /usr/lib/gcc/avr/11.2.0/avr5/libgcc.a(_prologue.o)
 .text.libgcc.fmul
                0x0000000000000000        0x0 /usr/lib/gcc/avr/11.2.0/avr5/libgcc.a(_prologue.o)
 .text.libgcc.fixed
                0x0000000000000000        0x0 /usr/lib/gcc/avr/11.2.0/avr5/libgcc.a(_prologue.o)
 .text          0x0000000000000000        0x0 /usr/lib/gcc/avr/11.2.0/avr5/libgcc.a(_epilogue.o)
 .data          0x0000000000000000        0x0 /usr/lib/gcc/avr/11.2.0/avr5/libgcc.a(_epilogue.o)
 .bss           0x0000000000000000        0x0 /usr/lib/gcc/avr/11.2.0/avr5/libgcc.a(_epilogue.o)
 .text.libgcc.mul
                0x0000000000000000        0x0 /usr/lib/gcc/avr/11.2.0/avr5/libgcc.a(_epilogue.o)
 .text.libgcc.div
                0x0000000000000000        0x0 /usr/lib/gcc/avr/11.2.0/avr5/libgcc.a(_epilogue.o)
 .text.libgcc   0x0000000000000000        0x0 /usr/lib/gcc/avr/11.2.0/avr5/libgcc.a(_epilogue.o)
 .text.libgcc.builtins
                0x0000000000000000        0x0 /usr/lib/gcc/avr/11.2.0/avr5/libgcc.a(_epilogue.o)
 .text.libgcc.fmul
                0x0000000000000000        0x0 /usr/lib/gcc/avr/11.2.0/avr5/libgcc.a(_epilogue.o)
 .text.libgcc.fixed
                0x0000000000000000        0x0 /usr/lib/gcc/avr/11.2.0/avr5/libgcc.a(_epilogue.o)

Memory Configuration

Name             Origin             Length             Attributes
text             0x0000000000000000 0x0000000000020000 xr
data             0x0000000000800060 0x000000000000ffa0 rw !x
eeprom           0x0000000000810000 0x0000000000010000 rw !x
fuse             0x0000000000820000 0x0000000000000400 rw !x
lock             0x0000000000830000 0x0000000000000400 rw !x
signature        0x0000000000840000 0x0000000000000400 rw !x
user_signatures  0x0000000000850000 0x0000000000000400 rw !x
*default*        0x0000000000000000 0xffffffffffffffff

Linker script and memory map

Address of section .data set to 0x800100
LOAD /usr/lib/gcc/avr/11.2.0/../../../../avr/lib/avr5/crtatmega32u4.o
LOAD .build/obj_3key_LohseBoi/keyboards/3key/3key.o
LOAD .build/obj_3key_LohseBoi/keyboards/3key/keymaps/LohseBoi/keymap.o
LOAD .build/obj_3key_LohseBoi/quantum/quantum.o
LOAD .build/obj_3key_LohseBoi/quantum/send_string.o
LOAD .build/obj_3key_LohseBoi/quantum/bitwise.o
LOAD .build/obj_3key_LohseBoi/quantum/led.o
LOAD .build/obj_3key_LohseBoi/quantum/action.o
LOAD .build/obj_3key_LohseBoi/quantum/action_layer.o
LOAD .build/obj_3key_LohseBoi/quantum/action_macro.o
LOAD .build/obj_3key_LohseBoi/quantum/action_tapping.o
LOAD .build/obj_3key_LohseBoi/quantum/action_util.o
LOAD .build/obj_3key_LohseBoi/quantum/eeconfig.o
LOAD .build/obj_3key_LohseBoi/quantum/keyboard.o
LOAD .build/obj_3key_LohseBoi/quantum/keymap_common.o
LOAD .build/obj_3key_LohseBoi/quantum/keycode_config.o
LOAD .build/obj_3key_LohseBoi/quantum/logging/debug.o
LOAD .build/obj_3key_LohseBoi/quantum/logging/sendchar.o
LOAD .build/obj_3key_LohseBoi/quantum/bootmagic/bootmagic_lite.o
LOAD .build/obj_3key_LohseBoi/quantum/bootmagic/magic.o
LOAD .build/obj_3key_LohseBoi/quantum/matrix_common.o
LOAD .build/obj_3key_LohseBoi/quantum/matrix.o
LOAD .build/obj_3key_LohseBoi/quantum/debounce/sym_defer_g.o
LOAD .build/obj_3key_LohseBoi/quantum/main.o
LOAD .build/obj_3key_LohseBoi/quantum/mousekey.o
LOAD .build/obj_3key_LohseBoi/quantum/color.o
LOAD .build/obj_3key_LohseBoi/quantum/rgblight/rgblight.o
LOAD .build/obj_3key_LohseBoi/quantum/process_keycode/process_rgb.o
LOAD .build/obj_3key_LohseBoi/quantum/backlight/backlight.o
LOAD .build/obj_3key_LohseBoi/quantum/process_keycode/process_backlight.o
LOAD .build/obj_3key_LohseBoi/quantum/backlight/backlight_driver_common.o
LOAD .build/obj_3key_LohseBoi/quantum/backlight/backlight_avr.o
LOAD .build/obj_3key_LohseBoi/ws2812.o
LOAD .build/obj_3key_LohseBoi/quantum/led_tables.o
LOAD .build/obj_3key_LohseBoi/quantum/process_keycode/process_space_cadet.o
LOAD .build/obj_3key_LohseBoi/quantum/process_keycode/process_magic.o
LOAD .build/obj_3key_LohseBoi/quantum/process_keycode/process_grave_esc.o
LOAD .build/obj_3key_LohseBoi/common/host.o
LOAD .build/obj_3key_LohseBoi/common/report.o
LOAD .build/obj_3key_LohseBoi/common/sync_timer.o
LOAD .build/obj_3key_LohseBoi/common/usb_util.o
LOAD .build/obj_3key_LohseBoi/common/avr/platform.o
LOAD .build/obj_3key_LohseBoi/common/avr/suspend.o
LOAD .build/obj_3key_LohseBoi/common/avr/timer.o
LOAD .build/obj_3key_LohseBoi/common/avr/bootloader.o
LOAD .build/obj_3key_LohseBoi/common/avr/xprintf.o
LOAD .build/obj_3key_LohseBoi/common/avr/printf.o
LOAD .build/obj_3key_LohseBoi/lufa.o
LOAD .build/obj_3key_LohseBoi/usb_descriptor.o
LOAD .build/obj_3key_LohseBoi/lib/lufa/LUFA/Drivers/USB/Class/Common/HIDParser.o
LOAD .build/obj_3key_LohseBoi/lib/lufa/LUFA/Drivers/USB/Core/AVR8/Device_AVR8.o
LOAD .build/obj_3key_LohseBoi/lib/lufa/LUFA/Drivers/USB/Core/AVR8/EndpointStream_AVR8.o
LOAD .build/obj_3key_LohseBoi/lib/lufa/LUFA/Drivers/USB/Core/AVR8/Endpoint_AVR8.o
LOAD .build/obj_3key_LohseBoi/lib/lufa/LUFA/Drivers/USB/Core/AVR8/Host_AVR8.o
LOAD .build/obj_3key_LohseBoi/lib/lufa/LUFA/Drivers/USB/Core/AVR8/PipeStream_AVR8.o
LOAD .build/obj_3key_LohseBoi/lib/lufa/LUFA/Drivers/USB/Core/AVR8/Pipe_AVR8.o
LOAD .build/obj_3key_LohseBoi/lib/lufa/LUFA/Drivers/USB/Core/AVR8/USBController_AVR8.o
LOAD .build/obj_3key_LohseBoi/lib/lufa/LUFA/Drivers/USB/Core/AVR8/USBInterrupt_AVR8.o
LOAD .build/obj_3key_LohseBoi/lib/lufa/LUFA/Drivers/USB/Core/ConfigDescriptors.o
LOAD .build/obj_3key_LohseBoi/lib/lufa/LUFA/Drivers/USB/Core/DeviceStandardReq.o
LOAD .build/obj_3key_LohseBoi/lib/lufa/LUFA/Drivers/USB/Core/Events.o
LOAD .build/obj_3key_LohseBoi/lib/lufa/LUFA/Drivers/USB/Core/HostStandardReq.o
LOAD .build/obj_3key_LohseBoi/lib/lufa/LUFA/Drivers/USB/Core/USBTask.o
LOAD .build/obj_3key_LohseBoi/protocol/lufa/usb_util.o
LOAD /usr/lib/gcc/avr/11.2.0/../../../../avr/lib/avr5/libm.a
START GROUP
LOAD /usr/lib/gcc/avr/11.2.0/avr5/libgcc.a
LOAD /usr/lib/gcc/avr/11.2.0/../../../../avr/lib/avr5/libm.a
LOAD /usr/lib/gcc/avr/11.2.0/../../../../avr/lib/avr5/libc.a
LOAD /usr/lib/gcc/avr/11.2.0/../../../../avr/lib/avr5/libatmega32u4.a
END GROUP
                0x0000000000020000                __TEXT_REGION_LENGTH__ = DEFINED (__TEXT_REGION_LENGTH__)?__TEXT_REGION_LENGTH__:0x20000
                0x000000000000ffa0                __DATA_REGION_LENGTH__ = DEFINED (__DATA_REGION_LENGTH__)?__DATA_REGION_LENGTH__:0xffa0
                0x0000000000010000                __EEPROM_REGION_LENGTH__ = DEFINED (__EEPROM_REGION_LENGTH__)?__EEPROM_REGION_LENGTH__:0x10000
                0x0000000000000400                __FUSE_REGION_LENGTH__ = DEFINED (__FUSE_REGION_LENGTH__)?__FUSE_REGION_LENGTH__:0x400
                0x0000000000000400                __LOCK_REGION_LENGTH__ = DEFINED (__LOCK_REGION_LENGTH__)?__LOCK_REGION_LENGTH__:0x400
                0x0000000000000400                __SIGNATURE_REGION_LENGTH__ = DEFINED (__SIGNATURE_REGION_LENGTH__)?__SIGNATURE_REGION_LENGTH__:0x400
                0x0000000000000400                __USER_SIGNATURE_REGION_LENGTH__ = DEFINED (__USER_SIGNATURE_REGION_LENGTH__)?__USER_SIGNATURE_REGION_LENGTH__:0x400

.hash
 *(.hash)

.dynsym
 *(.dynsym)

.dynstr
 *(.dynstr)

.gnu.version
 *(.gnu.version)

.gnu.version_d
 *(.gnu.version_d)

.gnu.version_r
 *(.gnu.version_r)

.rel.init
 *(.rel.init)

.rela.init
 *(.rela.init)

.rel.text
 *(.rel.text)
 *(.rel.text.*)
 *(.rel.gnu.linkonce.t*)

.rela.text
 *(.rela.text)
 *(.rela.text.*)
 *(.rela.gnu.linkonce.t*)

.rel.fini
 *(.rel.fini)

.rela.fini
 *(.rela.fini)

.rel.rodata
 *(.rel.rodata)
 *(.rel.rodata.*)
 *(.rel.gnu.linkonce.r*)

.rela.rodata
 *(.rela.rodata)
 *(.rela.rodata.*)
 *(.rela.gnu.linkonce.r*)

.rel.data
 *(.rel.data)
 *(.rel.data.*)
 *(.rel.gnu.linkonce.d*)

.rela.data
 *(.rela.data)
 *(.rela.data.*)
 *(.rela.gnu.linkonce.d*)

.rel.ctors
 *(.rel.ctors)

.rela.ctors
 *(.rela.ctors)

.rel.dtors
 *(.rel.dtors)

.rela.dtors
 *(.rela.dtors)

.rel.got
 *(.rel.got)

.rela.got
 *(.rela.got)

.rel.bss
 *(.rel.bss)

.rela.bss
 *(.rela.bss)

.rel.plt
 *(.rel.plt)

.rela.plt
 *(.rela.plt)

.text           0x0000000000000000     0x5fd6
 *(.vectors)
 .vectors       0x0000000000000000       0xac /usr/lib/gcc/avr/11.2.0/../../../../avr/lib/avr5/crtatmega32u4.o
                0x0000000000000000                __vectors
                0x0000000000000000                __vector_default
 *(.vectors)
 *(.progmem.gcc*)
                0x00000000000000ac                . = ALIGN (0x2)
                0x00000000000000ac                __trampolines_start = .
 *(.trampolines)
 .trampolines   0x00000000000000ac        0x0 linker stubs
 *(.trampolines*)
                0x00000000000000ac                __trampolines_end = .
 *libprintf_flt.a:*(.progmem.data)
 *libc.a:*(.progmem.data)
 *(.progmem.*)
 .progmem.data.keymaps
                0x00000000000000ac        0x6 .build/obj_3key_LohseBoi/keyboards/3key/keymaps/LohseBoi/keymap.o
                0x00000000000000ac                keymaps
 .progmem.data.ascii_to_keycode_lut
                0x00000000000000b2       0x80 .build/obj_3key_LohseBoi/quantum/send_string.o
                0x00000000000000b2                ascii_to_keycode_lut
 .progmem.data.ascii_to_dead_lut
                0x0000000000000132       0x10 .build/obj_3key_LohseBoi/quantum/send_string.o
                0x0000000000000132                ascii_to_dead_lut
 .progmem.data.ascii_to_altgr_lut
                0x0000000000000142       0x10 .build/obj_3key_LohseBoi/quantum/send_string.o
                0x0000000000000142                ascii_to_altgr_lut
 .progmem.data.ascii_to_shift_lut
                0x0000000000000152       0x10 .build/obj_3key_LohseBoi/quantum/send_string.o
                0x0000000000000152                ascii_to_shift_lut
 .progmem.data.fn_actions
                0x0000000000000162        0x0 .build/obj_3key_LohseBoi/quantum/keymap_common.o
                0x0000000000000162                fn_actions
 .progmem.data.RGBLED_RGBTEST_INTERVALS
                0x0000000000000162        0x2 .build/obj_3key_LohseBoi/quantum/rgblight/rgblight.o
                0x0000000000000162                RGBLED_RGBTEST_INTERVALS
 .progmem.data.RGBLED_KNIGHT_INTERVALS
                0x0000000000000164        0x3 .build/obj_3key_LohseBoi/quantum/rgblight/rgblight.o
                0x0000000000000164                RGBLED_KNIGHT_INTERVALS
 .progmem.data.RGBLED_SNAKE_INTERVALS
                0x0000000000000167        0x3 .build/obj_3key_LohseBoi/quantum/rgblight/rgblight.o
                0x0000000000000167                RGBLED_SNAKE_INTERVALS
 .progmem.data.RGBLED_RAINBOW_SWIRL_INTERVALS
                0x000000000000016a        0x3 .build/obj_3key_LohseBoi/quantum/rgblight/rgblight.o
                0x000000000000016a                RGBLED_RAINBOW_SWIRL_INTERVALS
 .progmem.data.RGBLED_RAINBOW_MOOD_INTERVALS
                0x000000000000016d        0x3 .build/obj_3key_LohseBoi/quantum/rgblight/rgblight.o
                0x000000000000016d                RGBLED_RAINBOW_MOOD_INTERVALS
 .progmem.data.RGBLED_BREATHING_INTERVALS
                0x0000000000000170        0x4 .build/obj_3key_LohseBoi/quantum/rgblight/rgblight.o
                0x0000000000000170                RGBLED_BREATHING_INTERVALS
 .progmem.data.rgblight_effect_breathe_table
                0x0000000000000174      0x100 .build/obj_3key_LohseBoi/quantum/rgblight/rgblight.o
                0x0000000000000174                rgblight_effect_breathe_table
 .progmem.data.RGBLED_GRADIENT_RANGES
                0x0000000000000274        0x5 .build/obj_3key_LohseBoi/quantum/rgblight/rgblight.o
                0x0000000000000274                RGBLED_GRADIENT_RANGES
 .progmem.data.CIE1931_CURVE
                0x0000000000000279      0x100 .build/obj_3key_LohseBoi/quantum/led_tables.o
                0x0000000000000279                CIE1931_CURVE
 .progmem.data.ProductString
                0x0000000000000379       0x14 .build/obj_3key_LohseBoi/usb_descriptor.o
                0x0000000000000379                ProductString
 .progmem.data.ManufacturerString
                0x000000000000038d       0x18 .build/obj_3key_LohseBoi/usb_descriptor.o
                0x000000000000038d                ManufacturerString
 .progmem.data.LanguageString
                0x00000000000003a5        0x4 .build/obj_3key_LohseBoi/usb_descriptor.o
                0x00000000000003a5                LanguageString
 .progmem.data.ConfigurationDescriptor
                0x00000000000003a9       0x3b .build/obj_3key_LohseBoi/usb_descriptor.o
                0x00000000000003a9                ConfigurationDescriptor
 .progmem.data.DeviceDescriptor
                0x00000000000003e4       0x12 .build/obj_3key_LohseBoi/usb_descriptor.o
                0x00000000000003e4                DeviceDescriptor
 .progmem.data.SharedReport
                0x00000000000003f6       0xb6 .build/obj_3key_LohseBoi/usb_descriptor.o
                0x00000000000003f6                SharedReport
 .progmem.data.KeyboardReport
                0x00000000000004ac       0x40 .build/obj_3key_LohseBoi/usb_descriptor.o
                0x00000000000004ac                KeyboardReport
                0x00000000000004ec                . = ALIGN (0x2)
 *(.lowtext)
 *(.lowtext*)
                0x00000000000004ec                __ctors_start = .
 *(.ctors)
                0x00000000000004ec                __ctors_end = .
                0x00000000000004ec                __dtors_start = .
 *(.dtors)
                0x00000000000004ec                __dtors_end = .
 SORT_BY_NAME(*)(.ctors)
 SORT_BY_NAME(*)(.dtors)
 *(.init0)
 .init0         0x00000000000004ec        0x0 /usr/lib/gcc/avr/11.2.0/../../../../avr/lib/avr5/crtatmega32u4.o
                0x00000000000004ec                __init
 *(.init0)
 *(.init1)
 *(.init1)
 *(.init2)
 .init2         0x00000000000004ec        0xc /usr/lib/gcc/avr/11.2.0/../../../../avr/lib/avr5/crtatmega32u4.o
 *(.init2)
 *(.init3)
 .init3         0x00000000000004f8       0x54 .build/obj_3key_LohseBoi/common/avr/bootloader.o
                0x00000000000004f8                bootloader_jump_after_watchdog_reset
 *(.init3)
 *(.init4)
 .init4         0x000000000000054c       0x16 /usr/lib/gcc/avr/11.2.0/avr5/libgcc.a(_copy_data.o)
                0x000000000000054c                __do_copy_data
 .init4         0x0000000000000562       0x10 /usr/lib/gcc/avr/11.2.0/avr5/libgcc.a(_clear_bss.o)
                0x0000000000000562                __do_clear_bss
 *(.init4)
 *(.init5)
 *(.init5)
 *(.init6)
 *(.init6)
 *(.init7)
 *(.init7)
 *(.init8)
 *(.init8)
 *(.init9)
 .init9         0x0000000000000572        0x8 /usr/lib/gcc/avr/11.2.0/../../../../avr/lib/avr5/crtatmega32u4.o
 *(.init9)
 *(.text)
 .text          0x000000000000057a        0x4 /usr/lib/gcc/avr/11.2.0/../../../../avr/lib/avr5/crtatmega32u4.o
                0x000000000000057a                __vector_38
                0x000000000000057a                __vector_22
                0x000000000000057a                __vector_28
                0x000000000000057a                __vector_1
                0x000000000000057a                __vector_32
                0x000000000000057a                __vector_34
                0x000000000000057a                __vector_24
                0x000000000000057a                __bad_interrupt
                0x000000000000057a                __vector_6
                0x000000000000057a                __vector_31
                0x000000000000057a                __vector_35
                0x000000000000057a                __vector_39
                0x000000000000057a                __vector_3
                0x000000000000057a                __vector_23
                0x000000000000057a                __vector_30
                0x000000000000057a                __vector_25
                0x000000000000057a                __vector_13
                0x000000000000057a                __vector_17
                0x000000000000057a                __vector_19
                0x000000000000057a                __vector_7
                0x000000000000057a                __vector_41
                0x000000000000057a                __vector_27
                0x000000000000057a                __vector_5
                0x000000000000057a                __vector_33
                0x000000000000057a                __vector_37
                0x000000000000057a                __vector_4
                0x000000000000057a                __vector_9
                0x000000000000057a                __vector_2
                0x000000000000057a                __vector_15
                0x000000000000057a                __vector_36
                0x000000000000057a                __vector_29
                0x000000000000057a                __vector_40
                0x000000000000057a                __vector_8
                0x000000000000057a                __vector_26
                0x000000000000057a                __vector_14
                0x000000000000057a                __vector_16
                0x000000000000057a                __vector_18
                0x000000000000057a                __vector_20
                0x000000000000057a                __vector_42
                0x000000000000057e                . = ALIGN (0x2)
 *(.text.*)
 .text.action_get_macro
                0x000000000000057e        0x6 .build/obj_3key_LohseBoi/keyboards/3key/keymaps/LohseBoi/keymap.o
                0x000000000000057e                action_get_macro
 .text.matrix_init_user
                0x0000000000000584        0x2 .build/obj_3key_LohseBoi/keyboards/3key/keymaps/LohseBoi/keymap.o
                0x0000000000000584                matrix_init_user
 .text.matrix_scan_user
                0x0000000000000586        0x2 .build/obj_3key_LohseBoi/keyboards/3key/keymaps/LohseBoi/keymap.o
                0x0000000000000586                matrix_scan_user
 .text.process_record_user
                0x0000000000000588      0x130 .build/obj_3key_LohseBoi/keyboards/3key/keymaps/LohseBoi/keymap.o
                0x0000000000000588                process_record_user
 .text.process_action_kb
                0x00000000000006b8        0x4 .build/obj_3key_LohseBoi/quantum/quantum.o
                0x00000000000006b8                process_action_kb
 .text.process_record_kb
                0x00000000000006bc        0x4 .build/obj_3key_LohseBoi/quantum/quantum.o
                0x00000000000006bc                process_record_kb
 .text.post_process_record_user
                0x00000000000006c0        0x2 .build/obj_3key_LohseBoi/quantum/quantum.o
                0x00000000000006c0                post_process_record_user
 .text.post_process_record_kb
                0x00000000000006c2        0x4 .build/obj_3key_LohseBoi/quantum/quantum.o
                0x00000000000006c2                post_process_record_kb
 .text.get_event_keycode
                0x00000000000006c6       0x66 .build/obj_3key_LohseBoi/quantum/quantum.o
                0x00000000000006c6                get_event_keycode
 .text.get_record_keycode
                0x000000000000072c       0x12 .build/obj_3key_LohseBoi/quantum/quantum.o
                0x000000000000072c                get_record_keycode
 .text.pre_process_record_quantum
                0x000000000000073e        0x4 .build/obj_3key_LohseBoi/quantum/quantum.o
                0x000000000000073e                pre_process_record_quantum
 .text.post_process_record_quantum
                0x0000000000000742       0x1a .build/obj_3key_LohseBoi/quantum/quantum.o
                0x0000000000000742                post_process_record_quantum
 .text.matrix_init_quantum
                0x000000000000075c       0x10 .build/obj_3key_LohseBoi/quantum/quantum.o
                0x000000000000075c                matrix_init_quantum
 .text.matrix_scan_quantum
                0x000000000000076c        0x4 .build/obj_3key_LohseBoi/quantum/quantum.o
                0x000000000000076c                matrix_scan_quantum
 .text.shutdown_user
                0x0000000000000770        0x2 .build/obj_3key_LohseBoi/quantum/quantum.o
                0x0000000000000770                shutdown_user
 .text.reset_keyboard
                0x0000000000000772       0x1e .build/obj_3key_LohseBoi/quantum/quantum.o
                0x0000000000000772                reset_keyboard
 .text.process_record_quantum
                0x0000000000000790       0xbe .build/obj_3key_LohseBoi/quantum/quantum.o
                0x0000000000000790                process_record_quantum
 .text.send_char
                0x000000000000084e       0xcc .build/obj_3key_LohseBoi/quantum/send_string.o
                0x000000000000084e                send_char
 .text.send_string_with_delay
                0x000000000000091a       0xd4 .build/obj_3key_LohseBoi/quantum/send_string.o
                0x000000000000091a                send_string_with_delay
 .text.send_string
                0x00000000000009ee        0x6 .build/obj_3key_LohseBoi/quantum/send_string.o
                0x00000000000009ee                send_string
 .text.led_set_user
                0x00000000000009f4        0x2 .build/obj_3key_LohseBoi/quantum/led.o
                0x00000000000009f4                led_set_user
 .text.led_set_kb
                0x00000000000009f6        0x4 .build/obj_3key_LohseBoi/quantum/led.o
                0x00000000000009f6                led_set_kb
 .text.led_update_user
                0x00000000000009fa        0x4 .build/obj_3key_LohseBoi/quantum/led.o
                0x00000000000009fa                led_update_user
 .text.led_update_kb
                0x00000000000009fe        0x4 .build/obj_3key_LohseBoi/quantum/led.o
                0x00000000000009fe                led_update_kb
 .text.led_init_ports
                0x0000000000000a02        0x2 .build/obj_3key_LohseBoi/quantum/led.o
                0x0000000000000a02                led_init_ports
 .text.led_set  0x0000000000000a04       0x10 .build/obj_3key_LohseBoi/quantum/led.o
                0x0000000000000a04                led_set
 .text.action_exec
                0x0000000000000a14       0x8a .build/obj_3key_LohseBoi/quantum/action.o
                0x0000000000000a14                action_exec
 .text.process_record_tap_hint
                0x0000000000000a9e        0xa .build/obj_3key_LohseBoi/quantum/action.o
                0x0000000000000a9e                process_record_tap_hint
 .text.register_code
                0x0000000000000aa8      0x122 .build/obj_3key_LohseBoi/quantum/action.o
                0x0000000000000aa8                register_code
 .text.unregister_code
                0x0000000000000bca       0xac .build/obj_3key_LohseBoi/quantum/action.o
                0x0000000000000bca                unregister_code
 .text.tap_code_delay
                0x0000000000000c76       0x2e .build/obj_3key_LohseBoi/quantum/action.o
                0x0000000000000c76                tap_code_delay
 .text.tap_code
                0x0000000000000ca4       0x10 .build/obj_3key_LohseBoi/quantum/action.o
                0x0000000000000ca4                tap_code
 .text.register_mods
                0x0000000000000cb4        0xe .build/obj_3key_LohseBoi/quantum/action.o
                0x0000000000000cb4                register_mods
 .text.unregister_mods
                0x0000000000000cc2        0xe .build/obj_3key_LohseBoi/quantum/action.o
                0x0000000000000cc2                unregister_mods
 .text.process_action
                0x0000000000000cd0      0x4ac .build/obj_3key_LohseBoi/quantum/action.o
                0x0000000000000cd0                process_action
 .text.process_record_handler
                0x000000000000117c       0x2e .build/obj_3key_LohseBoi/quantum/action.o
                0x000000000000117c                process_record_handler
 .text.process_record
                0x00000000000011aa       0x50 .build/obj_3key_LohseBoi/quantum/action.o
                0x00000000000011aa                process_record
 .text.clear_keyboard_but_mods_and_keys
                0x00000000000011fa       0x24 .build/obj_3key_LohseBoi/quantum/action.o
                0x00000000000011fa                clear_keyboard_but_mods_and_keys
 .text.clear_keyboard_but_mods
                0x000000000000121e        0x8 .build/obj_3key_LohseBoi/quantum/action.o
                0x000000000000121e                clear_keyboard_but_mods
 .text.clear_keyboard
                0x0000000000001226        0x8 .build/obj_3key_LohseBoi/quantum/action.o
                0x0000000000001226                clear_keyboard
 .text.is_tap_action
                0x000000000000122e       0x52 .build/obj_3key_LohseBoi/quantum/action.o
                0x000000000000122e                is_tap_action
 .text.is_tap_record
                0x0000000000001280        0xe .build/obj_3key_LohseBoi/quantum/action.o
                0x0000000000001280                is_tap_record
 .text.debug_event
                0x000000000000128e       0x1e .build/obj_3key_LohseBoi/quantum/action.o
                0x000000000000128e                debug_event
 .text.debug_record
                0x00000000000012ac       0x20 .build/obj_3key_LohseBoi/quantum/action.o
                0x00000000000012ac                debug_record
 .text.default_layer_state_set_user
                0x00000000000012cc        0x2 .build/obj_3key_LohseBoi/quantum/action_layer.o
                0x00000000000012cc                default_layer_state_set_user
 .text.default_layer_state_set_kb
                0x00000000000012ce        0x4 .build/obj_3key_LohseBoi/quantum/action_layer.o
                0x00000000000012ce                default_layer_state_set_kb
 .text.default_layer_state_set
                0x00000000000012d2       0x18 .build/obj_3key_LohseBoi/quantum/action_layer.o
 .text.default_layer_debug
                0x00000000000012ea        0x2 .build/obj_3key_LohseBoi/quantum/action_layer.o
                0x00000000000012ea                default_layer_debug
 .text.default_layer_set
                0x00000000000012ec        0x4 .build/obj_3key_LohseBoi/quantum/action_layer.o
                0x00000000000012ec                default_layer_set
 .text.default_layer_or
                0x00000000000012f0       0x50 .build/obj_3key_LohseBoi/quantum/action_layer.o
                0x00000000000012f0                default_layer_or
 .text.default_layer_and
                0x0000000000001340       0x50 .build/obj_3key_LohseBoi/quantum/action_layer.o
                0x0000000000001340                default_layer_and
 .text.default_layer_xor
                0x0000000000001390       0x50 .build/obj_3key_LohseBoi/quantum/action_layer.o
                0x0000000000001390                default_layer_xor
 .text.layer_state_set_user
                0x00000000000013e0        0x4 .build/obj_3key_LohseBoi/quantum/action_layer.o
                0x00000000000013e0                layer_state_set_user
 .text.layer_state_set_kb
                0x00000000000013e4        0x4 .build/obj_3key_LohseBoi/quantum/action_layer.o
                0x00000000000013e4                layer_state_set_kb
 .text.layer_state_set
                0x00000000000013e8       0x18 .build/obj_3key_LohseBoi/quantum/action_layer.o
                0x00000000000013e8                layer_state_set
 .text.layer_clear
                0x0000000000001400        0xa .build/obj_3key_LohseBoi/quantum/action_layer.o
                0x0000000000001400                layer_clear
 .text.layer_move
                0x000000000000140a       0x4a .build/obj_3key_LohseBoi/quantum/action_layer.o
                0x000000000000140a                layer_move
 .text.layer_on
                0x0000000000001454       0x62 .build/obj_3key_LohseBoi/quantum/action_layer.o
                0x0000000000001454                layer_on
 .text.layer_off
                0x00000000000014b6       0x6a .build/obj_3key_LohseBoi/quantum/action_layer.o
                0x00000000000014b6                layer_off
 .text.layer_invert
                0x0000000000001520       0x62 .build/obj_3key_LohseBoi/quantum/action_layer.o
                0x0000000000001520                layer_invert
 .text.layer_or
                0x0000000000001582       0x50 .build/obj_3key_LohseBoi/quantum/action_layer.o
                0x0000000000001582                layer_or
 .text.layer_and
                0x00000000000015d2       0x50 .build/obj_3key_LohseBoi/quantum/action_layer.o
                0x00000000000015d2                layer_and
 .text.layer_xor
                0x0000000000001622       0x50 .build/obj_3key_LohseBoi/quantum/action_layer.o
                0x0000000000001622                layer_xor
 .text.layer_debug
                0x0000000000001672        0x2 .build/obj_3key_LohseBoi/quantum/action_layer.o
                0x0000000000001672                layer_debug
 .text.update_source_layers_cache
                0x0000000000001674       0x5a .build/obj_3key_LohseBoi/quantum/action_layer.o
                0x0000000000001674                update_source_layers_cache
 .text.read_source_layers_cache
                0x00000000000016ce       0x50 .build/obj_3key_LohseBoi/quantum/action_layer.o
                0x00000000000016ce                read_source_layers_cache
 .text.layer_switch_get_layer
                0x000000000000171e       0x84 .build/obj_3key_LohseBoi/quantum/action_layer.o
                0x000000000000171e                layer_switch_get_layer
 .text.layer_switch_get_action
                0x00000000000017a2       0x18 .build/obj_3key_LohseBoi/quantum/action_layer.o
                0x00000000000017a2                layer_switch_get_action
 .text.store_or_get_action
                0x00000000000017ba       0x54 .build/obj_3key_LohseBoi/quantum/action_layer.o
                0x00000000000017ba                store_or_get_action
 .text.action_macro_play
                0x000000000000180e       0xfc .build/obj_3key_LohseBoi/quantum/action_macro.o
                0x000000000000180e                action_macro_play
 .text.debug_waiting_buffer
                0x000000000000190a       0x42 .build/obj_3key_LohseBoi/quantum/action_tapping.o
 .text.debug_tapping_key
                0x000000000000194c       0x1c .build/obj_3key_LohseBoi/quantum/action_tapping.o
 .text.waiting_buffer_scan_tap
                0x0000000000001968       0xac .build/obj_3key_LohseBoi/quantum/action_tapping.o
 .text.process_tapping
                0x0000000000001a14      0x31e .build/obj_3key_LohseBoi/quantum/action_tapping.o
 .text.action_tapping_process
                0x0000000000001d32      0x134 .build/obj_3key_LohseBoi/quantum/action_tapping.o
                0x0000000000001d32                action_tapping_process
 .text.add_key  0x0000000000001e66        0xe .build/obj_3key_LohseBoi/quantum/action_util.o
                0x0000000000001e66                add_key
 .text.del_key  0x0000000000001e74        0xe .build/obj_3key_LohseBoi/quantum/action_util.o
                0x0000000000001e74                del_key
 .text.clear_keys
                0x0000000000001e82        0xc .build/obj_3key_LohseBoi/quantum/action_util.o
                0x0000000000001e82                clear_keys
 .text.get_oneshot_layer
                0x0000000000001e8e        0xc .build/obj_3key_LohseBoi/quantum/action_util.o
                0x0000000000001e8e                get_oneshot_layer
 .text.get_oneshot_layer_state
                0x0000000000001e9a        0x8 .build/obj_3key_LohseBoi/quantum/action_util.o
                0x0000000000001e9a                get_oneshot_layer_state
 .text.is_oneshot_layer_active
                0x0000000000001ea2        0xe .build/obj_3key_LohseBoi/quantum/action_util.o
                0x0000000000001ea2                is_oneshot_layer_active
 .text.oneshot_set
                0x0000000000001eb0       0x24 .build/obj_3key_LohseBoi/quantum/action_util.o
                0x0000000000001eb0                oneshot_set
 .text.oneshot_toggle
                0x0000000000001ed4       0x12 .build/obj_3key_LohseBoi/quantum/action_util.o
                0x0000000000001ed4                oneshot_toggle
 .text.oneshot_enable
                0x0000000000001ee6        0x6 .build/obj_3key_LohseBoi/quantum/action_util.o
                0x0000000000001ee6                oneshot_enable
 .text.oneshot_disable
                0x0000000000001eec        0x6 .build/obj_3key_LohseBoi/quantum/action_util.o
                0x0000000000001eec                oneshot_disable
 .text.get_mods
                0x0000000000001ef2        0x6 .build/obj_3key_LohseBoi/quantum/action_util.o
                0x0000000000001ef2                get_mods
 .text.add_mods
                0x0000000000001ef8        0xc .build/obj_3key_LohseBoi/quantum/action_util.o
                0x0000000000001ef8                add_mods
 .text.del_mods
                0x0000000000001f04       0x10 .build/obj_3key_LohseBoi/quantum/action_util.o
                0x0000000000001f04                del_mods
 .text.clear_mods
                0x0000000000001f14        0x6 .build/obj_3key_LohseBoi/quantum/action_util.o
                0x0000000000001f14                clear_mods
 .text.add_weak_mods
                0x0000000000001f1a        0xc .build/obj_3key_LohseBoi/quantum/action_util.o
                0x0000000000001f1a                add_weak_mods
 .text.del_weak_mods
                0x0000000000001f26       0x10 .build/obj_3key_LohseBoi/quantum/action_util.o
                0x0000000000001f26                del_weak_mods
 .text.clear_weak_mods
                0x0000000000001f36        0x6 .build/obj_3key_LohseBoi/quantum/action_util.o
                0x0000000000001f36                clear_weak_mods
 .text.add_macro_mods
                0x0000000000001f3c        0xc .build/obj_3key_LohseBoi/quantum/action_util.o
                0x0000000000001f3c                add_macro_mods
 .text.del_macro_mods
                0x0000000000001f48       0x10 .build/obj_3key_LohseBoi/quantum/action_util.o
                0x0000000000001f48                del_macro_mods
 .text.clear_macro_mods
                0x0000000000001f58        0x6 .build/obj_3key_LohseBoi/quantum/action_util.o
                0x0000000000001f58                clear_macro_mods
 .text.get_oneshot_mods
                0x0000000000001f5e        0x6 .build/obj_3key_LohseBoi/quantum/action_util.o
                0x0000000000001f5e                get_oneshot_mods
 .text.oneshot_mods_changed_user
                0x0000000000001f64        0x2 .build/obj_3key_LohseBoi/quantum/action_util.o
                0x0000000000001f64                oneshot_mods_changed_user
 .text.oneshot_mods_changed_kb
                0x0000000000001f66        0x4 .build/obj_3key_LohseBoi/quantum/action_util.o
                0x0000000000001f66                oneshot_mods_changed_kb
 .text.set_oneshot_mods
                0x0000000000001f6a       0x1a .build/obj_3key_LohseBoi/quantum/action_util.o
                0x0000000000001f6a                set_oneshot_mods
 .text.clear_oneshot_mods
                0x0000000000001f84       0x14 .build/obj_3key_LohseBoi/quantum/action_util.o
                0x0000000000001f84                clear_oneshot_mods
 .text.send_keyboard_report
                0x0000000000001f98       0x66 .build/obj_3key_LohseBoi/quantum/action_util.o
                0x0000000000001f98                send_keyboard_report
 .text.oneshot_layer_changed_user
                0x0000000000001ffe        0x2 .build/obj_3key_LohseBoi/quantum/action_util.o
                0x0000000000001ffe                oneshot_layer_changed_user
 .text.oneshot_layer_changed_kb
                0x0000000000002000        0x4 .build/obj_3key_LohseBoi/quantum/action_util.o
                0x0000000000002000                oneshot_layer_changed_kb
 .text.set_oneshot_layer
                0x0000000000002004       0x2c .build/obj_3key_LohseBoi/quantum/action_util.o
                0x0000000000002004                set_oneshot_layer
 .text.reset_oneshot_layer
                0x0000000000002030        0xa .build/obj_3key_LohseBoi/quantum/action_util.o
                0x0000000000002030                reset_oneshot_layer
 .text.clear_oneshot_layer_state
                0x000000000000203a       0x38 .build/obj_3key_LohseBoi/quantum/action_util.o
                0x000000000000203a                clear_oneshot_layer_state
 .text.eeconfig_disable
                0x0000000000002072        0xc .build/obj_3key_LohseBoi/quantum/eeconfig.o
                0x0000000000002072                eeconfig_disable
 .text.eeconfig_is_enabled
                0x000000000000207e       0x16 .build/obj_3key_LohseBoi/quantum/eeconfig.o
                0x000000000000207e                eeconfig_is_enabled
 .text.eeconfig_read_debug
                0x0000000000002094        0x8 .build/obj_3key_LohseBoi/quantum/eeconfig.o
                0x0000000000002094                eeconfig_read_debug
 .text.eeconfig_read_default_layer
                0x000000000000209c        0x8 .build/obj_3key_LohseBoi/quantum/eeconfig.o
                0x000000000000209c                eeconfig_read_default_layer
 .text.eeconfig_read_keymap
                0x00000000000020a4       0x1c .build/obj_3key_LohseBoi/quantum/eeconfig.o
                0x00000000000020a4                eeconfig_read_keymap
 .text.eeconfig_update_keymap
                0x00000000000020c0       0x1a .build/obj_3key_LohseBoi/quantum/eeconfig.o
                0x00000000000020c0                eeconfig_update_keymap
 .text.eeconfig_update_kb
                0x00000000000020da        0xc .build/obj_3key_LohseBoi/quantum/eeconfig.o
                0x00000000000020da                eeconfig_update_kb
 .text.eeconfig_update_user
                0x00000000000020e6        0xc .build/obj_3key_LohseBoi/quantum/eeconfig.o
                0x00000000000020e6                eeconfig_update_user
 .text.eeconfig_init_user
                0x00000000000020f2        0xa .build/obj_3key_LohseBoi/quantum/eeconfig.o
                0x00000000000020f2                eeconfig_init_user
 .text.eeconfig_init_kb
                0x00000000000020fc        0xe .build/obj_3key_LohseBoi/quantum/eeconfig.o
                0x00000000000020fc                eeconfig_init_kb
 .text.eeconfig_init_quantum
                0x000000000000210a       0xbe .build/obj_3key_LohseBoi/quantum/eeconfig.o
                0x000000000000210a                eeconfig_init_quantum
 .text.eeconfig_init
                0x00000000000021c8        0x4 .build/obj_3key_LohseBoi/quantum/eeconfig.o
                0x00000000000021c8                eeconfig_init
 .text.eeconfig_update_handedness
                0x00000000000021cc        0xa .build/obj_3key_LohseBoi/quantum/eeconfig.o
                0x00000000000021cc                eeconfig_update_handedness
 .text.last_matrix_activity_trigger
                0x00000000000021d6       0x26 .build/obj_3key_LohseBoi/quantum/keyboard.o
                0x00000000000021d6                last_matrix_activity_trigger
 .text.disable_jtag
                0x00000000000021fc        0xe .build/obj_3key_LohseBoi/quantum/keyboard.o
                0x00000000000021fc                disable_jtag
 .text.keyboard_pre_init_user
                0x000000000000220a        0x2 .build/obj_3key_LohseBoi/quantum/keyboard.o
                0x000000000000220a                keyboard_pre_init_user
 .text.matrix_setup
                0x000000000000220c        0x2 .build/obj_3key_LohseBoi/quantum/keyboard.o
                0x000000000000220c                matrix_setup
 .text.keyboard_pre_init_kb
                0x000000000000220e        0x4 .build/obj_3key_LohseBoi/quantum/keyboard.o
                0x000000000000220e                keyboard_pre_init_kb
 .text.keyboard_post_init_user
                0x0000000000002212        0x2 .build/obj_3key_LohseBoi/quantum/keyboard.o
                0x0000000000002212                keyboard_post_init_user
 .text.keyboard_post_init_kb
                0x0000000000002214        0x4 .build/obj_3key_LohseBoi/quantum/keyboard.o
                0x0000000000002214                keyboard_post_init_kb
 .text.keyboard_setup
                0x0000000000002218       0x14 .build/obj_3key_LohseBoi/quantum/keyboard.o
                0x0000000000002218                keyboard_setup
 .text.is_keyboard_master
                0x000000000000222c        0x4 .build/obj_3key_LohseBoi/quantum/keyboard.o
                0x000000000000222c                is_keyboard_master
 .text.should_process_keypress
                0x0000000000002230        0x4 .build/obj_3key_LohseBoi/quantum/keyboard.o
                0x0000000000002230                should_process_keypress
 .text.housekeeping_task_kb
                0x0000000000002234        0x2 .build/obj_3key_LohseBoi/quantum/keyboard.o
                0x0000000000002234                housekeeping_task_kb
 .text.housekeeping_task_user
                0x0000000000002236        0x2 .build/obj_3key_LohseBoi/quantum/keyboard.o
                0x0000000000002236                housekeeping_task_user
 .text.housekeeping_task
                0x0000000000002238        0x8 .build/obj_3key_LohseBoi/quantum/keyboard.o
                0x0000000000002238                housekeeping_task
 .text.keyboard_init
                0x0000000000002240       0x14 .build/obj_3key_LohseBoi/quantum/keyboard.o
                0x0000000000002240                keyboard_init
 .text.keyboard_task
                0x0000000000002254      0x108 .build/obj_3key_LohseBoi/quantum/keyboard.o
                0x0000000000002254                keyboard_task
 .text.action_function
                0x000000000000235c        0x2 .build/obj_3key_LohseBoi/quantum/keymap_common.o
                0x000000000000235c                action_function
 .text.keymap_key_to_keycode
                0x000000000000235e       0x26 .build/obj_3key_LohseBoi/quantum/keymap_common.o
                0x000000000000235e                keymap_key_to_keycode
 .text.keymap_function_id_to_action
                0x0000000000002384       0x10 .build/obj_3key_LohseBoi/quantum/keymap_common.o
                0x0000000000002384                keymap_function_id_to_action
 .text.action_for_keycode
                0x0000000000002394      0x224 .build/obj_3key_LohseBoi/quantum/keymap_common.o
                0x0000000000002394                action_for_keycode
 .text.action_for_key
                0x00000000000025b8        0x8 .build/obj_3key_LohseBoi/quantum/keymap_common.o
                0x00000000000025b8                action_for_key
 .text.keycode_config
                0x00000000000025c0      0x130 .build/obj_3key_LohseBoi/quantum/keycode_config.o
                0x00000000000025c0                keycode_config
 .text.mod_config
                0x00000000000026f0       0x86 .build/obj_3key_LohseBoi/quantum/keycode_config.o
                0x00000000000026f0                mod_config
 .text.sendchar
                0x0000000000002776        0x4 .build/obj_3key_LohseBoi/quantum/logging/sendchar.o
                0x0000000000002776                sendchar
 .text.bootmagic_lite_reset_eeprom
                0x000000000000277a        0x4 .build/obj_3key_LohseBoi/quantum/bootmagic/bootmagic_lite.o
                0x000000000000277a                bootmagic_lite_reset_eeprom
 .text.bootmagic_lite
                0x000000000000277e       0x2e .build/obj_3key_LohseBoi/quantum/bootmagic/bootmagic_lite.o
                0x000000000000277e                bootmagic_lite
 .text.bootmagic
                0x00000000000027ac        0x4 .build/obj_3key_LohseBoi/quantum/bootmagic/bootmagic_lite.o
                0x00000000000027ac                bootmagic
 .text.magic    0x00000000000027b0       0x70 .build/obj_3key_LohseBoi/quantum/bootmagic/magic.o
                0x00000000000027b0                magic
 .text.matrix_init_kb
                0x0000000000002820        0x4 .build/obj_3key_LohseBoi/quantum/matrix_common.o
                0x0000000000002820                matrix_init_kb
 .text.matrix_scan_kb
                0x0000000000002824        0x4 .build/obj_3key_LohseBoi/quantum/matrix_common.o
                0x0000000000002824                matrix_scan_kb
 .text.matrix_get_row
                0x0000000000002828        0xc .build/obj_3key_LohseBoi/quantum/matrix_common.o
                0x0000000000002828                matrix_get_row
 .text.matrix_print
                0x0000000000002834        0x2 .build/obj_3key_LohseBoi/quantum/matrix_common.o
                0x0000000000002834                matrix_print
 .text.matrix_io_delay
                0x0000000000002836        0x8 .build/obj_3key_LohseBoi/quantum/matrix_common.o
                0x0000000000002836                matrix_io_delay
 .text.matrix_output_select_delay
                0x000000000000283e        0x4 .build/obj_3key_LohseBoi/quantum/matrix_common.o
                0x000000000000283e                matrix_output_select_delay
 .text.matrix_output_unselect_delay
                0x0000000000002842        0x4 .build/obj_3key_LohseBoi/quantum/matrix_common.o
                0x0000000000002842                matrix_output_unselect_delay
 .text.setPinInputHigh_atomic
                0x0000000000002846       0x32 .build/obj_3key_LohseBoi/quantum/matrix.o
 .text.matrix_init_pins
                0x0000000000002878       0x18 .build/obj_3key_LohseBoi/quantum/matrix.o
                0x0000000000002878                matrix_init_pins
 .text.matrix_read_rows_on_col
                0x0000000000002890       0xa6 .build/obj_3key_LohseBoi/quantum/matrix.o
                0x0000000000002890                matrix_read_rows_on_col
 .text.matrix_init
                0x0000000000002936       0x16 .build/obj_3key_LohseBoi/quantum/matrix.o
                0x0000000000002936                matrix_init
 .text.matrix_scan
                0x000000000000294c       0x60 .build/obj_3key_LohseBoi/quantum/matrix.o
                0x000000000000294c                matrix_scan
 .text.debounce_init
                0x00000000000029ac        0x2 .build/obj_3key_LohseBoi/quantum/debounce/sym_defer_g.o
                0x00000000000029ac                debounce_init
 .text.debounce
                0x00000000000029ae       0x6c .build/obj_3key_LohseBoi/quantum/debounce/sym_defer_g.o
                0x00000000000029ae                debounce
 .text.startup.main
                0x0000000000002a1a       0x16 .build/obj_3key_LohseBoi/quantum/main.o
                0x0000000000002a1a                main
 .text.move_unit
                0x0000000000002a30       0x94 .build/obj_3key_LohseBoi/quantum/mousekey.o
 .text.wheel_unit
                0x0000000000002ac4       0x72 .build/obj_3key_LohseBoi/quantum/mousekey.o
 .text.mousekey_on
                0x0000000000002b36       0x92 .build/obj_3key_LohseBoi/quantum/mousekey.o
                0x0000000000002b36                mousekey_on
 .text.mousekey_off
                0x0000000000002bc8       0xf2 .build/obj_3key_LohseBoi/quantum/mousekey.o
                0x0000000000002bc8                mousekey_off
 .text.mousekey_send
                0x0000000000002cba       0x34 .build/obj_3key_LohseBoi/quantum/mousekey.o
                0x0000000000002cba                mousekey_send
 .text.mousekey_task
                0x0000000000002cee      0x222 .build/obj_3key_LohseBoi/quantum/mousekey.o
                0x0000000000002cee                mousekey_task
 .text.mousekey_clear
                0x0000000000002f10       0x1c .build/obj_3key_LohseBoi/quantum/mousekey.o
                0x0000000000002f10                mousekey_clear
 .text.hsv_to_rgb_impl
                0x0000000000002f2c      0x146 .build/obj_3key_LohseBoi/quantum/color.o
                0x0000000000002f2c                hsv_to_rgb_impl
 .text.hsv_to_rgb
                0x0000000000003072        0x6 .build/obj_3key_LohseBoi/quantum/color.o
                0x0000000000003072                hsv_to_rgb
 .text.rgblight_effect_dummy
                0x0000000000003078        0x2 .build/obj_3key_LohseBoi/quantum/rgblight/rgblight.o
 .text.rgblight_hsv_to_rgb
                0x000000000000307a        0x4 .build/obj_3key_LohseBoi/quantum/rgblight/rgblight.o
                0x000000000000307a                rgblight_hsv_to_rgb
 .text.sethsv_raw
                0x000000000000307e       0x1e .build/obj_3key_LohseBoi/quantum/rgblight/rgblight.o
                0x000000000000307e                sethsv_raw
 .text.rgblight_check_config
                0x000000000000309c       0x1e .build/obj_3key_LohseBoi/quantum/rgblight/rgblight.o
                0x000000000000309c                rgblight_check_config
 .text.eeconfig_read_rgblight
                0x00000000000030ba        0x8 .build/obj_3key_LohseBoi/quantum/rgblight/rgblight.o
                0x00000000000030ba                eeconfig_read_rgblight
 .text.eeconfig_update_rgblight
                0x00000000000030c2       0x28 .build/obj_3key_LohseBoi/quantum/rgblight/rgblight.o
                0x00000000000030c2                eeconfig_update_rgblight
 .text.eeconfig_update_rgblight_default
                0x00000000000030ea       0x20 .build/obj_3key_LohseBoi/quantum/rgblight/rgblight.o
                0x00000000000030ea                eeconfig_update_rgblight_default
 .text.rgblight_get_mode
                0x000000000000310a       0x10 .build/obj_3key_LohseBoi/quantum/rgblight/rgblight.o
                0x000000000000310a                rgblight_get_mode
 .text.rgblight_increase_speed_helper
                0x000000000000311a       0x58 .build/obj_3key_LohseBoi/quantum/rgblight/rgblight.o
                0x000000000000311a                rgblight_increase_speed_helper
 .text.rgblight_increase_speed
                0x0000000000003172        0x6 .build/obj_3key_LohseBoi/quantum/rgblight/rgblight.o
                0x0000000000003172                rgblight_increase_speed
 .text.rgblight_decrease_speed_helper
                0x0000000000003178       0x58 .build/obj_3key_LohseBoi/quantum/rgblight/rgblight.o
                0x0000000000003178                rgblight_decrease_speed_helper
 .text.rgblight_decrease_speed
                0x00000000000031d0        0x6 .build/obj_3key_LohseBoi/quantum/rgblight/rgblight.o
                0x00000000000031d0                rgblight_decrease_speed
 .text.rgblight_get_layer_state
                0x00000000000031d6       0x1a .build/obj_3key_LohseBoi/quantum/rgblight/rgblight.o
                0x00000000000031d6                rgblight_get_layer_state
 .text.rgblight_call_driver
                0x00000000000031f0        0x6 .build/obj_3key_LohseBoi/quantum/rgblight/rgblight.o
                0x00000000000031f0                rgblight_call_driver
 .text.rgblight_set
                0x00000000000031f6      0x130 .build/obj_3key_LohseBoi/quantum/rgblight/rgblight.o
                0x00000000000031f6                rgblight_set
 .text.rgblight_setrgb
                0x0000000000003326       0x32 .build/obj_3key_LohseBoi/quantum/rgblight/rgblight.o
                0x0000000000003326                rgblight_setrgb
 .text.rgblight_sethsv_noeeprom_old
                0x0000000000003358       0x3e .build/obj_3key_LohseBoi/quantum/rgblight/rgblight.o
                0x0000000000003358                rgblight_sethsv_noeeprom_old
 .text.rgblight_effect_breathing
                0x0000000000003396       0x28 .build/obj_3key_LohseBoi/quantum/rgblight/rgblight.o
                0x0000000000003396                rgblight_effect_breathing
 .text.rgblight_effect_rainbow_mood
                0x00000000000033be       0x20 .build/obj_3key_LohseBoi/quantum/rgblight/rgblight.o
                0x00000000000033be                rgblight_effect_rainbow_mood
 .text.rgblight_effect_rgbtest
                0x00000000000033de       0x80 .build/obj_3key_LohseBoi/quantum/rgblight/rgblight.o
                0x00000000000033de                rgblight_effect_rgbtest
 .text.rgblight_sethsv_eeprom_helper
                0x000000000000345e      0x158 .build/obj_3key_LohseBoi/quantum/rgblight/rgblight.o
                0x000000000000345e                rgblight_sethsv_eeprom_helper
 .text.rgblight_increase_hue_helper
                0x00000000000035b6       0x12 .build/obj_3key_LohseBoi/quantum/rgblight/rgblight.o
                0x00000000000035b6                rgblight_increase_hue_helper
 .text.rgblight_increase_hue
                0x00000000000035c8        0x6 .build/obj_3key_LohseBoi/quantum/rgblight/rgblight.o
                0x00000000000035c8                rgblight_increase_hue
 .text.rgblight_decrease_hue_helper
                0x00000000000035ce       0x12 .build/obj_3key_LohseBoi/quantum/rgblight/rgblight.o
                0x00000000000035ce                rgblight_decrease_hue_helper
 .text.rgblight_decrease_hue
                0x00000000000035e0        0x6 .build/obj_3key_LohseBoi/quantum/rgblight/rgblight.o
                0x00000000000035e0                rgblight_decrease_hue
 .text.rgblight_increase_sat_helper
                0x00000000000035e6       0x18 .build/obj_3key_LohseBoi/quantum/rgblight/rgblight.o
                0x00000000000035e6                rgblight_increase_sat_helper
 .text.rgblight_increase_sat
                0x00000000000035fe        0x6 .build/obj_3key_LohseBoi/quantum/rgblight/rgblight.o
                0x00000000000035fe                rgblight_increase_sat
 .text.rgblight_decrease_sat_helper
                0x0000000000003604       0x18 .build/obj_3key_LohseBoi/quantum/rgblight/rgblight.o
                0x0000000000003604                rgblight_decrease_sat_helper
 .text.rgblight_decrease_sat
                0x000000000000361c        0x6 .build/obj_3key_LohseBoi/quantum/rgblight/rgblight.o
                0x000000000000361c                rgblight_decrease_sat
 .text.rgblight_increase_val_helper
                0x0000000000003622       0x18 .build/obj_3key_LohseBoi/quantum/rgblight/rgblight.o
                0x0000000000003622                rgblight_increase_val_helper
 .text.rgblight_increase_val
                0x000000000000363a        0x6 .build/obj_3key_LohseBoi/quantum/rgblight/rgblight.o
                0x000000000000363a                rgblight_increase_val
 .text.rgblight_decrease_val_helper
                0x0000000000003640       0x18 .build/obj_3key_LohseBoi/quantum/rgblight/rgblight.o
                0x0000000000003640                rgblight_decrease_val_helper
 .text.rgblight_decrease_val
                0x0000000000003658        0x6 .build/obj_3key_LohseBoi/quantum/rgblight/rgblight.o
                0x0000000000003658                rgblight_decrease_val
 .text.rgblight_sethsv
                0x000000000000365e        0x6 .build/obj_3key_LohseBoi/quantum/rgblight/rgblight.o
                0x000000000000365e                rgblight_sethsv
 .text.rgblight_sethsv_noeeprom
                0x0000000000003664        0x6 .build/obj_3key_LohseBoi/quantum/rgblight/rgblight.o
                0x0000000000003664                rgblight_sethsv_noeeprom
 .text.rgblight_effect_rainbow_swirl
                0x000000000000366a       0x76 .build/obj_3key_LohseBoi/quantum/rgblight/rgblight.o
                0x000000000000366a                rgblight_effect_rainbow_swirl
 .text.rgblight_effect_snake
                0x00000000000036e0       0xe6 .build/obj_3key_LohseBoi/quantum/rgblight/rgblight.o
                0x00000000000036e0                rgblight_effect_snake
 .text.rgblight_effect_knight
                0x00000000000037c6       0xde .build/obj_3key_LohseBoi/quantum/rgblight/rgblight.o
                0x00000000000037c6                rgblight_effect_knight
 .text.rgblight_effect_christmas
                0x00000000000038a4      0x14c .build/obj_3key_LohseBoi/quantum/rgblight/rgblight.o
                0x00000000000038a4                rgblight_effect_christmas
 .text.rgblight_effect_alternating
                0x00000000000039f0       0x7a .build/obj_3key_LohseBoi/quantum/rgblight/rgblight.o
                0x00000000000039f0                rgblight_effect_alternating
 .text.rgblight_disable
                0x0000000000003a6a       0x54 .build/obj_3key_LohseBoi/quantum/rgblight/rgblight.o
                0x0000000000003a6a                rgblight_disable
 .text.rgblight_timer_enable
                0x0000000000003abe       0x2c .build/obj_3key_LohseBoi/quantum/rgblight/rgblight.o
                0x0000000000003abe                rgblight_timer_enable
 .text.rgblight_mode_eeprom_helper
                0x0000000000003aea       0xaa .build/obj_3key_LohseBoi/quantum/rgblight/rgblight.o
                0x0000000000003aea                rgblight_mode_eeprom_helper
 .text.rgblight_step_helper
                0x0000000000003b94       0x14 .build/obj_3key_LohseBoi/quantum/rgblight/rgblight.o
                0x0000000000003b94                rgblight_step_helper
 .text.rgblight_step
                0x0000000000003ba8        0x6 .build/obj_3key_LohseBoi/quantum/rgblight/rgblight.o
                0x0000000000003ba8                rgblight_step
 .text.rgblight_step_reverse_helper
                0x0000000000003bae       0x16 .build/obj_3key_LohseBoi/quantum/rgblight/rgblight.o
                0x0000000000003bae                rgblight_step_reverse_helper
 .text.rgblight_step_reverse
                0x0000000000003bc4        0x6 .build/obj_3key_LohseBoi/quantum/rgblight/rgblight.o
                0x0000000000003bc4                rgblight_step_reverse
 .text.rgblight_mode
                0x0000000000003bca        0x6 .build/obj_3key_LohseBoi/quantum/rgblight/rgblight.o
                0x0000000000003bca                rgblight_mode
 .text.rgblight_enable
                0x0000000000003bd0       0x10 .build/obj_3key_LohseBoi/quantum/rgblight/rgblight.o
                0x0000000000003bd0                rgblight_enable
 .text.rgblight_toggle
                0x0000000000003be0        0xe .build/obj_3key_LohseBoi/quantum/rgblight/rgblight.o
                0x0000000000003be0                rgblight_toggle
 .text.rgblight_mode_noeeprom
                0x0000000000003bee        0x6 .build/obj_3key_LohseBoi/quantum/rgblight/rgblight.o
                0x0000000000003bee                rgblight_mode_noeeprom
 .text.rgblight_init
                0x0000000000003bf4       0x66 .build/obj_3key_LohseBoi/quantum/rgblight/rgblight.o
                0x0000000000003bf4                rgblight_init
 .text.rgblight_task
                0x0000000000003c5a      0x130 .build/obj_3key_LohseBoi/quantum/rgblight/rgblight.o
                0x0000000000003c5a                rgblight_task
 .text.handleKeycodeRGB
                0x0000000000003d8a        0xa .build/obj_3key_LohseBoi/quantum/process_keycode/process_rgb.o
 .text.handleKeycodeRGBMode
                0x0000000000003d94       0x2a .build/obj_3key_LohseBoi/quantum/process_keycode/process_rgb.o
 .text.process_rgb
                0x0000000000003dbe       0xfa .build/obj_3key_LohseBoi/quantum/process_keycode/process_rgb.o
                0x0000000000003dbe                process_rgb
 .text.eeconfig_read_backlight
                0x0000000000003eb8        0x8 .build/obj_3key_LohseBoi/quantum/backlight/backlight.o
                0x0000000000003eb8                eeconfig_read_backlight
 .text.eeconfig_update_backlight
                0x0000000000003ec0        0xa .build/obj_3key_LohseBoi/quantum/backlight/backlight.o
                0x0000000000003ec0                eeconfig_update_backlight
 .text.eeconfig_update_backlight_default
                0x0000000000003eca       0x10 .build/obj_3key_LohseBoi/quantum/backlight/backlight.o
                0x0000000000003eca                eeconfig_update_backlight_default
 .text.backlight_init
                0x0000000000003eda       0x3c .build/obj_3key_LohseBoi/quantum/backlight/backlight.o
                0x0000000000003eda                backlight_init
 .text.backlight_increase
                0x0000000000003f16       0x3c .build/obj_3key_LohseBoi/quantum/backlight/backlight.o
                0x0000000000003f16                backlight_increase
 .text.backlight_decrease
                0x0000000000003f52       0x36 .build/obj_3key_LohseBoi/quantum/backlight/backlight.o
                0x0000000000003f52                backlight_decrease
 .text.backlight_enable
                0x0000000000003f88       0x30 .build/obj_3key_LohseBoi/quantum/backlight/backlight.o
                0x0000000000003f88                backlight_enable
 .text.backlight_disable
                0x0000000000003fb8       0x1a .build/obj_3key_LohseBoi/quantum/backlight/backlight.o
                0x0000000000003fb8                backlight_disable
 .text.backlight_toggle
                0x0000000000003fd2        0xe .build/obj_3key_LohseBoi/quantum/backlight/backlight.o
                0x0000000000003fd2                backlight_toggle
 .text.backlight_step
                0x0000000000003fe0       0x4c .build/obj_3key_LohseBoi/quantum/backlight/backlight.o
                0x0000000000003fe0                backlight_step
 .text.backlight_level_noeeprom
                0x000000000000402c       0x32 .build/obj_3key_LohseBoi/quantum/backlight/backlight.o
                0x000000000000402c                backlight_level_noeeprom
 .text.backlight_level
                0x000000000000405e        0xc .build/obj_3key_LohseBoi/quantum/backlight/backlight.o
                0x000000000000405e                backlight_level
 .text.process_backlight
                0x000000000000406a       0x66 .build/obj_3key_LohseBoi/quantum/process_keycode/process_backlight.o
                0x000000000000406a                process_backlight
 .text.backlight_pins_init
                0x00000000000040d0        0x6 .build/obj_3key_LohseBoi/quantum/backlight/backlight_driver_common.o
                0x00000000000040d0                backlight_pins_init
 .text.backlight_pins_off
                0x00000000000040d6        0x4 .build/obj_3key_LohseBoi/quantum/backlight/backlight_driver_common.o
                0x00000000000040d6                backlight_pins_off
 .text.backlight_set
                0x00000000000040da       0xda .build/obj_3key_LohseBoi/quantum/backlight/backlight_avr.o
                0x00000000000040da                backlight_set
 .text.backlight_task
                0x00000000000041b4        0x2 .build/obj_3key_LohseBoi/quantum/backlight/backlight_avr.o
                0x00000000000041b4                backlight_task
 .text.backlight_init_ports
                0x00000000000041b6       0x20 .build/obj_3key_LohseBoi/quantum/backlight/backlight_avr.o
                0x00000000000041b6                backlight_init_ports
 .text.ws2812_setleds
                0x00000000000041d6       0x5c .build/obj_3key_LohseBoi/ws2812.o
                0x00000000000041d6                ws2812_setleds
 .text.perform_space_cadet
                0x0000000000004232       0xd8 .build/obj_3key_LohseBoi/quantum/process_keycode/process_space_cadet.o
                0x0000000000004232                perform_space_cadet
 .text.process_space_cadet
                0x000000000000430a       0xaa .build/obj_3key_LohseBoi/quantum/process_keycode/process_space_cadet.o
                0x000000000000430a                process_space_cadet
 .text.process_magic
                0x00000000000043b4      0x1d2 .build/obj_3key_LohseBoi/quantum/process_keycode/process_magic.o
                0x00000000000043b4                process_magic
 .text.process_grave_esc
                0x0000000000004586       0x54 .build/obj_3key_LohseBoi/quantum/process_keycode/process_grave_esc.o
                0x0000000000004586                process_grave_esc
 .text.host_set_driver
                0x00000000000045da        0xa .build/obj_3key_LohseBoi/common/host.o
                0x00000000000045da                host_set_driver
 .text.host_keyboard_leds
                0x00000000000045e4       0x18 .build/obj_3key_LohseBoi/common/host.o
                0x00000000000045e4                host_keyboard_leds
 .text.host_keyboard_send
                0x00000000000045fc       0x36 .build/obj_3key_LohseBoi/common/host.o
                0x00000000000045fc                host_keyboard_send
 .text.host_mouse_send
                0x0000000000004632       0x1e .build/obj_3key_LohseBoi/common/host.o
                0x0000000000004632                host_mouse_send
 .text.host_system_send
                0x0000000000004650       0x2c .build/obj_3key_LohseBoi/common/host.o
                0x0000000000004650                host_system_send
 .text.host_consumer_send
                0x000000000000467c       0x2c .build/obj_3key_LohseBoi/common/host.o
                0x000000000000467c                host_consumer_send
 .text.has_anykey
                0x00000000000046a8       0x28 .build/obj_3key_LohseBoi/common/report.o
                0x00000000000046a8                has_anykey
 .text.is_key_pressed
                0x00000000000046d0       0x64 .build/obj_3key_LohseBoi/common/report.o
                0x00000000000046d0                is_key_pressed
 .text.add_key_byte
                0x0000000000004734       0x34 .build/obj_3key_LohseBoi/common/report.o
                0x0000000000004734                add_key_byte
 .text.del_key_byte
                0x0000000000004768       0x1e .build/obj_3key_LohseBoi/common/report.o
                0x0000000000004768                del_key_byte
 .text.add_key_bit
                0x0000000000004786       0x28 .build/obj_3key_LohseBoi/common/report.o
                0x0000000000004786                add_key_bit
 .text.del_key_bit
                0x00000000000047ae       0x2a .build/obj_3key_LohseBoi/common/report.o
                0x00000000000047ae                del_key_bit
 .text.add_key_to_report
                0x00000000000047d8       0x16 .build/obj_3key_LohseBoi/common/report.o
                0x00000000000047d8                add_key_to_report
 .text.del_key_from_report
                0x00000000000047ee       0x16 .build/obj_3key_LohseBoi/common/report.o
                0x00000000000047ee                del_key_from_report
 .text.clear_keys_from_report
                0x0000000000004804       0x24 .build/obj_3key_LohseBoi/common/report.o
                0x0000000000004804                clear_keys_from_report
 .text.platform_setup
                0x0000000000004828        0x2 .build/obj_3key_LohseBoi/common/avr/platform.o
                0x0000000000004828                platform_setup
 .text.matrix_power_up
                0x000000000000482a        0x2 .build/obj_3key_LohseBoi/common/avr/suspend.o
                0x000000000000482a                matrix_power_up
 .text.suspend_power_down_user
                0x000000000000482c        0x2 .build/obj_3key_LohseBoi/common/avr/suspend.o
                0x000000000000482c                suspend_power_down_user
 .text.suspend_power_down_kb
                0x000000000000482e        0x4 .build/obj_3key_LohseBoi/common/avr/suspend.o
                0x000000000000482e                suspend_power_down_kb
 .text.suspend_power_down
                0x0000000000004832       0x62 .build/obj_3key_LohseBoi/common/avr/suspend.o
                0x0000000000004832                suspend_power_down
 .text.matrix_power_down
                0x0000000000004894        0x2 .build/obj_3key_LohseBoi/common/avr/suspend.o
                0x0000000000004894                matrix_power_down
 .text.suspend_wakeup_condition
                0x0000000000004896       0x1e .build/obj_3key_LohseBoi/common/avr/suspend.o
                0x0000000000004896                suspend_wakeup_condition
 .text.suspend_wakeup_init_user
                0x00000000000048b4        0x2 .build/obj_3key_LohseBoi/common/avr/suspend.o
                0x00000000000048b4                suspend_wakeup_init_user
 .text.suspend_wakeup_init_kb
                0x00000000000048b6        0x4 .build/obj_3key_LohseBoi/common/avr/suspend.o
                0x00000000000048b6                suspend_wakeup_init_kb
 .text.suspend_wakeup_init
                0x00000000000048ba       0x14 .build/obj_3key_LohseBoi/common/avr/suspend.o
                0x00000000000048ba                suspend_wakeup_init
 .text.__vector_12
                0x00000000000048ce       0x4e .build/obj_3key_LohseBoi/common/avr/suspend.o
                0x00000000000048ce                __vector_12
 .text.timer_init
                0x000000000000491c       0x12 .build/obj_3key_LohseBoi/common/avr/timer.o
                0x000000000000491c                timer_init
 .text.timer_read
                0x000000000000492e       0x18 .build/obj_3key_LohseBoi/common/avr/timer.o
                0x000000000000492e                timer_read
 .text.timer_read32
                0x0000000000004946       0x40 .build/obj_3key_LohseBoi/common/avr/timer.o
                0x0000000000004946                timer_read32
 .text.timer_elapsed
                0x0000000000004986       0x1e .build/obj_3key_LohseBoi/common/avr/timer.o
                0x0000000000004986                timer_elapsed
 .text.__vector_21
                0x00000000000049a4       0x48 .build/obj_3key_LohseBoi/common/avr/timer.o
                0x00000000000049a4                __vector_21
 .text.bootloader_jump
                0x00000000000049ec       0x48 .build/obj_3key_LohseBoi/common/avr/bootloader.o
                0x00000000000049ec                bootloader_jump
 .text.print_set_sendchar
                0x0000000000004a34        0xa .build/obj_3key_LohseBoi/common/avr/printf.o
                0x0000000000004a34                print_set_sendchar
 .text.keyboard_leds
                0x0000000000004a3e        0x6 .build/obj_3key_LohseBoi/lufa.o
 .text.send_extra
                0x0000000000004a44       0x56 .build/obj_3key_LohseBoi/lufa.o
 .text.send_consumer
                0x0000000000004a9a        0x8 .build/obj_3key_LohseBoi/lufa.o
 .text.send_system
                0x0000000000004aa2        0x8 .build/obj_3key_LohseBoi/lufa.o
 .text.send_mouse
                0x0000000000004aaa       0x3e .build/obj_3key_LohseBoi/lufa.o
 .text.send_keyboard
                0x0000000000004ae8       0x86 .build/obj_3key_LohseBoi/lufa.o
 .text.EVENT_USB_Device_Connect
                0x0000000000004b6e       0x1c .build/obj_3key_LohseBoi/lufa.o
                0x0000000000004b6e                EVENT_USB_Device_Connect
 .text.EVENT_USB_Device_Disconnect
                0x0000000000004b8a        0x6 .build/obj_3key_LohseBoi/lufa.o
                0x0000000000004b8a                EVENT_USB_Device_Disconnect
 .text.EVENT_USB_Device_Reset
                0x0000000000004b90        0x2 .build/obj_3key_LohseBoi/lufa.o
                0x0000000000004b90                EVENT_USB_Device_Reset
 .text.EVENT_USB_Device_Suspend
                0x0000000000004b92        0x2 .build/obj_3key_LohseBoi/lufa.o
                0x0000000000004b92                EVENT_USB_Device_Suspend
 .text.EVENT_USB_Device_WakeUp
                0x0000000000004b94        0x2 .build/obj_3key_LohseBoi/lufa.o
                0x0000000000004b94                EVENT_USB_Device_WakeUp
 .text.EVENT_USB_Device_ConfigurationChanged
                0x0000000000004b96       0x14 .build/obj_3key_LohseBoi/lufa.o
                0x0000000000004b96                EVENT_USB_Device_ConfigurationChanged
 .text.EVENT_USB_Device_ControlRequest
                0x0000000000004baa      0x16c .build/obj_3key_LohseBoi/lufa.o
                0x0000000000004baa                EVENT_USB_Device_ControlRequest
 .text.protocol_setup
                0x0000000000004d16       0x32 .build/obj_3key_LohseBoi/lufa.o
                0x0000000000004d16                protocol_setup
 .text.protocol_init
                0x0000000000004d48       0x24 .build/obj_3key_LohseBoi/lufa.o
                0x0000000000004d48                protocol_init
 .text.protocol_task
                0x0000000000004d6c       0x36 .build/obj_3key_LohseBoi/lufa.o
                0x0000000000004d6c                protocol_task
 .text.CALLBACK_USB_GetDescriptor
                0x0000000000004da2        0x4 .build/obj_3key_LohseBoi/lufa.o
                0x0000000000004da2                CALLBACK_USB_GetDescriptor
 .text.get_usb_descriptor
                0x0000000000004da6       0xb4 .build/obj_3key_LohseBoi/usb_descriptor.o
                0x0000000000004da6                get_usb_descriptor
 .text.USB_Device_SendRemoteWakeup
                0x0000000000004e5a       0x2c .build/obj_3key_LohseBoi/lib/lufa/LUFA/Drivers/USB/Core/AVR8/Device_AVR8.o
                0x0000000000004e5a                USB_Device_SendRemoteWakeup
 .text.Endpoint_Write_Stream_LE
                0x0000000000004e86       0x9e .build/obj_3key_LohseBoi/lib/lufa/LUFA/Drivers/USB/Core/AVR8/EndpointStream_AVR8.o
                0x0000000000004e86                Endpoint_Write_Stream_LE
 .text.Endpoint_Write_Control_Stream_LE
                0x0000000000004f24       0xb4 .build/obj_3key_LohseBoi/lib/lufa/LUFA/Drivers/USB/Core/AVR8/EndpointStream_AVR8.o
                0x0000000000004f24                Endpoint_Write_Control_Stream_LE
 .text.Endpoint_Write_Control_PStream_LE
                0x0000000000004fd8       0xb6 .build/obj_3key_LohseBoi/lib/lufa/LUFA/Drivers/USB/Core/AVR8/EndpointStream_AVR8.o
                0x0000000000004fd8                Endpoint_Write_Control_PStream_LE
 .text.Endpoint_ConfigureEndpoint_Prv
                0x000000000000508e       0x68 .build/obj_3key_LohseBoi/lib/lufa/LUFA/Drivers/USB/Core/AVR8/Endpoint_AVR8.o
                0x000000000000508e                Endpoint_ConfigureEndpoint_Prv
 .text.Endpoint_ClearStatusStage
                0x00000000000050f6       0x3e .build/obj_3key_LohseBoi/lib/lufa/LUFA/Drivers/USB/Core/AVR8/Endpoint_AVR8.o
                0x00000000000050f6                Endpoint_ClearStatusStage
 .text.Endpoint_WaitUntilReady
                0x0000000000005134       0x62 .build/obj_3key_LohseBoi/lib/lufa/LUFA/Drivers/USB/Core/AVR8/Endpoint_AVR8.o
                0x0000000000005134                Endpoint_WaitUntilReady
 .text.USB_Disable
                0x0000000000005196       0x34 .build/obj_3key_LohseBoi/lib/lufa/LUFA/Drivers/USB/Core/AVR8/USBController_AVR8.o
                0x0000000000005196                USB_Disable
 .text.USB_ResetInterface
                0x00000000000051ca       0x86 .build/obj_3key_LohseBoi/lib/lufa/LUFA/Drivers/USB/Core/AVR8/USBController_AVR8.o
                0x00000000000051ca                USB_ResetInterface
 .text.USB_Init
                0x0000000000005250       0x22 .build/obj_3key_LohseBoi/lib/lufa/LUFA/Drivers/USB/Core/AVR8/USBController_AVR8.o
                0x0000000000005250                USB_Init
 .text.USB_INT_DisableAllInterrupts
                0x0000000000005272       0x10 .build/obj_3key_LohseBoi/lib/lufa/LUFA/Drivers/USB/Core/AVR8/USBInterrupt_AVR8.o
                0x0000000000005272                USB_INT_DisableAllInterrupts
 .text.USB_INT_ClearAllInterrupts
                0x0000000000005282        0xa .build/obj_3key_LohseBoi/lib/lufa/LUFA/Drivers/USB/Core/AVR8/USBInterrupt_AVR8.o
                0x0000000000005282                USB_INT_ClearAllInterrupts
 .text.__vector_10
                0x000000000000528c      0x1a6 .build/obj_3key_LohseBoi/lib/lufa/LUFA/Drivers/USB/Core/AVR8/USBInterrupt_AVR8.o
                0x000000000000528c                __vector_10
 .text.__vector_11
                0x0000000000005432       0x92 .build/obj_3key_LohseBoi/lib/lufa/LUFA/Drivers/USB/Core/AVR8/USBInterrupt_AVR8.o
                0x0000000000005432                __vector_11
 .text.USB_Device_ProcessControlRequest
                0x00000000000054c4      0x2a2 .build/obj_3key_LohseBoi/lib/lufa/LUFA/Drivers/USB/Core/DeviceStandardReq.o
                0x00000000000054c4                USB_Device_ProcessControlRequest
 .text.USB_Event_Stub
                0x0000000000005766        0x2 .build/obj_3key_LohseBoi/lib/lufa/LUFA/Drivers/USB/Core/Events.o
                0x0000000000005766                USB_Event_Stub
                0x0000000000005766                EVENT_USB_Device_StartOfFrame
 .text.USB_USBTask
                0x0000000000005768       0x34 .build/obj_3key_LohseBoi/lib/lufa/LUFA/Drivers/USB/Core/USBTask.o
                0x0000000000005768                USB_USBTask
 .text.libgcc.mul
                0x000000000000579c       0x20 /usr/lib/gcc/avr/11.2.0/avr5/libgcc.a(_mulsi3.o)
                0x000000000000579c                __mulsi3
 .text.libgcc.div
                0x00000000000057bc       0x28 /usr/lib/gcc/avr/11.2.0/avr5/libgcc.a(_udivmodhi4.o)
                0x00000000000057bc                __udivmodhi4
 .text.libgcc.div
                0x00000000000057e4       0x28 /usr/lib/gcc/avr/11.2.0/avr5/libgcc.a(_divmodhi4.o)
                0x00000000000057e4                __divmodhi4
                0x00000000000057e4                _div
 .text.libgcc.div
                0x000000000000580c       0x44 /usr/lib/gcc/avr/11.2.0/avr5/libgcc.a(_udivmodsi4.o)
                0x000000000000580c                __udivmodsi4
 .text.libgcc   0x0000000000005850        0xc /usr/lib/gcc/avr/11.2.0/avr5/libgcc.a(_tablejump2.o)
                0x0000000000005850                __tablejump2__
 .text.libgcc.mul
                0x000000000000585c       0x10 /usr/lib/gcc/avr/11.2.0/avr5/libgcc.a(_mulhisi3.o)
                0x000000000000585c                __mulhisi3
 .text.libgcc.mul
                0x000000000000586c       0x1e /usr/lib/gcc/avr/11.2.0/avr5/libgcc.a(_umulhisi3.o)
                0x000000000000586c                __umulhisi3
 .text.libgcc.mul
                0x000000000000588a        0xe /usr/lib/gcc/avr/11.2.0/avr5/libgcc.a(_usmulhisi3.o)
                0x000000000000588a                __usmulhisi3
                0x000000000000588e                __usmulhisi3_tail
 .text.libgcc.mul
                0x0000000000005898       0x16 /usr/lib/gcc/avr/11.2.0/avr5/libgcc.a(_muluhisi3.o)
                0x0000000000005898                __muluhisi3
 .text.libgcc.mul
                0x00000000000058ae       0x10 /usr/lib/gcc/avr/11.2.0/avr5/libgcc.a(_mulshisi3.o)
                0x00000000000058ae                __mulshisi3
                0x00000000000058b4                __mulohisi3
 .text.avr-libc
                0x00000000000058be       0x12 /usr/lib/gcc/avr/11.2.0/../../../../avr/lib/avr5/libc.a(memcpy_P.o)
                0x00000000000058be                memcpy_P
 .text.avr-libc
                0x00000000000058d0       0x1a /usr/lib/gcc/avr/11.2.0/../../../../avr/lib/avr5/libc.a(memchr.o)
                0x00000000000058d0                memchr
 .text.avr-libc
                0x00000000000058ea       0x46 /usr/lib/gcc/avr/11.2.0/../../../../avr/lib/avr5/libc.a(sprintf.o)
                0x00000000000058ea                sprintf
 .text.avr-libc
                0x0000000000005930      0x3a6 /usr/lib/gcc/avr/11.2.0/../../../../avr/lib/avr5/libc.a(vfprintf_std.o)
                0x0000000000005930                vfprintf
 .text.avr-libc
                0x0000000000005cd6       0x16 /usr/lib/gcc/avr/11.2.0/../../../../avr/lib/avr5/libc.a(strnlen_P.o)
                0x0000000000005cd6                strnlen_P
 .text.avr-libc
                0x0000000000005cec       0x16 /usr/lib/gcc/avr/11.2.0/../../../../avr/lib/avr5/libc.a(strnlen.o)
                0x0000000000005cec                strnlen
 .text.avr-libc
                0x0000000000005d02       0x60 /usr/lib/gcc/avr/11.2.0/../../../../avr/lib/avr5/libc.a(fputc.o)
                0x0000000000005d02                fputc
 .text.avr-libc
                0x0000000000005d62       0xbc /usr/lib/gcc/avr/11.2.0/../../../../avr/lib/avr5/libc.a(ultoa_invert.o)
                0x0000000000005d62                __ultoa_invert
 .text.avr-libc
                0x0000000000005e1e       0x10 /usr/lib/gcc/avr/11.2.0/../../../../avr/lib/avr5/libatmega32u4.a(eerd_byte.o)
                0x0000000000005e1e                eeprom_read_byte
 .text.avr-libc
                0x0000000000005e2e        0xc /usr/lib/gcc/avr/11.2.0/../../../../avr/lib/avr5/libatmega32u4.a(eerd_dword.o)
                0x0000000000005e2e                eeprom_read_dword
                0x0000000000005e2e                eeprom_read_float
 .text.avr-libc
                0x0000000000005e3a        0xc /usr/lib/gcc/avr/11.2.0/../../../../avr/lib/avr5/libatmega32u4.a(eerd_word.o)
                0x0000000000005e3a                eeprom_read_word
 .text.avr-libc
                0x0000000000005e46       0x24 /usr/lib/gcc/avr/11.2.0/../../../../avr/lib/avr5/libatmega32u4.a(eeupd_byte.o)
                0x0000000000005e46                eeprom_update_byte
                0x0000000000005e48                eeprom_update_r18
 .text.avr-libc
                0x0000000000005e6a       0x18 /usr/lib/gcc/avr/11.2.0/../../../../avr/lib/avr5/libatmega32u4.a(eeupd_dword.o)
                0x0000000000005e6a                eeprom_update_dword
                0x0000000000005e6a                eeprom_update_float
 .text.avr-libc
                0x0000000000005e82        0xc /usr/lib/gcc/avr/11.2.0/../../../../avr/lib/avr5/libatmega32u4.a(eeupd_word.o)
                0x0000000000005e82                eeprom_update_word
 .text.avr-libc
                0x0000000000005e8e       0x20 /usr/lib/gcc/avr/11.2.0/../../../../avr/lib/avr5/libatmega32u4.a(eerd_block.o)
                0x0000000000005e8e                eeprom_read_block
                0x0000000000005e92                eeprom_read_blraw
 .text.libgcc.prologue
                0x0000000000005eae       0x38 /usr/lib/gcc/avr/11.2.0/avr5/libgcc.a(_prologue.o)
                0x0000000000005eae                __prologue_saves__
 .text.libgcc.prologue
                0x0000000000005ee6       0x36 /usr/lib/gcc/avr/11.2.0/avr5/libgcc.a(_epilogue.o)
                0x0000000000005ee6                __epilogue_restores__
                0x0000000000005f1c                . = ALIGN (0x2)
 *(.fini9)
 .fini9         0x0000000000005f1c        0x0 /usr/lib/gcc/avr/11.2.0/avr5/libgcc.a(_exit.o)
                0x0000000000005f1c                exit
                0x0000000000005f1c                _exit
 *(.fini9)
 *(.fini8)
 *(.fini8)
 *(.fini7)
 *(.fini7)
 *(.fini6)
 *(.fini6)
 *(.fini5)
 *(.fini5)
 *(.fini4)
 *(.fini4)
 *(.fini3)
 *(.fini3)
 *(.fini2)
 *(.fini2)
 *(.fini1)
 *(.fini1)
 *(.fini0)
 .fini0         0x0000000000005f1c        0x4 /usr/lib/gcc/avr/11.2.0/avr5/libgcc.a(_exit.o)
 *(.fini0)
 *(.hightext)
 *(.hightext*)
 *(.progmemx.*)
                0x0000000000005f20                . = ALIGN (0x2)
 *(.jumptables)
 *(.jumptables*)
 .jumptables.gcc.process_action
                0x0000000000005f20       0x20 .build/obj_3key_LohseBoi/quantum/action.o
 .jumptables.gcc.mousekey_on
                0x0000000000005f40       0x26 .build/obj_3key_LohseBoi/quantum/mousekey.o
 .jumptables.gcc.process_rgb
                0x0000000000005f66       0x26 .build/obj_3key_LohseBoi/quantum/process_keycode/process_rgb.o
 .jumptables.gcc.process_magic
                0x0000000000005f8c       0x36 .build/obj_3key_LohseBoi/quantum/process_keycode/process_magic.o
 .jumptables.gcc.USB_Device_ProcessControlRequest
                0x0000000000005fc2       0x14 .build/obj_3key_LohseBoi/lib/lufa/LUFA/Drivers/USB/Core/DeviceStandardReq.o
                0x0000000000005fd6                _etext = .

.data           0x0000000000800100       0xb0 load address 0x0000000000005fd6
                0x0000000000800100                PROVIDE (__data_start = .)
 *(.data)
 *(.data*)
 .data.keyboard_report
                0x0000000000800100        0x2 .build/obj_3key_LohseBoi/quantum/action_util.o
                0x0000000000800100                keyboard_report
 .data.mk_wheel_time_to_max
                0x0000000000800102        0x1 .build/obj_3key_LohseBoi/quantum/mousekey.o
                0x0000000000800102                mk_wheel_time_to_max
 .data.mk_wheel_max_speed
                0x0000000000800103        0x1 .build/obj_3key_LohseBoi/quantum/mousekey.o
                0x0000000000800103                mk_wheel_max_speed
 .data.mk_wheel_interval
                0x0000000000800104        0x1 .build/obj_3key_LohseBoi/quantum/mousekey.o
                0x0000000000800104                mk_wheel_interval
 .data.mk_wheel_delay
                0x0000000000800105        0x1 .build/obj_3key_LohseBoi/quantum/mousekey.o
                0x0000000000800105                mk_wheel_delay
 .data.mk_time_to_max
                0x0000000000800106        0x1 .build/obj_3key_LohseBoi/quantum/mousekey.o
                0x0000000000800106                mk_time_to_max
 .data.mk_max_speed
                0x0000000000800107        0x1 .build/obj_3key_LohseBoi/quantum/mousekey.o
                0x0000000000800107                mk_max_speed
 .data.mk_interval
                0x0000000000800108        0x1 .build/obj_3key_LohseBoi/quantum/mousekey.o
                0x0000000000800108                mk_interval
 .data.mk_delay
                0x0000000000800109        0x1 .build/obj_3key_LohseBoi/quantum/mousekey.o
                0x0000000000800109                mk_delay
 .data.increment.1
                0x000000000080010a        0x1 .build/obj_3key_LohseBoi/quantum/rgblight/rgblight.o
 .data.increment.2
                0x000000000080010b        0x1 .build/obj_3key_LohseBoi/quantum/rgblight/rgblight.o
 .data.high_bound.3
                0x000000000080010c        0x1 .build/obj_3key_LohseBoi/quantum/rgblight/rgblight.o
 .data.rgblight_ranges
                0x000000000080010d        0x5 .build/obj_3key_LohseBoi/quantum/rgblight/rgblight.o
                0x000000000080010d                rgblight_ranges
 .data.static_effect_table
                0x0000000000800112        0xb .build/obj_3key_LohseBoi/quantum/rgblight/rgblight.o
 .data.lufa_driver
                0x000000000080011d        0xa .build/obj_3key_LohseBoi/lufa.o
                0x000000000080011d                lufa_driver
 .data.keyboard_protocol
                0x0000000000800127        0x1 .build/obj_3key_LohseBoi/lufa.o
                0x0000000000800127                keyboard_protocol
 *(.gnu.linkonce.d*)
 *(.rodata)
 *(.rodata*)
 .rodata.process_record_user.str1.1
                0x0000000000800128        0x3 .build/obj_3key_LohseBoi/keyboards/3key/keymaps/LohseBoi/keymap.o
 .rodata.CSWTCH.14
                0x000000000080012b       0x2e .build/obj_3key_LohseBoi/quantum/action.o
 .rodata.CSWTCH.2
                0x0000000000800159       0x2e .build/obj_3key_LohseBoi/quantum/keymap_common.o
 .rodata.col_pins
                0x0000000000800187        0x3 .build/obj_3key_LohseBoi/quantum/matrix.o
 .rodata.mode_base_table
                0x000000000080018a       0x25 .build/obj_3key_LohseBoi/quantum/rgblight/rgblight.o
 *(.gnu.linkonce.r*)
                0x00000000008001b0                . = ALIGN (0x2)
 *fill*         0x00000000008001af        0x1 
                0x00000000008001b0                _edata = .
                0x00000000008001b0                PROVIDE (__data_end = .)

.bss            0x00000000008001b0       0xea
                0x00000000008001b0                PROVIDE (__bss_start = .)
 *(.bss)
 .bss           0x00000000008001b0        0x2 .build/obj_3key_LohseBoi/common/avr/xprintf.o
                0x00000000008001b0                xfunc_out
 *(.bss*)
 .bss.asciiCounter
                0x00000000008001b2        0x1 .build/obj_3key_LohseBoi/keyboards/3key/keymaps/LohseBoi/keymap.o
                0x00000000008001b2                asciiCounter
 .bss.asciiChar
                0x00000000008001b3        0x1 .build/obj_3key_LohseBoi/keyboards/3key/keymaps/LohseBoi/keymap.o
                0x00000000008001b3                asciiChar
 .bss.disable_action_cache
                0x00000000008001b4        0x1 .build/obj_3key_LohseBoi/quantum/action.o
                0x00000000008001b4                disable_action_cache
 .bss.source_layers_cache
                0x00000000008001b5        0x5 .build/obj_3key_LohseBoi/quantum/action_layer.o
                0x00000000008001b5                source_layers_cache
 .bss.layer_state
                0x00000000008001ba        0x4 .build/obj_3key_LohseBoi/quantum/action_layer.o
                0x00000000008001ba                layer_state
 .bss.default_layer_state
                0x00000000008001be        0x4 .build/obj_3key_LohseBoi/quantum/action_layer.o
                0x00000000008001be                default_layer_state
 .bss.waiting_buffer_tail
                0x00000000008001c2        0x1 .build/obj_3key_LohseBoi/quantum/action_tapping.o
 .bss.waiting_buffer_head
                0x00000000008001c3        0x1 .build/obj_3key_LohseBoi/quantum/action_tapping.o
 .bss.waiting_buffer
                0x00000000008001c4       0x30 .build/obj_3key_LohseBoi/quantum/action_tapping.o
 .bss.tapping_key
                0x00000000008001f4        0x6 .build/obj_3key_LohseBoi/quantum/action_tapping.o
 .bss.oneshot_layer_data
                0x00000000008001fa        0x1 .build/obj_3key_LohseBoi/quantum/action_util.o
 .bss.oneshot_mods
                0x00000000008001fb        0x1 .build/obj_3key_LohseBoi/quantum/action_util.o
 .bss.__compound_literal.0
                0x00000000008001fc       0x20 .build/obj_3key_LohseBoi/quantum/action_util.o
 .bss.macro_mods
                0x000000000080021c        0x1 .build/obj_3key_LohseBoi/quantum/action_util.o
 .bss.weak_mods
                0x000000000080021d        0x1 .build/obj_3key_LohseBoi/quantum/action_util.o
 .bss.real_mods
                0x000000000080021e        0x1 .build/obj_3key_LohseBoi/quantum/action_util.o
 .bss.led_status.0
                0x000000000080021f        0x1 .build/obj_3key_LohseBoi/quantum/keyboard.o
 .bss.matrix_prev.1
                0x0000000000800220        0x1 .build/obj_3key_LohseBoi/quantum/keyboard.o
 .bss.last_matrix_modification_time
                0x0000000000800221        0x4 .build/obj_3key_LohseBoi/quantum/keyboard.o
 .bss.last_input_modification_time
                0x0000000000800225        0x4 .build/obj_3key_LohseBoi/quantum/keyboard.o
 .bss.debug_config
                0x0000000000800229        0x1 .build/obj_3key_LohseBoi/quantum/logging/debug.o
                0x0000000000800229                debug_config
 .bss.debouncing_time
                0x000000000080022a        0x2 .build/obj_3key_LohseBoi/quantum/debounce/sym_defer_g.o
 .bss.debouncing
                0x000000000080022c        0x1 .build/obj_3key_LohseBoi/quantum/debounce/sym_defer_g.o
 .bss.last_timer_w
                0x000000000080022d        0x2 .build/obj_3key_LohseBoi/quantum/mousekey.o
 .bss.last_timer_c
                0x000000000080022f        0x2 .build/obj_3key_LohseBoi/quantum/mousekey.o
 .bss.mousekey_wheel_repeat
                0x0000000000800231        0x1 .build/obj_3key_LohseBoi/quantum/mousekey.o
 .bss.mousekey_repeat
                0x0000000000800232        0x1 .build/obj_3key_LohseBoi/quantum/mousekey.o
 .bss.mousekey_accel
                0x0000000000800233        0x1 .build/obj_3key_LohseBoi/quantum/mousekey.o
 .bss.mouse_report
                0x0000000000800234        0x6 .build/obj_3key_LohseBoi/quantum/mousekey.o
 .bss.maxval.0  0x000000000080023a        0x1 .build/obj_3key_LohseBoi/quantum/rgblight/rgblight.o
 .bss.low_bound.4
                0x000000000080023b        0x1 .build/obj_3key_LohseBoi/quantum/rgblight/rgblight.o
 .bss.pos.5     0x000000000080023c        0x1 .build/obj_3key_LohseBoi/quantum/rgblight/rgblight.o
 .bss.rgblight_layers
                0x000000000080023d        0x2 .build/obj_3key_LohseBoi/quantum/rgblight/rgblight.o
                0x000000000080023d                rgblight_layers
 .bss.animation_status
                0x000000000080023f        0x6 .build/obj_3key_LohseBoi/quantum/rgblight/rgblight.o
                0x000000000080023f                animation_status
 .bss.is_rgblight_initialized
                0x0000000000800245        0x1 .build/obj_3key_LohseBoi/quantum/rgblight/rgblight.o
                0x0000000000800245                is_rgblight_initialized
 .bss.rgblight_status
                0x0000000000800246        0x3 .build/obj_3key_LohseBoi/quantum/rgblight/rgblight.o
                0x0000000000800246                rgblight_status
 .bss.sc_timer  0x0000000000800249        0x2 .build/obj_3key_LohseBoi/quantum/process_keycode/process_space_cadet.o
 .bss.sc_last   0x000000000080024b        0x1 .build/obj_3key_LohseBoi/quantum/process_keycode/process_space_cadet.o
 .bss.grave_esc_was_shifted
                0x000000000080024c        0x1 .build/obj_3key_LohseBoi/quantum/process_keycode/process_grave_esc.o
 .bss.last_consumer_report
                0x000000000080024d        0x2 .build/obj_3key_LohseBoi/common/host.o
 .bss.last_system_report
                0x000000000080024f        0x2 .build/obj_3key_LohseBoi/common/host.o
 .bss.driver    0x0000000000800251        0x2 .build/obj_3key_LohseBoi/common/host.o
 .bss.wdt_timeout
                0x0000000000800253        0x1 .build/obj_3key_LohseBoi/common/avr/suspend.o
 .bss.r.0       0x0000000000800254        0x3 .build/obj_3key_LohseBoi/lufa.o
 .bss.keyboard_report_sent
                0x0000000000800257       0x20 .build/obj_3key_LohseBoi/lufa.o
 .bss.keyboard_led_state
                0x0000000000800277        0x1 .build/obj_3key_LohseBoi/lufa.o
 .bss.keyboard_idle
                0x0000000000800278        0x1 .build/obj_3key_LohseBoi/lufa.o
                0x0000000000800278                keyboard_idle
 *(COMMON)
 COMMON         0x0000000000800279        0x2 .build/obj_3key_LohseBoi/quantum/bootmagic/magic.o
                0x0000000000800279                keymap_config
 COMMON         0x000000000080027b        0x2 .build/obj_3key_LohseBoi/quantum/matrix_common.o
                0x000000000080027b                raw_matrix
                0x000000000080027c                matrix
 COMMON         0x000000000080027d        0xb .build/obj_3key_LohseBoi/quantum/rgblight/rgblight.o
                0x000000000080027d                rgblight_config
                0x0000000000800282                led
 COMMON         0x0000000000800288        0x1 .build/obj_3key_LohseBoi/quantum/backlight/backlight.o
                0x0000000000800288                backlight_config
 COMMON         0x0000000000800289        0x4 .build/obj_3key_LohseBoi/common/avr/timer.o
                0x0000000000800289                timer_count
 COMMON         0x000000000080028d        0x3 .build/obj_3key_LohseBoi/lib/lufa/LUFA/Drivers/USB/Core/DeviceStandardReq.o
                0x000000000080028d                USB_Device_ConfigurationNumber
                0x000000000080028e                USB_Device_CurrentlySelfPowered
                0x000000000080028f                USB_Device_RemoteWakeupEnabled
 COMMON         0x0000000000800290        0xa .build/obj_3key_LohseBoi/lib/lufa/LUFA/Drivers/USB/Core/USBTask.o
                0x0000000000800290                USB_IsInitialized
                0x0000000000800291                USB_DeviceState
                0x0000000000800292                USB_ControlRequest
                0x000000000080029a                PROVIDE (__bss_end = .)
                0x0000000000005fd6                __data_load_start = LOADADDR (.data)
                0x0000000000006086                __data_load_end = (__data_load_start + SIZEOF (.data))

.noinit         0x000000000080029a        0x4
                [!provide]                        PROVIDE (__noinit_start = .)
 *(.noinit .noinit.* .gnu.linkonce.n.*)
 .noinit        0x000000000080029a        0x4 .build/obj_3key_LohseBoi/common/avr/bootloader.o
                0x000000000080029a                reset_key
                [!provide]                        PROVIDE (__noinit_end = .)
                0x000000000080029e                _end = .
                [!provide]                        PROVIDE (__heap_start = .)

.eeprom         0x0000000000810000        0x0
 *(.eeprom*)
                0x0000000000810000                __eeprom_end = .

.fuse
 *(.fuse)
 *(.lfuse)
 *(.hfuse)
 *(.efuse)

.lock
 *(.lock*)

.signature
 *(.signature*)

.stab           0x0000000000000000       0x24
 *(.stab)
 .stab          0x0000000000000000       0x24 .build/obj_3key_LohseBoi/common/avr/xprintf.o
                                        0x8b8 (size before relaxing)

.stabstr        0x0000000000000000       0x6d
 *(.stabstr)
 .stabstr       0x0000000000000000       0x6d .build/obj_3key_LohseBoi/common/avr/xprintf.o

.stab.excl
 *(.stab.excl)

.stab.exclstr
 *(.stab.exclstr)

.stab.index
 *(.stab.index)

.stab.indexstr
 *(.stab.indexstr)

.comment        0x0000000000000000       0x24
 *(.comment)
 .comment       0x0000000000000000       0x12 .build/obj_3key_LohseBoi/keyboards/3key/keymaps/LohseBoi/keymap.o
                                         0x13 (size before relaxing)
 .comment       0x0000000000000012       0x13 .build/obj_3key_LohseBoi/quantum/quantum.o
 .comment       0x0000000000000012       0x13 .build/obj_3key_LohseBoi/quantum/send_string.o
 .comment       0x0000000000000012       0x13 .build/obj_3key_LohseBoi/quantum/led.o
 .comment       0x0000000000000012       0x13 .build/obj_3key_LohseBoi/quantum/action.o
 .comment       0x0000000000000012       0x13 .build/obj_3key_LohseBoi/quantum/action_layer.o
 .comment       0x0000000000000012       0x13 .build/obj_3key_LohseBoi/quantum/action_macro.o
 .comment       0x0000000000000012       0x13 .build/obj_3key_LohseBoi/quantum/action_tapping.o
 .comment       0x0000000000000012       0x13 .build/obj_3key_LohseBoi/quantum/action_util.o
 .comment       0x0000000000000012       0x13 .build/obj_3key_LohseBoi/quantum/eeconfig.o
 .comment       0x0000000000000012       0x13 .build/obj_3key_LohseBoi/quantum/keyboard.o
 .comment       0x0000000000000012       0x13 .build/obj_3key_LohseBoi/quantum/keymap_common.o
 .comment       0x0000000000000012       0x13 .build/obj_3key_LohseBoi/quantum/keycode_config.o
 .comment       0x0000000000000012       0x13 .build/obj_3key_LohseBoi/quantum/logging/debug.o
 .comment       0x0000000000000012       0x13 .build/obj_3key_LohseBoi/quantum/logging/sendchar.o
 .comment       0x0000000000000012       0x13 .build/obj_3key_LohseBoi/quantum/bootmagic/bootmagic_lite.o
 .comment       0x0000000000000012       0x13 .build/obj_3key_LohseBoi/quantum/bootmagic/magic.o
 .comment       0x0000000000000012       0x13 .build/obj_3key_LohseBoi/quantum/matrix_common.o
 .comment       0x0000000000000012       0x13 .build/obj_3key_LohseBoi/quantum/matrix.o
 .comment       0x0000000000000012       0x13 .build/obj_3key_LohseBoi/quantum/debounce/sym_defer_g.o
 .comment       0x0000000000000012       0x13 .build/obj_3key_LohseBoi/quantum/main.o
 .comment       0x0000000000000012       0x13 .build/obj_3key_LohseBoi/quantum/mousekey.o
 .comment       0x0000000000000012       0x13 .build/obj_3key_LohseBoi/quantum/color.o
 .comment       0x0000000000000012       0x13 .build/obj_3key_LohseBoi/quantum/rgblight/rgblight.o
 .comment       0x0000000000000012       0x13 .build/obj_3key_LohseBoi/quantum/process_keycode/process_rgb.o
 .comment       0x0000000000000012       0x13 .build/obj_3key_LohseBoi/quantum/backlight/backlight.o
 .comment       0x0000000000000012       0x13 .build/obj_3key_LohseBoi/quantum/process_keycode/process_backlight.o
 .comment       0x0000000000000012       0x13 .build/obj_3key_LohseBoi/quantum/backlight/backlight_driver_common.o
 .comment       0x0000000000000012       0x13 .build/obj_3key_LohseBoi/quantum/backlight/backlight_avr.o
 .comment       0x0000000000000012       0x13 .build/obj_3key_LohseBoi/ws2812.o
 .comment       0x0000000000000012       0x13 .build/obj_3key_LohseBoi/quantum/led_tables.o
 .comment       0x0000000000000012       0x13 .build/obj_3key_LohseBoi/quantum/process_keycode/process_space_cadet.o
 .comment       0x0000000000000012       0x13 .build/obj_3key_LohseBoi/quantum/process_keycode/process_magic.o
 .comment       0x0000000000000012       0x13 .build/obj_3key_LohseBoi/quantum/process_keycode/process_grave_esc.o
 .comment       0x0000000000000012       0x13 .build/obj_3key_LohseBoi/common/host.o
 .comment       0x0000000000000012       0x13 .build/obj_3key_LohseBoi/common/report.o
 .comment       0x0000000000000012       0x13 .build/obj_3key_LohseBoi/common/avr/platform.o
 .comment       0x0000000000000012       0x13 .build/obj_3key_LohseBoi/common/avr/suspend.o
 .comment       0x0000000000000012       0x13 .build/obj_3key_LohseBoi/common/avr/timer.o
 .comment       0x0000000000000012       0x13 .build/obj_3key_LohseBoi/common/avr/bootloader.o
 .comment       0x0000000000000012       0x13 .build/obj_3key_LohseBoi/common/avr/printf.o
 .comment       0x0000000000000012       0x13 .build/obj_3key_LohseBoi/lufa.o
 .comment       0x0000000000000012       0x13 .build/obj_3key_LohseBoi/usb_descriptor.o
 .comment       0x0000000000000012       0x13 .build/obj_3key_LohseBoi/lib/lufa/LUFA/Drivers/USB/Core/AVR8/Device_AVR8.o
 .comment       0x0000000000000012       0x13 .build/obj_3key_LohseBoi/lib/lufa/LUFA/Drivers/USB/Core/AVR8/EndpointStream_AVR8.o
 .comment       0x0000000000000012       0x13 .build/obj_3key_LohseBoi/lib/lufa/LUFA/Drivers/USB/Core/AVR8/Endpoint_AVR8.o
 .comment       0x0000000000000012       0x13 .build/obj_3key_LohseBoi/lib/lufa/LUFA/Drivers/USB/Core/AVR8/USBController_AVR8.o
 .comment       0x0000000000000012       0x13 .build/obj_3key_LohseBoi/lib/lufa/LUFA/Drivers/USB/Core/AVR8/USBInterrupt_AVR8.o
 .comment       0x0000000000000012       0x13 .build/obj_3key_LohseBoi/lib/lufa/LUFA/Drivers/USB/Core/DeviceStandardReq.o
 .comment       0x0000000000000012       0x13 .build/obj_3key_LohseBoi/lib/lufa/LUFA/Drivers/USB/Core/Events.o
 .comment       0x0000000000000012       0x13 .build/obj_3key_LohseBoi/lib/lufa/LUFA/Drivers/USB/Core/USBTask.o
 .comment       0x0000000000000012       0x12 /usr/lib/gcc/avr/11.2.0/../../../../avr/lib/avr5/libc.a(sprintf.o)
                                         0x13 (size before relaxing)
 .comment       0x0000000000000024       0x13 /usr/lib/gcc/avr/11.2.0/../../../../avr/lib/avr5/libc.a(vfprintf_std.o)
 .comment       0x0000000000000024       0x13 /usr/lib/gcc/avr/11.2.0/../../../../avr/lib/avr5/libc.a(fputc.o)

.note.gnu.avr.deviceinfo
                0x0000000000000000       0x40
 .note.gnu.avr.deviceinfo
                0x0000000000000000       0x40 /usr/lib/gcc/avr/11.2.0/../../../../avr/lib/avr5/crtatmega32u4.o

.note.gnu.build-id
 *(.note.gnu.build-id)

.debug
 *(.debug)

.line
 *(.line)

.debug_srcinfo
 *(.debug_srcinfo)

.debug_sfnames
 *(.debug_sfnames)

.debug_aranges  0x0000000000000000     0x1360
 *(.debug_aranges)
 .debug_aranges
                0x0000000000000000       0x30 .build/obj_3key_LohseBoi/keyboards/3key/keymaps/LohseBoi/keymap.o
 .debug_aranges
                0x0000000000000030       0xd0 .build/obj_3key_LohseBoi/quantum/quantum.o
 .debug_aranges
                0x0000000000000100       0x68 .build/obj_3key_LohseBoi/quantum/send_string.o
 .debug_aranges
                0x0000000000000168       0x48 .build/obj_3key_LohseBoi/quantum/led.o
 .debug_aranges
                0x00000000000001b0       0xe0 .build/obj_3key_LohseBoi/quantum/action.o
 .debug_aranges
                0x0000000000000290       0xe0 .build/obj_3key_LohseBoi/quantum/action_layer.o
 .debug_aranges
                0x0000000000000370       0x20 .build/obj_3key_LohseBoi/quantum/action_macro.o
 .debug_aranges
                0x0000000000000390       0x48 .build/obj_3key_LohseBoi/quantum/action_tapping.o
 .debug_aranges
                0x00000000000003d8      0x178 .build/obj_3key_LohseBoi/quantum/action_util.o
 .debug_aranges
                0x0000000000000550       0xd8 .build/obj_3key_LohseBoi/quantum/eeconfig.o
 .debug_aranges
                0x0000000000000628       0xb8 .build/obj_3key_LohseBoi/quantum/keyboard.o
 .debug_aranges
                0x00000000000006e0       0x48 .build/obj_3key_LohseBoi/quantum/keymap_common.o
 .debug_aranges
                0x0000000000000728       0x28 .build/obj_3key_LohseBoi/quantum/keycode_config.o
 .debug_aranges
                0x0000000000000750       0x18 .build/obj_3key_LohseBoi/quantum/logging/debug.o
 .debug_aranges
                0x0000000000000768       0x20 .build/obj_3key_LohseBoi/quantum/logging/sendchar.o
 .debug_aranges
                0x0000000000000788       0x30 .build/obj_3key_LohseBoi/quantum/bootmagic/bootmagic_lite.o
 .debug_aranges
                0x00000000000007b8       0x28 .build/obj_3key_LohseBoi/quantum/bootmagic/magic.o
 .debug_aranges
                0x00000000000007e0       0xa0 .build/obj_3key_LohseBoi/quantum/matrix_common.o
 .debug_aranges
                0x0000000000000880       0x40 .build/obj_3key_LohseBoi/quantum/matrix.o
 .debug_aranges
                0x00000000000008c0       0x38 .build/obj_3key_LohseBoi/quantum/debounce/sym_defer_g.o
 .debug_aranges
                0x00000000000008f8       0x20 .build/obj_3key_LohseBoi/quantum/main.o
 .debug_aranges
                0x0000000000000918       0x58 .build/obj_3key_LohseBoi/quantum/mousekey.o
 .debug_aranges
                0x0000000000000970       0x30 .build/obj_3key_LohseBoi/quantum/color.o
 .debug_aranges
                0x00000000000009a0      0x328 .build/obj_3key_LohseBoi/quantum/rgblight/rgblight.o
 .debug_aranges
                0x0000000000000cc8       0x30 .build/obj_3key_LohseBoi/quantum/process_keycode/process_rgb.o
 .debug_aranges
                0x0000000000000cf8       0xa0 .build/obj_3key_LohseBoi/quantum/backlight/backlight.o
 .debug_aranges
                0x0000000000000d98       0x20 .build/obj_3key_LohseBoi/quantum/process_keycode/process_backlight.o
 .debug_aranges
                0x0000000000000db8       0x30 .build/obj_3key_LohseBoi/quantum/backlight/backlight_driver_common.o
 .debug_aranges
                0x0000000000000de8       0x30 .build/obj_3key_LohseBoi/quantum/backlight/backlight_avr.o
 .debug_aranges
                0x0000000000000e18       0x20 .build/obj_3key_LohseBoi/ws2812.o
 .debug_aranges
                0x0000000000000e38       0x18 .build/obj_3key_LohseBoi/quantum/led_tables.o
 .debug_aranges
                0x0000000000000e50       0x28 .build/obj_3key_LohseBoi/quantum/process_keycode/process_space_cadet.o
 .debug_aranges
                0x0000000000000e78       0x20 .build/obj_3key_LohseBoi/quantum/process_keycode/process_magic.o
 .debug_aranges
                0x0000000000000e98       0x20 .build/obj_3key_LohseBoi/quantum/process_keycode/process_grave_esc.o
 .debug_aranges
                0x0000000000000eb8       0x78 .build/obj_3key_LohseBoi/common/host.o
 .debug_aranges
                0x0000000000000f30       0x68 .build/obj_3key_LohseBoi/common/report.o
 .debug_aranges
                0x0000000000000f98       0x20 .build/obj_3key_LohseBoi/common/avr/platform.o
 .debug_aranges
                0x0000000000000fb8       0x58 .build/obj_3key_LohseBoi/common/avr/suspend.o
 .debug_aranges
                0x0000000000001010       0x50 .build/obj_3key_LohseBoi/common/avr/timer.o
 .debug_aranges
                0x0000000000001060       0x28 .build/obj_3key_LohseBoi/common/avr/bootloader.o
 .debug_aranges
                0x0000000000001088       0x20 .build/obj_3key_LohseBoi/common/avr/printf.o
 .debug_aranges
                0x00000000000010a8       0x98 .build/obj_3key_LohseBoi/lufa.o
 .debug_aranges
                0x0000000000001140       0x20 .build/obj_3key_LohseBoi/usb_descriptor.o
 .debug_aranges
                0x0000000000001160       0x20 .build/obj_3key_LohseBoi/lib/lufa/LUFA/Drivers/USB/Core/AVR8/Device_AVR8.o
 .debug_aranges
                0x0000000000001180       0xc8 .build/obj_3key_LohseBoi/lib/lufa/LUFA/Drivers/USB/Core/AVR8/EndpointStream_AVR8.o
 .debug_aranges
                0x0000000000001248       0x40 .build/obj_3key_LohseBoi/lib/lufa/LUFA/Drivers/USB/Core/AVR8/Endpoint_AVR8.o
 .debug_aranges
                0x0000000000001288       0x30 .build/obj_3key_LohseBoi/lib/lufa/LUFA/Drivers/USB/Core/AVR8/USBController_AVR8.o
 .debug_aranges
                0x00000000000012b8       0x38 .build/obj_3key_LohseBoi/lib/lufa/LUFA/Drivers/USB/Core/AVR8/USBInterrupt_AVR8.o
 .debug_aranges
                0x00000000000012f0       0x20 .build/obj_3key_LohseBoi/lib/lufa/LUFA/Drivers/USB/Core/DeviceStandardReq.o
 .debug_aranges
                0x0000000000001310       0x30 .build/obj_3key_LohseBoi/lib/lufa/LUFA/Drivers/USB/Core/Events.o
 .debug_aranges
                0x0000000000001340       0x20 .build/obj_3key_LohseBoi/lib/lufa/LUFA/Drivers/USB/Core/USBTask.o

.debug_pubnames
 *(.debug_pubnames)

.debug_info     0x0000000000000000    0x2051e
 *(.debug_info .gnu.linkonce.wi.*)
 .debug_info    0x0000000000000000      0x9f4 /usr/lib/gcc/avr/11.2.0/../../../../avr/lib/avr5/crtatmega32u4.o
 .debug_info    0x00000000000009f4      0x87b .build/obj_3key_LohseBoi/keyboards/3key/keymaps/LohseBoi/keymap.o
 .debug_info    0x000000000000126f     0x1d3c .build/obj_3key_LohseBoi/quantum/quantum.o
 .debug_info    0x0000000000002fab      0xf42 .build/obj_3key_LohseBoi/quantum/send_string.o
 .debug_info    0x0000000000003eed      0x26c .build/obj_3key_LohseBoi/quantum/led.o
 .debug_info    0x0000000000004159     0x23fa .build/obj_3key_LohseBoi/quantum/action.o
 .debug_info    0x0000000000006553      0xc32 .build/obj_3key_LohseBoi/quantum/action_layer.o
 .debug_info    0x0000000000007185      0x84f .build/obj_3key_LohseBoi/quantum/action_macro.o
 .debug_info    0x00000000000079d4      0xf18 .build/obj_3key_LohseBoi/quantum/action_tapping.o
 .debug_info    0x00000000000088ec      0xca5 .build/obj_3key_LohseBoi/quantum/action_util.o
 .debug_info    0x0000000000009591      0x90b .build/obj_3key_LohseBoi/quantum/eeconfig.o
 .debug_info    0x0000000000009e9c      0x892 .build/obj_3key_LohseBoi/quantum/keyboard.o
 .debug_info    0x000000000000a72e     0x1cc4 .build/obj_3key_LohseBoi/quantum/keymap_common.o
 .debug_info    0x000000000000c3f2      0x64e .build/obj_3key_LohseBoi/quantum/keycode_config.o
 .debug_info    0x000000000000ca40      0x110 .build/obj_3key_LohseBoi/quantum/logging/debug.o
 .debug_info    0x000000000000cb50       0xa8 .build/obj_3key_LohseBoi/quantum/logging/sendchar.o
 .debug_info    0x000000000000cbf8      0x25f .build/obj_3key_LohseBoi/quantum/bootmagic/bootmagic_lite.o
 .debug_info    0x000000000000ce57      0x3aa .build/obj_3key_LohseBoi/quantum/bootmagic/magic.o
 .debug_info    0x000000000000d201      0x652 .build/obj_3key_LohseBoi/quantum/matrix_common.o
 .debug_info    0x000000000000d853      0x6e2 .build/obj_3key_LohseBoi/quantum/matrix.o
 .debug_info    0x000000000000df35      0x29f .build/obj_3key_LohseBoi/quantum/debounce/sym_defer_g.o
 .debug_info    0x000000000000e1d4       0xe9 .build/obj_3key_LohseBoi/quantum/main.o
 .debug_info    0x000000000000e2bd      0x666 .build/obj_3key_LohseBoi/quantum/mousekey.o
 .debug_info    0x000000000000e923      0x2f2 .build/obj_3key_LohseBoi/quantum/color.o
 .debug_info    0x000000000000ec15     0x342a .build/obj_3key_LohseBoi/quantum/rgblight/rgblight.o
 .debug_info    0x000000000001203f     0x1434 .build/obj_3key_LohseBoi/quantum/process_keycode/process_rgb.o
 .debug_info    0x0000000000013473      0x50d .build/obj_3key_LohseBoi/quantum/backlight/backlight.o
 .debug_info    0x0000000000013980      0xd9f .build/obj_3key_LohseBoi/quantum/process_keycode/process_backlight.o
 .debug_info    0x000000000001471f      0x189 .build/obj_3key_LohseBoi/quantum/backlight/backlight_driver_common.o
 .debug_info    0x00000000000148a8      0x240 .build/obj_3key_LohseBoi/quantum/backlight/backlight_avr.o
 .debug_info    0x0000000000014ae8      0x2cf .build/obj_3key_LohseBoi/ws2812.o
 .debug_info    0x0000000000014db7       0xac .build/obj_3key_LohseBoi/quantum/led_tables.o
 .debug_info    0x0000000000014e63     0x1325 .build/obj_3key_LohseBoi/quantum/process_keycode/process_space_cadet.o
 .debug_info    0x0000000000016188      0xeb9 .build/obj_3key_LohseBoi/quantum/process_keycode/process_magic.o
 .debug_info    0x0000000000017041     0x1371 .build/obj_3key_LohseBoi/quantum/process_keycode/process_grave_esc.o
 .debug_info    0x00000000000183b2      0x90e .build/obj_3key_LohseBoi/common/host.o
 .debug_info    0x0000000000018cc0      0xa70 .build/obj_3key_LohseBoi/common/report.o
 .debug_info    0x0000000000019730       0x79 .build/obj_3key_LohseBoi/common/avr/platform.o
 .debug_info    0x00000000000197a9      0x3ef .build/obj_3key_LohseBoi/common/avr/suspend.o
 .debug_info    0x0000000000019b98      0x45c .build/obj_3key_LohseBoi/common/avr/timer.o
 .debug_info    0x0000000000019ff4      0x246 .build/obj_3key_LohseBoi/common/avr/bootloader.o
 .debug_info    0x000000000001a23a       0xe7 .build/obj_3key_LohseBoi/common/avr/printf.o
 .debug_info    0x000000000001a321     0x1506 .build/obj_3key_LohseBoi/lufa.o
 .debug_info    0x000000000001b827      0x807 .build/obj_3key_LohseBoi/usb_descriptor.o
 .debug_info    0x000000000001c02e       0xf5 .build/obj_3key_LohseBoi/lib/lufa/LUFA/Drivers/USB/Core/AVR8/Device_AVR8.o
 .debug_info    0x000000000001c123     0x1d7b .build/obj_3key_LohseBoi/lib/lufa/LUFA/Drivers/USB/Core/AVR8/EndpointStream_AVR8.o
 .debug_info    0x000000000001de9e      0x720 .build/obj_3key_LohseBoi/lib/lufa/LUFA/Drivers/USB/Core/AVR8/Endpoint_AVR8.o
 .debug_info    0x000000000001e5be      0x5a4 .build/obj_3key_LohseBoi/lib/lufa/LUFA/Drivers/USB/Core/AVR8/USBController_AVR8.o
 .debug_info    0x000000000001eb62      0x9ab .build/obj_3key_LohseBoi/lib/lufa/LUFA/Drivers/USB/Core/AVR8/USBInterrupt_AVR8.o
 .debug_info    0x000000000001f50d      0xc64 .build/obj_3key_LohseBoi/lib/lufa/LUFA/Drivers/USB/Core/DeviceStandardReq.o
 .debug_info    0x0000000000020171       0xe9 .build/obj_3key_LohseBoi/lib/lufa/LUFA/Drivers/USB/Core/Events.o
 .debug_info    0x000000000002025a      0x2c4 .build/obj_3key_LohseBoi/lib/lufa/LUFA/Drivers/USB/Core/USBTask.o

.debug_abbrev   0x0000000000000000     0x77cf
 *(.debug_abbrev)
 .debug_abbrev  0x0000000000000000      0x96a /usr/lib/gcc/avr/11.2.0/../../../../avr/lib/avr5/crtatmega32u4.o
 .debug_abbrev  0x000000000000096a      0x246 .build/obj_3key_LohseBoi/keyboards/3key/keymaps/LohseBoi/keymap.o
 .debug_abbrev  0x0000000000000bb0      0x3c1 .build/obj_3key_LohseBoi/quantum/quantum.o
 .debug_abbrev  0x0000000000000f71      0x2c1 .build/obj_3key_LohseBoi/quantum/send_string.o
 .debug_abbrev  0x0000000000001232      0x179 .build/obj_3key_LohseBoi/quantum/led.o
 .debug_abbrev  0x00000000000013ab      0x527 .build/obj_3key_LohseBoi/quantum/action.o
 .debug_abbrev  0x00000000000018d2      0x377 .build/obj_3key_LohseBoi/quantum/action_layer.o
 .debug_abbrev  0x0000000000001c49      0x1ca .build/obj_3key_LohseBoi/quantum/action_macro.o
 .debug_abbrev  0x0000000000001e13      0x3b7 .build/obj_3key_LohseBoi/quantum/action_tapping.o
 .debug_abbrev  0x00000000000021ca      0x344 .build/obj_3key_LohseBoi/quantum/action_util.o
 .debug_abbrev  0x000000000000250e      0x192 .build/obj_3key_LohseBoi/quantum/eeconfig.o
 .debug_abbrev  0x00000000000026a0      0x39a .build/obj_3key_LohseBoi/quantum/keyboard.o
 .debug_abbrev  0x0000000000002a3a      0x304 .build/obj_3key_LohseBoi/quantum/keymap_common.o
 .debug_abbrev  0x0000000000002d3e      0x119 .build/obj_3key_LohseBoi/quantum/keycode_config.o
 .debug_abbrev  0x0000000000002e57       0xa2 .build/obj_3key_LohseBoi/quantum/logging/debug.o
 .debug_abbrev  0x0000000000002ef9       0x6b .build/obj_3key_LohseBoi/quantum/logging/sendchar.o
 .debug_abbrev  0x0000000000002f64      0x17d .build/obj_3key_LohseBoi/quantum/bootmagic/bootmagic_lite.o
 .debug_abbrev  0x00000000000030e1      0x182 .build/obj_3key_LohseBoi/quantum/bootmagic/magic.o
 .debug_abbrev  0x0000000000003263      0x349 .build/obj_3key_LohseBoi/quantum/matrix_common.o
 .debug_abbrev  0x00000000000035ac      0x30e .build/obj_3key_LohseBoi/quantum/matrix.o
 .debug_abbrev  0x00000000000038ba      0x1e8 .build/obj_3key_LohseBoi/quantum/debounce/sym_defer_g.o
 .debug_abbrev  0x0000000000003aa2       0x66 .build/obj_3key_LohseBoi/quantum/main.o
 .debug_abbrev  0x0000000000003b08      0x2a6 .build/obj_3key_LohseBoi/quantum/mousekey.o
 .debug_abbrev  0x0000000000003dae      0x16a .build/obj_3key_LohseBoi/quantum/color.o
 .debug_abbrev  0x0000000000003f18      0x766 .build/obj_3key_LohseBoi/quantum/rgblight/rgblight.o
 .debug_abbrev  0x000000000000467e      0x1dd .build/obj_3key_LohseBoi/quantum/process_keycode/process_rgb.o
 .debug_abbrev  0x000000000000485b      0x237 .build/obj_3key_LohseBoi/quantum/backlight/backlight.o
 .debug_abbrev  0x0000000000004a92      0x11f .build/obj_3key_LohseBoi/quantum/process_keycode/process_backlight.o
 .debug_abbrev  0x0000000000004bb1       0xc4 .build/obj_3key_LohseBoi/quantum/backlight/backlight_driver_common.o
 .debug_abbrev  0x0000000000004c75      0x190 .build/obj_3key_LohseBoi/quantum/backlight/backlight_avr.o
 .debug_abbrev  0x0000000000004e05      0x1af .build/obj_3key_LohseBoi/ws2812.o
 .debug_abbrev  0x0000000000004fb4       0x77 .build/obj_3key_LohseBoi/quantum/led_tables.o
 .debug_abbrev  0x000000000000502b      0x1ad .build/obj_3key_LohseBoi/quantum/process_keycode/process_space_cadet.o
 .debug_abbrev  0x00000000000051d8      0x16c .build/obj_3key_LohseBoi/quantum/process_keycode/process_magic.o
 .debug_abbrev  0x0000000000005344      0x217 .build/obj_3key_LohseBoi/quantum/process_keycode/process_grave_esc.o
 .debug_abbrev  0x000000000000555b      0x27b .build/obj_3key_LohseBoi/common/host.o
 .debug_abbrev  0x00000000000057d6      0x286 .build/obj_3key_LohseBoi/common/report.o
 .debug_abbrev  0x0000000000005a5c       0x46 .build/obj_3key_LohseBoi/common/avr/platform.o
 .debug_abbrev  0x0000000000005aa2      0x279 .build/obj_3key_LohseBoi/common/avr/suspend.o
 .debug_abbrev  0x0000000000005d1b      0x1c1 .build/obj_3key_LohseBoi/common/avr/timer.o
 .debug_abbrev  0x0000000000005edc      0x1ce .build/obj_3key_LohseBoi/common/avr/bootloader.o
 .debug_abbrev  0x00000000000060aa       0x9d .build/obj_3key_LohseBoi/common/avr/printf.o
 .debug_abbrev  0x0000000000006147      0x59d .build/obj_3key_LohseBoi/lufa.o
 .debug_abbrev  0x00000000000066e4      0x189 .build/obj_3key_LohseBoi/usb_descriptor.o
 .debug_abbrev  0x000000000000686d       0x91 .build/obj_3key_LohseBoi/lib/lufa/LUFA/Drivers/USB/Core/AVR8/Device_AVR8.o
 .debug_abbrev  0x00000000000068fe      0x252 .build/obj_3key_LohseBoi/lib/lufa/LUFA/Drivers/USB/Core/AVR8/EndpointStream_AVR8.o
 .debug_abbrev  0x0000000000006b50      0x29d .build/obj_3key_LohseBoi/lib/lufa/LUFA/Drivers/USB/Core/AVR8/Endpoint_AVR8.o
 .debug_abbrev  0x0000000000006ded      0x1d2 .build/obj_3key_LohseBoi/lib/lufa/LUFA/Drivers/USB/Core/AVR8/USBController_AVR8.o
 .debug_abbrev  0x0000000000006fbf      0x26e .build/obj_3key_LohseBoi/lib/lufa/LUFA/Drivers/USB/Core/AVR8/USBInterrupt_AVR8.o
 .debug_abbrev  0x000000000000722d      0x370 .build/obj_3key_LohseBoi/lib/lufa/LUFA/Drivers/USB/Core/DeviceStandardReq.o
 .debug_abbrev  0x000000000000759d       0x89 .build/obj_3key_LohseBoi/lib/lufa/LUFA/Drivers/USB/Core/Events.o
 .debug_abbrev  0x0000000000007626      0x1a9 .build/obj_3key_LohseBoi/lib/lufa/LUFA/Drivers/USB/Core/USBTask.o

.debug_line     0x0000000000000000    0x1688e
 *(.debug_line .debug_line.* .debug_line_end)
 .debug_line    0x0000000000000000       0x1d /usr/lib/gcc/avr/11.2.0/../../../../avr/lib/avr5/crtatmega32u4.o
 .debug_line    0x000000000000001d      0x355 .build/obj_3key_LohseBoi/keyboards/3key/keymaps/LohseBoi/keymap.o
 .debug_line    0x0000000000000372      0xac7 .build/obj_3key_LohseBoi/quantum/quantum.o
 .debug_line    0x0000000000000e39      0xb97 .build/obj_3key_LohseBoi/quantum/send_string.o
 .debug_line    0x00000000000019d0      0x13e .build/obj_3key_LohseBoi/quantum/led.o
 .debug_line    0x0000000000001b0e     0x1716 .build/obj_3key_LohseBoi/quantum/action.o
 .debug_line    0x0000000000003224      0x972 .build/obj_3key_LohseBoi/quantum/action_layer.o
 .debug_line    0x0000000000003b96      0x441 .build/obj_3key_LohseBoi/quantum/action_macro.o
 .debug_line    0x0000000000003fd7      0xc42 .build/obj_3key_LohseBoi/quantum/action_tapping.o
 .debug_line    0x0000000000004c19      0xaca .build/obj_3key_LohseBoi/quantum/action_util.o
 .debug_line    0x00000000000056e3      0x4bc .build/obj_3key_LohseBoi/quantum/eeconfig.o
 .debug_line    0x0000000000005b9f      0x784 .build/obj_3key_LohseBoi/quantum/keyboard.o
 .debug_line    0x0000000000006323      0x5c9 .build/obj_3key_LohseBoi/quantum/keymap_common.o
 .debug_line    0x00000000000068ec      0x56b .build/obj_3key_LohseBoi/quantum/keycode_config.o
 .debug_line    0x0000000000006e57       0x60 .build/obj_3key_LohseBoi/quantum/logging/debug.o
 .debug_line    0x0000000000006eb7       0x81 .build/obj_3key_LohseBoi/quantum/logging/sendchar.o
 .debug_line    0x0000000000006f38      0x1b6 .build/obj_3key_LohseBoi/quantum/bootmagic/bootmagic_lite.o
 .debug_line    0x00000000000070ee      0x1a0 .build/obj_3key_LohseBoi/quantum/bootmagic/magic.o
 .debug_line    0x000000000000728e      0x4b4 .build/obj_3key_LohseBoi/quantum/matrix_common.o
 .debug_line    0x0000000000007742      0x5ba .build/obj_3key_LohseBoi/quantum/matrix.o
 .debug_line    0x0000000000007cfc      0x236 .build/obj_3key_LohseBoi/quantum/debounce/sym_defer_g.o
 .debug_line    0x0000000000007f32       0x8f .build/obj_3key_LohseBoi/quantum/main.o
 .debug_line    0x0000000000007fc1      0xd3b .build/obj_3key_LohseBoi/quantum/mousekey.o
 .debug_line    0x0000000000008cfc      0x301 .build/obj_3key_LohseBoi/quantum/color.o
 .debug_line    0x0000000000008ffd     0x32f3 .build/obj_3key_LohseBoi/quantum/rgblight/rgblight.o
 .debug_line    0x000000000000c2f0      0x30b .build/obj_3key_LohseBoi/quantum/process_keycode/process_rgb.o
 .debug_line    0x000000000000c5fb      0x5f3 .build/obj_3key_LohseBoi/quantum/backlight/backlight.o
 .debug_line    0x000000000000cbee      0x16f .build/obj_3key_LohseBoi/quantum/process_keycode/process_backlight.o
 .debug_line    0x000000000000cd5d      0x138 .build/obj_3key_LohseBoi/quantum/backlight/backlight_driver_common.o
 .debug_line    0x000000000000ce95      0x292 .build/obj_3key_LohseBoi/quantum/backlight/backlight_avr.o
 .debug_line    0x000000000000d127      0x1dd .build/obj_3key_LohseBoi/ws2812.o
 .debug_line    0x000000000000d304       0x62 .build/obj_3key_LohseBoi/quantum/led_tables.o
 .debug_line    0x000000000000d366      0x3b4 .build/obj_3key_LohseBoi/quantum/process_keycode/process_space_cadet.o
 .debug_line    0x000000000000d71a      0x3fe .build/obj_3key_LohseBoi/quantum/process_keycode/process_magic.o
 .debug_line    0x000000000000db18      0x1eb .build/obj_3key_LohseBoi/quantum/process_keycode/process_grave_esc.o
 .debug_line    0x000000000000dd03      0x45d .build/obj_3key_LohseBoi/common/host.o
 .debug_line    0x000000000000e160      0x6af .build/obj_3key_LohseBoi/common/report.o
 .debug_line    0x000000000000e80f       0x59 .build/obj_3key_LohseBoi/common/avr/platform.o
 .debug_line    0x000000000000e868      0x3da .build/obj_3key_LohseBoi/common/avr/suspend.o
 .debug_line    0x000000000000ec42      0x497 .build/obj_3key_LohseBoi/common/avr/timer.o
 .debug_line    0x000000000000f0d9      0x235 .build/obj_3key_LohseBoi/common/avr/bootloader.o
 .debug_line    0x000000000000f30e       0xa8 .build/obj_3key_LohseBoi/common/avr/printf.o
 .debug_line    0x000000000000f3b6     0x1043 .build/obj_3key_LohseBoi/lufa.o
 .debug_line    0x00000000000103f9      0x2e3 .build/obj_3key_LohseBoi/usb_descriptor.o
 .debug_line    0x00000000000106dc      0x19e .build/obj_3key_LohseBoi/lib/lufa/LUFA/Drivers/USB/Core/AVR8/Device_AVR8.o
 .debug_line    0x000000000001087a     0x32d2 .build/obj_3key_LohseBoi/lib/lufa/LUFA/Drivers/USB/Core/AVR8/EndpointStream_AVR8.o
 .debug_line    0x0000000000013b4c      0x992 .build/obj_3key_LohseBoi/lib/lufa/LUFA/Drivers/USB/Core/AVR8/Endpoint_AVR8.o
 .debug_line    0x00000000000144de      0x640 .build/obj_3key_LohseBoi/lib/lufa/LUFA/Drivers/USB/Core/AVR8/USBController_AVR8.o
 .debug_line    0x0000000000014b1e      0xcd8 .build/obj_3key_LohseBoi/lib/lufa/LUFA/Drivers/USB/Core/AVR8/USBInterrupt_AVR8.o
 .debug_line    0x00000000000157f6      0xd74 .build/obj_3key_LohseBoi/lib/lufa/LUFA/Drivers/USB/Core/DeviceStandardReq.o
 .debug_line    0x000000000001656a       0xd5 .build/obj_3key_LohseBoi/lib/lufa/LUFA/Drivers/USB/Core/Events.o
 .debug_line    0x000000000001663f      0x24f .build/obj_3key_LohseBoi/lib/lufa/LUFA/Drivers/USB/Core/USBTask.o

.debug_frame    0x0000000000000000     0x2e7c
 *(.debug_frame)
 .debug_frame   0x0000000000000000       0x70 .build/obj_3key_LohseBoi/keyboards/3key/keymaps/LohseBoi/keymap.o
 .debug_frame   0x0000000000000070      0x274 .build/obj_3key_LohseBoi/quantum/quantum.o
 .debug_frame   0x00000000000002e4      0x134 .build/obj_3key_LohseBoi/quantum/send_string.o
 .debug_frame   0x0000000000000418       0x7c .build/obj_3key_LohseBoi/quantum/led.o
 .debug_frame   0x0000000000000494      0x268 .build/obj_3key_LohseBoi/quantum/action.o
 .debug_frame   0x00000000000006fc      0x2e0 .build/obj_3key_LohseBoi/quantum/action_layer.o
 .debug_frame   0x00000000000009dc       0x44 .build/obj_3key_LohseBoi/quantum/action_macro.o
 .debug_frame   0x0000000000000a20       0xe4 .build/obj_3key_LohseBoi/quantum/action_tapping.o
 .debug_frame   0x0000000000000b04      0x2f4 .build/obj_3key_LohseBoi/quantum/action_util.o
 .debug_frame   0x0000000000000df8      0x1a4 .build/obj_3key_LohseBoi/quantum/eeconfig.o
 .debug_frame   0x0000000000000f9c      0x224 .build/obj_3key_LohseBoi/quantum/keyboard.o
 .debug_frame   0x00000000000011c0       0x80 .build/obj_3key_LohseBoi/quantum/keymap_common.o
 .debug_frame   0x0000000000001240       0x34 .build/obj_3key_LohseBoi/quantum/keycode_config.o
 .debug_frame   0x0000000000001274       0x24 .build/obj_3key_LohseBoi/quantum/logging/sendchar.o
 .debug_frame   0x0000000000001298       0x44 .build/obj_3key_LohseBoi/quantum/bootmagic/bootmagic_lite.o
 .debug_frame   0x00000000000012dc       0x44 .build/obj_3key_LohseBoi/quantum/bootmagic/magic.o
 .debug_frame   0x0000000000001320      0x14c .build/obj_3key_LohseBoi/quantum/matrix_common.o
 .debug_frame   0x000000000000146c       0xa0 .build/obj_3key_LohseBoi/quantum/matrix.o
 .debug_frame   0x000000000000150c       0x70 .build/obj_3key_LohseBoi/quantum/debounce/sym_defer_g.o
 .debug_frame   0x000000000000157c       0x24 .build/obj_3key_LohseBoi/quantum/main.o
 .debug_frame   0x00000000000015a0       0xd4 .build/obj_3key_LohseBoi/quantum/mousekey.o
 .debug_frame   0x0000000000001674       0x78 .build/obj_3key_LohseBoi/quantum/color.o
 .debug_frame   0x00000000000016ec      0x8a8 .build/obj_3key_LohseBoi/quantum/rgblight/rgblight.o
 .debug_frame   0x0000000000001f94       0x60 .build/obj_3key_LohseBoi/quantum/process_keycode/process_rgb.o
 .debug_frame   0x0000000000001ff4      0x134 .build/obj_3key_LohseBoi/quantum/backlight/backlight.o
 .debug_frame   0x0000000000002128       0x24 .build/obj_3key_LohseBoi/quantum/process_keycode/process_backlight.o
 .debug_frame   0x000000000000214c       0x44 .build/obj_3key_LohseBoi/quantum/backlight/backlight_driver_common.o
 .debug_frame   0x0000000000002190       0x54 .build/obj_3key_LohseBoi/quantum/backlight/backlight_avr.o
 .debug_frame   0x00000000000021e4       0x24 .build/obj_3key_LohseBoi/ws2812.o
 .debug_frame   0x0000000000002208       0x50 .build/obj_3key_LohseBoi/quantum/process_keycode/process_space_cadet.o
 .debug_frame   0x0000000000002258       0x30 .build/obj_3key_LohseBoi/quantum/process_keycode/process_magic.o
 .debug_frame   0x0000000000002288       0x30 .build/obj_3key_LohseBoi/quantum/process_keycode/process_grave_esc.o
 .debug_frame   0x00000000000022b8       0xf0 .build/obj_3key_LohseBoi/common/host.o
 .debug_frame   0x00000000000023a8       0xc0 .build/obj_3key_LohseBoi/common/report.o
 .debug_frame   0x0000000000002468       0x24 .build/obj_3key_LohseBoi/common/avr/platform.o
 .debug_frame   0x000000000000248c       0xd4 .build/obj_3key_LohseBoi/common/avr/suspend.o
 .debug_frame   0x0000000000002560       0xc0 .build/obj_3key_LohseBoi/common/avr/timer.o
 .debug_frame   0x0000000000002620       0x34 .build/obj_3key_LohseBoi/common/avr/bootloader.o
 .debug_frame   0x0000000000002654       0x24 .build/obj_3key_LohseBoi/common/avr/printf.o
 .debug_frame   0x0000000000002678      0x140 .build/obj_3key_LohseBoi/lufa.o
 .debug_frame   0x00000000000027b8       0x24 .build/obj_3key_LohseBoi/usb_descriptor.o
 .debug_frame   0x00000000000027dc       0x24 .build/obj_3key_LohseBoi/lib/lufa/LUFA/Drivers/USB/Core/AVR8/Device_AVR8.o
 .debug_frame   0x0000000000002800      0x404 .build/obj_3key_LohseBoi/lib/lufa/LUFA/Drivers/USB/Core/AVR8/EndpointStream_AVR8.o
 .debug_frame   0x0000000000002c04       0x78 .build/obj_3key_LohseBoi/lib/lufa/LUFA/Drivers/USB/Core/AVR8/Endpoint_AVR8.o
 .debug_frame   0x0000000000002c7c       0x58 .build/obj_3key_LohseBoi/lib/lufa/LUFA/Drivers/USB/Core/AVR8/USBController_AVR8.o
 .debug_frame   0x0000000000002cd4       0xfc .build/obj_3key_LohseBoi/lib/lufa/LUFA/Drivers/USB/Core/AVR8/USBInterrupt_AVR8.o
 .debug_frame   0x0000000000002dd0       0x3c .build/obj_3key_LohseBoi/lib/lufa/LUFA/Drivers/USB/Core/DeviceStandardReq.o
 .debug_frame   0x0000000000002e0c       0x44 .build/obj_3key_LohseBoi/lib/lufa/LUFA/Drivers/USB/Core/Events.o
 .debug_frame   0x0000000000002e50       0x2c .build/obj_3key_LohseBoi/lib/lufa/LUFA/Drivers/USB/Core/USBTask.o

.debug_str      0x0000000000000000     0x78d7
 *(.debug_str)
 .debug_str     0x0000000000000000      0x371 /usr/lib/gcc/avr/11.2.0/../../../../avr/lib/avr5/crtatmega32u4.o
 .debug_str     0x0000000000000371      0x884 .build/obj_3key_LohseBoi/keyboards/3key/keymaps/LohseBoi/keymap.o
                                        0x8f9 (size before relaxing)
 .debug_str     0x0000000000000bf5     0x1564 .build/obj_3key_LohseBoi/quantum/quantum.o
                                       0x1e09 (size before relaxing)
 .debug_str     0x0000000000002159      0x12c .build/obj_3key_LohseBoi/quantum/send_string.o
                                        0x984 (size before relaxing)
 .debug_str     0x0000000000002285       0x8f .build/obj_3key_LohseBoi/quantum/led.o
                                        0x23b (size before relaxing)
 .debug_str     0x0000000000002314      0xd9b .build/obj_3key_LohseBoi/quantum/action.o
                                       0x17eb (size before relaxing)
 .debug_str     0x00000000000030af       0xe7 .build/obj_3key_LohseBoi/quantum/action_layer.o
                                        0x560 (size before relaxing)
 .debug_str     0x0000000000003196       0x6c .build/obj_3key_LohseBoi/quantum/action_macro.o
                                        0x882 (size before relaxing)
 .debug_str     0x0000000000003202       0xef .build/obj_3key_LohseBoi/quantum/action_tapping.o
                                        0xb26 (size before relaxing)
 .debug_str     0x00000000000032f1      0x2e5 .build/obj_3key_LohseBoi/quantum/action_util.o
                                        0x74e (size before relaxing)
 .debug_str     0x00000000000035d6      0x25b .build/obj_3key_LohseBoi/quantum/eeconfig.o
                                        0x460 (size before relaxing)
 .debug_str     0x0000000000003831      0x3ce .build/obj_3key_LohseBoi/quantum/keyboard.o
                                        0x66f (size before relaxing)
 .debug_str     0x0000000000003bff       0x95 .build/obj_3key_LohseBoi/quantum/keymap_common.o
                                       0x23e8 (size before relaxing)
 .debug_str     0x0000000000003c94       0x6a .build/obj_3key_LohseBoi/quantum/keycode_config.o
                                        0x8a7 (size before relaxing)
 .debug_str     0x0000000000003cfe       0x18 .build/obj_3key_LohseBoi/quantum/logging/debug.o
                                        0x1e8 (size before relaxing)
 .debug_str     0x0000000000003d16       0x1b .build/obj_3key_LohseBoi/quantum/logging/sendchar.o
                                        0x1b3 (size before relaxing)
 .debug_str     0x0000000000003d31       0x58 .build/obj_3key_LohseBoi/quantum/bootmagic/bootmagic_lite.o
                                        0x28d (size before relaxing)
 .debug_str     0x0000000000003d89       0x1a .build/obj_3key_LohseBoi/quantum/bootmagic/magic.o
                                        0x3fb (size before relaxing)
 .debug_str     0x0000000000003da3      0x144 .build/obj_3key_LohseBoi/quantum/matrix_common.o
                                        0x460 (size before relaxing)
 .debug_str     0x0000000000003ee7       0xea .build/obj_3key_LohseBoi/quantum/matrix.o
                                        0x363 (size before relaxing)
 .debug_str     0x0000000000003fd1       0x96 .build/obj_3key_LohseBoi/quantum/debounce/sym_defer_g.o
                                        0x2ec (size before relaxing)
 .debug_str     0x0000000000004067       0x4e .build/obj_3key_LohseBoi/quantum/main.o
                                        0x1e6 (size before relaxing)
 .debug_str     0x00000000000040b5      0x156 .build/obj_3key_LohseBoi/quantum/mousekey.o
                                        0x4a5 (size before relaxing)
 .debug_str     0x000000000000420b       0x5d .build/obj_3key_LohseBoi/quantum/color.o
                                        0x211 (size before relaxing)
 .debug_str     0x0000000000004268     0x1133 .build/obj_3key_LohseBoi/quantum/rgblight/rgblight.o
                                       0x1475 (size before relaxing)
 .debug_str     0x000000000000539b       0x6f .build/obj_3key_LohseBoi/quantum/process_keycode/process_rgb.o
                                       0x1f14 (size before relaxing)
 .debug_str     0x000000000000540a      0x171 .build/obj_3key_LohseBoi/quantum/backlight/backlight.o
                                        0x423 (size before relaxing)
 .debug_str     0x000000000000557b       0x2c .build/obj_3key_LohseBoi/quantum/process_keycode/process_backlight.o
                                       0x141b (size before relaxing)
 .debug_str     0x00000000000055a7       0x8e .build/obj_3key_LohseBoi/quantum/backlight/backlight_driver_common.o
                                        0x227 (size before relaxing)
 .debug_str     0x0000000000005635       0x61 .build/obj_3key_LohseBoi/quantum/backlight/backlight_avr.o
                                        0x274 (size before relaxing)
 .debug_str     0x0000000000005696       0x74 .build/obj_3key_LohseBoi/ws2812.o
                                        0x26e (size before relaxing)
 .debug_str     0x000000000000570a       0x15 .build/obj_3key_LohseBoi/quantum/led_tables.o
                                        0x1ab (size before relaxing)
 .debug_str     0x000000000000571f       0x6d .build/obj_3key_LohseBoi/quantum/process_keycode/process_space_cadet.o
                                       0x1a72 (size before relaxing)
 .debug_str     0x000000000000578c       0x28 .build/obj_3key_LohseBoi/quantum/process_keycode/process_magic.o
                                       0x14db (size before relaxing)
 .debug_str     0x00000000000057b4       0x42 .build/obj_3key_LohseBoi/quantum/process_keycode/process_grave_esc.o
                                       0x1ab6 (size before relaxing)
 .debug_str     0x00000000000057f6      0x1c9 .build/obj_3key_LohseBoi/common/host.o
                                        0x61f (size before relaxing)
 .debug_str     0x00000000000059bf       0x6c .build/obj_3key_LohseBoi/common/report.o
                                        0x958 (size before relaxing)
 .debug_str     0x0000000000005a2b       0x1f .build/obj_3key_LohseBoi/common/avr/platform.o
                                        0x1ae (size before relaxing)
 .debug_str     0x0000000000005a4a      0x1de .build/obj_3key_LohseBoi/common/avr/suspend.o
                                        0x402 (size before relaxing)
 .debug_str     0x0000000000005c28       0x49 .build/obj_3key_LohseBoi/common/avr/timer.o
                                        0x253 (size before relaxing)
 .debug_str     0x0000000000005c71       0x61 .build/obj_3key_LohseBoi/common/avr/bootloader.o
                                        0x272 (size before relaxing)
 .debug_str     0x0000000000005cd2       0x27 .build/obj_3key_LohseBoi/common/avr/printf.o
                                        0x1de (size before relaxing)
 .debug_str     0x0000000000005cf9      0x62f .build/obj_3key_LohseBoi/lufa.o
                                        0xc92 (size before relaxing)
 .debug_str     0x0000000000006328      0x6a9 .build/obj_3key_LohseBoi/usb_descriptor.o
                                        0x9e2 (size before relaxing)
 .debug_str     0x00000000000069d1       0x5e .build/obj_3key_LohseBoi/lib/lufa/LUFA/Drivers/USB/Core/AVR8/Device_AVR8.o
                                        0x208 (size before relaxing)
 .debug_str     0x0000000000006a2f      0x4a3 .build/obj_3key_LohseBoi/lib/lufa/LUFA/Drivers/USB/Core/AVR8/EndpointStream_AVR8.o
                                        0x86a (size before relaxing)
 .debug_str     0x0000000000006ed2      0x254 .build/obj_3key_LohseBoi/lib/lufa/LUFA/Drivers/USB/Core/AVR8/Endpoint_AVR8.o
                                        0x62a (size before relaxing)
 .debug_str     0x0000000000007126      0x1c0 .build/obj_3key_LohseBoi/lib/lufa/LUFA/Drivers/USB/Core/AVR8/USBController_AVR8.o
                                        0x569 (size before relaxing)
 .debug_str     0x00000000000072e6      0x146 .build/obj_3key_LohseBoi/lib/lufa/LUFA/Drivers/USB/Core/AVR8/USBInterrupt_AVR8.o
                                        0x5e8 (size before relaxing)
 .debug_str     0x000000000000742c      0x40d .build/obj_3key_LohseBoi/lib/lufa/LUFA/Drivers/USB/Core/DeviceStandardReq.o
                                        0x9b9 (size before relaxing)
 .debug_str     0x0000000000007839       0x59 .build/obj_3key_LohseBoi/lib/lufa/LUFA/Drivers/USB/Core/Events.o
                                        0x1e1 (size before relaxing)
 .debug_str     0x0000000000007892       0x45 .build/obj_3key_LohseBoi/lib/lufa/LUFA/Drivers/USB/Core/USBTask.o
                                        0x38f (size before relaxing)

.debug_loc      0x0000000000000000     0xe9c4
 *(.debug_loc)
 .debug_loc     0x0000000000000000      0x132 .build/obj_3key_LohseBoi/keyboards/3key/keymaps/LohseBoi/keymap.o
 .debug_loc     0x0000000000000132      0x9fa .build/obj_3key_LohseBoi/quantum/quantum.o
 .debug_loc     0x0000000000000b2c      0xf2a .build/obj_3key_LohseBoi/quantum/send_string.o
 .debug_loc     0x0000000000001a56       0xb0 .build/obj_3key_LohseBoi/quantum/led.o
 .debug_loc     0x0000000000001b06      0xe97 .build/obj_3key_LohseBoi/quantum/action.o
 .debug_loc     0x000000000000299d      0xb28 .build/obj_3key_LohseBoi/quantum/action_layer.o
 .debug_loc     0x00000000000034c5      0x5b6 .build/obj_3key_LohseBoi/quantum/action_macro.o
 .debug_loc     0x0000000000003a7b      0x4f0 .build/obj_3key_LohseBoi/quantum/action_tapping.o
 .debug_loc     0x0000000000003f6b      0x31a .build/obj_3key_LohseBoi/quantum/action_util.o
 .debug_loc     0x0000000000004285      0x203 .build/obj_3key_LohseBoi/quantum/eeconfig.o
 .debug_loc     0x0000000000004488      0x3a9 .build/obj_3key_LohseBoi/quantum/keyboard.o
 .debug_loc     0x0000000000004831      0x619 .build/obj_3key_LohseBoi/quantum/keymap_common.o
 .debug_loc     0x0000000000004e4a      0x203 .build/obj_3key_LohseBoi/quantum/keycode_config.o
 .debug_loc     0x000000000000504d       0x25 .build/obj_3key_LohseBoi/quantum/logging/sendchar.o
 .debug_loc     0x0000000000005072       0x4e .build/obj_3key_LohseBoi/quantum/bootmagic/bootmagic_lite.o
 .debug_loc     0x00000000000050c0       0x74 .build/obj_3key_LohseBoi/quantum/bootmagic/magic.o
 .debug_loc     0x0000000000005134      0x1e4 .build/obj_3key_LohseBoi/quantum/matrix_common.o
 .debug_loc     0x0000000000005318      0x4b9 .build/obj_3key_LohseBoi/quantum/matrix.o
 .debug_loc     0x00000000000057d1      0x17c .build/obj_3key_LohseBoi/quantum/debounce/sym_defer_g.o
 .debug_loc     0x000000000000594d      0x4a1 .build/obj_3key_LohseBoi/quantum/mousekey.o
 .debug_loc     0x0000000000005dee      0x251 .build/obj_3key_LohseBoi/quantum/color.o
 .debug_loc     0x000000000000603f     0x30d5 .build/obj_3key_LohseBoi/quantum/rgblight/rgblight.o
 .debug_loc     0x0000000000009114      0x2ee .build/obj_3key_LohseBoi/quantum/process_keycode/process_rgb.o
 .debug_loc     0x0000000000009402       0x9f .build/obj_3key_LohseBoi/quantum/backlight/backlight.o
 .debug_loc     0x00000000000094a1      0x19a .build/obj_3key_LohseBoi/quantum/process_keycode/process_backlight.o
 .debug_loc     0x000000000000963b       0x45 .build/obj_3key_LohseBoi/quantum/backlight/backlight_driver_common.o
 .debug_loc     0x0000000000009680      0x116 .build/obj_3key_LohseBoi/quantum/backlight/backlight_avr.o
 .debug_loc     0x0000000000009796      0x229 .build/obj_3key_LohseBoi/ws2812.o
 .debug_loc     0x00000000000099bf      0x4a6 .build/obj_3key_LohseBoi/quantum/process_keycode/process_space_cadet.o
 .debug_loc     0x0000000000009e65       0xdb .build/obj_3key_LohseBoi/quantum/process_keycode/process_magic.o
 .debug_loc     0x0000000000009f40      0x143 .build/obj_3key_LohseBoi/quantum/process_keycode/process_grave_esc.o
 .debug_loc     0x000000000000a083      0x1b1 .build/obj_3key_LohseBoi/common/host.o
 .debug_loc     0x000000000000a234      0x558 .build/obj_3key_LohseBoi/common/report.o
 .debug_loc     0x000000000000a78c       0x8d .build/obj_3key_LohseBoi/common/avr/suspend.o
 .debug_loc     0x000000000000a819      0x321 .build/obj_3key_LohseBoi/common/avr/timer.o
 .debug_loc     0x000000000000ab3a       0x64 .build/obj_3key_LohseBoi/common/avr/bootloader.o
 .debug_loc     0x000000000000ab9e      0x5dd .build/obj_3key_LohseBoi/lufa.o
 .debug_loc     0x000000000000b17b      0x2f8 .build/obj_3key_LohseBoi/usb_descriptor.o
 .debug_loc     0x000000000000b473     0x271c .build/obj_3key_LohseBoi/lib/lufa/LUFA/Drivers/USB/Core/AVR8/EndpointStream_AVR8.o
 .debug_loc     0x000000000000db8f      0x4bd .build/obj_3key_LohseBoi/lib/lufa/LUFA/Drivers/USB/Core/AVR8/Endpoint_AVR8.o
 .debug_loc     0x000000000000e04c       0xf9 .build/obj_3key_LohseBoi/lib/lufa/LUFA/Drivers/USB/Core/AVR8/USBController_AVR8.o
 .debug_loc     0x000000000000e145      0x495 .build/obj_3key_LohseBoi/lib/lufa/LUFA/Drivers/USB/Core/AVR8/USBInterrupt_AVR8.o
 .debug_loc     0x000000000000e5da      0x388 .build/obj_3key_LohseBoi/lib/lufa/LUFA/Drivers/USB/Core/DeviceStandardReq.o
 .debug_loc     0x000000000000e962       0x62 .build/obj_3key_LohseBoi/lib/lufa/LUFA/Drivers/USB/Core/USBTask.o

.debug_macinfo
 *(.debug_macinfo)

.debug_weaknames
 *(.debug_weaknames)

.debug_funcnames
 *(.debug_funcnames)

.debug_typenames
 *(.debug_typenames)

.debug_varnames
 *(.debug_varnames)

.debug_pubtypes
 *(.debug_pubtypes)

.debug_ranges   0x0000000000000000     0x19d0
 *(.debug_ranges)
 .debug_ranges  0x0000000000000000       0x20 .build/obj_3key_LohseBoi/keyboards/3key/keymaps/LohseBoi/keymap.o
 .debug_ranges  0x0000000000000020       0xd8 .build/obj_3key_LohseBoi/quantum/quantum.o
 .debug_ranges  0x00000000000000f8      0x100 .build/obj_3key_LohseBoi/quantum/send_string.o
 .debug_ranges  0x00000000000001f8       0x38 .build/obj_3key_LohseBoi/quantum/led.o
 .debug_ranges  0x0000000000000230      0x180 .build/obj_3key_LohseBoi/quantum/action.o
 .debug_ranges  0x00000000000003b0      0x128 .build/obj_3key_LohseBoi/quantum/action_layer.o
 .debug_ranges  0x00000000000004d8       0x28 .build/obj_3key_LohseBoi/quantum/action_macro.o
 .debug_ranges  0x0000000000000500       0xf0 .build/obj_3key_LohseBoi/quantum/action_tapping.o
 .debug_ranges  0x00000000000005f0      0x168 .build/obj_3key_LohseBoi/quantum/action_util.o
 .debug_ranges  0x0000000000000758       0xc8 .build/obj_3key_LohseBoi/quantum/eeconfig.o
 .debug_ranges  0x0000000000000820       0xf8 .build/obj_3key_LohseBoi/quantum/keyboard.o
 .debug_ranges  0x0000000000000918       0x38 .build/obj_3key_LohseBoi/quantum/keymap_common.o
 .debug_ranges  0x0000000000000950       0x18 .build/obj_3key_LohseBoi/quantum/keycode_config.o
 .debug_ranges  0x0000000000000968       0x10 .build/obj_3key_LohseBoi/quantum/logging/sendchar.o
 .debug_ranges  0x0000000000000978       0x20 .build/obj_3key_LohseBoi/quantum/bootmagic/bootmagic_lite.o
 .debug_ranges  0x0000000000000998       0x18 .build/obj_3key_LohseBoi/quantum/bootmagic/magic.o
 .debug_ranges  0x00000000000009b0       0x90 .build/obj_3key_LohseBoi/quantum/matrix_common.o
 .debug_ranges  0x0000000000000a40       0x68 .build/obj_3key_LohseBoi/quantum/matrix.o
 .debug_ranges  0x0000000000000aa8       0x40 .build/obj_3key_LohseBoi/quantum/debounce/sym_defer_g.o
 .debug_ranges  0x0000000000000ae8       0x10 .build/obj_3key_LohseBoi/quantum/main.o
 .debug_ranges  0x0000000000000af8       0x48 .build/obj_3key_LohseBoi/quantum/mousekey.o
 .debug_ranges  0x0000000000000b40       0x20 .build/obj_3key_LohseBoi/quantum/color.o
 .debug_ranges  0x0000000000000b60      0x5d8 .build/obj_3key_LohseBoi/quantum/rgblight/rgblight.o
 .debug_ranges  0x0000000000001138       0x38 .build/obj_3key_LohseBoi/quantum/process_keycode/process_rgb.o
 .debug_ranges  0x0000000000001170       0x90 .build/obj_3key_LohseBoi/quantum/backlight/backlight.o
 .debug_ranges  0x0000000000001200       0x10 .build/obj_3key_LohseBoi/quantum/process_keycode/process_backlight.o
 .debug_ranges  0x0000000000001210       0x20 .build/obj_3key_LohseBoi/quantum/backlight/backlight_driver_common.o
 .debug_ranges  0x0000000000001230       0x38 .build/obj_3key_LohseBoi/quantum/backlight/backlight_avr.o
 .debug_ranges  0x0000000000001268       0x30 .build/obj_3key_LohseBoi/ws2812.o
 .debug_ranges  0x0000000000001298       0x18 .build/obj_3key_LohseBoi/quantum/process_keycode/process_space_cadet.o
 .debug_ranges  0x00000000000012b0       0x10 .build/obj_3key_LohseBoi/quantum/process_keycode/process_magic.o
 .debug_ranges  0x00000000000012c0       0x28 .build/obj_3key_LohseBoi/quantum/process_keycode/process_grave_esc.o
 .debug_ranges  0x00000000000012e8       0x68 .build/obj_3key_LohseBoi/common/host.o
 .debug_ranges  0x0000000000001350       0x70 .build/obj_3key_LohseBoi/common/report.o
 .debug_ranges  0x00000000000013c0       0x10 .build/obj_3key_LohseBoi/common/avr/platform.o
 .debug_ranges  0x00000000000013d0       0x48 .build/obj_3key_LohseBoi/common/avr/suspend.o
 .debug_ranges  0x0000000000001418       0x40 .build/obj_3key_LohseBoi/common/avr/timer.o
 .debug_ranges  0x0000000000001458       0x18 .build/obj_3key_LohseBoi/common/avr/bootloader.o
 .debug_ranges  0x0000000000001470       0x10 .build/obj_3key_LohseBoi/common/avr/printf.o
 .debug_ranges  0x0000000000001480       0xe8 .build/obj_3key_LohseBoi/lufa.o
 .debug_ranges  0x0000000000001568       0x28 .build/obj_3key_LohseBoi/usb_descriptor.o
 .debug_ranges  0x0000000000001590       0x10 .build/obj_3key_LohseBoi/lib/lufa/LUFA/Drivers/USB/Core/AVR8/Device_AVR8.o
 .debug_ranges  0x00000000000015a0      0x1f8 .build/obj_3key_LohseBoi/lib/lufa/LUFA/Drivers/USB/Core/AVR8/EndpointStream_AVR8.o
 .debug_ranges  0x0000000000001798       0xd0 .build/obj_3key_LohseBoi/lib/lufa/LUFA/Drivers/USB/Core/AVR8/Endpoint_AVR8.o
 .debug_ranges  0x0000000000001868       0x20 .build/obj_3key_LohseBoi/lib/lufa/LUFA/Drivers/USB/Core/AVR8/USBController_AVR8.o
 .debug_ranges  0x0000000000001888       0x28 .build/obj_3key_LohseBoi/lib/lufa/LUFA/Drivers/USB/Core/AVR8/USBInterrupt_AVR8.o
 .debug_ranges  0x00000000000018b0       0xf0 .build/obj_3key_LohseBoi/lib/lufa/LUFA/Drivers/USB/Core/DeviceStandardReq.o
 .debug_ranges  0x00000000000019a0       0x20 .build/obj_3key_LohseBoi/lib/lufa/LUFA/Drivers/USB/Core/Events.o
 .debug_ranges  0x00000000000019c0       0x10 .build/obj_3key_LohseBoi/lib/lufa/LUFA/Drivers/USB/Core/USBTask.o

.debug_addr
 *(.debug_addr)

.debug_line_str
 *(.debug_line_str)

.debug_loclists
 *(.debug_loclists)

.debug_macro
 *(.debug_macro)

.debug_names
 *(.debug_names)

.debug_rnglists
 *(.debug_rnglists)

.debug_str_offsets
 *(.debug_str_offsets)

.debug_sup
 *(.debug_sup)
OUTPUT(.build/3key_LohseBoi.elf elf32-avr)
LOAD linker stubs

Cross Reference Table

Symbol                                            File
CALLBACK_HIDParser_FilterHIDReportItem            .build/obj_3key_LohseBoi/lib/lufa/LUFA/Drivers/USB/Class/Common/HIDParser.o
CALLBACK_USB_GetDescriptor                        .build/obj_3key_LohseBoi/lufa.o
                                                  .build/obj_3key_LohseBoi/lib/lufa/LUFA/Drivers/USB/Core/DeviceStandardReq.o
CIE1931_CURVE                                     .build/obj_3key_LohseBoi/quantum/led_tables.o
                                                  .build/obj_3key_LohseBoi/quantum/color.o
ConfigurationDescriptor                           .build/obj_3key_LohseBoi/usb_descriptor.o
DeviceDescriptor                                  .build/obj_3key_LohseBoi/usb_descriptor.o
EVENT_USB_Device_ConfigurationChanged             .build/obj_3key_LohseBoi/lufa.o
                                                  .build/obj_3key_LohseBoi/lib/lufa/LUFA/Drivers/USB/Core/DeviceStandardReq.o
EVENT_USB_Device_Connect                          .build/obj_3key_LohseBoi/lufa.o
                                                  .build/obj_3key_LohseBoi/lib/lufa/LUFA/Drivers/USB/Core/AVR8/USBInterrupt_AVR8.o
EVENT_USB_Device_ControlRequest                   .build/obj_3key_LohseBoi/lufa.o
                                                  .build/obj_3key_LohseBoi/lib/lufa/LUFA/Drivers/USB/Core/DeviceStandardReq.o
EVENT_USB_Device_Disconnect                       .build/obj_3key_LohseBoi/lufa.o
                                                  .build/obj_3key_LohseBoi/lib/lufa/LUFA/Drivers/USB/Core/AVR8/USBInterrupt_AVR8.o
EVENT_USB_Device_Reset                            .build/obj_3key_LohseBoi/lufa.o
                                                  .build/obj_3key_LohseBoi/lib/lufa/LUFA/Drivers/USB/Core/AVR8/USBInterrupt_AVR8.o
EVENT_USB_Device_StartOfFrame                     .build/obj_3key_LohseBoi/lib/lufa/LUFA/Drivers/USB/Core/Events.o
                                                  .build/obj_3key_LohseBoi/lib/lufa/LUFA/Drivers/USB/Core/AVR8/USBInterrupt_AVR8.o
EVENT_USB_Device_Suspend                          .build/obj_3key_LohseBoi/lufa.o
                                                  .build/obj_3key_LohseBoi/lib/lufa/LUFA/Drivers/USB/Core/AVR8/USBInterrupt_AVR8.o
EVENT_USB_Device_WakeUp                           .build/obj_3key_LohseBoi/lufa.o
                                                  .build/obj_3key_LohseBoi/lib/lufa/LUFA/Drivers/USB/Core/AVR8/USBInterrupt_AVR8.o
Endpoint_ClearEndpoints                           .build/obj_3key_LohseBoi/lib/lufa/LUFA/Drivers/USB/Core/AVR8/Endpoint_AVR8.o
Endpoint_ClearStatusStage                         .build/obj_3key_LohseBoi/lib/lufa/LUFA/Drivers/USB/Core/AVR8/Endpoint_AVR8.o
                                                  .build/obj_3key_LohseBoi/lib/lufa/LUFA/Drivers/USB/Core/DeviceStandardReq.o
                                                  .build/obj_3key_LohseBoi/lufa.o
Endpoint_ConfigureEndpointTable                   .build/obj_3key_LohseBoi/lib/lufa/LUFA/Drivers/USB/Core/AVR8/Endpoint_AVR8.o
Endpoint_ConfigureEndpoint_Prv                    .build/obj_3key_LohseBoi/lib/lufa/LUFA/Drivers/USB/Core/AVR8/Endpoint_AVR8.o
                                                  .build/obj_3key_LohseBoi/lib/lufa/LUFA/Drivers/USB/Core/AVR8/USBInterrupt_AVR8.o
                                                  .build/obj_3key_LohseBoi/lib/lufa/LUFA/Drivers/USB/Core/AVR8/USBController_AVR8.o
                                                  .build/obj_3key_LohseBoi/lufa.o
Endpoint_Discard_Stream                           .build/obj_3key_LohseBoi/lib/lufa/LUFA/Drivers/USB/Core/AVR8/EndpointStream_AVR8.o
Endpoint_Null_Stream                              .build/obj_3key_LohseBoi/lib/lufa/LUFA/Drivers/USB/Core/AVR8/EndpointStream_AVR8.o
Endpoint_Read_Control_EStream_BE                  .build/obj_3key_LohseBoi/lib/lufa/LUFA/Drivers/USB/Core/AVR8/EndpointStream_AVR8.o
Endpoint_Read_Control_EStream_LE                  .build/obj_3key_LohseBoi/lib/lufa/LUFA/Drivers/USB/Core/AVR8/EndpointStream_AVR8.o
Endpoint_Read_Control_Stream_BE                   .build/obj_3key_LohseBoi/lib/lufa/LUFA/Drivers/USB/Core/AVR8/EndpointStream_AVR8.o
Endpoint_Read_Control_Stream_LE                   .build/obj_3key_LohseBoi/lib/lufa/LUFA/Drivers/USB/Core/AVR8/EndpointStream_AVR8.o
Endpoint_Read_EStream_BE                          .build/obj_3key_LohseBoi/lib/lufa/LUFA/Drivers/USB/Core/AVR8/EndpointStream_AVR8.o
Endpoint_Read_EStream_LE                          .build/obj_3key_LohseBoi/lib/lufa/LUFA/Drivers/USB/Core/AVR8/EndpointStream_AVR8.o
Endpoint_Read_Stream_BE                           .build/obj_3key_LohseBoi/lib/lufa/LUFA/Drivers/USB/Core/AVR8/EndpointStream_AVR8.o
Endpoint_Read_Stream_LE                           .build/obj_3key_LohseBoi/lib/lufa/LUFA/Drivers/USB/Core/AVR8/EndpointStream_AVR8.o
Endpoint_WaitUntilReady                           .build/obj_3key_LohseBoi/lib/lufa/LUFA/Drivers/USB/Core/AVR8/Endpoint_AVR8.o
                                                  .build/obj_3key_LohseBoi/lib/lufa/LUFA/Drivers/USB/Core/AVR8/EndpointStream_AVR8.o
Endpoint_Write_Control_EStream_BE                 .build/obj_3key_LohseBoi/lib/lufa/LUFA/Drivers/USB/Core/AVR8/EndpointStream_AVR8.o
Endpoint_Write_Control_EStream_LE                 .build/obj_3key_LohseBoi/lib/lufa/LUFA/Drivers/USB/Core/AVR8/EndpointStream_AVR8.o
Endpoint_Write_Control_PStream_BE                 .build/obj_3key_LohseBoi/lib/lufa/LUFA/Drivers/USB/Core/AVR8/EndpointStream_AVR8.o
Endpoint_Write_Control_PStream_LE                 .build/obj_3key_LohseBoi/lib/lufa/LUFA/Drivers/USB/Core/AVR8/EndpointStream_AVR8.o
                                                  .build/obj_3key_LohseBoi/lib/lufa/LUFA/Drivers/USB/Core/DeviceStandardReq.o
Endpoint_Write_Control_Stream_BE                  .build/obj_3key_LohseBoi/lib/lufa/LUFA/Drivers/USB/Core/AVR8/EndpointStream_AVR8.o
Endpoint_Write_Control_Stream_LE                  .build/obj_3key_LohseBoi/lib/lufa/LUFA/Drivers/USB/Core/AVR8/EndpointStream_AVR8.o
                                                  .build/obj_3key_LohseBoi/lib/lufa/LUFA/Drivers/USB/Core/DeviceStandardReq.o
                                                  .build/obj_3key_LohseBoi/lufa.o
Endpoint_Write_EStream_BE                         .build/obj_3key_LohseBoi/lib/lufa/LUFA/Drivers/USB/Core/AVR8/EndpointStream_AVR8.o
Endpoint_Write_EStream_LE                         .build/obj_3key_LohseBoi/lib/lufa/LUFA/Drivers/USB/Core/AVR8/EndpointStream_AVR8.o
Endpoint_Write_PStream_BE                         .build/obj_3key_LohseBoi/lib/lufa/LUFA/Drivers/USB/Core/AVR8/EndpointStream_AVR8.o
Endpoint_Write_PStream_LE                         .build/obj_3key_LohseBoi/lib/lufa/LUFA/Drivers/USB/Core/AVR8/EndpointStream_AVR8.o
Endpoint_Write_Stream_BE                          .build/obj_3key_LohseBoi/lib/lufa/LUFA/Drivers/USB/Core/AVR8/EndpointStream_AVR8.o
Endpoint_Write_Stream_LE                          .build/obj_3key_LohseBoi/lib/lufa/LUFA/Drivers/USB/Core/AVR8/EndpointStream_AVR8.o
                                                  .build/obj_3key_LohseBoi/lufa.o
KeyboardReport                                    .build/obj_3key_LohseBoi/usb_descriptor.o
LanguageString                                    .build/obj_3key_LohseBoi/usb_descriptor.o
ManufacturerString                                .build/obj_3key_LohseBoi/usb_descriptor.o
ProductString                                     .build/obj_3key_LohseBoi/usb_descriptor.o
RGBLED_BREATHING_INTERVALS                        .build/obj_3key_LohseBoi/quantum/rgblight/rgblight.o
RGBLED_GRADIENT_RANGES                            .build/obj_3key_LohseBoi/quantum/rgblight/rgblight.o
RGBLED_KNIGHT_INTERVALS                           .build/obj_3key_LohseBoi/quantum/rgblight/rgblight.o
RGBLED_RAINBOW_MOOD_INTERVALS                     .build/obj_3key_LohseBoi/quantum/rgblight/rgblight.o
RGBLED_RAINBOW_SWIRL_INTERVALS                    .build/obj_3key_LohseBoi/quantum/rgblight/rgblight.o
RGBLED_RGBTEST_INTERVALS                          .build/obj_3key_LohseBoi/quantum/rgblight/rgblight.o
RGBLED_SNAKE_INTERVALS                            .build/obj_3key_LohseBoi/quantum/rgblight/rgblight.o
SharedReport                                      .build/obj_3key_LohseBoi/usb_descriptor.o
USB_ControlRequest                                .build/obj_3key_LohseBoi/lib/lufa/LUFA/Drivers/USB/Core/USBTask.o
                                                  .build/obj_3key_LohseBoi/lib/lufa/LUFA/Drivers/USB/Core/DeviceStandardReq.o
                                                  .build/obj_3key_LohseBoi/lib/lufa/LUFA/Drivers/USB/Core/AVR8/Endpoint_AVR8.o
                                                  .build/obj_3key_LohseBoi/lib/lufa/LUFA/Drivers/USB/Core/AVR8/EndpointStream_AVR8.o
                                                  .build/obj_3key_LohseBoi/lufa.o
USB_DeviceState                                   .build/obj_3key_LohseBoi/lib/lufa/LUFA/Drivers/USB/Core/USBTask.o
                                                  .build/obj_3key_LohseBoi/protocol/lufa/usb_util.o
                                                  .build/obj_3key_LohseBoi/lib/lufa/LUFA/Drivers/USB/Core/DeviceStandardReq.o
                                                  .build/obj_3key_LohseBoi/lib/lufa/LUFA/Drivers/USB/Core/AVR8/USBInterrupt_AVR8.o
                                                  .build/obj_3key_LohseBoi/lib/lufa/LUFA/Drivers/USB/Core/AVR8/USBController_AVR8.o
                                                  .build/obj_3key_LohseBoi/lib/lufa/LUFA/Drivers/USB/Core/AVR8/Endpoint_AVR8.o
                                                  .build/obj_3key_LohseBoi/lib/lufa/LUFA/Drivers/USB/Core/AVR8/EndpointStream_AVR8.o
                                                  .build/obj_3key_LohseBoi/lufa.o
                                                  .build/obj_3key_LohseBoi/common/avr/suspend.o
USB_Device_ConfigurationNumber                    .build/obj_3key_LohseBoi/lib/lufa/LUFA/Drivers/USB/Core/DeviceStandardReq.o
                                                  .build/obj_3key_LohseBoi/lib/lufa/LUFA/Drivers/USB/Core/AVR8/USBInterrupt_AVR8.o
                                                  .build/obj_3key_LohseBoi/lib/lufa/LUFA/Drivers/USB/Core/AVR8/USBController_AVR8.o
USB_Device_CurrentlySelfPowered                   .build/obj_3key_LohseBoi/lib/lufa/LUFA/Drivers/USB/Core/DeviceStandardReq.o
                                                  .build/obj_3key_LohseBoi/lib/lufa/LUFA/Drivers/USB/Core/AVR8/USBController_AVR8.o
USB_Device_ProcessControlRequest                  .build/obj_3key_LohseBoi/lib/lufa/LUFA/Drivers/USB/Core/DeviceStandardReq.o
                                                  .build/obj_3key_LohseBoi/lib/lufa/LUFA/Drivers/USB/Core/USBTask.o
                                                  .build/obj_3key_LohseBoi/lib/lufa/LUFA/Drivers/USB/Core/AVR8/USBInterrupt_AVR8.o
USB_Device_RemoteWakeupEnabled                    .build/obj_3key_LohseBoi/lib/lufa/LUFA/Drivers/USB/Core/DeviceStandardReq.o
                                                  .build/obj_3key_LohseBoi/lib/lufa/LUFA/Drivers/USB/Core/AVR8/USBController_AVR8.o
                                                  .build/obj_3key_LohseBoi/lufa.o
USB_Device_SendRemoteWakeup                       .build/obj_3key_LohseBoi/lib/lufa/LUFA/Drivers/USB/Core/AVR8/Device_AVR8.o
                                                  .build/obj_3key_LohseBoi/lufa.o
USB_Disable                                       .build/obj_3key_LohseBoi/lib/lufa/LUFA/Drivers/USB/Core/AVR8/USBController_AVR8.o
                                                  .build/obj_3key_LohseBoi/protocol/lufa/usb_util.o
                                                  .build/obj_3key_LohseBoi/lufa.o
USB_Event_Stub                                    .build/obj_3key_LohseBoi/lib/lufa/LUFA/Drivers/USB/Core/Events.o
USB_Event_Stub_2                                  .build/obj_3key_LohseBoi/lib/lufa/LUFA/Drivers/USB/Core/Events.o
USB_Event_Stub_3                                  .build/obj_3key_LohseBoi/lib/lufa/LUFA/Drivers/USB/Core/Events.o
USB_GetHIDReportItemInfo                          .build/obj_3key_LohseBoi/lib/lufa/LUFA/Drivers/USB/Class/Common/HIDParser.o
USB_GetHIDReportSize                              .build/obj_3key_LohseBoi/lib/lufa/LUFA/Drivers/USB/Class/Common/HIDParser.o
USB_GetNextDescriptorComp                         .build/obj_3key_LohseBoi/lib/lufa/LUFA/Drivers/USB/Core/ConfigDescriptors.o
USB_GetNextDescriptorOfType                       .build/obj_3key_LohseBoi/lib/lufa/LUFA/Drivers/USB/Core/ConfigDescriptors.o
USB_GetNextDescriptorOfTypeAfter                  .build/obj_3key_LohseBoi/lib/lufa/LUFA/Drivers/USB/Core/ConfigDescriptors.o
USB_GetNextDescriptorOfTypeBefore                 .build/obj_3key_LohseBoi/lib/lufa/LUFA/Drivers/USB/Core/ConfigDescriptors.o
USB_INT_ClearAllInterrupts                        .build/obj_3key_LohseBoi/lib/lufa/LUFA/Drivers/USB/Core/AVR8/USBInterrupt_AVR8.o
                                                  .build/obj_3key_LohseBoi/lib/lufa/LUFA/Drivers/USB/Core/AVR8/USBController_AVR8.o
USB_INT_DisableAllInterrupts                      .build/obj_3key_LohseBoi/lib/lufa/LUFA/Drivers/USB/Core/AVR8/USBInterrupt_AVR8.o
                                                  .build/obj_3key_LohseBoi/lib/lufa/LUFA/Drivers/USB/Core/AVR8/USBController_AVR8.o
USB_Init                                          .build/obj_3key_LohseBoi/lib/lufa/LUFA/Drivers/USB/Core/AVR8/USBController_AVR8.o
                                                  .build/obj_3key_LohseBoi/lufa.o
USB_IsInitialized                                 .build/obj_3key_LohseBoi/lib/lufa/LUFA/Drivers/USB/Core/USBTask.o
                                                  .build/obj_3key_LohseBoi/lib/lufa/LUFA/Drivers/USB/Core/AVR8/USBController_AVR8.o
                                                  .build/obj_3key_LohseBoi/lufa.o
USB_ProcessHIDReport                              .build/obj_3key_LohseBoi/lib/lufa/LUFA/Drivers/USB/Class/Common/HIDParser.o
USB_ResetInterface                                .build/obj_3key_LohseBoi/lib/lufa/LUFA/Drivers/USB/Core/AVR8/USBController_AVR8.o
USB_SetHIDReportItemInfo                          .build/obj_3key_LohseBoi/lib/lufa/LUFA/Drivers/USB/Class/Common/HIDParser.o
USB_USBTask                                       .build/obj_3key_LohseBoi/lib/lufa/LUFA/Drivers/USB/Core/USBTask.o
                                                  .build/obj_3key_LohseBoi/lufa.o
__bad_interrupt                                   /usr/lib/gcc/avr/11.2.0/../../../../avr/lib/avr5/crtatmega32u4.o
__bss_end                                         /usr/lib/gcc/avr/11.2.0/avr5/libgcc.a(_clear_bss.o)
__bss_start                                       /usr/lib/gcc/avr/11.2.0/avr5/libgcc.a(_clear_bss.o)
__data_end                                        /usr/lib/gcc/avr/11.2.0/avr5/libgcc.a(_copy_data.o)
__data_load_start                                 /usr/lib/gcc/avr/11.2.0/avr5/libgcc.a(_copy_data.o)
__data_start                                      /usr/lib/gcc/avr/11.2.0/avr5/libgcc.a(_copy_data.o)
__divmodhi4                                       /usr/lib/gcc/avr/11.2.0/avr5/libgcc.a(_divmodhi4.o)
                                                  .build/obj_3key_LohseBoi/quantum/rgblight/rgblight.o
                                                  .build/obj_3key_LohseBoi/quantum/mousekey.o
__do_clear_bss                                    /usr/lib/gcc/avr/11.2.0/avr5/libgcc.a(_clear_bss.o)
                                                  .build/obj_3key_LohseBoi/lib/lufa/LUFA/Drivers/USB/Core/USBTask.o
                                                  .build/obj_3key_LohseBoi/lib/lufa/LUFA/Drivers/USB/Core/DeviceStandardReq.o
                                                  .build/obj_3key_LohseBoi/lufa.o
                                                  .build/obj_3key_LohseBoi/common/avr/timer.o
                                                  .build/obj_3key_LohseBoi/common/avr/suspend.o
                                                  .build/obj_3key_LohseBoi/common/host.o
                                                  .build/obj_3key_LohseBoi/quantum/process_keycode/process_grave_esc.o
                                                  .build/obj_3key_LohseBoi/quantum/process_keycode/process_space_cadet.o
                                                  .build/obj_3key_LohseBoi/quantum/backlight/backlight.o
                                                  .build/obj_3key_LohseBoi/quantum/rgblight/rgblight.o
                                                  .build/obj_3key_LohseBoi/quantum/mousekey.o
                                                  .build/obj_3key_LohseBoi/quantum/debounce/sym_defer_g.o
                                                  .build/obj_3key_LohseBoi/quantum/matrix_common.o
                                                  .build/obj_3key_LohseBoi/quantum/bootmagic/magic.o
                                                  .build/obj_3key_LohseBoi/quantum/logging/debug.o
                                                  .build/obj_3key_LohseBoi/quantum/keyboard.o
                                                  .build/obj_3key_LohseBoi/quantum/action_util.o
                                                  .build/obj_3key_LohseBoi/quantum/action_tapping.o
                                                  .build/obj_3key_LohseBoi/quantum/action_layer.o
                                                  .build/obj_3key_LohseBoi/quantum/action.o
                                                  .build/obj_3key_LohseBoi/keyboards/3key/keymaps/LohseBoi/keymap.o
__do_copy_data                                    /usr/lib/gcc/avr/11.2.0/avr5/libgcc.a(_copy_data.o)
                                                  .build/obj_3key_LohseBoi/lufa.o
                                                  .build/obj_3key_LohseBoi/quantum/rgblight/rgblight.o
                                                  .build/obj_3key_LohseBoi/quantum/mousekey.o
                                                  .build/obj_3key_LohseBoi/quantum/matrix.o
                                                  .build/obj_3key_LohseBoi/quantum/keymap_common.o
                                                  .build/obj_3key_LohseBoi/quantum/action_util.o
                                                  .build/obj_3key_LohseBoi/quantum/action.o
                                                  .build/obj_3key_LohseBoi/keyboards/3key/keymaps/LohseBoi/keymap.o
__epilogue_restores__                             /usr/lib/gcc/avr/11.2.0/avr5/libgcc.a(_epilogue.o)
                                                  /usr/lib/gcc/avr/11.2.0/../../../../avr/lib/avr5/libc.a(vfprintf_std.o)
                                                  /usr/lib/gcc/avr/11.2.0/../../../../avr/lib/avr5/libc.a(sprintf.o)
__fixunssfsi                                      /usr/lib/gcc/avr/11.2.0/../../../../avr/lib/avr5/libm.a(fixunssfsi.o)
                                                  .build/obj_3key_LohseBoi/common/host.o
__fp_inf                                          /usr/lib/gcc/avr/11.2.0/../../../../avr/lib/avr5/libm.a(fp_inf.o)
                                                  /usr/lib/gcc/avr/11.2.0/../../../../avr/lib/avr5/libm.a(mulsf3x.o)
__fp_nan                                          /usr/lib/gcc/avr/11.2.0/../../../../avr/lib/avr5/libm.a(fp_nan.o)
                                                  /usr/lib/gcc/avr/11.2.0/../../../../avr/lib/avr5/libm.a(mulsf3x.o)
__fp_pscA                                         /usr/lib/gcc/avr/11.2.0/../../../../avr/lib/avr5/libm.a(fp_pscA.o)
                                                  /usr/lib/gcc/avr/11.2.0/../../../../avr/lib/avr5/libm.a(mulsf3x.o)
__fp_pscB                                         /usr/lib/gcc/avr/11.2.0/../../../../avr/lib/avr5/libm.a(fp_pscB.o)
                                                  /usr/lib/gcc/avr/11.2.0/../../../../avr/lib/avr5/libm.a(mulsf3x.o)
__fp_round                                        /usr/lib/gcc/avr/11.2.0/../../../../avr/lib/avr5/libm.a(fp_round.o)
                                                  /usr/lib/gcc/avr/11.2.0/../../../../avr/lib/avr5/libm.a(mulsf3.o)
__fp_split3                                       /usr/lib/gcc/avr/11.2.0/../../../../avr/lib/avr5/libm.a(fp_split3.o)
                                                  /usr/lib/gcc/avr/11.2.0/../../../../avr/lib/avr5/libm.a(mulsf3x.o)
__fp_splitA                                       /usr/lib/gcc/avr/11.2.0/../../../../avr/lib/avr5/libm.a(fp_split3.o)
                                                  /usr/lib/gcc/avr/11.2.0/../../../../avr/lib/avr5/libm.a(fixunssfsi.o)
__fp_szero                                        /usr/lib/gcc/avr/11.2.0/../../../../avr/lib/avr5/libm.a(fp_zero.o)
                                                  /usr/lib/gcc/avr/11.2.0/../../../../avr/lib/avr5/libm.a(mulsf3x.o)
__fp_zero                                         /usr/lib/gcc/avr/11.2.0/../../../../avr/lib/avr5/libm.a(fp_zero.o)
                                                  /usr/lib/gcc/avr/11.2.0/../../../../avr/lib/avr5/libm.a(fixunssfsi.o)
__heap_end                                        /usr/lib/gcc/avr/11.2.0/../../../../avr/lib/avr5/crtatmega32u4.o
__init                                            /usr/lib/gcc/avr/11.2.0/../../../../avr/lib/avr5/crtatmega32u4.o
__mulhisi3                                        /usr/lib/gcc/avr/11.2.0/avr5/libgcc.a(_mulhisi3.o)
                                                  .build/obj_3key_LohseBoi/quantum/rgblight/rgblight.o
__mulohisi3                                       /usr/lib/gcc/avr/11.2.0/avr5/libgcc.a(_mulshisi3.o)
__mulsf3                                          /usr/lib/gcc/avr/11.2.0/../../../../avr/lib/avr5/libm.a(mulsf3.o)
                                                  .build/obj_3key_LohseBoi/common/host.o
__mulsf3_pse                                      /usr/lib/gcc/avr/11.2.0/../../../../avr/lib/avr5/libm.a(mulsf3x.o)
__mulsf3x                                         /usr/lib/gcc/avr/11.2.0/../../../../avr/lib/avr5/libm.a(mulsf3x.o)
                                                  /usr/lib/gcc/avr/11.2.0/../../../../avr/lib/avr5/libm.a(mulsf3.o)
__mulshisi3                                       /usr/lib/gcc/avr/11.2.0/avr5/libgcc.a(_mulshisi3.o)
                                                  .build/obj_3key_LohseBoi/quantum/rgblight/rgblight.o
__mulsi3                                          /usr/lib/gcc/avr/11.2.0/avr5/libgcc.a(_mulsi3.o)
                                                  .build/obj_3key_LohseBoi/quantum/backlight/backlight_avr.o
__muluhisi3                                       /usr/lib/gcc/avr/11.2.0/avr5/libgcc.a(_muluhisi3.o)
                                                  /usr/lib/gcc/avr/11.2.0/avr5/libgcc.a(_mulshisi3.o)
                                                  /usr/lib/gcc/avr/11.2.0/avr5/libgcc.a(_mulsi3.o)
                                                  .build/obj_3key_LohseBoi/quantum/rgblight/rgblight.o
__popcounthi2                                     /usr/lib/gcc/avr/11.2.0/avr5/libgcc.a(_popcounthi2.o)
                                                  /usr/lib/gcc/avr/11.2.0/avr5/libgcc.a(_popcountsi2.o)
                                                  .build/obj_3key_LohseBoi/quantum/bitwise.o
__popcounthi2_tail                                /usr/lib/gcc/avr/11.2.0/avr5/libgcc.a(_popcounthi2.o)
                                                  /usr/lib/gcc/avr/11.2.0/avr5/libgcc.a(_popcountsi2.o)
__popcountqi2                                     /usr/lib/gcc/avr/11.2.0/avr5/libgcc.a(_popcountqi2.o)
                                                  /usr/lib/gcc/avr/11.2.0/avr5/libgcc.a(_popcounthi2.o)
__popcountsi2                                     /usr/lib/gcc/avr/11.2.0/avr5/libgcc.a(_popcountsi2.o)
                                                  .build/obj_3key_LohseBoi/quantum/bitwise.o
__prologue_saves__                                /usr/lib/gcc/avr/11.2.0/avr5/libgcc.a(_prologue.o)
                                                  /usr/lib/gcc/avr/11.2.0/../../../../avr/lib/avr5/libc.a(vfprintf_std.o)
                                                  /usr/lib/gcc/avr/11.2.0/../../../../avr/lib/avr5/libc.a(sprintf.o)
__stack                                           /usr/lib/gcc/avr/11.2.0/../../../../avr/lib/avr5/crtatmega32u4.o
__tablejump2__                                    /usr/lib/gcc/avr/11.2.0/avr5/libgcc.a(_tablejump2.o)
                                                  .build/obj_3key_LohseBoi/lib/lufa/LUFA/Drivers/USB/Core/DeviceStandardReq.o
                                                  .build/obj_3key_LohseBoi/quantum/process_keycode/process_magic.o
                                                  .build/obj_3key_LohseBoi/quantum/process_keycode/process_rgb.o
                                                  .build/obj_3key_LohseBoi/quantum/mousekey.o
                                                  .build/obj_3key_LohseBoi/quantum/action.o
__udivmodhi4                                      /usr/lib/gcc/avr/11.2.0/avr5/libgcc.a(_udivmodhi4.o)
                                                  /usr/lib/gcc/avr/11.2.0/avr5/libgcc.a(_divmodhi4.o)
                                                  .build/obj_3key_LohseBoi/quantum/backlight/backlight_avr.o
                                                  .build/obj_3key_LohseBoi/quantum/rgblight/rgblight.o
                                                  .build/obj_3key_LohseBoi/quantum/color.o
__udivmodsi4                                      /usr/lib/gcc/avr/11.2.0/avr5/libgcc.a(_udivmodsi4.o)
                                                  .build/obj_3key_LohseBoi/quantum/backlight/backlight_avr.o
                                                  .build/obj_3key_LohseBoi/quantum/rgblight/rgblight.o
__ultoa_invert                                    /usr/lib/gcc/avr/11.2.0/../../../../avr/lib/avr5/libc.a(ultoa_invert.o)
                                                  /usr/lib/gcc/avr/11.2.0/../../../../avr/lib/avr5/libc.a(vfprintf_std.o)
__umulhisi3                                       /usr/lib/gcc/avr/11.2.0/avr5/libgcc.a(_umulhisi3.o)
                                                  /usr/lib/gcc/avr/11.2.0/avr5/libgcc.a(_muluhisi3.o)
                                                  /usr/lib/gcc/avr/11.2.0/avr5/libgcc.a(_usmulhisi3.o)
                                                  /usr/lib/gcc/avr/11.2.0/avr5/libgcc.a(_mulhisi3.o)
                                                  .build/obj_3key_LohseBoi/quantum/backlight/backlight_avr.o
                                                  .build/obj_3key_LohseBoi/quantum/rgblight/rgblight.o
__usmulhisi3                                      /usr/lib/gcc/avr/11.2.0/avr5/libgcc.a(_usmulhisi3.o)
__usmulhisi3_tail                                 /usr/lib/gcc/avr/11.2.0/avr5/libgcc.a(_usmulhisi3.o)
                                                  /usr/lib/gcc/avr/11.2.0/avr5/libgcc.a(_mulhisi3.o)
__vector_1                                        /usr/lib/gcc/avr/11.2.0/../../../../avr/lib/avr5/crtatmega32u4.o
__vector_10                                       .build/obj_3key_LohseBoi/lib/lufa/LUFA/Drivers/USB/Core/AVR8/USBInterrupt_AVR8.o
                                                  /usr/lib/gcc/avr/11.2.0/../../../../avr/lib/avr5/crtatmega32u4.o
__vector_11                                       .build/obj_3key_LohseBoi/lib/lufa/LUFA/Drivers/USB/Core/AVR8/USBInterrupt_AVR8.o
                                                  /usr/lib/gcc/avr/11.2.0/../../../../avr/lib/avr5/crtatmega32u4.o
__vector_12                                       .build/obj_3key_LohseBoi/common/avr/suspend.o
                                                  /usr/lib/gcc/avr/11.2.0/../../../../avr/lib/avr5/crtatmega32u4.o
__vector_13                                       /usr/lib/gcc/avr/11.2.0/../../../../avr/lib/avr5/crtatmega32u4.o
__vector_14                                       /usr/lib/gcc/avr/11.2.0/../../../../avr/lib/avr5/crtatmega32u4.o
__vector_15                                       /usr/lib/gcc/avr/11.2.0/../../../../avr/lib/avr5/crtatmega32u4.o
__vector_16                                       /usr/lib/gcc/avr/11.2.0/../../../../avr/lib/avr5/crtatmega32u4.o
__vector_17                                       /usr/lib/gcc/avr/11.2.0/../../../../avr/lib/avr5/crtatmega32u4.o
__vector_18                                       /usr/lib/gcc/avr/11.2.0/../../../../avr/lib/avr5/crtatmega32u4.o
__vector_19                                       /usr/lib/gcc/avr/11.2.0/../../../../avr/lib/avr5/crtatmega32u4.o
__vector_2                                        /usr/lib/gcc/avr/11.2.0/../../../../avr/lib/avr5/crtatmega32u4.o
__vector_20                                       /usr/lib/gcc/avr/11.2.0/../../../../avr/lib/avr5/crtatmega32u4.o
__vector_21                                       .build/obj_3key_LohseBoi/common/avr/timer.o
                                                  /usr/lib/gcc/avr/11.2.0/../../../../avr/lib/avr5/crtatmega32u4.o
__vector_22                                       /usr/lib/gcc/avr/11.2.0/../../../../avr/lib/avr5/crtatmega32u4.o
__vector_23                                       /usr/lib/gcc/avr/11.2.0/../../../../avr/lib/avr5/crtatmega32u4.o
__vector_24                                       /usr/lib/gcc/avr/11.2.0/../../../../avr/lib/avr5/crtatmega32u4.o
__vector_25                                       /usr/lib/gcc/avr/11.2.0/../../../../avr/lib/avr5/crtatmega32u4.o
__vector_26                                       /usr/lib/gcc/avr/11.2.0/../../../../avr/lib/avr5/crtatmega32u4.o
__vector_27                                       /usr/lib/gcc/avr/11.2.0/../../../../avr/lib/avr5/crtatmega32u4.o
__vector_28                                       /usr/lib/gcc/avr/11.2.0/../../../../avr/lib/avr5/crtatmega32u4.o
__vector_29                                       /usr/lib/gcc/avr/11.2.0/../../../../avr/lib/avr5/crtatmega32u4.o
__vector_3                                        /usr/lib/gcc/avr/11.2.0/../../../../avr/lib/avr5/crtatmega32u4.o
__vector_30                                       /usr/lib/gcc/avr/11.2.0/../../../../avr/lib/avr5/crtatmega32u4.o
__vector_31                                       /usr/lib/gcc/avr/11.2.0/../../../../avr/lib/avr5/crtatmega32u4.o
__vector_32                                       /usr/lib/gcc/avr/11.2.0/../../../../avr/lib/avr5/crtatmega32u4.o
__vector_33                                       /usr/lib/gcc/avr/11.2.0/../../../../avr/lib/avr5/crtatmega32u4.o
__vector_34                                       /usr/lib/gcc/avr/11.2.0/../../../../avr/lib/avr5/crtatmega32u4.o
__vector_35                                       /usr/lib/gcc/avr/11.2.0/../../../../avr/lib/avr5/crtatmega32u4.o
__vector_36                                       /usr/lib/gcc/avr/11.2.0/../../../../avr/lib/avr5/crtatmega32u4.o
__vector_37                                       /usr/lib/gcc/avr/11.2.0/../../../../avr/lib/avr5/crtatmega32u4.o
__vector_38                                       /usr/lib/gcc/avr/11.2.0/../../../../avr/lib/avr5/crtatmega32u4.o
__vector_39                                       /usr/lib/gcc/avr/11.2.0/../../../../avr/lib/avr5/crtatmega32u4.o
__vector_4                                        /usr/lib/gcc/avr/11.2.0/../../../../avr/lib/avr5/crtatmega32u4.o
__vector_40                                       /usr/lib/gcc/avr/11.2.0/../../../../avr/lib/avr5/crtatmega32u4.o
__vector_41                                       /usr/lib/gcc/avr/11.2.0/../../../../avr/lib/avr5/crtatmega32u4.o
__vector_42                                       /usr/lib/gcc/avr/11.2.0/../../../../avr/lib/avr5/crtatmega32u4.o
__vector_5                                        /usr/lib/gcc/avr/11.2.0/../../../../avr/lib/avr5/crtatmega32u4.o
__vector_6                                        /usr/lib/gcc/avr/11.2.0/../../../../avr/lib/avr5/crtatmega32u4.o
__vector_7                                        /usr/lib/gcc/avr/11.2.0/../../../../avr/lib/avr5/crtatmega32u4.o
__vector_8                                        /usr/lib/gcc/avr/11.2.0/../../../../avr/lib/avr5/crtatmega32u4.o
__vector_9                                        /usr/lib/gcc/avr/11.2.0/../../../../avr/lib/avr5/crtatmega32u4.o
__vector_default                                  /usr/lib/gcc/avr/11.2.0/../../../../avr/lib/avr5/crtatmega32u4.o
__vectors                                         /usr/lib/gcc/avr/11.2.0/../../../../avr/lib/avr5/crtatmega32u4.o
__xprintf                                         .build/obj_3key_LohseBoi/common/avr/xprintf.o
_div                                              /usr/lib/gcc/avr/11.2.0/avr5/libgcc.a(_divmodhi4.o)
_exit                                             /usr/lib/gcc/avr/11.2.0/avr5/libgcc.a(_exit.o)
action_exec                                       .build/obj_3key_LohseBoi/quantum/action.o
                                                  .build/obj_3key_LohseBoi/quantum/keyboard.o
action_for_key                                    .build/obj_3key_LohseBoi/quantum/keymap_common.o
                                                  .build/obj_3key_LohseBoi/quantum/action_layer.o
action_for_keycode                                .build/obj_3key_LohseBoi/quantum/keymap_common.o
action_function                                   .build/obj_3key_LohseBoi/quantum/keymap_common.o
                                                  .build/obj_3key_LohseBoi/quantum/action.o
action_get_macro                                  .build/obj_3key_LohseBoi/keyboards/3key/keymaps/LohseBoi/keymap.o
                                                  .build/obj_3key_LohseBoi/quantum/action.o
action_macro_play                                 .build/obj_3key_LohseBoi/quantum/action_macro.o
                                                  .build/obj_3key_LohseBoi/quantum/action.o
action_tapping_process                            .build/obj_3key_LohseBoi/quantum/action_tapping.o
                                                  .build/obj_3key_LohseBoi/quantum/action.o
add_key                                           .build/obj_3key_LohseBoi/quantum/action_util.o
                                                  .build/obj_3key_LohseBoi/quantum/process_keycode/process_grave_esc.o
                                                  .build/obj_3key_LohseBoi/quantum/action.o
add_key_bit                                       .build/obj_3key_LohseBoi/common/report.o
add_key_byte                                      .build/obj_3key_LohseBoi/common/report.o
add_key_to_report                                 .build/obj_3key_LohseBoi/common/report.o
                                                  .build/obj_3key_LohseBoi/quantum/action_util.o
add_macro_mods                                    .build/obj_3key_LohseBoi/quantum/action_util.o
                                                  .build/obj_3key_LohseBoi/quantum/action_macro.o
add_mods                                          .build/obj_3key_LohseBoi/quantum/action_util.o
                                                  .build/obj_3key_LohseBoi/quantum/action.o
add_oneshot_mods                                  .build/obj_3key_LohseBoi/quantum/action_util.o
add_weak_mods                                     .build/obj_3key_LohseBoi/quantum/action_util.o
                                                  .build/obj_3key_LohseBoi/quantum/action.o
animation_status                                  .build/obj_3key_LohseBoi/quantum/rgblight/rgblight.o
api_send_unicode                                  .build/obj_3key_LohseBoi/quantum/quantum.o
asciiChar                                         .build/obj_3key_LohseBoi/keyboards/3key/keymaps/LohseBoi/keymap.o
asciiCounter                                      .build/obj_3key_LohseBoi/keyboards/3key/keymaps/LohseBoi/keymap.o
ascii_to_altgr_lut                                .build/obj_3key_LohseBoi/quantum/send_string.o
ascii_to_dead_lut                                 .build/obj_3key_LohseBoi/quantum/send_string.o
ascii_to_keycode_lut                              .build/obj_3key_LohseBoi/quantum/send_string.o
ascii_to_shift_lut                                .build/obj_3key_LohseBoi/quantum/send_string.o
backlight_config                                  .build/obj_3key_LohseBoi/quantum/backlight/backlight.o
backlight_decrease                                .build/obj_3key_LohseBoi/quantum/backlight/backlight.o
                                                  .build/obj_3key_LohseBoi/quantum/process_keycode/process_backlight.o
backlight_disable                                 .build/obj_3key_LohseBoi/quantum/backlight/backlight.o
backlight_enable                                  .build/obj_3key_LohseBoi/quantum/backlight/backlight.o
backlight_increase                                .build/obj_3key_LohseBoi/quantum/backlight/backlight.o
                                                  .build/obj_3key_LohseBoi/quantum/process_keycode/process_backlight.o
backlight_init                                    .build/obj_3key_LohseBoi/quantum/backlight/backlight.o
                                                  .build/obj_3key_LohseBoi/common/avr/suspend.o
                                                  .build/obj_3key_LohseBoi/quantum/backlight/backlight_avr.o
                                                  .build/obj_3key_LohseBoi/quantum/keyboard.o
backlight_init_ports                              .build/obj_3key_LohseBoi/quantum/backlight/backlight_avr.o
                                                  .build/obj_3key_LohseBoi/quantum/backlight/backlight.o
                                                  .build/obj_3key_LohseBoi/quantum/quantum.o
backlight_level                                   .build/obj_3key_LohseBoi/quantum/backlight/backlight.o
                                                  .build/obj_3key_LohseBoi/quantum/process_keycode/process_backlight.o
backlight_level_noeeprom                          .build/obj_3key_LohseBoi/quantum/backlight/backlight.o
backlight_pins_init                               .build/obj_3key_LohseBoi/quantum/backlight/backlight_driver_common.o
                                                  .build/obj_3key_LohseBoi/quantum/backlight/backlight_avr.o
backlight_pins_off                                .build/obj_3key_LohseBoi/quantum/backlight/backlight_driver_common.o
                                                  .build/obj_3key_LohseBoi/quantum/backlight/backlight_avr.o
backlight_pins_on                                 .build/obj_3key_LohseBoi/quantum/backlight/backlight_driver_common.o
backlight_set                                     .build/obj_3key_LohseBoi/quantum/backlight/backlight_avr.o
                                                  .build/obj_3key_LohseBoi/quantum/backlight/backlight.o
                                                  .build/obj_3key_LohseBoi/common/avr/suspend.o
backlight_step                                    .build/obj_3key_LohseBoi/quantum/backlight/backlight.o
                                                  .build/obj_3key_LohseBoi/quantum/process_keycode/process_backlight.o
backlight_task                                    .build/obj_3key_LohseBoi/quantum/backlight/backlight_avr.o
                                                  .build/obj_3key_LohseBoi/quantum/backlight/backlight.o
                                                  .build/obj_3key_LohseBoi/quantum/keyboard.o
backlight_toggle                                  .build/obj_3key_LohseBoi/quantum/backlight/backlight.o
                                                  .build/obj_3key_LohseBoi/quantum/process_keycode/process_backlight.o
biton                                             .build/obj_3key_LohseBoi/quantum/bitwise.o
                                                  .build/obj_3key_LohseBoi/common/report.o
biton16                                           .build/obj_3key_LohseBoi/quantum/bitwise.o
biton32                                           .build/obj_3key_LohseBoi/quantum/bitwise.o
bitpop                                            .build/obj_3key_LohseBoi/quantum/bitwise.o
                                                  .build/obj_3key_LohseBoi/quantum/matrix_common.o
                                                  .build/obj_3key_LohseBoi/quantum/action_util.o
bitpop16                                          .build/obj_3key_LohseBoi/quantum/bitwise.o
bitpop32                                          .build/obj_3key_LohseBoi/quantum/bitwise.o
bitrev                                            .build/obj_3key_LohseBoi/quantum/bitwise.o
bitrev16                                          .build/obj_3key_LohseBoi/quantum/bitwise.o
bitrev32                                          .build/obj_3key_LohseBoi/quantum/bitwise.o
bootloader_jump                                   .build/obj_3key_LohseBoi/common/avr/bootloader.o
                                                  .build/obj_3key_LohseBoi/quantum/bootmagic/bootmagic_lite.o
                                                  .build/obj_3key_LohseBoi/quantum/quantum.o
bootloader_jump_after_watchdog_reset              .build/obj_3key_LohseBoi/common/avr/bootloader.o
bootmagic                                         .build/obj_3key_LohseBoi/quantum/bootmagic/bootmagic_lite.o
bootmagic_lite                                    .build/obj_3key_LohseBoi/quantum/bootmagic/bootmagic_lite.o
bootmagic_lite_reset_eeprom                       .build/obj_3key_LohseBoi/quantum/bootmagic/bootmagic_lite.o
clear_keyboard                                    .build/obj_3key_LohseBoi/quantum/action.o
                                                  .build/obj_3key_LohseBoi/lufa.o
                                                  .build/obj_3key_LohseBoi/common/avr/suspend.o
                                                  .build/obj_3key_LohseBoi/quantum/process_keycode/process_magic.o
                                                  .build/obj_3key_LohseBoi/quantum/action_tapping.o
                                                  .build/obj_3key_LohseBoi/quantum/quantum.o
clear_keyboard_but_mods                           .build/obj_3key_LohseBoi/quantum/action.o
clear_keyboard_but_mods_and_keys                  .build/obj_3key_LohseBoi/quantum/action.o
                                                  .build/obj_3key_LohseBoi/quantum/action_layer.o
clear_keys                                        .build/obj_3key_LohseBoi/quantum/action_util.o
                                                  .build/obj_3key_LohseBoi/quantum/action.o
clear_keys_from_report                            .build/obj_3key_LohseBoi/common/report.o
                                                  .build/obj_3key_LohseBoi/quantum/action_util.o
clear_macro_mods                                  .build/obj_3key_LohseBoi/quantum/action_util.o
                                                  .build/obj_3key_LohseBoi/quantum/action.o
clear_mods                                        .build/obj_3key_LohseBoi/quantum/action_util.o
                                                  .build/obj_3key_LohseBoi/quantum/action.o
clear_oneshot_layer_state                         .build/obj_3key_LohseBoi/quantum/action_util.o
                                                  .build/obj_3key_LohseBoi/quantum/action.o
clear_oneshot_locked_mods                         .build/obj_3key_LohseBoi/quantum/action_util.o
clear_oneshot_mods                                .build/obj_3key_LohseBoi/quantum/action_util.o
                                                  .build/obj_3key_LohseBoi/quantum/action.o
clear_weak_mods                                   .build/obj_3key_LohseBoi/quantum/action_util.o
                                                  .build/obj_3key_LohseBoi/quantum/action.o
debounce                                          .build/obj_3key_LohseBoi/quantum/debounce/sym_defer_g.o
                                                  .build/obj_3key_LohseBoi/quantum/matrix.o
                                                  .build/obj_3key_LohseBoi/quantum/matrix_common.o
debounce_active                                   .build/obj_3key_LohseBoi/quantum/debounce/sym_defer_g.o
                                                  .build/obj_3key_LohseBoi/quantum/matrix_common.o
debounce_free                                     .build/obj_3key_LohseBoi/quantum/debounce/sym_defer_g.o
debounce_init                                     .build/obj_3key_LohseBoi/quantum/debounce/sym_defer_g.o
                                                  .build/obj_3key_LohseBoi/quantum/matrix.o
                                                  .build/obj_3key_LohseBoi/quantum/matrix_common.o
debug_action                                      .build/obj_3key_LohseBoi/quantum/action.o
debug_config                                      .build/obj_3key_LohseBoi/quantum/logging/debug.o
                                                  .build/obj_3key_LohseBoi/quantum/bootmagic/magic.o
                                                  .build/obj_3key_LohseBoi/quantum/keyboard.o
debug_event                                       .build/obj_3key_LohseBoi/quantum/action.o
                                                  .build/obj_3key_LohseBoi/quantum/action_tapping.o
debug_record                                      .build/obj_3key_LohseBoi/quantum/action.o
                                                  .build/obj_3key_LohseBoi/quantum/action_tapping.o
default_layer_and                                 .build/obj_3key_LohseBoi/quantum/action_layer.o
                                                  .build/obj_3key_LohseBoi/quantum/action.o
default_layer_debug                               .build/obj_3key_LohseBoi/quantum/action_layer.o
                                                  .build/obj_3key_LohseBoi/quantum/action.o
default_layer_or                                  .build/obj_3key_LohseBoi/quantum/action_layer.o
                                                  .build/obj_3key_LohseBoi/quantum/action.o
default_layer_set                                 .build/obj_3key_LohseBoi/quantum/action_layer.o
                                                  .build/obj_3key_LohseBoi/quantum/bootmagic/magic.o
                                                  .build/obj_3key_LohseBoi/quantum/action.o
                                                  .build/obj_3key_LohseBoi/quantum/quantum.o
default_layer_state                               .build/obj_3key_LohseBoi/quantum/action_layer.o
                                                  .build/obj_3key_LohseBoi/quantum/eeconfig.o
default_layer_state_set_kb                        .build/obj_3key_LohseBoi/quantum/action_layer.o
default_layer_state_set_user                      .build/obj_3key_LohseBoi/quantum/action_layer.o
default_layer_xor                                 .build/obj_3key_LohseBoi/quantum/action_layer.o
                                                  .build/obj_3key_LohseBoi/quantum/action.o
del_key                                           .build/obj_3key_LohseBoi/quantum/action_util.o
                                                  .build/obj_3key_LohseBoi/quantum/process_keycode/process_grave_esc.o
                                                  .build/obj_3key_LohseBoi/quantum/action.o
del_key_bit                                       .build/obj_3key_LohseBoi/common/report.o
del_key_byte                                      .build/obj_3key_LohseBoi/common/report.o
del_key_from_report                               .build/obj_3key_LohseBoi/common/report.o
                                                  .build/obj_3key_LohseBoi/quantum/action_util.o
del_macro_mods                                    .build/obj_3key_LohseBoi/quantum/action_util.o
                                                  .build/obj_3key_LohseBoi/quantum/action_macro.o
del_mods                                          .build/obj_3key_LohseBoi/quantum/action_util.o
                                                  .build/obj_3key_LohseBoi/quantum/action.o
del_oneshot_mods                                  .build/obj_3key_LohseBoi/quantum/action_util.o
del_weak_mods                                     .build/obj_3key_LohseBoi/quantum/action_util.o
                                                  .build/obj_3key_LohseBoi/quantum/action.o
disable_action_cache                              .build/obj_3key_LohseBoi/quantum/action.o
                                                  .build/obj_3key_LohseBoi/quantum/action_layer.o
                                                  .build/obj_3key_LohseBoi/quantum/quantum.o
disable_jtag                                      .build/obj_3key_LohseBoi/quantum/keyboard.o
eeconfig_debug_rgblight                           .build/obj_3key_LohseBoi/quantum/rgblight/rgblight.o
eeconfig_disable                                  .build/obj_3key_LohseBoi/quantum/eeconfig.o
                                                  .build/obj_3key_LohseBoi/quantum/bootmagic/bootmagic_lite.o
eeconfig_enable                                   .build/obj_3key_LohseBoi/quantum/eeconfig.o
eeconfig_init                                     .build/obj_3key_LohseBoi/quantum/eeconfig.o
                                                  .build/obj_3key_LohseBoi/quantum/backlight/backlight.o
                                                  .build/obj_3key_LohseBoi/quantum/rgblight/rgblight.o
                                                  .build/obj_3key_LohseBoi/quantum/bootmagic/magic.o
                                                  .build/obj_3key_LohseBoi/quantum/quantum.o
eeconfig_init_kb                                  .build/obj_3key_LohseBoi/quantum/eeconfig.o
eeconfig_init_quantum                             .build/obj_3key_LohseBoi/quantum/eeconfig.o
eeconfig_init_user                                .build/obj_3key_LohseBoi/quantum/eeconfig.o
eeconfig_is_disabled                              .build/obj_3key_LohseBoi/quantum/eeconfig.o
eeconfig_is_enabled                               .build/obj_3key_LohseBoi/quantum/eeconfig.o
                                                  .build/obj_3key_LohseBoi/quantum/backlight/backlight.o
                                                  .build/obj_3key_LohseBoi/quantum/rgblight/rgblight.o
                                                  .build/obj_3key_LohseBoi/quantum/bootmagic/magic.o
eeconfig_read_audio                               .build/obj_3key_LohseBoi/quantum/eeconfig.o
eeconfig_read_backlight                           .build/obj_3key_LohseBoi/quantum/backlight/backlight.o
eeconfig_read_debug                               .build/obj_3key_LohseBoi/quantum/eeconfig.o
                                                  .build/obj_3key_LohseBoi/quantum/bootmagic/magic.o
eeconfig_read_default_layer                       .build/obj_3key_LohseBoi/quantum/eeconfig.o
                                                  .build/obj_3key_LohseBoi/quantum/bootmagic/magic.o
eeconfig_read_handedness                          .build/obj_3key_LohseBoi/quantum/eeconfig.o
eeconfig_read_haptic                              .build/obj_3key_LohseBoi/quantum/eeconfig.o
eeconfig_read_kb                                  .build/obj_3key_LohseBoi/quantum/eeconfig.o
eeconfig_read_keymap                              .build/obj_3key_LohseBoi/quantum/eeconfig.o
                                                  .build/obj_3key_LohseBoi/quantum/process_keycode/process_magic.o
                                                  .build/obj_3key_LohseBoi/quantum/bootmagic/magic.o
eeconfig_read_rgblight                            .build/obj_3key_LohseBoi/quantum/rgblight/rgblight.o
eeconfig_read_user                                .build/obj_3key_LohseBoi/quantum/eeconfig.o
eeconfig_update_audio                             .build/obj_3key_LohseBoi/quantum/eeconfig.o
eeconfig_update_backlight                         .build/obj_3key_LohseBoi/quantum/backlight/backlight.o
eeconfig_update_backlight_current                 .build/obj_3key_LohseBoi/quantum/backlight/backlight.o
eeconfig_update_backlight_default                 .build/obj_3key_LohseBoi/quantum/backlight/backlight.o
eeconfig_update_debug                             .build/obj_3key_LohseBoi/quantum/eeconfig.o
eeconfig_update_default_layer                     .build/obj_3key_LohseBoi/quantum/eeconfig.o
                                                  .build/obj_3key_LohseBoi/quantum/quantum.o
eeconfig_update_handedness                        .build/obj_3key_LohseBoi/quantum/eeconfig.o
                                                  .build/obj_3key_LohseBoi/quantum/process_keycode/process_magic.o
eeconfig_update_haptic                            .build/obj_3key_LohseBoi/quantum/eeconfig.o
eeconfig_update_kb                                .build/obj_3key_LohseBoi/quantum/eeconfig.o
eeconfig_update_keymap                            .build/obj_3key_LohseBoi/quantum/eeconfig.o
                                                  .build/obj_3key_LohseBoi/quantum/process_keycode/process_magic.o
                                                  .build/obj_3key_LohseBoi/quantum/action_util.o
eeconfig_update_rgblight                          .build/obj_3key_LohseBoi/quantum/rgblight/rgblight.o
eeconfig_update_rgblight_current                  .build/obj_3key_LohseBoi/quantum/rgblight/rgblight.o
eeconfig_update_rgblight_default                  .build/obj_3key_LohseBoi/quantum/rgblight/rgblight.o
eeconfig_update_user                              .build/obj_3key_LohseBoi/quantum/eeconfig.o
eeprom_read_block                                 /usr/lib/gcc/avr/11.2.0/../../../../avr/lib/avr5/libatmega32u4.a(eerd_block.o)
eeprom_read_blraw                                 /usr/lib/gcc/avr/11.2.0/../../../../avr/lib/avr5/libatmega32u4.a(eerd_block.o)
                                                  /usr/lib/gcc/avr/11.2.0/../../../../avr/lib/avr5/libatmega32u4.a(eerd_word.o)
                                                  /usr/lib/gcc/avr/11.2.0/../../../../avr/lib/avr5/libatmega32u4.a(eerd_dword.o)
eeprom_read_byte                                  /usr/lib/gcc/avr/11.2.0/../../../../avr/lib/avr5/libatmega32u4.a(eerd_byte.o)
                                                  .build/obj_3key_LohseBoi/lib/lufa/LUFA/Drivers/USB/Core/AVR8/EndpointStream_AVR8.o
                                                  .build/obj_3key_LohseBoi/quantum/backlight/backlight.o
                                                  .build/obj_3key_LohseBoi/quantum/eeconfig.o
eeprom_read_dword                                 /usr/lib/gcc/avr/11.2.0/../../../../avr/lib/avr5/libatmega32u4.a(eerd_dword.o)
                                                  .build/obj_3key_LohseBoi/quantum/rgblight/rgblight.o
                                                  .build/obj_3key_LohseBoi/quantum/eeconfig.o
eeprom_read_float                                 /usr/lib/gcc/avr/11.2.0/../../../../avr/lib/avr5/libatmega32u4.a(eerd_dword.o)
eeprom_read_word                                  /usr/lib/gcc/avr/11.2.0/../../../../avr/lib/avr5/libatmega32u4.a(eerd_word.o)
                                                  .build/obj_3key_LohseBoi/quantum/eeconfig.o
eeprom_update_byte                                /usr/lib/gcc/avr/11.2.0/../../../../avr/lib/avr5/libatmega32u4.a(eeupd_byte.o)
                                                  /usr/lib/gcc/avr/11.2.0/../../../../avr/lib/avr5/libatmega32u4.a(eeupd_word.o)
                                                  /usr/lib/gcc/avr/11.2.0/../../../../avr/lib/avr5/libatmega32u4.a(eeupd_dword.o)
                                                  .build/obj_3key_LohseBoi/lib/lufa/LUFA/Drivers/USB/Core/AVR8/EndpointStream_AVR8.o
                                                  .build/obj_3key_LohseBoi/quantum/backlight/backlight.o
                                                  .build/obj_3key_LohseBoi/quantum/eeconfig.o
eeprom_update_dword                               /usr/lib/gcc/avr/11.2.0/../../../../avr/lib/avr5/libatmega32u4.a(eeupd_dword.o)
                                                  .build/obj_3key_LohseBoi/quantum/rgblight/rgblight.o
                                                  .build/obj_3key_LohseBoi/quantum/eeconfig.o
eeprom_update_float                               /usr/lib/gcc/avr/11.2.0/../../../../avr/lib/avr5/libatmega32u4.a(eeupd_dword.o)
eeprom_update_r18                                 /usr/lib/gcc/avr/11.2.0/../../../../avr/lib/avr5/libatmega32u4.a(eeupd_byte.o)
                                                  /usr/lib/gcc/avr/11.2.0/../../../../avr/lib/avr5/libatmega32u4.a(eeupd_word.o)
                                                  /usr/lib/gcc/avr/11.2.0/../../../../avr/lib/avr5/libatmega32u4.a(eeupd_dword.o)
eeprom_update_word                                /usr/lib/gcc/avr/11.2.0/../../../../avr/lib/avr5/libatmega32u4.a(eeupd_word.o)
                                                  .build/obj_3key_LohseBoi/quantum/eeconfig.o
exit                                              /usr/lib/gcc/avr/11.2.0/avr5/libgcc.a(_exit.o)
                                                  /usr/lib/gcc/avr/11.2.0/../../../../avr/lib/avr5/crtatmega32u4.o
extract_mod_bits                                  .build/obj_3key_LohseBoi/quantum/quantum.o
fn_actions                                        .build/obj_3key_LohseBoi/quantum/keymap_common.o
fputc                                             /usr/lib/gcc/avr/11.2.0/../../../../avr/lib/avr5/libc.a(fputc.o)
                                                  /usr/lib/gcc/avr/11.2.0/../../../../avr/lib/avr5/libc.a(vfprintf_std.o)
get_backlight_level                               .build/obj_3key_LohseBoi/quantum/backlight/backlight.o
get_event_keycode                                 .build/obj_3key_LohseBoi/quantum/quantum.o
get_first_key                                     .build/obj_3key_LohseBoi/common/report.o
get_macro_mods                                    .build/obj_3key_LohseBoi/quantum/action_util.o
get_mods                                          .build/obj_3key_LohseBoi/quantum/action_util.o
                                                  .build/obj_3key_LohseBoi/quantum/process_keycode/process_grave_esc.o
                                                  .build/obj_3key_LohseBoi/quantum/process_keycode/process_rgb.o
get_oneshot_layer                                 .build/obj_3key_LohseBoi/quantum/action_util.o
                                                  .build/obj_3key_LohseBoi/quantum/action.o
get_oneshot_layer_state                           .build/obj_3key_LohseBoi/quantum/action_util.o
                                                  .build/obj_3key_LohseBoi/quantum/action.o
get_oneshot_locked_mods                           .build/obj_3key_LohseBoi/quantum/action_util.o
get_oneshot_mods                                  .build/obj_3key_LohseBoi/quantum/action_util.o
                                                  .build/obj_3key_LohseBoi/quantum/action.o
get_record_keycode                                .build/obj_3key_LohseBoi/quantum/quantum.o
get_tapping_term                                  .build/obj_3key_LohseBoi/quantum/action_tapping.o
get_usb_descriptor                                .build/obj_3key_LohseBoi/usb_descriptor.o
                                                  .build/obj_3key_LohseBoi/lufa.o
get_weak_mods                                     .build/obj_3key_LohseBoi/quantum/action_util.o
has_anykey                                        .build/obj_3key_LohseBoi/common/report.o
                                                  .build/obj_3key_LohseBoi/quantum/action_util.o
has_anymod                                        .build/obj_3key_LohseBoi/quantum/action_util.o
has_oneshot_mods_timed_out                        .build/obj_3key_LohseBoi/quantum/action_util.o
host_consumer_send                                .build/obj_3key_LohseBoi/common/host.o
                                                  .build/obj_3key_LohseBoi/quantum/action.o
host_digitizer_send                               .build/obj_3key_LohseBoi/common/host.o
host_get_driver                                   .build/obj_3key_LohseBoi/common/host.o
host_keyboard_led_state                           .build/obj_3key_LohseBoi/common/host.o
host_keyboard_leds                                .build/obj_3key_LohseBoi/common/host.o
                                                  .build/obj_3key_LohseBoi/common/avr/suspend.o
                                                  .build/obj_3key_LohseBoi/quantum/keyboard.o
                                                  .build/obj_3key_LohseBoi/quantum/action.o
host_keyboard_send                                .build/obj_3key_LohseBoi/common/host.o
                                                  .build/obj_3key_LohseBoi/quantum/action_util.o
host_last_consumer_report                         .build/obj_3key_LohseBoi/common/host.o
host_last_system_report                           .build/obj_3key_LohseBoi/common/host.o
host_mouse_send                                   .build/obj_3key_LohseBoi/common/host.o
                                                  .build/obj_3key_LohseBoi/quantum/mousekey.o
host_set_driver                                   .build/obj_3key_LohseBoi/common/host.o
                                                  .build/obj_3key_LohseBoi/lufa.o
host_system_send                                  .build/obj_3key_LohseBoi/common/host.o
                                                  .build/obj_3key_LohseBoi/quantum/action.o
housekeeping_task                                 .build/obj_3key_LohseBoi/quantum/keyboard.o
                                                  .build/obj_3key_LohseBoi/quantum/main.o
housekeeping_task_kb                              .build/obj_3key_LohseBoi/quantum/keyboard.o
housekeeping_task_user                            .build/obj_3key_LohseBoi/quantum/keyboard.o
hsv_to_rgb                                        .build/obj_3key_LohseBoi/quantum/color.o
                                                  .build/obj_3key_LohseBoi/quantum/rgblight/rgblight.o
hsv_to_rgb_impl                                   .build/obj_3key_LohseBoi/quantum/color.o
hsv_to_rgb_nocie                                  .build/obj_3key_LohseBoi/quantum/color.o
is_backlight_enabled                              .build/obj_3key_LohseBoi/quantum/backlight/backlight.o
is_key_pressed                                    .build/obj_3key_LohseBoi/common/report.o
                                                  .build/obj_3key_LohseBoi/quantum/action.o
is_keyboard_left                                  .build/obj_3key_LohseBoi/quantum/keyboard.o
is_keyboard_master                                .build/obj_3key_LohseBoi/quantum/keyboard.o
is_oneshot_enabled                                .build/obj_3key_LohseBoi/quantum/action_util.o
is_oneshot_layer_active                           .build/obj_3key_LohseBoi/quantum/action_util.o
                                                  .build/obj_3key_LohseBoi/quantum/action.o
is_rgblight_initialized                           .build/obj_3key_LohseBoi/quantum/rgblight/rgblight.o
is_tap_action                                     .build/obj_3key_LohseBoi/quantum/action.o
is_tap_key                                        .build/obj_3key_LohseBoi/quantum/action.o
is_tap_record                                     .build/obj_3key_LohseBoi/quantum/action.o
                                                  .build/obj_3key_LohseBoi/quantum/action_tapping.o
keyboard_idle                                     .build/obj_3key_LohseBoi/lufa.o
keyboard_init                                     .build/obj_3key_LohseBoi/quantum/keyboard.o
                                                  .build/obj_3key_LohseBoi/lufa.o
keyboard_post_init_kb                             .build/obj_3key_LohseBoi/quantum/keyboard.o
keyboard_post_init_user                           .build/obj_3key_LohseBoi/quantum/keyboard.o
keyboard_pre_init_kb                              .build/obj_3key_LohseBoi/quantum/keyboard.o
keyboard_pre_init_user                            .build/obj_3key_LohseBoi/quantum/keyboard.o
keyboard_protocol                                 .build/obj_3key_LohseBoi/lufa.o
                                                  .build/obj_3key_LohseBoi/common/report.o
                                                  .build/obj_3key_LohseBoi/common/host.o
keyboard_report                                   .build/obj_3key_LohseBoi/quantum/action_util.o
                                                  .build/obj_3key_LohseBoi/quantum/action.o
keyboard_set_leds                                 .build/obj_3key_LohseBoi/quantum/keyboard.o
keyboard_setup                                    .build/obj_3key_LohseBoi/quantum/keyboard.o
                                                  .build/obj_3key_LohseBoi/lufa.o
keyboard_task                                     .build/obj_3key_LohseBoi/quantum/keyboard.o
                                                  .build/obj_3key_LohseBoi/lufa.o
keycode_config                                    .build/obj_3key_LohseBoi/quantum/keycode_config.o
                                                  .build/obj_3key_LohseBoi/quantum/keymap_common.o
keymap_config                                     .build/obj_3key_LohseBoi/quantum/bootmagic/magic.o
                                                  .build/obj_3key_LohseBoi/lufa.o
                                                  .build/obj_3key_LohseBoi/common/report.o
                                                  .build/obj_3key_LohseBoi/common/host.o
                                                  .build/obj_3key_LohseBoi/quantum/process_keycode/process_magic.o
                                                  .build/obj_3key_LohseBoi/quantum/keycode_config.o
                                                  .build/obj_3key_LohseBoi/quantum/action_util.o
keymap_function_id_to_action                      .build/obj_3key_LohseBoi/quantum/keymap_common.o
keymap_key_to_keycode                             .build/obj_3key_LohseBoi/quantum/keymap_common.o
                                                  .build/obj_3key_LohseBoi/quantum/quantum.o
keymaps                                           .build/obj_3key_LohseBoi/keyboards/3key/keymaps/LohseBoi/keymap.o
                                                  .build/obj_3key_LohseBoi/quantum/keymap_common.o
last_encoder_activity_elapsed                     .build/obj_3key_LohseBoi/quantum/keyboard.o
last_encoder_activity_time                        .build/obj_3key_LohseBoi/quantum/keyboard.o
last_encoder_activity_trigger                     .build/obj_3key_LohseBoi/quantum/keyboard.o
last_input_activity_elapsed                       .build/obj_3key_LohseBoi/quantum/keyboard.o
last_input_activity_time                          .build/obj_3key_LohseBoi/quantum/keyboard.o
last_matrix_activity_elapsed                      .build/obj_3key_LohseBoi/quantum/keyboard.o
last_matrix_activity_time                         .build/obj_3key_LohseBoi/quantum/keyboard.o
last_matrix_activity_trigger                      .build/obj_3key_LohseBoi/quantum/keyboard.o
layer_and                                         .build/obj_3key_LohseBoi/quantum/action_layer.o
                                                  .build/obj_3key_LohseBoi/quantum/action.o
layer_clear                                       .build/obj_3key_LohseBoi/quantum/action_layer.o
                                                  .build/obj_3key_LohseBoi/quantum/action.o
layer_debug                                       .build/obj_3key_LohseBoi/quantum/action_layer.o
                                                  .build/obj_3key_LohseBoi/quantum/action.o
layer_invert                                      .build/obj_3key_LohseBoi/quantum/action_layer.o
                                                  .build/obj_3key_LohseBoi/quantum/action.o
layer_move                                        .build/obj_3key_LohseBoi/quantum/action_layer.o
                                                  .build/obj_3key_LohseBoi/quantum/action.o
layer_off                                         .build/obj_3key_LohseBoi/quantum/action_layer.o
                                                  .build/obj_3key_LohseBoi/quantum/action_util.o
                                                  .build/obj_3key_LohseBoi/quantum/action.o
layer_on                                          .build/obj_3key_LohseBoi/quantum/action_layer.o
                                                  .build/obj_3key_LohseBoi/quantum/action_util.o
                                                  .build/obj_3key_LohseBoi/quantum/action.o
layer_or                                          .build/obj_3key_LohseBoi/quantum/action_layer.o
                                                  .build/obj_3key_LohseBoi/quantum/action.o
layer_state                                       .build/obj_3key_LohseBoi/quantum/action_layer.o
                                                  .build/obj_3key_LohseBoi/quantum/bootmagic/magic.o
                                                  .build/obj_3key_LohseBoi/quantum/quantum.o
layer_state_cmp                                   .build/obj_3key_LohseBoi/quantum/action_layer.o
layer_state_is                                    .build/obj_3key_LohseBoi/quantum/action_layer.o
layer_state_set                                   .build/obj_3key_LohseBoi/quantum/action_layer.o
                                                  .build/obj_3key_LohseBoi/quantum/action.o
                                                  .build/obj_3key_LohseBoi/quantum/quantum.o
layer_state_set_kb                                .build/obj_3key_LohseBoi/quantum/action_layer.o
                                                  .build/obj_3key_LohseBoi/quantum/bootmagic/magic.o
layer_state_set_user                              .build/obj_3key_LohseBoi/quantum/action_layer.o
layer_switch_get_action                           .build/obj_3key_LohseBoi/quantum/action_layer.o
                                                  .build/obj_3key_LohseBoi/quantum/action_tapping.o
                                                  .build/obj_3key_LohseBoi/quantum/action.o
layer_switch_get_layer                            .build/obj_3key_LohseBoi/quantum/action_layer.o
                                                  .build/obj_3key_LohseBoi/quantum/quantum.o
layer_xor                                         .build/obj_3key_LohseBoi/quantum/action_layer.o
                                                  .build/obj_3key_LohseBoi/quantum/action.o
led                                               .build/obj_3key_LohseBoi/quantum/rgblight/rgblight.o
led_init_ports                                    .build/obj_3key_LohseBoi/quantum/led.o
                                                  .build/obj_3key_LohseBoi/quantum/quantum.o
led_set                                           .build/obj_3key_LohseBoi/quantum/led.o
                                                  .build/obj_3key_LohseBoi/common/avr/suspend.o
                                                  .build/obj_3key_LohseBoi/quantum/keyboard.o
                                                  .build/obj_3key_LohseBoi/quantum/action.o
led_set_kb                                        .build/obj_3key_LohseBoi/quantum/led.o
led_set_user                                      .build/obj_3key_LohseBoi/quantum/led.o
led_update_kb                                     .build/obj_3key_LohseBoi/quantum/led.o
led_update_user                                   .build/obj_3key_LohseBoi/quantum/led.o
lufa_driver                                       .build/obj_3key_LohseBoi/lufa.o
magic                                             .build/obj_3key_LohseBoi/quantum/bootmagic/magic.o
                                                  .build/obj_3key_LohseBoi/quantum/quantum.o
main                                              .build/obj_3key_LohseBoi/quantum/main.o
                                                  /usr/lib/gcc/avr/11.2.0/../../../../avr/lib/avr5/crtatmega32u4.o
matrix                                            .build/obj_3key_LohseBoi/quantum/matrix_common.o
                                                  .build/obj_3key_LohseBoi/quantum/matrix.o
matrix_cols                                       .build/obj_3key_LohseBoi/quantum/matrix_common.o
matrix_get_row                                    .build/obj_3key_LohseBoi/quantum/matrix_common.o
                                                  .build/obj_3key_LohseBoi/common/avr/suspend.o
                                                  .build/obj_3key_LohseBoi/quantum/bootmagic/bootmagic_lite.o
                                                  .build/obj_3key_LohseBoi/quantum/keyboard.o
matrix_init                                       .build/obj_3key_LohseBoi/quantum/matrix.o
                                                  .build/obj_3key_LohseBoi/quantum/matrix_common.o
                                                  .build/obj_3key_LohseBoi/quantum/keyboard.o
matrix_init_custom                                .build/obj_3key_LohseBoi/quantum/matrix_common.o
matrix_init_kb                                    .build/obj_3key_LohseBoi/quantum/matrix_common.o
                                                  .build/obj_3key_LohseBoi/quantum/quantum.o
matrix_init_pins                                  .build/obj_3key_LohseBoi/quantum/matrix.o
matrix_init_quantum                               .build/obj_3key_LohseBoi/quantum/quantum.o
                                                  .build/obj_3key_LohseBoi/quantum/matrix.o
                                                  .build/obj_3key_LohseBoi/quantum/matrix_common.o
matrix_init_user                                  .build/obj_3key_LohseBoi/keyboards/3key/keymaps/LohseBoi/keymap.o
matrix_io_delay                                   .build/obj_3key_LohseBoi/quantum/matrix_common.o
matrix_is_modified                                .build/obj_3key_LohseBoi/quantum/matrix_common.o
matrix_is_on                                      .build/obj_3key_LohseBoi/quantum/matrix_common.o
matrix_key_count                                  .build/obj_3key_LohseBoi/quantum/matrix_common.o
matrix_output_select_delay                        .build/obj_3key_LohseBoi/quantum/matrix_common.o
                                                  .build/obj_3key_LohseBoi/quantum/matrix.o
matrix_output_unselect_delay                      .build/obj_3key_LohseBoi/quantum/matrix_common.o
                                                  .build/obj_3key_LohseBoi/quantum/matrix.o
matrix_power_down                                 .build/obj_3key_LohseBoi/common/avr/suspend.o
matrix_power_up                                   .build/obj_3key_LohseBoi/common/avr/suspend.o
matrix_print                                      .build/obj_3key_LohseBoi/quantum/matrix_common.o
                                                  .build/obj_3key_LohseBoi/quantum/keyboard.o
matrix_read_rows_on_col                           .build/obj_3key_LohseBoi/quantum/matrix.o
matrix_rows                                       .build/obj_3key_LohseBoi/quantum/matrix_common.o
matrix_scan                                       .build/obj_3key_LohseBoi/quantum/matrix.o
                                                  .build/obj_3key_LohseBoi/quantum/matrix_common.o
                                                  .build/obj_3key_LohseBoi/common/avr/suspend.o
                                                  .build/obj_3key_LohseBoi/quantum/bootmagic/bootmagic_lite.o
                                                  .build/obj_3key_LohseBoi/quantum/keyboard.o
matrix_scan_custom                                .build/obj_3key_LohseBoi/quantum/matrix_common.o
matrix_scan_kb                                    .build/obj_3key_LohseBoi/quantum/matrix_common.o
                                                  .build/obj_3key_LohseBoi/quantum/quantum.o
matrix_scan_quantum                               .build/obj_3key_LohseBoi/quantum/quantum.o
                                                  .build/obj_3key_LohseBoi/quantum/matrix.o
                                                  .build/obj_3key_LohseBoi/quantum/matrix_common.o
matrix_scan_user                                  .build/obj_3key_LohseBoi/keyboards/3key/keymaps/LohseBoi/keymap.o
matrix_setup                                      .build/obj_3key_LohseBoi/quantum/keyboard.o
memchr                                            /usr/lib/gcc/avr/11.2.0/../../../../avr/lib/avr5/libc.a(memchr.o)
                                                  .build/obj_3key_LohseBoi/quantum/rgblight/rgblight.o
memcpy                                            /usr/lib/gcc/avr/11.2.0/../../../../avr/lib/avr5/libc.a(memcpy.o)
                                                  /usr/lib/gcc/avr/11.2.0/../../../../avr/lib/avr5/libc.a(memmove.o)
memcpy_P                                          /usr/lib/gcc/avr/11.2.0/../../../../avr/lib/avr5/libc.a(memcpy_P.o)
                                                  .build/obj_3key_LohseBoi/quantum/rgblight/rgblight.o
memmove                                           /usr/lib/gcc/avr/11.2.0/../../../../avr/lib/avr5/libc.a(memmove.o)
                                                  .build/obj_3key_LohseBoi/lib/lufa/LUFA/Drivers/USB/Class/Common/HIDParser.o
mk_delay                                          .build/obj_3key_LohseBoi/quantum/mousekey.o
mk_interval                                       .build/obj_3key_LohseBoi/quantum/mousekey.o
mk_max_speed                                      .build/obj_3key_LohseBoi/quantum/mousekey.o
mk_time_to_max                                    .build/obj_3key_LohseBoi/quantum/mousekey.o
mk_wheel_delay                                    .build/obj_3key_LohseBoi/quantum/mousekey.o
mk_wheel_interval                                 .build/obj_3key_LohseBoi/quantum/mousekey.o
mk_wheel_max_speed                                .build/obj_3key_LohseBoi/quantum/mousekey.o
mk_wheel_time_to_max                              .build/obj_3key_LohseBoi/quantum/mousekey.o
mod_config                                        .build/obj_3key_LohseBoi/quantum/keycode_config.o
                                                  .build/obj_3key_LohseBoi/quantum/keymap_common.o
mousekey_clear                                    .build/obj_3key_LohseBoi/quantum/mousekey.o
                                                  .build/obj_3key_LohseBoi/quantum/action.o
mousekey_get_report                               .build/obj_3key_LohseBoi/quantum/mousekey.o
mousekey_off                                      .build/obj_3key_LohseBoi/quantum/mousekey.o
                                                  .build/obj_3key_LohseBoi/quantum/action.o
mousekey_on                                       .build/obj_3key_LohseBoi/quantum/mousekey.o
                                                  .build/obj_3key_LohseBoi/quantum/action.o
mousekey_send                                     .build/obj_3key_LohseBoi/quantum/mousekey.o
                                                  .build/obj_3key_LohseBoi/quantum/action.o
mousekey_task                                     .build/obj_3key_LohseBoi/quantum/mousekey.o
                                                  .build/obj_3key_LohseBoi/quantum/keyboard.o
oneshot_disable                                   .build/obj_3key_LohseBoi/quantum/action_util.o
                                                  .build/obj_3key_LohseBoi/quantum/quantum.o
oneshot_enable                                    .build/obj_3key_LohseBoi/quantum/action_util.o
                                                  .build/obj_3key_LohseBoi/quantum/quantum.o
oneshot_layer_changed_kb                          .build/obj_3key_LohseBoi/quantum/action_util.o
oneshot_layer_changed_user                        .build/obj_3key_LohseBoi/quantum/action_util.o
oneshot_locked_mods_changed_kb                    .build/obj_3key_LohseBoi/quantum/action_util.o
oneshot_locked_mods_changed_user                  .build/obj_3key_LohseBoi/quantum/action_util.o
oneshot_mods_changed_kb                           .build/obj_3key_LohseBoi/quantum/action_util.o
oneshot_mods_changed_user                         .build/obj_3key_LohseBoi/quantum/action_util.o
oneshot_set                                       .build/obj_3key_LohseBoi/quantum/action_util.o
oneshot_toggle                                    .build/obj_3key_LohseBoi/quantum/action_util.o
                                                  .build/obj_3key_LohseBoi/quantum/quantum.o
peek_matrix                                       .build/obj_3key_LohseBoi/quantum/matrix_common.o
perform_space_cadet                               .build/obj_3key_LohseBoi/quantum/process_keycode/process_space_cadet.o
platform_setup                                    .build/obj_3key_LohseBoi/common/avr/platform.o
                                                  .build/obj_3key_LohseBoi/quantum/main.o
post_process_record_kb                            .build/obj_3key_LohseBoi/quantum/quantum.o
post_process_record_quantum                       .build/obj_3key_LohseBoi/quantum/quantum.o
post_process_record_user                          .build/obj_3key_LohseBoi/quantum/quantum.o
pre_process_record_quantum                        .build/obj_3key_LohseBoi/quantum/quantum.o
print_set_sendchar                                .build/obj_3key_LohseBoi/common/avr/printf.o
                                                  .build/obj_3key_LohseBoi/quantum/keyboard.o
process_action                                    .build/obj_3key_LohseBoi/quantum/action.o
process_action_kb                                 .build/obj_3key_LohseBoi/quantum/quantum.o
process_backlight                                 .build/obj_3key_LohseBoi/quantum/process_keycode/process_backlight.o
                                                  .build/obj_3key_LohseBoi/quantum/quantum.o
process_grave_esc                                 .build/obj_3key_LohseBoi/quantum/process_keycode/process_grave_esc.o
                                                  .build/obj_3key_LohseBoi/quantum/quantum.o
process_magic                                     .build/obj_3key_LohseBoi/quantum/process_keycode/process_magic.o
                                                  .build/obj_3key_LohseBoi/quantum/quantum.o
process_record                                    .build/obj_3key_LohseBoi/quantum/action.o
                                                  .build/obj_3key_LohseBoi/quantum/action_tapping.o
process_record_handler                            .build/obj_3key_LohseBoi/quantum/action.o
process_record_kb                                 .build/obj_3key_LohseBoi/quantum/quantum.o
process_record_nocache                            .build/obj_3key_LohseBoi/quantum/action.o
process_record_quantum                            .build/obj_3key_LohseBoi/quantum/quantum.o
process_record_tap_hint                           .build/obj_3key_LohseBoi/quantum/action.o
                                                  .build/obj_3key_LohseBoi/quantum/action_tapping.o
process_record_user                               .build/obj_3key_LohseBoi/keyboards/3key/keymaps/LohseBoi/keymap.o
process_rgb                                       .build/obj_3key_LohseBoi/quantum/process_keycode/process_rgb.o
                                                  .build/obj_3key_LohseBoi/quantum/quantum.o
process_space_cadet                               .build/obj_3key_LohseBoi/quantum/process_keycode/process_space_cadet.o
                                                  .build/obj_3key_LohseBoi/quantum/quantum.o
protocol_init                                     .build/obj_3key_LohseBoi/lufa.o
                                                  .build/obj_3key_LohseBoi/quantum/main.o
protocol_setup                                    .build/obj_3key_LohseBoi/lufa.o
                                                  .build/obj_3key_LohseBoi/quantum/main.o
protocol_task                                     .build/obj_3key_LohseBoi/lufa.o
                                                  .build/obj_3key_LohseBoi/quantum/main.o
raw_matrix                                        .build/obj_3key_LohseBoi/quantum/matrix_common.o
                                                  .build/obj_3key_LohseBoi/quantum/matrix.o
read_source_layers_cache                          .build/obj_3key_LohseBoi/quantum/action_layer.o
                                                  .build/obj_3key_LohseBoi/quantum/quantum.o
register_code                                     .build/obj_3key_LohseBoi/quantum/action.o
                                                  .build/obj_3key_LohseBoi/quantum/action_macro.o
                                                  .build/obj_3key_LohseBoi/quantum/send_string.o
                                                  .build/obj_3key_LohseBoi/quantum/quantum.o
register_code16                                   .build/obj_3key_LohseBoi/quantum/quantum.o
register_mods                                     .build/obj_3key_LohseBoi/quantum/action.o
                                                  .build/obj_3key_LohseBoi/quantum/process_keycode/process_space_cadet.o
                                                  .build/obj_3key_LohseBoi/quantum/quantum.o
register_weak_mods                                .build/obj_3key_LohseBoi/quantum/action.o
                                                  .build/obj_3key_LohseBoi/quantum/quantum.o
reset_key                                         .build/obj_3key_LohseBoi/common/avr/bootloader.o
reset_keyboard                                    .build/obj_3key_LohseBoi/quantum/quantum.o
reset_oneshot_layer                               .build/obj_3key_LohseBoi/quantum/action_util.o
rgblight_call_driver                              .build/obj_3key_LohseBoi/quantum/rgblight/rgblight.o
rgblight_check_config                             .build/obj_3key_LohseBoi/quantum/rgblight/rgblight.o
rgblight_config                                   .build/obj_3key_LohseBoi/quantum/rgblight/rgblight.o
rgblight_decrease                                 .build/obj_3key_LohseBoi/quantum/rgblight/rgblight.o
rgblight_decrease_hue                             .build/obj_3key_LohseBoi/quantum/rgblight/rgblight.o
                                                  .build/obj_3key_LohseBoi/quantum/process_keycode/process_rgb.o
rgblight_decrease_hue_helper                      .build/obj_3key_LohseBoi/quantum/rgblight/rgblight.o
rgblight_decrease_hue_noeeprom                    .build/obj_3key_LohseBoi/quantum/rgblight/rgblight.o
rgblight_decrease_sat                             .build/obj_3key_LohseBoi/quantum/rgblight/rgblight.o
                                                  .build/obj_3key_LohseBoi/quantum/process_keycode/process_rgb.o
rgblight_decrease_sat_helper                      .build/obj_3key_LohseBoi/quantum/rgblight/rgblight.o
rgblight_decrease_sat_noeeprom                    .build/obj_3key_LohseBoi/quantum/rgblight/rgblight.o
rgblight_decrease_speed                           .build/obj_3key_LohseBoi/quantum/rgblight/rgblight.o
                                                  .build/obj_3key_LohseBoi/quantum/process_keycode/process_rgb.o
rgblight_decrease_speed_helper                    .build/obj_3key_LohseBoi/quantum/rgblight/rgblight.o
rgblight_decrease_speed_noeeprom                  .build/obj_3key_LohseBoi/quantum/rgblight/rgblight.o
rgblight_decrease_val                             .build/obj_3key_LohseBoi/quantum/rgblight/rgblight.o
                                                  .build/obj_3key_LohseBoi/quantum/process_keycode/process_rgb.o
rgblight_decrease_val_helper                      .build/obj_3key_LohseBoi/quantum/rgblight/rgblight.o
rgblight_decrease_val_noeeprom                    .build/obj_3key_LohseBoi/quantum/rgblight/rgblight.o
rgblight_disable                                  .build/obj_3key_LohseBoi/quantum/rgblight/rgblight.o
rgblight_disable_noeeprom                         .build/obj_3key_LohseBoi/quantum/rgblight/rgblight.o
rgblight_effect_alternating                       .build/obj_3key_LohseBoi/quantum/rgblight/rgblight.o
rgblight_effect_breathe_table                     .build/obj_3key_LohseBoi/quantum/rgblight/rgblight.o
rgblight_effect_breathing                         .build/obj_3key_LohseBoi/quantum/rgblight/rgblight.o
rgblight_effect_christmas                         .build/obj_3key_LohseBoi/quantum/rgblight/rgblight.o
rgblight_effect_knight                            .build/obj_3key_LohseBoi/quantum/rgblight/rgblight.o
rgblight_effect_rainbow_mood                      .build/obj_3key_LohseBoi/quantum/rgblight/rgblight.o
rgblight_effect_rainbow_swirl                     .build/obj_3key_LohseBoi/quantum/rgblight/rgblight.o
rgblight_effect_rgbtest                           .build/obj_3key_LohseBoi/quantum/rgblight/rgblight.o
rgblight_effect_snake                             .build/obj_3key_LohseBoi/quantum/rgblight/rgblight.o
rgblight_enable                                   .build/obj_3key_LohseBoi/quantum/rgblight/rgblight.o
rgblight_enable_noeeprom                          .build/obj_3key_LohseBoi/quantum/rgblight/rgblight.o
rgblight_get_hsv                                  .build/obj_3key_LohseBoi/quantum/rgblight/rgblight.o
rgblight_get_hue                                  .build/obj_3key_LohseBoi/quantum/rgblight/rgblight.o
rgblight_get_layer_state                          .build/obj_3key_LohseBoi/quantum/rgblight/rgblight.o
rgblight_get_mode                                 .build/obj_3key_LohseBoi/quantum/rgblight/rgblight.o
                                                  .build/obj_3key_LohseBoi/quantum/process_keycode/process_rgb.o
rgblight_get_sat                                  .build/obj_3key_LohseBoi/quantum/rgblight/rgblight.o
rgblight_get_speed                                .build/obj_3key_LohseBoi/quantum/rgblight/rgblight.o
rgblight_get_val                                  .build/obj_3key_LohseBoi/quantum/rgblight/rgblight.o
rgblight_hsv_to_rgb                               .build/obj_3key_LohseBoi/quantum/rgblight/rgblight.o
rgblight_increase                                 .build/obj_3key_LohseBoi/quantum/rgblight/rgblight.o
rgblight_increase_hue                             .build/obj_3key_LohseBoi/quantum/rgblight/rgblight.o
                                                  .build/obj_3key_LohseBoi/quantum/process_keycode/process_rgb.o
rgblight_increase_hue_helper                      .build/obj_3key_LohseBoi/quantum/rgblight/rgblight.o
rgblight_increase_hue_noeeprom                    .build/obj_3key_LohseBoi/quantum/rgblight/rgblight.o
rgblight_increase_sat                             .build/obj_3key_LohseBoi/quantum/rgblight/rgblight.o
                                                  .build/obj_3key_LohseBoi/quantum/process_keycode/process_rgb.o
rgblight_increase_sat_helper                      .build/obj_3key_LohseBoi/quantum/rgblight/rgblight.o
rgblight_increase_sat_noeeprom                    .build/obj_3key_LohseBoi/quantum/rgblight/rgblight.o
rgblight_increase_speed                           .build/obj_3key_LohseBoi/quantum/rgblight/rgblight.o
                                                  .build/obj_3key_LohseBoi/quantum/process_keycode/process_rgb.o
rgblight_increase_speed_helper                    .build/obj_3key_LohseBoi/quantum/rgblight/rgblight.o
rgblight_increase_speed_noeeprom                  .build/obj_3key_LohseBoi/quantum/rgblight/rgblight.o
rgblight_increase_val                             .build/obj_3key_LohseBoi/quantum/rgblight/rgblight.o
                                                  .build/obj_3key_LohseBoi/quantum/process_keycode/process_rgb.o
rgblight_increase_val_helper                      .build/obj_3key_LohseBoi/quantum/rgblight/rgblight.o
rgblight_increase_val_noeeprom                    .build/obj_3key_LohseBoi/quantum/rgblight/rgblight.o
rgblight_init                                     .build/obj_3key_LohseBoi/quantum/rgblight/rgblight.o
                                                  .build/obj_3key_LohseBoi/quantum/keyboard.o
rgblight_is_enabled                               .build/obj_3key_LohseBoi/quantum/rgblight/rgblight.o
rgblight_layers                                   .build/obj_3key_LohseBoi/quantum/rgblight/rgblight.o
rgblight_mode                                     .build/obj_3key_LohseBoi/quantum/rgblight/rgblight.o
                                                  .build/obj_3key_LohseBoi/quantum/process_keycode/process_rgb.o
rgblight_mode_eeprom_helper                       .build/obj_3key_LohseBoi/quantum/rgblight/rgblight.o
rgblight_mode_noeeprom                            .build/obj_3key_LohseBoi/quantum/rgblight/rgblight.o
rgblight_ranges                                   .build/obj_3key_LohseBoi/quantum/rgblight/rgblight.o
rgblight_read_dword                               .build/obj_3key_LohseBoi/quantum/rgblight/rgblight.o
rgblight_reload_from_eeprom                       .build/obj_3key_LohseBoi/quantum/rgblight/rgblight.o
rgblight_set                                      .build/obj_3key_LohseBoi/quantum/rgblight/rgblight.o
rgblight_set_clipping_range                       .build/obj_3key_LohseBoi/quantum/rgblight/rgblight.o
rgblight_set_effect_range                         .build/obj_3key_LohseBoi/quantum/rgblight/rgblight.o
rgblight_set_layer_state                          .build/obj_3key_LohseBoi/quantum/rgblight/rgblight.o
rgblight_set_speed                                .build/obj_3key_LohseBoi/quantum/rgblight/rgblight.o
rgblight_set_speed_eeprom_helper                  .build/obj_3key_LohseBoi/quantum/rgblight/rgblight.o
rgblight_set_speed_noeeprom                       .build/obj_3key_LohseBoi/quantum/rgblight/rgblight.o
rgblight_sethsv                                   .build/obj_3key_LohseBoi/quantum/rgblight/rgblight.o
                                                  .build/obj_3key_LohseBoi/keyboards/3key/keymaps/LohseBoi/keymap.o
rgblight_sethsv_at                                .build/obj_3key_LohseBoi/quantum/rgblight/rgblight.o
rgblight_sethsv_eeprom_helper                     .build/obj_3key_LohseBoi/quantum/rgblight/rgblight.o
rgblight_sethsv_master                            .build/obj_3key_LohseBoi/quantum/rgblight/rgblight.o
rgblight_sethsv_noeeprom                          .build/obj_3key_LohseBoi/quantum/rgblight/rgblight.o
rgblight_sethsv_noeeprom_old                      .build/obj_3key_LohseBoi/quantum/rgblight/rgblight.o
rgblight_sethsv_range                             .build/obj_3key_LohseBoi/quantum/rgblight/rgblight.o
rgblight_sethsv_slave                             .build/obj_3key_LohseBoi/quantum/rgblight/rgblight.o
rgblight_setrgb                                   .build/obj_3key_LohseBoi/quantum/rgblight/rgblight.o
rgblight_setrgb_at                                .build/obj_3key_LohseBoi/quantum/rgblight/rgblight.o
rgblight_setrgb_master                            .build/obj_3key_LohseBoi/quantum/rgblight/rgblight.o
rgblight_setrgb_range                             .build/obj_3key_LohseBoi/quantum/rgblight/rgblight.o
rgblight_setrgb_slave                             .build/obj_3key_LohseBoi/quantum/rgblight/rgblight.o
rgblight_show_solid_color                         .build/obj_3key_LohseBoi/quantum/rgblight/rgblight.o
rgblight_status                                   .build/obj_3key_LohseBoi/quantum/rgblight/rgblight.o
rgblight_step                                     .build/obj_3key_LohseBoi/quantum/rgblight/rgblight.o
                                                  .build/obj_3key_LohseBoi/quantum/process_keycode/process_rgb.o
rgblight_step_helper                              .build/obj_3key_LohseBoi/quantum/rgblight/rgblight.o
rgblight_step_noeeprom                            .build/obj_3key_LohseBoi/quantum/rgblight/rgblight.o
rgblight_step_reverse                             .build/obj_3key_LohseBoi/quantum/rgblight/rgblight.o
                                                  .build/obj_3key_LohseBoi/quantum/process_keycode/process_rgb.o
rgblight_step_reverse_helper                      .build/obj_3key_LohseBoi/quantum/rgblight/rgblight.o
rgblight_step_reverse_noeeprom                    .build/obj_3key_LohseBoi/quantum/rgblight/rgblight.o
rgblight_task                                     .build/obj_3key_LohseBoi/quantum/rgblight/rgblight.o
                                                  .build/obj_3key_LohseBoi/quantum/keyboard.o
rgblight_timer_disable                            .build/obj_3key_LohseBoi/quantum/rgblight/rgblight.o
rgblight_timer_enable                             .build/obj_3key_LohseBoi/quantum/rgblight/rgblight.o
rgblight_timer_init                               .build/obj_3key_LohseBoi/quantum/rgblight/rgblight.o
rgblight_timer_toggle                             .build/obj_3key_LohseBoi/quantum/rgblight/rgblight.o
rgblight_toggle                                   .build/obj_3key_LohseBoi/quantum/rgblight/rgblight.o
                                                  .build/obj_3key_LohseBoi/quantum/process_keycode/process_rgb.o
rgblight_toggle_noeeprom                          .build/obj_3key_LohseBoi/quantum/rgblight/rgblight.o
rgblight_update_dword                             .build/obj_3key_LohseBoi/quantum/rgblight/rgblight.o
send_byte                                         .build/obj_3key_LohseBoi/quantum/send_string.o
send_char                                         .build/obj_3key_LohseBoi/quantum/send_string.o
send_digitizer                                    .build/obj_3key_LohseBoi/lufa.o
                                                  .build/obj_3key_LohseBoi/common/host.o
send_dword                                        .build/obj_3key_LohseBoi/quantum/send_string.o
send_keyboard_report                              .build/obj_3key_LohseBoi/quantum/action_util.o
                                                  .build/obj_3key_LohseBoi/quantum/process_keycode/process_grave_esc.o
                                                  .build/obj_3key_LohseBoi/quantum/action_macro.o
                                                  .build/obj_3key_LohseBoi/quantum/action.o
send_nibble                                       .build/obj_3key_LohseBoi/quantum/send_string.o
send_string                                       .build/obj_3key_LohseBoi/quantum/send_string.o
                                                  .build/obj_3key_LohseBoi/keyboards/3key/keymaps/LohseBoi/keymap.o
send_string_P                                     .build/obj_3key_LohseBoi/quantum/send_string.o
send_string_with_delay                            .build/obj_3key_LohseBoi/quantum/send_string.o
send_string_with_delay_P                          .build/obj_3key_LohseBoi/quantum/send_string.o
send_word                                         .build/obj_3key_LohseBoi/quantum/send_string.o
sendchar                                          .build/obj_3key_LohseBoi/quantum/logging/sendchar.o
                                                  .build/obj_3key_LohseBoi/quantum/keyboard.o
set_macro_mods                                    .build/obj_3key_LohseBoi/quantum/action_util.o
set_mods                                          .build/obj_3key_LohseBoi/quantum/action_util.o
set_oneshot_layer                                 .build/obj_3key_LohseBoi/quantum/action_util.o
                                                  .build/obj_3key_LohseBoi/quantum/action.o
set_oneshot_locked_mods                           .build/obj_3key_LohseBoi/quantum/action_util.o
set_oneshot_mods                                  .build/obj_3key_LohseBoi/quantum/action_util.o
                                                  .build/obj_3key_LohseBoi/quantum/action.o
set_single_persistent_default_layer               .build/obj_3key_LohseBoi/quantum/quantum.o
set_weak_mods                                     .build/obj_3key_LohseBoi/quantum/action_util.o
sethsv                                            .build/obj_3key_LohseBoi/quantum/rgblight/rgblight.o
sethsv_raw                                        .build/obj_3key_LohseBoi/quantum/rgblight/rgblight.o
setrgb                                            .build/obj_3key_LohseBoi/quantum/rgblight/rgblight.o
should_process_keypress                           .build/obj_3key_LohseBoi/quantum/keyboard.o
shutdown_user                                     .build/obj_3key_LohseBoi/quantum/quantum.o
source_layers_cache                               .build/obj_3key_LohseBoi/quantum/action_layer.o
sprintf                                           /usr/lib/gcc/avr/11.2.0/../../../../avr/lib/avr5/libc.a(sprintf.o)
                                                  .build/obj_3key_LohseBoi/keyboards/3key/keymaps/LohseBoi/keymap.o
startup_user                                      .build/obj_3key_LohseBoi/quantum/quantum.o
store_or_get_action                               .build/obj_3key_LohseBoi/quantum/action_layer.o
                                                  .build/obj_3key_LohseBoi/quantum/action.o
strnlen                                           /usr/lib/gcc/avr/11.2.0/../../../../avr/lib/avr5/libc.a(strnlen.o)
                                                  /usr/lib/gcc/avr/11.2.0/../../../../avr/lib/avr5/libc.a(vfprintf_std.o)
strnlen_P                                         /usr/lib/gcc/avr/11.2.0/../../../../avr/lib/avr5/libc.a(strnlen_P.o)
                                                  /usr/lib/gcc/avr/11.2.0/../../../../avr/lib/avr5/libc.a(vfprintf_std.o)
suspend_idle                                      .build/obj_3key_LohseBoi/common/avr/suspend.o
suspend_power_down                                .build/obj_3key_LohseBoi/common/avr/suspend.o
                                                  .build/obj_3key_LohseBoi/lufa.o
suspend_power_down_kb                             .build/obj_3key_LohseBoi/common/avr/suspend.o
suspend_power_down_user                           .build/obj_3key_LohseBoi/common/avr/suspend.o
suspend_wakeup_condition                          .build/obj_3key_LohseBoi/common/avr/suspend.o
                                                  .build/obj_3key_LohseBoi/lufa.o
suspend_wakeup_init                               .build/obj_3key_LohseBoi/common/avr/suspend.o
                                                  .build/obj_3key_LohseBoi/lufa.o
suspend_wakeup_init_kb                            .build/obj_3key_LohseBoi/common/avr/suspend.o
suspend_wakeup_init_user                          .build/obj_3key_LohseBoi/common/avr/suspend.o
switch_events                                     .build/obj_3key_LohseBoi/quantum/keyboard.o
tap_code                                          .build/obj_3key_LohseBoi/quantum/action.o
                                                  .build/obj_3key_LohseBoi/quantum/process_keycode/process_space_cadet.o
                                                  .build/obj_3key_LohseBoi/quantum/send_string.o
tap_code16                                        .build/obj_3key_LohseBoi/quantum/quantum.o
tap_code_delay                                    .build/obj_3key_LohseBoi/quantum/action.o
tap_random_base64                                 .build/obj_3key_LohseBoi/quantum/send_string.o
timer_clear                                       .build/obj_3key_LohseBoi/common/avr/timer.o
timer_count                                       .build/obj_3key_LohseBoi/common/avr/timer.o
                                                  .build/obj_3key_LohseBoi/common/avr/suspend.o
timer_elapsed                                     .build/obj_3key_LohseBoi/common/avr/timer.o
                                                  .build/obj_3key_LohseBoi/quantum/process_keycode/process_space_cadet.o
                                                  .build/obj_3key_LohseBoi/quantum/mousekey.o
                                                  .build/obj_3key_LohseBoi/quantum/debounce/sym_defer_g.o
timer_elapsed32                                   .build/obj_3key_LohseBoi/common/avr/timer.o
                                                  .build/obj_3key_LohseBoi/quantum/keyboard.o
timer_init                                        .build/obj_3key_LohseBoi/common/avr/timer.o
                                                  .build/obj_3key_LohseBoi/quantum/keyboard.o
timer_read                                        .build/obj_3key_LohseBoi/common/avr/timer.o
                                                  .build/obj_3key_LohseBoi/quantum/process_keycode/process_space_cadet.o
                                                  .build/obj_3key_LohseBoi/quantum/rgblight/rgblight.o
                                                  .build/obj_3key_LohseBoi/quantum/mousekey.o
                                                  .build/obj_3key_LohseBoi/quantum/debounce/sym_defer_g.o
                                                  .build/obj_3key_LohseBoi/quantum/keyboard.o
timer_read32                                      .build/obj_3key_LohseBoi/common/avr/timer.o
                                                  .build/obj_3key_LohseBoi/quantum/keyboard.o
tp_buttons                                        .build/obj_3key_LohseBoi/quantum/action.o
unregister_code                                   .build/obj_3key_LohseBoi/quantum/action.o
                                                  .build/obj_3key_LohseBoi/quantum/action_macro.o
                                                  .build/obj_3key_LohseBoi/quantum/send_string.o
                                                  .build/obj_3key_LohseBoi/quantum/quantum.o
unregister_code16                                 .build/obj_3key_LohseBoi/quantum/quantum.o
unregister_mods                                   .build/obj_3key_LohseBoi/quantum/action.o
                                                  .build/obj_3key_LohseBoi/quantum/process_keycode/process_space_cadet.o
                                                  .build/obj_3key_LohseBoi/quantum/quantum.o
unregister_weak_mods                              .build/obj_3key_LohseBoi/quantum/action.o
                                                  .build/obj_3key_LohseBoi/quantum/quantum.o
update_source_layers_cache                        .build/obj_3key_LohseBoi/quantum/action_layer.o
                                                  .build/obj_3key_LohseBoi/quantum/quantum.o
update_tri_layer                                  .build/obj_3key_LohseBoi/quantum/quantum.o
update_tri_layer_state                            .build/obj_3key_LohseBoi/quantum/quantum.o
usb_connected_state                               .build/obj_3key_LohseBoi/protocol/lufa/usb_util.o
                                                  .build/obj_3key_LohseBoi/common/usb_util.o
usb_disconnect                                    .build/obj_3key_LohseBoi/protocol/lufa/usb_util.o
                                                  .build/obj_3key_LohseBoi/common/usb_util.o
usb_vbus_state                                    .build/obj_3key_LohseBoi/protocol/lufa/usb_util.o
                                                  .build/obj_3key_LohseBoi/common/usb_util.o
vfprintf                                          /usr/lib/gcc/avr/11.2.0/../../../../avr/lib/avr5/libc.a(vfprintf_std.o)
                                                  /usr/lib/gcc/avr/11.2.0/../../../../avr/lib/avr5/libc.a(sprintf.o)
ws2812_setleds                                    .build/obj_3key_LohseBoi/ws2812.o
                                                  .build/obj_3key_LohseBoi/quantum/rgblight/rgblight.o
xfunc_out                                         .build/obj_3key_LohseBoi/common/avr/xprintf.o
                                                  .build/obj_3key_LohseBoi/common/avr/printf.o
xitoa                                             .build/obj_3key_LohseBoi/common/avr/xprintf.o
xputc                                             .build/obj_3key_LohseBoi/common/avr/xprintf.o
xputs                                             .build/obj_3key_LohseBoi/common/avr/xprintf.o
