Archive member included to satisfy reference by file (symbol)

.build/obj_sofle_rev1_LohseBoi/i2c_master.a(i2c_master.o)
                              .build/obj_sofle_rev1_LohseBoi/ssd1306_sh1106.o (i2c_init)
.build/obj_sofle_rev1_LohseBoi/serial.a(serial.o)
                              .build/obj_sofle_rev1_LohseBoi/quantum/split_common/transport.o (soft_serial_initiator_init)
/usr/lib/gcc/avr/8.3.0/../../../../avr/lib/avr5/libm.a(addsf3.o)
                              .build/obj_sofle_rev1_LohseBoi/quantum/wpm.o (__addsf3)
/usr/lib/gcc/avr/8.3.0/../../../../avr/lib/avr5/libm.a(addsf3x.o)
                              /usr/lib/gcc/avr/8.3.0/../../../../avr/lib/avr5/libm.a(addsf3.o) (__addsf3x)
/usr/lib/gcc/avr/8.3.0/../../../../avr/lib/avr5/libm.a(ceil.o)
                              .build/obj_sofle_rev1_LohseBoi/quantum/wpm.o (ceil)
/usr/lib/gcc/avr/8.3.0/../../../../avr/lib/avr5/libm.a(fixunssfsi.o)
                              .build/obj_sofle_rev1_LohseBoi/quantum/wpm.o (__fixunssfsi)
/usr/lib/gcc/avr/8.3.0/../../../../avr/lib/avr5/libm.a(floatsisf.o)
                              .build/obj_sofle_rev1_LohseBoi/quantum/wpm.o (__floatunsisf)
/usr/lib/gcc/avr/8.3.0/../../../../avr/lib/avr5/libm.a(fp_inf.o)
                              /usr/lib/gcc/avr/8.3.0/../../../../avr/lib/avr5/libm.a(addsf3x.o) (__fp_inf)
/usr/lib/gcc/avr/8.3.0/../../../../avr/lib/avr5/libm.a(fp_mintl.o)
                              /usr/lib/gcc/avr/8.3.0/../../../../avr/lib/avr5/libm.a(ceil.o) (__fp_mintl)
/usr/lib/gcc/avr/8.3.0/../../../../avr/lib/avr5/libm.a(fp_mpack.o)
                              /usr/lib/gcc/avr/8.3.0/../../../../avr/lib/avr5/libm.a(ceil.o) (__fp_mpack)
/usr/lib/gcc/avr/8.3.0/../../../../avr/lib/avr5/libm.a(fp_nan.o)
                              /usr/lib/gcc/avr/8.3.0/../../../../avr/lib/avr5/libm.a(addsf3x.o) (__fp_nan)
/usr/lib/gcc/avr/8.3.0/../../../../avr/lib/avr5/libm.a(fp_pscA.o)
                              /usr/lib/gcc/avr/8.3.0/../../../../avr/lib/avr5/libm.a(addsf3x.o) (__fp_pscA)
/usr/lib/gcc/avr/8.3.0/../../../../avr/lib/avr5/libm.a(fp_pscB.o)
                              /usr/lib/gcc/avr/8.3.0/../../../../avr/lib/avr5/libm.a(addsf3x.o) (__fp_pscB)
/usr/lib/gcc/avr/8.3.0/../../../../avr/lib/avr5/libm.a(fp_round.o)
                              /usr/lib/gcc/avr/8.3.0/../../../../avr/lib/avr5/libm.a(addsf3.o) (__fp_round)
/usr/lib/gcc/avr/8.3.0/../../../../avr/lib/avr5/libm.a(fp_split3.o)
                              /usr/lib/gcc/avr/8.3.0/../../../../avr/lib/avr5/libm.a(addsf3x.o) (__fp_split3)
/usr/lib/gcc/avr/8.3.0/../../../../avr/lib/avr5/libm.a(fp_trunc.o)
                              /usr/lib/gcc/avr/8.3.0/../../../../avr/lib/avr5/libm.a(ceil.o) (__fp_trunc)
/usr/lib/gcc/avr/8.3.0/../../../../avr/lib/avr5/libm.a(fp_zero.o)
                              /usr/lib/gcc/avr/8.3.0/../../../../avr/lib/avr5/libm.a(addsf3x.o) (__fp_zero)
/usr/lib/gcc/avr/8.3.0/../../../../avr/lib/avr5/libm.a(mulsf3.o)
                              .build/obj_sofle_rev1_LohseBoi/quantum/wpm.o (__mulsf3)
/usr/lib/gcc/avr/8.3.0/../../../../avr/lib/avr5/libm.a(mulsf3x.o)
                              /usr/lib/gcc/avr/8.3.0/../../../../avr/lib/avr5/libm.a(mulsf3.o) (__mulsf3x)
/usr/lib/gcc/avr/8.3.0/avr5/libgcc.a(_udivmodqi4.o)
                              .build/obj_sofle_rev1_LohseBoi/keyboards/sofle/keymaps/LohseBoi/keymap.o (__udivmodqi4)
/usr/lib/gcc/avr/8.3.0/avr5/libgcc.a(_udivmodhi4.o)
                              .build/obj_sofle_rev1_LohseBoi/ssd1306_sh1106.o (__udivmodhi4)
/usr/lib/gcc/avr/8.3.0/avr5/libgcc.a(_divmodhi4.o)
                              .build/obj_sofle_rev1_LohseBoi/keyboards/sofle/keymaps/LohseBoi/keymap.o (__divmodhi4)
/usr/lib/gcc/avr/8.3.0/avr5/libgcc.a(_divmodsi4.o)
                              .build/obj_sofle_rev1_LohseBoi/quantum/wpm.o (__divmodsi4)
/usr/lib/gcc/avr/8.3.0/avr5/libgcc.a(_negsi2.o)
                              /usr/lib/gcc/avr/8.3.0/avr5/libgcc.a(_divmodsi4.o) (__negsi2)
/usr/lib/gcc/avr/8.3.0/avr5/libgcc.a(_exit.o)
                              /usr/lib/gcc/avr/8.3.0/../../../../avr/lib/avr5/crtatmega32u4.o (exit)
/usr/lib/gcc/avr/8.3.0/avr5/libgcc.a(_tablejump2.o)
                              .build/obj_sofle_rev1_LohseBoi/keyboards/sofle/keymaps/LohseBoi/keymap.o (__tablejump2__)
/usr/lib/gcc/avr/8.3.0/avr5/libgcc.a(_copy_data.o)
                              .build/obj_sofle_rev1_LohseBoi/keyboards/sofle/keymaps/LohseBoi/keymap.o (__do_copy_data)
/usr/lib/gcc/avr/8.3.0/avr5/libgcc.a(_clear_bss.o)
                              .build/obj_sofle_rev1_LohseBoi/keyboards/sofle/keymaps/LohseBoi/keymap.o (__do_clear_bss)
/usr/lib/gcc/avr/8.3.0/avr5/libgcc.a(_udivmodsi4.o)
                              /usr/lib/gcc/avr/8.3.0/avr5/libgcc.a(_divmodsi4.o) (__udivmodsi4)
/usr/lib/gcc/avr/8.3.0/../../../../avr/lib/avr5/libc.a(memcpy_P.o)
                              .build/obj_sofle_rev1_LohseBoi/ssd1306_sh1106.o (memcpy_P)
/usr/lib/gcc/avr/8.3.0/../../../../avr/lib/avr5/libc.a(memcmp.o)
                              .build/obj_sofle_rev1_LohseBoi/quantum/matrix.o (memcmp)
/usr/lib/gcc/avr/8.3.0/../../../../avr/lib/avr5/libc.a(memcpy.o)
                              .build/obj_sofle_rev1_LohseBoi/quantum/split_common/transport.o (memcpy)
/usr/lib/gcc/avr/8.3.0/../../../../avr/lib/avr5/libatmega32u4.a(eerd_byte.o)
                              .build/obj_sofle_rev1_LohseBoi/quantum/eeconfig.o (eeprom_read_byte)
/usr/lib/gcc/avr/8.3.0/../../../../avr/lib/avr5/libatmega32u4.a(eerd_dword.o)
                              .build/obj_sofle_rev1_LohseBoi/quantum/eeconfig.o (eeprom_read_dword)
/usr/lib/gcc/avr/8.3.0/../../../../avr/lib/avr5/libatmega32u4.a(eerd_word.o)
                              .build/obj_sofle_rev1_LohseBoi/quantum/eeconfig.o (eeprom_read_word)
/usr/lib/gcc/avr/8.3.0/../../../../avr/lib/avr5/libatmega32u4.a(eeupd_byte.o)
                              .build/obj_sofle_rev1_LohseBoi/quantum/eeconfig.o (eeprom_update_byte)
/usr/lib/gcc/avr/8.3.0/../../../../avr/lib/avr5/libatmega32u4.a(eeupd_dword.o)
                              .build/obj_sofle_rev1_LohseBoi/quantum/eeconfig.o (eeprom_update_dword)
/usr/lib/gcc/avr/8.3.0/../../../../avr/lib/avr5/libatmega32u4.a(eeupd_word.o)
                              .build/obj_sofle_rev1_LohseBoi/quantum/eeconfig.o (eeprom_update_word)
/usr/lib/gcc/avr/8.3.0/../../../../avr/lib/avr5/libatmega32u4.a(eerd_block.o)
                              /usr/lib/gcc/avr/8.3.0/../../../../avr/lib/avr5/libatmega32u4.a(eerd_dword.o) (eeprom_read_blraw)

Allocating common symbols
Common symbol       size              file

USB_IsInitialized   0x1               .build/obj_sofle_rev1_LohseBoi/lib/lufa/LUFA/Drivers/USB/Core/USBTask.o
keymap_config       0x2               .build/obj_sofle_rev1_LohseBoi/quantum/bootmagic/magic.o
thatHand            0x1               .build/obj_sofle_rev1_LohseBoi/quantum/matrix.o
oled_buffer         0x200             .build/obj_sofle_rev1_LohseBoi/ssd1306_sh1106.o
sync_timer_ms       0x4               .build/obj_sofle_rev1_LohseBoi/common/sync_timer.o
USB_DeviceState     0x1               .build/obj_sofle_rev1_LohseBoi/lib/lufa/LUFA/Drivers/USB/Core/USBTask.o
USB_Device_ConfigurationNumber
                    0x1               .build/obj_sofle_rev1_LohseBoi/lib/lufa/LUFA/Drivers/USB/Core/DeviceStandardReq.o
oled_update_timeout
                    0x2               .build/obj_sofle_rev1_LohseBoi/ssd1306_sh1106.o
raw_matrix          0xa               .build/obj_sofle_rev1_LohseBoi/quantum/matrix_common.o
USB_Device_CurrentlySelfPowered
                    0x1               .build/obj_sofle_rev1_LohseBoi/lib/lufa/LUFA/Drivers/USB/Core/DeviceStandardReq.o
oled_timeout        0x4               .build/obj_sofle_rev1_LohseBoi/ssd1306_sh1106.o
matrix              0xa               .build/obj_sofle_rev1_LohseBoi/quantum/matrix_common.o
USB_ControlRequest  0x8               .build/obj_sofle_rev1_LohseBoi/lib/lufa/LUFA/Drivers/USB/Core/USBTask.o
tp_buttons          0x2               .build/obj_sofle_rev1_LohseBoi/quantum/action.o
dummy               0x1               .build/obj_sofle_rev1_LohseBoi/quantum/split_common/transactions.o
USB_Device_RemoteWakeupEnabled
                    0x1               .build/obj_sofle_rev1_LohseBoi/lib/lufa/LUFA/Drivers/USB/Core/DeviceStandardReq.o
oled_cursor         0x2               .build/obj_sofle_rev1_LohseBoi/ssd1306_sh1106.o
thisHand            0x1               .build/obj_sofle_rev1_LohseBoi/quantum/matrix.o
timer_count         0x4               .build/obj_sofle_rev1_LohseBoi/common/avr/timer.o

Discarded input sections

 .data          0x0000000000000000        0x0 /usr/lib/gcc/avr/8.3.0/../../../../avr/lib/avr5/crtatmega32u4.o
 .bss           0x0000000000000000        0x0 /usr/lib/gcc/avr/8.3.0/../../../../avr/lib/avr5/crtatmega32u4.o
 .text          0x0000000000000000        0x0 .build/obj_sofle_rev1_LohseBoi/keyboards/sofle/sofle.o
 .data          0x0000000000000000        0x0 .build/obj_sofle_rev1_LohseBoi/keyboards/sofle/sofle.o
 .bss           0x0000000000000000        0x0 .build/obj_sofle_rev1_LohseBoi/keyboards/sofle/sofle.o
 .text          0x0000000000000000        0x0 .build/obj_sofle_rev1_LohseBoi/keyboards/sofle/rev1/rev1.o
 .data          0x0000000000000000        0x0 .build/obj_sofle_rev1_LohseBoi/keyboards/sofle/rev1/rev1.o
 .bss           0x0000000000000000        0x0 .build/obj_sofle_rev1_LohseBoi/keyboards/sofle/rev1/rev1.o
 .debug_info    0x0000000000000000      0x606 .build/obj_sofle_rev1_LohseBoi/keyboards/sofle/rev1/rev1.o
 .debug_abbrev  0x0000000000000000      0x127 .build/obj_sofle_rev1_LohseBoi/keyboards/sofle/rev1/rev1.o
 .debug_aranges
                0x0000000000000000       0x18 .build/obj_sofle_rev1_LohseBoi/keyboards/sofle/rev1/rev1.o
 .debug_line    0x0000000000000000      0x154 .build/obj_sofle_rev1_LohseBoi/keyboards/sofle/rev1/rev1.o
 .debug_str     0x0000000000000000      0x595 .build/obj_sofle_rev1_LohseBoi/keyboards/sofle/rev1/rev1.o
 .comment       0x0000000000000000       0x12 .build/obj_sofle_rev1_LohseBoi/keyboards/sofle/rev1/rev1.o
 .text          0x0000000000000000        0x0 .build/obj_sofle_rev1_LohseBoi/keyboards/sofle/keymaps/LohseBoi/keymap.o
 .data          0x0000000000000000        0x0 .build/obj_sofle_rev1_LohseBoi/keyboards/sofle/keymaps/LohseBoi/keymap.o
 .bss           0x0000000000000000        0x0 .build/obj_sofle_rev1_LohseBoi/keyboards/sofle/keymaps/LohseBoi/keymap.o
 .rodata.media_time
                0x0000000000000000        0x2 .build/obj_sofle_rev1_LohseBoi/keyboards/sofle/keymaps/LohseBoi/keymap.o
 .bss.alttab_active
                0x0000000000000000        0x1 .build/obj_sofle_rev1_LohseBoi/keyboards/sofle/keymaps/LohseBoi/keymap.o
 .text          0x0000000000000000        0x0 .build/obj_sofle_rev1_LohseBoi/quantum/quantum.o
 .data          0x0000000000000000        0x0 .build/obj_sofle_rev1_LohseBoi/quantum/quantum.o
 .bss           0x0000000000000000        0x0 .build/obj_sofle_rev1_LohseBoi/quantum/quantum.o
 .text.extract_mod_bits
                0x0000000000000000       0x62 .build/obj_sofle_rev1_LohseBoi/quantum/quantum.o
 .text.register_code16
                0x0000000000000000       0x2e .build/obj_sofle_rev1_LohseBoi/quantum/quantum.o
 .text.unregister_code16
                0x0000000000000000       0x30 .build/obj_sofle_rev1_LohseBoi/quantum/quantum.o
 .text.tap_code16
                0x0000000000000000       0x20 .build/obj_sofle_rev1_LohseBoi/quantum/quantum.o
 .text.process_record_user
                0x0000000000000000        0x4 .build/obj_sofle_rev1_LohseBoi/quantum/quantum.o
 .text.api_send_unicode
                0x0000000000000000        0x2 .build/obj_sofle_rev1_LohseBoi/quantum/quantum.o
 .text.startup_user
                0x0000000000000000        0x2 .build/obj_sofle_rev1_LohseBoi/quantum/quantum.o
 .text          0x0000000000000000        0x0 .build/obj_sofle_rev1_LohseBoi/quantum/send_string.o
 .data          0x0000000000000000        0x0 .build/obj_sofle_rev1_LohseBoi/quantum/send_string.o
 .bss           0x0000000000000000        0x0 .build/obj_sofle_rev1_LohseBoi/quantum/send_string.o
 .text.send_string_with_delay
                0x0000000000000000       0xd0 .build/obj_sofle_rev1_LohseBoi/quantum/send_string.o
 .text.send_string
                0x0000000000000000        0x6 .build/obj_sofle_rev1_LohseBoi/quantum/send_string.o
 .text.send_nibble
                0x0000000000000000       0x14 .build/obj_sofle_rev1_LohseBoi/quantum/send_string.o
 .text.send_byte
                0x0000000000000000       0x16 .build/obj_sofle_rev1_LohseBoi/quantum/send_string.o
 .text.send_word
                0x0000000000000000       0x12 .build/obj_sofle_rev1_LohseBoi/quantum/send_string.o
 .text.send_dword
                0x0000000000000000       0x1c .build/obj_sofle_rev1_LohseBoi/quantum/send_string.o
 .text.tap_random_base64
                0x0000000000000000       0x56 .build/obj_sofle_rev1_LohseBoi/quantum/send_string.o
 .text          0x0000000000000000        0x0 .build/obj_sofle_rev1_LohseBoi/quantum/bitwise.o
 .data          0x0000000000000000        0x0 .build/obj_sofle_rev1_LohseBoi/quantum/bitwise.o
 .bss           0x0000000000000000        0x0 .build/obj_sofle_rev1_LohseBoi/quantum/bitwise.o
 .text.bitpop   0x0000000000000000       0x14 .build/obj_sofle_rev1_LohseBoi/quantum/bitwise.o
 .text.bitpop16
                0x0000000000000000       0x18 .build/obj_sofle_rev1_LohseBoi/quantum/bitwise.o
 .text.bitpop32
                0x0000000000000000       0x3a .build/obj_sofle_rev1_LohseBoi/quantum/bitwise.o
 .text.biton    0x0000000000000000       0x22 .build/obj_sofle_rev1_LohseBoi/quantum/bitwise.o
 .text.biton16  0x0000000000000000       0x48 .build/obj_sofle_rev1_LohseBoi/quantum/bitwise.o
 .text.bitrev   0x0000000000000000       0x30 .build/obj_sofle_rev1_LohseBoi/quantum/bitwise.o
 .text.bitrev16
                0x0000000000000000       0x1a .build/obj_sofle_rev1_LohseBoi/quantum/bitwise.o
 .text.bitrev32
                0x0000000000000000       0x4c .build/obj_sofle_rev1_LohseBoi/quantum/bitwise.o
 .text          0x0000000000000000        0x0 .build/obj_sofle_rev1_LohseBoi/quantum/led.o
 .data          0x0000000000000000        0x0 .build/obj_sofle_rev1_LohseBoi/quantum/led.o
 .bss           0x0000000000000000        0x0 .build/obj_sofle_rev1_LohseBoi/quantum/led.o
 .text          0x0000000000000000        0x0 .build/obj_sofle_rev1_LohseBoi/quantum/action.o
 .data          0x0000000000000000        0x0 .build/obj_sofle_rev1_LohseBoi/quantum/action.o
 .bss           0x0000000000000000        0x0 .build/obj_sofle_rev1_LohseBoi/quantum/action.o
 .text.process_record_quantum
                0x0000000000000000        0x4 .build/obj_sofle_rev1_LohseBoi/quantum/action.o
 .text.pre_process_record_quantum
                0x0000000000000000        0x4 .build/obj_sofle_rev1_LohseBoi/quantum/action.o
 .text.post_process_record_quantum
                0x0000000000000000        0x2 .build/obj_sofle_rev1_LohseBoi/quantum/action.o
 .text.process_record_nocache
                0x0000000000000000       0x10 .build/obj_sofle_rev1_LohseBoi/quantum/action.o
 .text.register_weak_mods
                0x0000000000000000        0xe .build/obj_sofle_rev1_LohseBoi/quantum/action.o
 .text.unregister_weak_mods
                0x0000000000000000        0xe .build/obj_sofle_rev1_LohseBoi/quantum/action.o
 .text.is_tap_key
                0x0000000000000000        0x8 .build/obj_sofle_rev1_LohseBoi/quantum/action.o
 .text.debug_action
                0x0000000000000000        0x2 .build/obj_sofle_rev1_LohseBoi/quantum/action.o
 COMMON         0x0000000000000000        0x2 .build/obj_sofle_rev1_LohseBoi/quantum/action.o
 .text          0x0000000000000000        0x0 .build/obj_sofle_rev1_LohseBoi/quantum/action_layer.o
 .data          0x0000000000000000        0x0 .build/obj_sofle_rev1_LohseBoi/quantum/action_layer.o
 .bss           0x0000000000000000        0x0 .build/obj_sofle_rev1_LohseBoi/quantum/action_layer.o
 .text.layer_state_cmp
                0x0000000000000000       0x2a .build/obj_sofle_rev1_LohseBoi/quantum/action_layer.o
 .text.layer_state_is
                0x0000000000000000       0x16 .build/obj_sofle_rev1_LohseBoi/quantum/action_layer.o
 .text          0x0000000000000000        0x0 .build/obj_sofle_rev1_LohseBoi/quantum/action_macro.o
 .data          0x0000000000000000        0x0 .build/obj_sofle_rev1_LohseBoi/quantum/action_macro.o
 .bss           0x0000000000000000        0x0 .build/obj_sofle_rev1_LohseBoi/quantum/action_macro.o
 .debug_info    0x0000000000000000      0x212 .build/obj_sofle_rev1_LohseBoi/quantum/action_macro.o
 .debug_abbrev  0x0000000000000000       0xd7 .build/obj_sofle_rev1_LohseBoi/quantum/action_macro.o
 .debug_aranges
                0x0000000000000000       0x18 .build/obj_sofle_rev1_LohseBoi/quantum/action_macro.o
 .debug_line    0x0000000000000000       0xa4 .build/obj_sofle_rev1_LohseBoi/quantum/action_macro.o
 .debug_str     0x0000000000000000      0x22f .build/obj_sofle_rev1_LohseBoi/quantum/action_macro.o
 .comment       0x0000000000000000       0x12 .build/obj_sofle_rev1_LohseBoi/quantum/action_macro.o
 .text          0x0000000000000000        0x0 .build/obj_sofle_rev1_LohseBoi/quantum/action_tapping.o
 .data          0x0000000000000000        0x0 .build/obj_sofle_rev1_LohseBoi/quantum/action_tapping.o
 .bss           0x0000000000000000        0x0 .build/obj_sofle_rev1_LohseBoi/quantum/action_tapping.o
 .text.get_tapping_term
                0x0000000000000000        0x6 .build/obj_sofle_rev1_LohseBoi/quantum/action_tapping.o
 .text          0x0000000000000000        0x0 .build/obj_sofle_rev1_LohseBoi/quantum/action_util.o
 .data          0x0000000000000000        0x0 .build/obj_sofle_rev1_LohseBoi/quantum/action_util.o
 .bss           0x0000000000000000        0x0 .build/obj_sofle_rev1_LohseBoi/quantum/action_util.o
 .text.get_oneshot_locked_mods
                0x0000000000000000        0x6 .build/obj_sofle_rev1_LohseBoi/quantum/action_util.o
 .text.has_oneshot_mods_timed_out
                0x0000000000000000        0x4 .build/obj_sofle_rev1_LohseBoi/quantum/action_util.o
 .text.is_oneshot_enabled
                0x0000000000000000        0xc .build/obj_sofle_rev1_LohseBoi/quantum/action_util.o
 .text.set_mods
                0x0000000000000000        0x6 .build/obj_sofle_rev1_LohseBoi/quantum/action_util.o
 .text.get_weak_mods
                0x0000000000000000        0x6 .build/obj_sofle_rev1_LohseBoi/quantum/action_util.o
 .text.set_weak_mods
                0x0000000000000000        0x6 .build/obj_sofle_rev1_LohseBoi/quantum/action_util.o
 .text.get_macro_mods
                0x0000000000000000        0x6 .build/obj_sofle_rev1_LohseBoi/quantum/action_util.o
 .text.add_macro_mods
                0x0000000000000000        0xc .build/obj_sofle_rev1_LohseBoi/quantum/action_util.o
 .text.del_macro_mods
                0x0000000000000000        0xe .build/obj_sofle_rev1_LohseBoi/quantum/action_util.o
 .text.set_macro_mods
                0x0000000000000000        0x6 .build/obj_sofle_rev1_LohseBoi/quantum/action_util.o
 .text.oneshot_locked_mods_changed_user
                0x0000000000000000        0x2 .build/obj_sofle_rev1_LohseBoi/quantum/action_util.o
 .text.oneshot_locked_mods_changed_kb
                0x0000000000000000        0x4 .build/obj_sofle_rev1_LohseBoi/quantum/action_util.o
 .text.set_oneshot_locked_mods
                0x0000000000000000       0x12 .build/obj_sofle_rev1_LohseBoi/quantum/action_util.o
 .text.clear_oneshot_locked_mods
                0x0000000000000000       0x14 .build/obj_sofle_rev1_LohseBoi/quantum/action_util.o
 .text.add_oneshot_mods
                0x0000000000000000       0x18 .build/obj_sofle_rev1_LohseBoi/quantum/action_util.o
 .text.del_oneshot_mods
                0x0000000000000000       0x18 .build/obj_sofle_rev1_LohseBoi/quantum/action_util.o
 .text.has_anymod
                0x0000000000000000        0x8 .build/obj_sofle_rev1_LohseBoi/quantum/action_util.o
 .bss.oneshot_locked_mods
                0x0000000000000000        0x1 .build/obj_sofle_rev1_LohseBoi/quantum/action_util.o
 .text          0x0000000000000000        0x0 .build/obj_sofle_rev1_LohseBoi/quantum/eeconfig.o
 .data          0x0000000000000000        0x0 .build/obj_sofle_rev1_LohseBoi/quantum/eeconfig.o
 .bss           0x0000000000000000        0x0 .build/obj_sofle_rev1_LohseBoi/quantum/eeconfig.o
 .text.eeconfig_enable
                0x0000000000000000        0xc .build/obj_sofle_rev1_LohseBoi/quantum/eeconfig.o
 .text.eeconfig_disable
                0x0000000000000000        0xc .build/obj_sofle_rev1_LohseBoi/quantum/eeconfig.o
 .text.eeconfig_is_disabled
                0x0000000000000000       0x14 .build/obj_sofle_rev1_LohseBoi/quantum/eeconfig.o
 .text.eeconfig_update_debug
                0x0000000000000000        0xa .build/obj_sofle_rev1_LohseBoi/quantum/eeconfig.o
 .text.eeconfig_read_audio
                0x0000000000000000        0x8 .build/obj_sofle_rev1_LohseBoi/quantum/eeconfig.o
 .text.eeconfig_update_audio
                0x0000000000000000        0xa .build/obj_sofle_rev1_LohseBoi/quantum/eeconfig.o
 .text.eeconfig_read_kb
                0x0000000000000000        0x8 .build/obj_sofle_rev1_LohseBoi/quantum/eeconfig.o
 .text.eeconfig_read_user
                0x0000000000000000        0x8 .build/obj_sofle_rev1_LohseBoi/quantum/eeconfig.o
 .text.eeconfig_read_haptic
                0x0000000000000000        0x8 .build/obj_sofle_rev1_LohseBoi/quantum/eeconfig.o
 .text.eeconfig_update_haptic
                0x0000000000000000        0xc .build/obj_sofle_rev1_LohseBoi/quantum/eeconfig.o
 .text.eeconfig_read_handedness
                0x0000000000000000       0x14 .build/obj_sofle_rev1_LohseBoi/quantum/eeconfig.o
 .text          0x0000000000000000        0x0 .build/obj_sofle_rev1_LohseBoi/quantum/keyboard.o
 .data          0x0000000000000000        0x0 .build/obj_sofle_rev1_LohseBoi/quantum/keyboard.o
 .bss           0x0000000000000000        0x0 .build/obj_sofle_rev1_LohseBoi/quantum/keyboard.o
 .text.last_input_activity_time
                0x0000000000000000       0x12 .build/obj_sofle_rev1_LohseBoi/quantum/keyboard.o
 .text.last_input_activity_elapsed
                0x0000000000000000       0x14 .build/obj_sofle_rev1_LohseBoi/quantum/keyboard.o
 .text.last_matrix_activity_time
                0x0000000000000000       0x12 .build/obj_sofle_rev1_LohseBoi/quantum/keyboard.o
 .text.last_matrix_activity_elapsed
                0x0000000000000000       0x14 .build/obj_sofle_rev1_LohseBoi/quantum/keyboard.o
 .text.last_encoder_activity_time
                0x0000000000000000       0x12 .build/obj_sofle_rev1_LohseBoi/quantum/keyboard.o
 .text.last_encoder_activity_elapsed
                0x0000000000000000       0x14 .build/obj_sofle_rev1_LohseBoi/quantum/keyboard.o
 .text.switch_events
                0x0000000000000000        0x2 .build/obj_sofle_rev1_LohseBoi/quantum/keyboard.o
 .text.keyboard_set_leds
                0x0000000000000000        0x4 .build/obj_sofle_rev1_LohseBoi/quantum/keyboard.o
 .text          0x0000000000000000        0x0 .build/obj_sofle_rev1_LohseBoi/quantum/keymap_common.o
 .data          0x0000000000000000        0x0 .build/obj_sofle_rev1_LohseBoi/quantum/keymap_common.o
 .bss           0x0000000000000000        0x0 .build/obj_sofle_rev1_LohseBoi/quantum/keymap_common.o
 .text.action_get_macro
                0x0000000000000000        0x6 .build/obj_sofle_rev1_LohseBoi/quantum/keymap_common.o
 .text.action_function
                0x0000000000000000        0x2 .build/obj_sofle_rev1_LohseBoi/quantum/keymap_common.o
 .text.keymap_function_id_to_action
                0x0000000000000000       0x10 .build/obj_sofle_rev1_LohseBoi/quantum/keymap_common.o
 .progmem.data.fn_actions
                0x0000000000000000        0x0 .build/obj_sofle_rev1_LohseBoi/quantum/keymap_common.o
 .text          0x0000000000000000        0x0 .build/obj_sofle_rev1_LohseBoi/quantum/keycode_config.o
 .data          0x0000000000000000        0x0 .build/obj_sofle_rev1_LohseBoi/quantum/keycode_config.o
 .bss           0x0000000000000000        0x0 .build/obj_sofle_rev1_LohseBoi/quantum/keycode_config.o
 .text          0x0000000000000000        0x0 .build/obj_sofle_rev1_LohseBoi/quantum/logging/debug.o
 .data          0x0000000000000000        0x0 .build/obj_sofle_rev1_LohseBoi/quantum/logging/debug.o
 .bss           0x0000000000000000        0x0 .build/obj_sofle_rev1_LohseBoi/quantum/logging/debug.o
 .text          0x0000000000000000        0x0 .build/obj_sofle_rev1_LohseBoi/quantum/logging/sendchar.o
 .data          0x0000000000000000        0x0 .build/obj_sofle_rev1_LohseBoi/quantum/logging/sendchar.o
 .bss           0x0000000000000000        0x0 .build/obj_sofle_rev1_LohseBoi/quantum/logging/sendchar.o
 .text          0x0000000000000000        0x0 .build/obj_sofle_rev1_LohseBoi/quantum/bootmagic/magic.o
 .data          0x0000000000000000        0x0 .build/obj_sofle_rev1_LohseBoi/quantum/bootmagic/magic.o
 .bss           0x0000000000000000        0x0 .build/obj_sofle_rev1_LohseBoi/quantum/bootmagic/magic.o
 .text          0x0000000000000000        0x0 .build/obj_sofle_rev1_LohseBoi/quantum/matrix_common.o
 .data          0x0000000000000000        0x0 .build/obj_sofle_rev1_LohseBoi/quantum/matrix_common.o
 .bss           0x0000000000000000        0x0 .build/obj_sofle_rev1_LohseBoi/quantum/matrix_common.o
 .text.matrix_scan_user
                0x0000000000000000        0x2 .build/obj_sofle_rev1_LohseBoi/quantum/matrix_common.o
 .text.matrix_rows
                0x0000000000000000        0x4 .build/obj_sofle_rev1_LohseBoi/quantum/matrix_common.o
 .text.matrix_cols
                0x0000000000000000        0x4 .build/obj_sofle_rev1_LohseBoi/quantum/matrix_common.o
 .text.matrix_is_on
                0x0000000000000000       0x28 .build/obj_sofle_rev1_LohseBoi/quantum/matrix_common.o
 .text.matrix_is_modified
                0x0000000000000000        0xa .build/obj_sofle_rev1_LohseBoi/quantum/matrix_common.o
 .text.matrix_key_count
                0x0000000000000000       0x2a .build/obj_sofle_rev1_LohseBoi/quantum/matrix_common.o
 .text.matrix_init_custom
                0x0000000000000000        0x2 .build/obj_sofle_rev1_LohseBoi/quantum/matrix_common.o
 .text.matrix_scan_custom
                0x0000000000000000        0x4 .build/obj_sofle_rev1_LohseBoi/quantum/matrix_common.o
 .text.matrix_init
                0x0000000000000000       0x22 .build/obj_sofle_rev1_LohseBoi/quantum/matrix_common.o
 .text.matrix_scan
                0x0000000000000000       0x26 .build/obj_sofle_rev1_LohseBoi/quantum/matrix_common.o
 .text.peek_matrix
                0x0000000000000000       0x24 .build/obj_sofle_rev1_LohseBoi/quantum/matrix_common.o
 .text          0x0000000000000000        0x0 .build/obj_sofle_rev1_LohseBoi/quantum/matrix.o
 .data          0x0000000000000000        0x0 .build/obj_sofle_rev1_LohseBoi/quantum/matrix.o
 .bss           0x0000000000000000        0x0 .build/obj_sofle_rev1_LohseBoi/quantum/matrix.o
 .text.transport_master_if_connected
                0x0000000000000000        0x8 .build/obj_sofle_rev1_LohseBoi/quantum/matrix.o
 .text          0x0000000000000000        0x0 .build/obj_sofle_rev1_LohseBoi/quantum/debounce/sym_defer_g.o
 .data          0x0000000000000000        0x0 .build/obj_sofle_rev1_LohseBoi/quantum/debounce/sym_defer_g.o
 .bss           0x0000000000000000        0x0 .build/obj_sofle_rev1_LohseBoi/quantum/debounce/sym_defer_g.o
 .text.debounce_active
                0x0000000000000000        0x6 .build/obj_sofle_rev1_LohseBoi/quantum/debounce/sym_defer_g.o
 .text.debounce_free
                0x0000000000000000        0x2 .build/obj_sofle_rev1_LohseBoi/quantum/debounce/sym_defer_g.o
 .text          0x0000000000000000        0x0 .build/obj_sofle_rev1_LohseBoi/quantum/split_common/split_util.o
 .data          0x0000000000000000        0x0 .build/obj_sofle_rev1_LohseBoi/quantum/split_common/split_util.o
 .bss           0x0000000000000000        0x0 .build/obj_sofle_rev1_LohseBoi/quantum/split_common/split_util.o
 .text          0x0000000000000000        0x0 .build/obj_sofle_rev1_LohseBoi/quantum/split_common/transport.o
 .data          0x0000000000000000        0x0 .build/obj_sofle_rev1_LohseBoi/quantum/split_common/transport.o
 .bss           0x0000000000000000        0x0 .build/obj_sofle_rev1_LohseBoi/quantum/split_common/transport.o
 .text          0x0000000000000000        0x0 .build/obj_sofle_rev1_LohseBoi/quantum/split_common/transactions.o
 .data          0x0000000000000000        0x0 .build/obj_sofle_rev1_LohseBoi/quantum/split_common/transactions.o
 .bss           0x0000000000000000        0x0 .build/obj_sofle_rev1_LohseBoi/quantum/split_common/transactions.o
 .text          0x0000000000000000        0x0 .build/obj_sofle_rev1_LohseBoi/quantum/main.o
 .data          0x0000000000000000        0x0 .build/obj_sofle_rev1_LohseBoi/quantum/main.o
 .bss           0x0000000000000000        0x0 .build/obj_sofle_rev1_LohseBoi/quantum/main.o
 .text          0x0000000000000000        0x0 .build/obj_sofle_rev1_LohseBoi/quantum/wpm.o
 .data          0x0000000000000000        0x0 .build/obj_sofle_rev1_LohseBoi/quantum/wpm.o
 .bss           0x0000000000000000        0x0 .build/obj_sofle_rev1_LohseBoi/quantum/wpm.o
 .text.set_current_wpm
                0x0000000000000000        0x6 .build/obj_sofle_rev1_LohseBoi/quantum/wpm.o
 .text.wpm_keycode
                0x0000000000000000        0x4 .build/obj_sofle_rev1_LohseBoi/quantum/wpm.o
 .text          0x0000000000000000        0x0 .build/obj_sofle_rev1_LohseBoi/quantum/encoder.o
 .data          0x0000000000000000        0x0 .build/obj_sofle_rev1_LohseBoi/quantum/encoder.o
 .bss           0x0000000000000000        0x0 .build/obj_sofle_rev1_LohseBoi/quantum/encoder.o
 .text.encoder_update_user
                0x0000000000000000        0x4 .build/obj_sofle_rev1_LohseBoi/quantum/encoder.o
 .text          0x0000000000000000        0x0 .build/obj_sofle_rev1_LohseBoi/crc.o
 .data          0x0000000000000000        0x0 .build/obj_sofle_rev1_LohseBoi/crc.o
 .bss           0x0000000000000000        0x0 .build/obj_sofle_rev1_LohseBoi/crc.o
 .text          0x0000000000000000        0x0 .build/obj_sofle_rev1_LohseBoi/ssd1306_sh1106.o
 .data          0x0000000000000000        0x0 .build/obj_sofle_rev1_LohseBoi/ssd1306_sh1106.o
 .bss           0x0000000000000000        0x0 .build/obj_sofle_rev1_LohseBoi/ssd1306_sh1106.o
 .text.oled_init_user
                0x0000000000000000        0x2 .build/obj_sofle_rev1_LohseBoi/ssd1306_sh1106.o
 .text.crot     0x0000000000000000       0x2a .build/obj_sofle_rev1_LohseBoi/ssd1306_sh1106.o
 .text.oled_pan
                0x0000000000000000       0x46 .build/obj_sofle_rev1_LohseBoi/ssd1306_sh1106.o
 .text.oled_read_raw
                0x0000000000000000       0x20 .build/obj_sofle_rev1_LohseBoi/ssd1306_sh1106.o
 .text.oled_write_raw_byte
                0x0000000000000000       0x48 .build/obj_sofle_rev1_LohseBoi/ssd1306_sh1106.o
 .text.oled_write_raw
                0x0000000000000000       0x76 .build/obj_sofle_rev1_LohseBoi/ssd1306_sh1106.o
 .text.oled_write_pixel
                0x0000000000000000       0x78 .build/obj_sofle_rev1_LohseBoi/ssd1306_sh1106.o
 .text.oled_write_raw_P
                0x0000000000000000       0x80 .build/obj_sofle_rev1_LohseBoi/ssd1306_sh1106.o
 .text.oled_set_brightness
                0x0000000000000000       0x58 .build/obj_sofle_rev1_LohseBoi/ssd1306_sh1106.o
 .text.oled_get_brightness
                0x0000000000000000        0x6 .build/obj_sofle_rev1_LohseBoi/ssd1306_sh1106.o
 .text.oled_scroll_set_area
                0x0000000000000000        0xa .build/obj_sofle_rev1_LohseBoi/ssd1306_sh1106.o
 .text.oled_scroll_set_speed
                0x0000000000000000       0x10 .build/obj_sofle_rev1_LohseBoi/ssd1306_sh1106.o
 .text.oled_scroll_right
                0x0000000000000000       0x8a .build/obj_sofle_rev1_LohseBoi/ssd1306_sh1106.o
 .text.oled_scroll_left
                0x0000000000000000       0x8a .build/obj_sofle_rev1_LohseBoi/ssd1306_sh1106.o
 .text.oled_scroll_off
                0x0000000000000000       0x42 .build/obj_sofle_rev1_LohseBoi/ssd1306_sh1106.o
 .text.is_oled_scrolling
                0x0000000000000000        0x6 .build/obj_sofle_rev1_LohseBoi/ssd1306_sh1106.o
 .text.oled_invert
                0x0000000000000000       0x4e .build/obj_sofle_rev1_LohseBoi/ssd1306_sh1106.o
 .text.oled_max_chars
                0x0000000000000000       0x10 .build/obj_sofle_rev1_LohseBoi/ssd1306_sh1106.o
 .text.oled_max_lines
                0x0000000000000000       0x10 .build/obj_sofle_rev1_LohseBoi/ssd1306_sh1106.o
 .text.oled_task_user
                0x0000000000000000        0x2 .build/obj_sofle_rev1_LohseBoi/ssd1306_sh1106.o
 .progmem.data.display_normal.2314
                0x0000000000000000        0x2 .build/obj_sofle_rev1_LohseBoi/ssd1306_sh1106.o
 .progmem.data.display_inverted.2313
                0x0000000000000000        0x2 .build/obj_sofle_rev1_LohseBoi/ssd1306_sh1106.o
 .progmem.data.display_scroll_off.2306
                0x0000000000000000        0x2 .build/obj_sofle_rev1_LohseBoi/ssd1306_sh1106.o
 .rodata.scroll_remap.2294
                0x0000000000000000        0x8 .build/obj_sofle_rev1_LohseBoi/ssd1306_sh1106.o
 .data.oled_scroll_end
                0x0000000000000000        0x1 .build/obj_sofle_rev1_LohseBoi/ssd1306_sh1106.o
 .bss.oled_scroll_start
                0x0000000000000000        0x1 .build/obj_sofle_rev1_LohseBoi/ssd1306_sh1106.o
 .bss.oled_scroll_speed
                0x0000000000000000        0x1 .build/obj_sofle_rev1_LohseBoi/ssd1306_sh1106.o
 .data.oled_brightness
                0x0000000000000000        0x1 .build/obj_sofle_rev1_LohseBoi/ssd1306_sh1106.o
 .bss.oled_inverted
                0x0000000000000000        0x1 .build/obj_sofle_rev1_LohseBoi/ssd1306_sh1106.o
 .text          0x0000000000000000        0x0 .build/obj_sofle_rev1_LohseBoi/quantum/process_keycode/process_space_cadet.o
 .data          0x0000000000000000        0x0 .build/obj_sofle_rev1_LohseBoi/quantum/process_keycode/process_space_cadet.o
 .bss           0x0000000000000000        0x0 .build/obj_sofle_rev1_LohseBoi/quantum/process_keycode/process_space_cadet.o
 .text          0x0000000000000000        0x0 .build/obj_sofle_rev1_LohseBoi/quantum/process_keycode/process_magic.o
 .data          0x0000000000000000        0x0 .build/obj_sofle_rev1_LohseBoi/quantum/process_keycode/process_magic.o
 .bss           0x0000000000000000        0x0 .build/obj_sofle_rev1_LohseBoi/quantum/process_keycode/process_magic.o
 .text          0x0000000000000000        0x0 .build/obj_sofle_rev1_LohseBoi/quantum/process_keycode/process_grave_esc.o
 .data          0x0000000000000000        0x0 .build/obj_sofle_rev1_LohseBoi/quantum/process_keycode/process_grave_esc.o
 .bss           0x0000000000000000        0x0 .build/obj_sofle_rev1_LohseBoi/quantum/process_keycode/process_grave_esc.o
 .text          0x0000000000000000        0x0 .build/obj_sofle_rev1_LohseBoi/i2c_master.a(i2c_master.o)
 .data          0x0000000000000000        0x0 .build/obj_sofle_rev1_LohseBoi/i2c_master.a(i2c_master.o)
 .bss           0x0000000000000000        0x0 .build/obj_sofle_rev1_LohseBoi/i2c_master.a(i2c_master.o)
 .text.i2c_read_ack
                0x0000000000000000       0x48 .build/obj_sofle_rev1_LohseBoi/i2c_master.a(i2c_master.o)
 .text.i2c_read_nack
                0x0000000000000000       0x48 .build/obj_sofle_rev1_LohseBoi/i2c_master.a(i2c_master.o)
 .text.i2c_receive
                0x0000000000000000       0x82 .build/obj_sofle_rev1_LohseBoi/i2c_master.a(i2c_master.o)
 .text.i2c_readReg
                0x0000000000000000       0x9e .build/obj_sofle_rev1_LohseBoi/i2c_master.a(i2c_master.o)
 .text          0x0000000000000000        0x0 .build/obj_sofle_rev1_LohseBoi/serial.a(serial.o)
 .data          0x0000000000000000        0x0 .build/obj_sofle_rev1_LohseBoi/serial.a(serial.o)
 .bss           0x0000000000000000        0x0 .build/obj_sofle_rev1_LohseBoi/serial.a(serial.o)
 .text.soft_serial_get_and_clean_status
                0x0000000000000000       0x22 .build/obj_sofle_rev1_LohseBoi/serial.a(serial.o)
 .text          0x0000000000000000        0x0 .build/obj_sofle_rev1_LohseBoi/common/host.o
 .data          0x0000000000000000        0x0 .build/obj_sofle_rev1_LohseBoi/common/host.o
 .bss           0x0000000000000000        0x0 .build/obj_sofle_rev1_LohseBoi/common/host.o
 .text.host_get_driver
                0x0000000000000000        0xa .build/obj_sofle_rev1_LohseBoi/common/host.o
 .text.set_split_host_keyboard_leds
                0x0000000000000000        0x6 .build/obj_sofle_rev1_LohseBoi/common/host.o
 .text.host_mouse_send
                0x0000000000000000       0x16 .build/obj_sofle_rev1_LohseBoi/common/host.o
 .text.send_digitizer
                0x0000000000000000        0x2 .build/obj_sofle_rev1_LohseBoi/common/host.o
 .text.host_digitizer_send
                0x0000000000000000       0x84 .build/obj_sofle_rev1_LohseBoi/common/host.o
 .text.host_last_system_report
                0x0000000000000000        0xa .build/obj_sofle_rev1_LohseBoi/common/host.o
 .text.host_last_consumer_report
                0x0000000000000000        0xa .build/obj_sofle_rev1_LohseBoi/common/host.o
 .text          0x0000000000000000        0x0 .build/obj_sofle_rev1_LohseBoi/common/report.o
 .data          0x0000000000000000        0x0 .build/obj_sofle_rev1_LohseBoi/common/report.o
 .bss           0x0000000000000000        0x0 .build/obj_sofle_rev1_LohseBoi/common/report.o
 .text.get_first_key
                0x0000000000000000        0x6 .build/obj_sofle_rev1_LohseBoi/common/report.o
 .text          0x0000000000000000        0x0 .build/obj_sofle_rev1_LohseBoi/common/sync_timer.o
 .data          0x0000000000000000        0x0 .build/obj_sofle_rev1_LohseBoi/common/sync_timer.o
 .bss           0x0000000000000000        0x0 .build/obj_sofle_rev1_LohseBoi/common/sync_timer.o
 .text.sync_timer_read
                0x0000000000000000       0x12 .build/obj_sofle_rev1_LohseBoi/common/sync_timer.o
 .text.sync_timer_elapsed
                0x0000000000000000       0x26 .build/obj_sofle_rev1_LohseBoi/common/sync_timer.o
 .text.sync_timer_elapsed32
                0x0000000000000000       0x3a .build/obj_sofle_rev1_LohseBoi/common/sync_timer.o
 .text          0x0000000000000000        0x0 .build/obj_sofle_rev1_LohseBoi/common/usb_util.o
 .data          0x0000000000000000        0x0 .build/obj_sofle_rev1_LohseBoi/common/usb_util.o
 .bss           0x0000000000000000        0x0 .build/obj_sofle_rev1_LohseBoi/common/usb_util.o
 .text.usb_disconnect
                0x0000000000000000        0x2 .build/obj_sofle_rev1_LohseBoi/common/usb_util.o
 .text.usb_connected_state
                0x0000000000000000        0x4 .build/obj_sofle_rev1_LohseBoi/common/usb_util.o
 .text.usb_vbus_state
                0x0000000000000000        0x4 .build/obj_sofle_rev1_LohseBoi/common/usb_util.o
 .debug_info    0x0000000000000000      0x658 .build/obj_sofle_rev1_LohseBoi/common/usb_util.o
 .debug_abbrev  0x0000000000000000      0x17f .build/obj_sofle_rev1_LohseBoi/common/usb_util.o
 .debug_aranges
                0x0000000000000000       0x28 .build/obj_sofle_rev1_LohseBoi/common/usb_util.o
 .debug_ranges  0x0000000000000000       0x18 .build/obj_sofle_rev1_LohseBoi/common/usb_util.o
 .debug_line    0x0000000000000000      0x1a8 .build/obj_sofle_rev1_LohseBoi/common/usb_util.o
 .debug_str     0x0000000000000000      0x5c6 .build/obj_sofle_rev1_LohseBoi/common/usb_util.o
 .comment       0x0000000000000000       0x12 .build/obj_sofle_rev1_LohseBoi/common/usb_util.o
 .debug_frame   0x0000000000000000       0x44 .build/obj_sofle_rev1_LohseBoi/common/usb_util.o
 .text          0x0000000000000000        0x0 .build/obj_sofle_rev1_LohseBoi/common/avr/platform.o
 .data          0x0000000000000000        0x0 .build/obj_sofle_rev1_LohseBoi/common/avr/platform.o
 .bss           0x0000000000000000        0x0 .build/obj_sofle_rev1_LohseBoi/common/avr/platform.o
 .text          0x0000000000000000        0x0 .build/obj_sofle_rev1_LohseBoi/common/avr/suspend.o
 .data          0x0000000000000000        0x0 .build/obj_sofle_rev1_LohseBoi/common/avr/suspend.o
 .bss           0x0000000000000000        0x0 .build/obj_sofle_rev1_LohseBoi/common/avr/suspend.o
 .text.suspend_idle
                0x0000000000000000       0x1a .build/obj_sofle_rev1_LohseBoi/common/avr/suspend.o
 .text          0x0000000000000000        0x0 .build/obj_sofle_rev1_LohseBoi/common/avr/timer.o
 .data          0x0000000000000000        0x0 .build/obj_sofle_rev1_LohseBoi/common/avr/timer.o
 .bss           0x0000000000000000        0x0 .build/obj_sofle_rev1_LohseBoi/common/avr/timer.o
 .text.timer_clear
                0x0000000000000000       0x18 .build/obj_sofle_rev1_LohseBoi/common/avr/timer.o
 .text          0x0000000000000000        0x0 .build/obj_sofle_rev1_LohseBoi/common/avr/bootloader.o
 .data          0x0000000000000000        0x0 .build/obj_sofle_rev1_LohseBoi/common/avr/bootloader.o
 .bss           0x0000000000000000        0x0 .build/obj_sofle_rev1_LohseBoi/common/avr/bootloader.o
 .text          0x0000000000000000      0x15c .build/obj_sofle_rev1_LohseBoi/common/avr/xprintf.o
 .data          0x0000000000000000        0x0 .build/obj_sofle_rev1_LohseBoi/common/avr/xprintf.o
 .text          0x0000000000000000        0x0 .build/obj_sofle_rev1_LohseBoi/common/avr/printf.o
 .data          0x0000000000000000        0x0 .build/obj_sofle_rev1_LohseBoi/common/avr/printf.o
 .bss           0x0000000000000000        0x0 .build/obj_sofle_rev1_LohseBoi/common/avr/printf.o
 .text          0x0000000000000000        0x0 .build/obj_sofle_rev1_LohseBoi/lufa.o
 .data          0x0000000000000000        0x0 .build/obj_sofle_rev1_LohseBoi/lufa.o
 .bss           0x0000000000000000        0x0 .build/obj_sofle_rev1_LohseBoi/lufa.o
 .text.send_digitizer
                0x0000000000000000        0x2 .build/obj_sofle_rev1_LohseBoi/lufa.o
 .text          0x0000000000000000        0x0 .build/obj_sofle_rev1_LohseBoi/usb_descriptor.o
 .data          0x0000000000000000        0x0 .build/obj_sofle_rev1_LohseBoi/usb_descriptor.o
 .bss           0x0000000000000000        0x0 .build/obj_sofle_rev1_LohseBoi/usb_descriptor.o
 .text          0x0000000000000000        0x0 .build/obj_sofle_rev1_LohseBoi/lib/lufa/LUFA/Drivers/USB/Class/Common/HIDParser.o
 .data          0x0000000000000000        0x0 .build/obj_sofle_rev1_LohseBoi/lib/lufa/LUFA/Drivers/USB/Class/Common/HIDParser.o
 .bss           0x0000000000000000        0x0 .build/obj_sofle_rev1_LohseBoi/lib/lufa/LUFA/Drivers/USB/Class/Common/HIDParser.o
 .text.USB_ProcessHIDReport
                0x0000000000000000      0x6c0 .build/obj_sofle_rev1_LohseBoi/lib/lufa/LUFA/Drivers/USB/Class/Common/HIDParser.o
 .text.USB_GetHIDReportItemInfo
                0x0000000000000000       0xc0 .build/obj_sofle_rev1_LohseBoi/lib/lufa/LUFA/Drivers/USB/Class/Common/HIDParser.o
 .text.USB_SetHIDReportItemInfo
                0x0000000000000000       0xb6 .build/obj_sofle_rev1_LohseBoi/lib/lufa/LUFA/Drivers/USB/Class/Common/HIDParser.o
 .text.USB_GetHIDReportSize
                0x0000000000000000       0x52 .build/obj_sofle_rev1_LohseBoi/lib/lufa/LUFA/Drivers/USB/Class/Common/HIDParser.o
 .debug_info    0x0000000000000000      0x804 .build/obj_sofle_rev1_LohseBoi/lib/lufa/LUFA/Drivers/USB/Class/Common/HIDParser.o
 .debug_abbrev  0x0000000000000000      0x253 .build/obj_sofle_rev1_LohseBoi/lib/lufa/LUFA/Drivers/USB/Class/Common/HIDParser.o
 .debug_loc     0x0000000000000000      0xcd9 .build/obj_sofle_rev1_LohseBoi/lib/lufa/LUFA/Drivers/USB/Class/Common/HIDParser.o
 .debug_aranges
                0x0000000000000000       0x38 .build/obj_sofle_rev1_LohseBoi/lib/lufa/LUFA/Drivers/USB/Class/Common/HIDParser.o
 .debug_ranges  0x0000000000000000      0x100 .build/obj_sofle_rev1_LohseBoi/lib/lufa/LUFA/Drivers/USB/Class/Common/HIDParser.o
 .debug_line    0x0000000000000000      0xdaa .build/obj_sofle_rev1_LohseBoi/lib/lufa/LUFA/Drivers/USB/Class/Common/HIDParser.o
 .debug_str     0x0000000000000000      0x6ae .build/obj_sofle_rev1_LohseBoi/lib/lufa/LUFA/Drivers/USB/Class/Common/HIDParser.o
 .comment       0x0000000000000000       0x12 .build/obj_sofle_rev1_LohseBoi/lib/lufa/LUFA/Drivers/USB/Class/Common/HIDParser.o
 .debug_frame   0x0000000000000000      0x114 .build/obj_sofle_rev1_LohseBoi/lib/lufa/LUFA/Drivers/USB/Class/Common/HIDParser.o
 .text          0x0000000000000000        0x0 .build/obj_sofle_rev1_LohseBoi/lib/lufa/LUFA/Drivers/USB/Core/AVR8/Device_AVR8.o
 .data          0x0000000000000000        0x0 .build/obj_sofle_rev1_LohseBoi/lib/lufa/LUFA/Drivers/USB/Core/AVR8/Device_AVR8.o
 .bss           0x0000000000000000        0x0 .build/obj_sofle_rev1_LohseBoi/lib/lufa/LUFA/Drivers/USB/Core/AVR8/Device_AVR8.o
 .text          0x0000000000000000        0x0 .build/obj_sofle_rev1_LohseBoi/lib/lufa/LUFA/Drivers/USB/Core/AVR8/EndpointStream_AVR8.o
 .data          0x0000000000000000        0x0 .build/obj_sofle_rev1_LohseBoi/lib/lufa/LUFA/Drivers/USB/Core/AVR8/EndpointStream_AVR8.o
 .bss           0x0000000000000000        0x0 .build/obj_sofle_rev1_LohseBoi/lib/lufa/LUFA/Drivers/USB/Core/AVR8/EndpointStream_AVR8.o
 .text.Endpoint_Discard_Stream
                0x0000000000000000       0x78 .build/obj_sofle_rev1_LohseBoi/lib/lufa/LUFA/Drivers/USB/Core/AVR8/EndpointStream_AVR8.o
 .text.Endpoint_Null_Stream
                0x0000000000000000       0x78 .build/obj_sofle_rev1_LohseBoi/lib/lufa/LUFA/Drivers/USB/Core/AVR8/EndpointStream_AVR8.o
 .text.Endpoint_Write_Stream_BE
                0x0000000000000000       0xa8 .build/obj_sofle_rev1_LohseBoi/lib/lufa/LUFA/Drivers/USB/Core/AVR8/EndpointStream_AVR8.o
 .text.Endpoint_Read_Stream_LE
                0x0000000000000000       0x9e .build/obj_sofle_rev1_LohseBoi/lib/lufa/LUFA/Drivers/USB/Core/AVR8/EndpointStream_AVR8.o
 .text.Endpoint_Read_Stream_BE
                0x0000000000000000       0xa8 .build/obj_sofle_rev1_LohseBoi/lib/lufa/LUFA/Drivers/USB/Core/AVR8/EndpointStream_AVR8.o
 .text.Endpoint_Write_PStream_LE
                0x0000000000000000       0xa0 .build/obj_sofle_rev1_LohseBoi/lib/lufa/LUFA/Drivers/USB/Core/AVR8/EndpointStream_AVR8.o
 .text.Endpoint_Write_PStream_BE
                0x0000000000000000       0xaa .build/obj_sofle_rev1_LohseBoi/lib/lufa/LUFA/Drivers/USB/Core/AVR8/EndpointStream_AVR8.o
 .text.Endpoint_Write_EStream_LE
                0x0000000000000000       0xa2 .build/obj_sofle_rev1_LohseBoi/lib/lufa/LUFA/Drivers/USB/Core/AVR8/EndpointStream_AVR8.o
 .text.Endpoint_Write_EStream_BE
                0x0000000000000000       0xac .build/obj_sofle_rev1_LohseBoi/lib/lufa/LUFA/Drivers/USB/Core/AVR8/EndpointStream_AVR8.o
 .text.Endpoint_Read_EStream_LE
                0x0000000000000000       0xa2 .build/obj_sofle_rev1_LohseBoi/lib/lufa/LUFA/Drivers/USB/Core/AVR8/EndpointStream_AVR8.o
 .text.Endpoint_Read_EStream_BE
                0x0000000000000000       0xac .build/obj_sofle_rev1_LohseBoi/lib/lufa/LUFA/Drivers/USB/Core/AVR8/EndpointStream_AVR8.o
 .text.Endpoint_Write_Control_Stream_BE
                0x0000000000000000       0xc6 .build/obj_sofle_rev1_LohseBoi/lib/lufa/LUFA/Drivers/USB/Core/AVR8/EndpointStream_AVR8.o
 .text.Endpoint_Read_Control_Stream_LE
                0x0000000000000000       0x74 .build/obj_sofle_rev1_LohseBoi/lib/lufa/LUFA/Drivers/USB/Core/AVR8/EndpointStream_AVR8.o
 .text.Endpoint_Read_Control_Stream_BE
                0x0000000000000000       0x7e .build/obj_sofle_rev1_LohseBoi/lib/lufa/LUFA/Drivers/USB/Core/AVR8/EndpointStream_AVR8.o
 .text.Endpoint_Write_Control_PStream_BE
                0x0000000000000000       0xc2 .build/obj_sofle_rev1_LohseBoi/lib/lufa/LUFA/Drivers/USB/Core/AVR8/EndpointStream_AVR8.o
 .text.Endpoint_Write_Control_EStream_LE
                0x0000000000000000       0xd8 .build/obj_sofle_rev1_LohseBoi/lib/lufa/LUFA/Drivers/USB/Core/AVR8/EndpointStream_AVR8.o
 .text.Endpoint_Write_Control_EStream_BE
                0x0000000000000000       0xe2 .build/obj_sofle_rev1_LohseBoi/lib/lufa/LUFA/Drivers/USB/Core/AVR8/EndpointStream_AVR8.o
 .text.Endpoint_Read_Control_EStream_LE
                0x0000000000000000       0x86 .build/obj_sofle_rev1_LohseBoi/lib/lufa/LUFA/Drivers/USB/Core/AVR8/EndpointStream_AVR8.o
 .text.Endpoint_Read_Control_EStream_BE
                0x0000000000000000       0x8e .build/obj_sofle_rev1_LohseBoi/lib/lufa/LUFA/Drivers/USB/Core/AVR8/EndpointStream_AVR8.o
 .text          0x0000000000000000        0x0 .build/obj_sofle_rev1_LohseBoi/lib/lufa/LUFA/Drivers/USB/Core/AVR8/Endpoint_AVR8.o
 .data          0x0000000000000000        0x0 .build/obj_sofle_rev1_LohseBoi/lib/lufa/LUFA/Drivers/USB/Core/AVR8/Endpoint_AVR8.o
 .bss           0x0000000000000000        0x0 .build/obj_sofle_rev1_LohseBoi/lib/lufa/LUFA/Drivers/USB/Core/AVR8/Endpoint_AVR8.o
 .text.Endpoint_ConfigureEndpointTable
                0x0000000000000000       0x7a .build/obj_sofle_rev1_LohseBoi/lib/lufa/LUFA/Drivers/USB/Core/AVR8/Endpoint_AVR8.o
 .text.Endpoint_ClearEndpoints
                0x0000000000000000       0x28 .build/obj_sofle_rev1_LohseBoi/lib/lufa/LUFA/Drivers/USB/Core/AVR8/Endpoint_AVR8.o
 .text          0x0000000000000000        0x0 .build/obj_sofle_rev1_LohseBoi/lib/lufa/LUFA/Drivers/USB/Core/AVR8/Host_AVR8.o
 .data          0x0000000000000000        0x0 .build/obj_sofle_rev1_LohseBoi/lib/lufa/LUFA/Drivers/USB/Core/AVR8/Host_AVR8.o
 .bss           0x0000000000000000        0x0 .build/obj_sofle_rev1_LohseBoi/lib/lufa/LUFA/Drivers/USB/Core/AVR8/Host_AVR8.o
 .debug_info    0x0000000000000000       0x56 .build/obj_sofle_rev1_LohseBoi/lib/lufa/LUFA/Drivers/USB/Core/AVR8/Host_AVR8.o
 .debug_abbrev  0x0000000000000000       0x26 .build/obj_sofle_rev1_LohseBoi/lib/lufa/LUFA/Drivers/USB/Core/AVR8/Host_AVR8.o
 .debug_aranges
                0x0000000000000000       0x18 .build/obj_sofle_rev1_LohseBoi/lib/lufa/LUFA/Drivers/USB/Core/AVR8/Host_AVR8.o
 .debug_line    0x0000000000000000       0x1d .build/obj_sofle_rev1_LohseBoi/lib/lufa/LUFA/Drivers/USB/Core/AVR8/Host_AVR8.o
 .debug_str     0x0000000000000000      0x192 .build/obj_sofle_rev1_LohseBoi/lib/lufa/LUFA/Drivers/USB/Core/AVR8/Host_AVR8.o
 .comment       0x0000000000000000       0x12 .build/obj_sofle_rev1_LohseBoi/lib/lufa/LUFA/Drivers/USB/Core/AVR8/Host_AVR8.o
 .text          0x0000000000000000        0x0 .build/obj_sofle_rev1_LohseBoi/lib/lufa/LUFA/Drivers/USB/Core/AVR8/PipeStream_AVR8.o
 .data          0x0000000000000000        0x0 .build/obj_sofle_rev1_LohseBoi/lib/lufa/LUFA/Drivers/USB/Core/AVR8/PipeStream_AVR8.o
 .bss           0x0000000000000000        0x0 .build/obj_sofle_rev1_LohseBoi/lib/lufa/LUFA/Drivers/USB/Core/AVR8/PipeStream_AVR8.o
 .debug_info    0x0000000000000000       0x56 .build/obj_sofle_rev1_LohseBoi/lib/lufa/LUFA/Drivers/USB/Core/AVR8/PipeStream_AVR8.o
 .debug_abbrev  0x0000000000000000       0x26 .build/obj_sofle_rev1_LohseBoi/lib/lufa/LUFA/Drivers/USB/Core/AVR8/PipeStream_AVR8.o
 .debug_aranges
                0x0000000000000000       0x18 .build/obj_sofle_rev1_LohseBoi/lib/lufa/LUFA/Drivers/USB/Core/AVR8/PipeStream_AVR8.o
 .debug_line    0x0000000000000000       0x1d .build/obj_sofle_rev1_LohseBoi/lib/lufa/LUFA/Drivers/USB/Core/AVR8/PipeStream_AVR8.o
 .debug_str     0x0000000000000000      0x198 .build/obj_sofle_rev1_LohseBoi/lib/lufa/LUFA/Drivers/USB/Core/AVR8/PipeStream_AVR8.o
 .comment       0x0000000000000000       0x12 .build/obj_sofle_rev1_LohseBoi/lib/lufa/LUFA/Drivers/USB/Core/AVR8/PipeStream_AVR8.o
 .text          0x0000000000000000        0x0 .build/obj_sofle_rev1_LohseBoi/lib/lufa/LUFA/Drivers/USB/Core/AVR8/Pipe_AVR8.o
 .data          0x0000000000000000        0x0 .build/obj_sofle_rev1_LohseBoi/lib/lufa/LUFA/Drivers/USB/Core/AVR8/Pipe_AVR8.o
 .bss           0x0000000000000000        0x0 .build/obj_sofle_rev1_LohseBoi/lib/lufa/LUFA/Drivers/USB/Core/AVR8/Pipe_AVR8.o
 .debug_info    0x0000000000000000       0x56 .build/obj_sofle_rev1_LohseBoi/lib/lufa/LUFA/Drivers/USB/Core/AVR8/Pipe_AVR8.o
 .debug_abbrev  0x0000000000000000       0x26 .build/obj_sofle_rev1_LohseBoi/lib/lufa/LUFA/Drivers/USB/Core/AVR8/Pipe_AVR8.o
 .debug_aranges
                0x0000000000000000       0x18 .build/obj_sofle_rev1_LohseBoi/lib/lufa/LUFA/Drivers/USB/Core/AVR8/Pipe_AVR8.o
 .debug_line    0x0000000000000000       0x1d .build/obj_sofle_rev1_LohseBoi/lib/lufa/LUFA/Drivers/USB/Core/AVR8/Pipe_AVR8.o
 .debug_str     0x0000000000000000      0x192 .build/obj_sofle_rev1_LohseBoi/lib/lufa/LUFA/Drivers/USB/Core/AVR8/Pipe_AVR8.o
 .comment       0x0000000000000000       0x12 .build/obj_sofle_rev1_LohseBoi/lib/lufa/LUFA/Drivers/USB/Core/AVR8/Pipe_AVR8.o
 .text          0x0000000000000000        0x0 .build/obj_sofle_rev1_LohseBoi/lib/lufa/LUFA/Drivers/USB/Core/AVR8/USBController_AVR8.o
 .data          0x0000000000000000        0x0 .build/obj_sofle_rev1_LohseBoi/lib/lufa/LUFA/Drivers/USB/Core/AVR8/USBController_AVR8.o
 .bss           0x0000000000000000        0x0 .build/obj_sofle_rev1_LohseBoi/lib/lufa/LUFA/Drivers/USB/Core/AVR8/USBController_AVR8.o
 .text          0x0000000000000000        0x0 .build/obj_sofle_rev1_LohseBoi/lib/lufa/LUFA/Drivers/USB/Core/AVR8/USBInterrupt_AVR8.o
 .data          0x0000000000000000        0x0 .build/obj_sofle_rev1_LohseBoi/lib/lufa/LUFA/Drivers/USB/Core/AVR8/USBInterrupt_AVR8.o
 .bss           0x0000000000000000        0x0 .build/obj_sofle_rev1_LohseBoi/lib/lufa/LUFA/Drivers/USB/Core/AVR8/USBInterrupt_AVR8.o
 .text          0x0000000000000000        0x0 .build/obj_sofle_rev1_LohseBoi/lib/lufa/LUFA/Drivers/USB/Core/ConfigDescriptors.o
 .data          0x0000000000000000        0x0 .build/obj_sofle_rev1_LohseBoi/lib/lufa/LUFA/Drivers/USB/Core/ConfigDescriptors.o
 .bss           0x0000000000000000        0x0 .build/obj_sofle_rev1_LohseBoi/lib/lufa/LUFA/Drivers/USB/Core/ConfigDescriptors.o
 .text.USB_GetNextDescriptor
                0x0000000000000000       0x3c .build/obj_sofle_rev1_LohseBoi/lib/lufa/LUFA/Drivers/USB/Core/ConfigDescriptors.o
 .text.USB_GetNextDescriptorOfType
                0x0000000000000000       0x38 .build/obj_sofle_rev1_LohseBoi/lib/lufa/LUFA/Drivers/USB/Core/ConfigDescriptors.o
 .text.USB_GetNextDescriptorOfTypeBefore
                0x0000000000000000       0x46 .build/obj_sofle_rev1_LohseBoi/lib/lufa/LUFA/Drivers/USB/Core/ConfigDescriptors.o
 .text.USB_GetNextDescriptorOfTypeAfter
                0x0000000000000000       0x3e .build/obj_sofle_rev1_LohseBoi/lib/lufa/LUFA/Drivers/USB/Core/ConfigDescriptors.o
 .text.USB_GetNextDescriptorComp
                0x0000000000000000       0x66 .build/obj_sofle_rev1_LohseBoi/lib/lufa/LUFA/Drivers/USB/Core/ConfigDescriptors.o
 .debug_info    0x0000000000000000      0x50f .build/obj_sofle_rev1_LohseBoi/lib/lufa/LUFA/Drivers/USB/Core/ConfigDescriptors.o
 .debug_abbrev  0x0000000000000000      0x1e5 .build/obj_sofle_rev1_LohseBoi/lib/lufa/LUFA/Drivers/USB/Core/ConfigDescriptors.o
 .debug_loc     0x0000000000000000      0x611 .build/obj_sofle_rev1_LohseBoi/lib/lufa/LUFA/Drivers/USB/Core/ConfigDescriptors.o
 .debug_aranges
                0x0000000000000000       0x40 .build/obj_sofle_rev1_LohseBoi/lib/lufa/LUFA/Drivers/USB/Core/ConfigDescriptors.o
 .debug_ranges  0x0000000000000000       0x30 .build/obj_sofle_rev1_LohseBoi/lib/lufa/LUFA/Drivers/USB/Core/ConfigDescriptors.o
 .debug_line    0x0000000000000000      0x3d5 .build/obj_sofle_rev1_LohseBoi/lib/lufa/LUFA/Drivers/USB/Core/ConfigDescriptors.o
 .debug_str     0x0000000000000000      0x4ca .build/obj_sofle_rev1_LohseBoi/lib/lufa/LUFA/Drivers/USB/Core/ConfigDescriptors.o
 .comment       0x0000000000000000       0x12 .build/obj_sofle_rev1_LohseBoi/lib/lufa/LUFA/Drivers/USB/Core/ConfigDescriptors.o
 .debug_frame   0x0000000000000000       0xfc .build/obj_sofle_rev1_LohseBoi/lib/lufa/LUFA/Drivers/USB/Core/ConfigDescriptors.o
 .text          0x0000000000000000        0x0 .build/obj_sofle_rev1_LohseBoi/lib/lufa/LUFA/Drivers/USB/Core/DeviceStandardReq.o
 .data          0x0000000000000000        0x0 .build/obj_sofle_rev1_LohseBoi/lib/lufa/LUFA/Drivers/USB/Core/DeviceStandardReq.o
 .bss           0x0000000000000000        0x0 .build/obj_sofle_rev1_LohseBoi/lib/lufa/LUFA/Drivers/USB/Core/DeviceStandardReq.o
 .text          0x0000000000000000        0x0 .build/obj_sofle_rev1_LohseBoi/lib/lufa/LUFA/Drivers/USB/Core/Events.o
 .data          0x0000000000000000        0x0 .build/obj_sofle_rev1_LohseBoi/lib/lufa/LUFA/Drivers/USB/Core/Events.o
 .bss           0x0000000000000000        0x0 .build/obj_sofle_rev1_LohseBoi/lib/lufa/LUFA/Drivers/USB/Core/Events.o
 .text.USB_Event_Stub_2
                0x0000000000000000        0x2 .build/obj_sofle_rev1_LohseBoi/lib/lufa/LUFA/Drivers/USB/Core/Events.o
 .text.USB_Event_Stub_3
                0x0000000000000000        0x2 .build/obj_sofle_rev1_LohseBoi/lib/lufa/LUFA/Drivers/USB/Core/Events.o
 .text          0x0000000000000000        0x0 .build/obj_sofle_rev1_LohseBoi/lib/lufa/LUFA/Drivers/USB/Core/HostStandardReq.o
 .data          0x0000000000000000        0x0 .build/obj_sofle_rev1_LohseBoi/lib/lufa/LUFA/Drivers/USB/Core/HostStandardReq.o
 .bss           0x0000000000000000        0x0 .build/obj_sofle_rev1_LohseBoi/lib/lufa/LUFA/Drivers/USB/Core/HostStandardReq.o
 .debug_info    0x0000000000000000       0x56 .build/obj_sofle_rev1_LohseBoi/lib/lufa/LUFA/Drivers/USB/Core/HostStandardReq.o
 .debug_abbrev  0x0000000000000000       0x26 .build/obj_sofle_rev1_LohseBoi/lib/lufa/LUFA/Drivers/USB/Core/HostStandardReq.o
 .debug_aranges
                0x0000000000000000       0x18 .build/obj_sofle_rev1_LohseBoi/lib/lufa/LUFA/Drivers/USB/Core/HostStandardReq.o
 .debug_line    0x0000000000000000       0x1d .build/obj_sofle_rev1_LohseBoi/lib/lufa/LUFA/Drivers/USB/Core/HostStandardReq.o
 .debug_str     0x0000000000000000      0x193 .build/obj_sofle_rev1_LohseBoi/lib/lufa/LUFA/Drivers/USB/Core/HostStandardReq.o
 .comment       0x0000000000000000       0x12 .build/obj_sofle_rev1_LohseBoi/lib/lufa/LUFA/Drivers/USB/Core/HostStandardReq.o
 .text          0x0000000000000000        0x0 .build/obj_sofle_rev1_LohseBoi/lib/lufa/LUFA/Drivers/USB/Core/USBTask.o
 .data          0x0000000000000000        0x0 .build/obj_sofle_rev1_LohseBoi/lib/lufa/LUFA/Drivers/USB/Core/USBTask.o
 .bss           0x0000000000000000        0x0 .build/obj_sofle_rev1_LohseBoi/lib/lufa/LUFA/Drivers/USB/Core/USBTask.o
 .text          0x0000000000000000        0x0 .build/obj_sofle_rev1_LohseBoi/protocol/lufa/usb_util.o
 .data          0x0000000000000000        0x0 .build/obj_sofle_rev1_LohseBoi/protocol/lufa/usb_util.o
 .bss           0x0000000000000000        0x0 .build/obj_sofle_rev1_LohseBoi/protocol/lufa/usb_util.o
 .text.usb_connected_state
                0x0000000000000000        0xc .build/obj_sofle_rev1_LohseBoi/protocol/lufa/usb_util.o
 .text          0x0000000000000000        0x0 /usr/lib/gcc/avr/8.3.0/../../../../avr/lib/avr5/libm.a(addsf3.o)
 .data          0x0000000000000000        0x0 /usr/lib/gcc/avr/8.3.0/../../../../avr/lib/avr5/libm.a(addsf3.o)
 .bss           0x0000000000000000        0x0 /usr/lib/gcc/avr/8.3.0/../../../../avr/lib/avr5/libm.a(addsf3.o)
 .text          0x0000000000000000        0x0 /usr/lib/gcc/avr/8.3.0/../../../../avr/lib/avr5/libm.a(addsf3x.o)
 .data          0x0000000000000000        0x0 /usr/lib/gcc/avr/8.3.0/../../../../avr/lib/avr5/libm.a(addsf3x.o)
 .bss           0x0000000000000000        0x0 /usr/lib/gcc/avr/8.3.0/../../../../avr/lib/avr5/libm.a(addsf3x.o)
 .text          0x0000000000000000        0x0 /usr/lib/gcc/avr/8.3.0/../../../../avr/lib/avr5/libm.a(ceil.o)
 .data          0x0000000000000000        0x0 /usr/lib/gcc/avr/8.3.0/../../../../avr/lib/avr5/libm.a(ceil.o)
 .bss           0x0000000000000000        0x0 /usr/lib/gcc/avr/8.3.0/../../../../avr/lib/avr5/libm.a(ceil.o)
 .text          0x0000000000000000        0x0 /usr/lib/gcc/avr/8.3.0/../../../../avr/lib/avr5/libm.a(fixunssfsi.o)
 .data          0x0000000000000000        0x0 /usr/lib/gcc/avr/8.3.0/../../../../avr/lib/avr5/libm.a(fixunssfsi.o)
 .bss           0x0000000000000000        0x0 /usr/lib/gcc/avr/8.3.0/../../../../avr/lib/avr5/libm.a(fixunssfsi.o)
 .text          0x0000000000000000        0x0 /usr/lib/gcc/avr/8.3.0/../../../../avr/lib/avr5/libm.a(floatsisf.o)
 .data          0x0000000000000000        0x0 /usr/lib/gcc/avr/8.3.0/../../../../avr/lib/avr5/libm.a(floatsisf.o)
 .bss           0x0000000000000000        0x0 /usr/lib/gcc/avr/8.3.0/../../../../avr/lib/avr5/libm.a(floatsisf.o)
 .text          0x0000000000000000        0x0 /usr/lib/gcc/avr/8.3.0/../../../../avr/lib/avr5/libm.a(fp_inf.o)
 .data          0x0000000000000000        0x0 /usr/lib/gcc/avr/8.3.0/../../../../avr/lib/avr5/libm.a(fp_inf.o)
 .bss           0x0000000000000000        0x0 /usr/lib/gcc/avr/8.3.0/../../../../avr/lib/avr5/libm.a(fp_inf.o)
 .text          0x0000000000000000        0x0 /usr/lib/gcc/avr/8.3.0/../../../../avr/lib/avr5/libm.a(fp_mintl.o)
 .data          0x0000000000000000        0x0 /usr/lib/gcc/avr/8.3.0/../../../../avr/lib/avr5/libm.a(fp_mintl.o)
 .bss           0x0000000000000000        0x0 /usr/lib/gcc/avr/8.3.0/../../../../avr/lib/avr5/libm.a(fp_mintl.o)
 .text          0x0000000000000000        0x0 /usr/lib/gcc/avr/8.3.0/../../../../avr/lib/avr5/libm.a(fp_mpack.o)
 .data          0x0000000000000000        0x0 /usr/lib/gcc/avr/8.3.0/../../../../avr/lib/avr5/libm.a(fp_mpack.o)
 .bss           0x0000000000000000        0x0 /usr/lib/gcc/avr/8.3.0/../../../../avr/lib/avr5/libm.a(fp_mpack.o)
 .text          0x0000000000000000        0x0 /usr/lib/gcc/avr/8.3.0/../../../../avr/lib/avr5/libm.a(fp_nan.o)
 .data          0x0000000000000000        0x0 /usr/lib/gcc/avr/8.3.0/../../../../avr/lib/avr5/libm.a(fp_nan.o)
 .bss           0x0000000000000000        0x0 /usr/lib/gcc/avr/8.3.0/../../../../avr/lib/avr5/libm.a(fp_nan.o)
 .text          0x0000000000000000        0x0 /usr/lib/gcc/avr/8.3.0/../../../../avr/lib/avr5/libm.a(fp_pscA.o)
 .data          0x0000000000000000        0x0 /usr/lib/gcc/avr/8.3.0/../../../../avr/lib/avr5/libm.a(fp_pscA.o)
 .bss           0x0000000000000000        0x0 /usr/lib/gcc/avr/8.3.0/../../../../avr/lib/avr5/libm.a(fp_pscA.o)
 .text          0x0000000000000000        0x0 /usr/lib/gcc/avr/8.3.0/../../../../avr/lib/avr5/libm.a(fp_pscB.o)
 .data          0x0000000000000000        0x0 /usr/lib/gcc/avr/8.3.0/../../../../avr/lib/avr5/libm.a(fp_pscB.o)
 .bss           0x0000000000000000        0x0 /usr/lib/gcc/avr/8.3.0/../../../../avr/lib/avr5/libm.a(fp_pscB.o)
 .text          0x0000000000000000        0x0 /usr/lib/gcc/avr/8.3.0/../../../../avr/lib/avr5/libm.a(fp_round.o)
 .data          0x0000000000000000        0x0 /usr/lib/gcc/avr/8.3.0/../../../../avr/lib/avr5/libm.a(fp_round.o)
 .bss           0x0000000000000000        0x0 /usr/lib/gcc/avr/8.3.0/../../../../avr/lib/avr5/libm.a(fp_round.o)
 .text          0x0000000000000000        0x0 /usr/lib/gcc/avr/8.3.0/../../../../avr/lib/avr5/libm.a(fp_split3.o)
 .data          0x0000000000000000        0x0 /usr/lib/gcc/avr/8.3.0/../../../../avr/lib/avr5/libm.a(fp_split3.o)
 .bss           0x0000000000000000        0x0 /usr/lib/gcc/avr/8.3.0/../../../../avr/lib/avr5/libm.a(fp_split3.o)
 .text          0x0000000000000000        0x0 /usr/lib/gcc/avr/8.3.0/../../../../avr/lib/avr5/libm.a(fp_trunc.o)
 .data          0x0000000000000000        0x0 /usr/lib/gcc/avr/8.3.0/../../../../avr/lib/avr5/libm.a(fp_trunc.o)
 .bss           0x0000000000000000        0x0 /usr/lib/gcc/avr/8.3.0/../../../../avr/lib/avr5/libm.a(fp_trunc.o)
 .text          0x0000000000000000        0x0 /usr/lib/gcc/avr/8.3.0/../../../../avr/lib/avr5/libm.a(fp_zero.o)
 .data          0x0000000000000000        0x0 /usr/lib/gcc/avr/8.3.0/../../../../avr/lib/avr5/libm.a(fp_zero.o)
 .bss           0x0000000000000000        0x0 /usr/lib/gcc/avr/8.3.0/../../../../avr/lib/avr5/libm.a(fp_zero.o)
 .text          0x0000000000000000        0x0 /usr/lib/gcc/avr/8.3.0/../../../../avr/lib/avr5/libm.a(mulsf3.o)
 .data          0x0000000000000000        0x0 /usr/lib/gcc/avr/8.3.0/../../../../avr/lib/avr5/libm.a(mulsf3.o)
 .bss           0x0000000000000000        0x0 /usr/lib/gcc/avr/8.3.0/../../../../avr/lib/avr5/libm.a(mulsf3.o)
 .text          0x0000000000000000        0x0 /usr/lib/gcc/avr/8.3.0/../../../../avr/lib/avr5/libm.a(mulsf3x.o)
 .data          0x0000000000000000        0x0 /usr/lib/gcc/avr/8.3.0/../../../../avr/lib/avr5/libm.a(mulsf3x.o)
 .bss           0x0000000000000000        0x0 /usr/lib/gcc/avr/8.3.0/../../../../avr/lib/avr5/libm.a(mulsf3x.o)
 .text          0x0000000000000000        0x0 /usr/lib/gcc/avr/8.3.0/avr5/libgcc.a(_udivmodqi4.o)
 .data          0x0000000000000000        0x0 /usr/lib/gcc/avr/8.3.0/avr5/libgcc.a(_udivmodqi4.o)
 .bss           0x0000000000000000        0x0 /usr/lib/gcc/avr/8.3.0/avr5/libgcc.a(_udivmodqi4.o)
 .text.libgcc.mul
                0x0000000000000000        0x0 /usr/lib/gcc/avr/8.3.0/avr5/libgcc.a(_udivmodqi4.o)
 .text.libgcc   0x0000000000000000        0x0 /usr/lib/gcc/avr/8.3.0/avr5/libgcc.a(_udivmodqi4.o)
 .text.libgcc.prologue
                0x0000000000000000        0x0 /usr/lib/gcc/avr/8.3.0/avr5/libgcc.a(_udivmodqi4.o)
 .text.libgcc.builtins
                0x0000000000000000        0x0 /usr/lib/gcc/avr/8.3.0/avr5/libgcc.a(_udivmodqi4.o)
 .text.libgcc.fmul
                0x0000000000000000        0x0 /usr/lib/gcc/avr/8.3.0/avr5/libgcc.a(_udivmodqi4.o)
 .text.libgcc.fixed
                0x0000000000000000        0x0 /usr/lib/gcc/avr/8.3.0/avr5/libgcc.a(_udivmodqi4.o)
 .text          0x0000000000000000        0x0 /usr/lib/gcc/avr/8.3.0/avr5/libgcc.a(_udivmodhi4.o)
 .data          0x0000000000000000        0x0 /usr/lib/gcc/avr/8.3.0/avr5/libgcc.a(_udivmodhi4.o)
 .bss           0x0000000000000000        0x0 /usr/lib/gcc/avr/8.3.0/avr5/libgcc.a(_udivmodhi4.o)
 .text.libgcc.mul
                0x0000000000000000        0x0 /usr/lib/gcc/avr/8.3.0/avr5/libgcc.a(_udivmodhi4.o)
 .text.libgcc   0x0000000000000000        0x0 /usr/lib/gcc/avr/8.3.0/avr5/libgcc.a(_udivmodhi4.o)
 .text.libgcc.prologue
                0x0000000000000000        0x0 /usr/lib/gcc/avr/8.3.0/avr5/libgcc.a(_udivmodhi4.o)
 .text.libgcc.builtins
                0x0000000000000000        0x0 /usr/lib/gcc/avr/8.3.0/avr5/libgcc.a(_udivmodhi4.o)
 .text.libgcc.fmul
                0x0000000000000000        0x0 /usr/lib/gcc/avr/8.3.0/avr5/libgcc.a(_udivmodhi4.o)
 .text.libgcc.fixed
                0x0000000000000000        0x0 /usr/lib/gcc/avr/8.3.0/avr5/libgcc.a(_udivmodhi4.o)
 .text          0x0000000000000000        0x0 /usr/lib/gcc/avr/8.3.0/avr5/libgcc.a(_divmodhi4.o)
 .data          0x0000000000000000        0x0 /usr/lib/gcc/avr/8.3.0/avr5/libgcc.a(_divmodhi4.o)
 .bss           0x0000000000000000        0x0 /usr/lib/gcc/avr/8.3.0/avr5/libgcc.a(_divmodhi4.o)
 .text.libgcc.mul
                0x0000000000000000        0x0 /usr/lib/gcc/avr/8.3.0/avr5/libgcc.a(_divmodhi4.o)
 .text.libgcc   0x0000000000000000        0x0 /usr/lib/gcc/avr/8.3.0/avr5/libgcc.a(_divmodhi4.o)
 .text.libgcc.prologue
                0x0000000000000000        0x0 /usr/lib/gcc/avr/8.3.0/avr5/libgcc.a(_divmodhi4.o)
 .text.libgcc.builtins
                0x0000000000000000        0x0 /usr/lib/gcc/avr/8.3.0/avr5/libgcc.a(_divmodhi4.o)
 .text.libgcc.fmul
                0x0000000000000000        0x0 /usr/lib/gcc/avr/8.3.0/avr5/libgcc.a(_divmodhi4.o)
 .text.libgcc.fixed
                0x0000000000000000        0x0 /usr/lib/gcc/avr/8.3.0/avr5/libgcc.a(_divmodhi4.o)
 .text          0x0000000000000000        0x0 /usr/lib/gcc/avr/8.3.0/avr5/libgcc.a(_divmodsi4.o)
 .data          0x0000000000000000        0x0 /usr/lib/gcc/avr/8.3.0/avr5/libgcc.a(_divmodsi4.o)
 .bss           0x0000000000000000        0x0 /usr/lib/gcc/avr/8.3.0/avr5/libgcc.a(_divmodsi4.o)
 .text.libgcc.mul
                0x0000000000000000        0x0 /usr/lib/gcc/avr/8.3.0/avr5/libgcc.a(_divmodsi4.o)
 .text.libgcc   0x0000000000000000        0x0 /usr/lib/gcc/avr/8.3.0/avr5/libgcc.a(_divmodsi4.o)
 .text.libgcc.prologue
                0x0000000000000000        0x0 /usr/lib/gcc/avr/8.3.0/avr5/libgcc.a(_divmodsi4.o)
 .text.libgcc.builtins
                0x0000000000000000        0x0 /usr/lib/gcc/avr/8.3.0/avr5/libgcc.a(_divmodsi4.o)
 .text.libgcc.fmul
                0x0000000000000000        0x0 /usr/lib/gcc/avr/8.3.0/avr5/libgcc.a(_divmodsi4.o)
 .text.libgcc.fixed
                0x0000000000000000        0x0 /usr/lib/gcc/avr/8.3.0/avr5/libgcc.a(_divmodsi4.o)
 .text          0x0000000000000000        0x0 /usr/lib/gcc/avr/8.3.0/avr5/libgcc.a(_negsi2.o)
 .data          0x0000000000000000        0x0 /usr/lib/gcc/avr/8.3.0/avr5/libgcc.a(_negsi2.o)
 .bss           0x0000000000000000        0x0 /usr/lib/gcc/avr/8.3.0/avr5/libgcc.a(_negsi2.o)
 .text.libgcc.mul
                0x0000000000000000        0x0 /usr/lib/gcc/avr/8.3.0/avr5/libgcc.a(_negsi2.o)
 .text.libgcc   0x0000000000000000        0x0 /usr/lib/gcc/avr/8.3.0/avr5/libgcc.a(_negsi2.o)
 .text.libgcc.prologue
                0x0000000000000000        0x0 /usr/lib/gcc/avr/8.3.0/avr5/libgcc.a(_negsi2.o)
 .text.libgcc.builtins
                0x0000000000000000        0x0 /usr/lib/gcc/avr/8.3.0/avr5/libgcc.a(_negsi2.o)
 .text.libgcc.fmul
                0x0000000000000000        0x0 /usr/lib/gcc/avr/8.3.0/avr5/libgcc.a(_negsi2.o)
 .text.libgcc.fixed
                0x0000000000000000        0x0 /usr/lib/gcc/avr/8.3.0/avr5/libgcc.a(_negsi2.o)
 .text          0x0000000000000000        0x0 /usr/lib/gcc/avr/8.3.0/avr5/libgcc.a(_exit.o)
 .data          0x0000000000000000        0x0 /usr/lib/gcc/avr/8.3.0/avr5/libgcc.a(_exit.o)
 .bss           0x0000000000000000        0x0 /usr/lib/gcc/avr/8.3.0/avr5/libgcc.a(_exit.o)
 .text.libgcc.mul
                0x0000000000000000        0x0 /usr/lib/gcc/avr/8.3.0/avr5/libgcc.a(_exit.o)
 .text.libgcc.div
                0x0000000000000000        0x0 /usr/lib/gcc/avr/8.3.0/avr5/libgcc.a(_exit.o)
 .text.libgcc   0x0000000000000000        0x0 /usr/lib/gcc/avr/8.3.0/avr5/libgcc.a(_exit.o)
 .text.libgcc.prologue
                0x0000000000000000        0x0 /usr/lib/gcc/avr/8.3.0/avr5/libgcc.a(_exit.o)
 .text.libgcc.builtins
                0x0000000000000000        0x0 /usr/lib/gcc/avr/8.3.0/avr5/libgcc.a(_exit.o)
 .text.libgcc.fmul
                0x0000000000000000        0x0 /usr/lib/gcc/avr/8.3.0/avr5/libgcc.a(_exit.o)
 .text.libgcc.fixed
                0x0000000000000000        0x0 /usr/lib/gcc/avr/8.3.0/avr5/libgcc.a(_exit.o)
 .text          0x0000000000000000        0x0 /usr/lib/gcc/avr/8.3.0/avr5/libgcc.a(_tablejump2.o)
 .data          0x0000000000000000        0x0 /usr/lib/gcc/avr/8.3.0/avr5/libgcc.a(_tablejump2.o)
 .bss           0x0000000000000000        0x0 /usr/lib/gcc/avr/8.3.0/avr5/libgcc.a(_tablejump2.o)
 .text.libgcc.mul
                0x0000000000000000        0x0 /usr/lib/gcc/avr/8.3.0/avr5/libgcc.a(_tablejump2.o)
 .text.libgcc.div
                0x0000000000000000        0x0 /usr/lib/gcc/avr/8.3.0/avr5/libgcc.a(_tablejump2.o)
 .text.libgcc.prologue
                0x0000000000000000        0x0 /usr/lib/gcc/avr/8.3.0/avr5/libgcc.a(_tablejump2.o)
 .text.libgcc.builtins
                0x0000000000000000        0x0 /usr/lib/gcc/avr/8.3.0/avr5/libgcc.a(_tablejump2.o)
 .text.libgcc.fmul
                0x0000000000000000        0x0 /usr/lib/gcc/avr/8.3.0/avr5/libgcc.a(_tablejump2.o)
 .text.libgcc.fixed
                0x0000000000000000        0x0 /usr/lib/gcc/avr/8.3.0/avr5/libgcc.a(_tablejump2.o)
 .text          0x0000000000000000        0x0 /usr/lib/gcc/avr/8.3.0/avr5/libgcc.a(_copy_data.o)
 .data          0x0000000000000000        0x0 /usr/lib/gcc/avr/8.3.0/avr5/libgcc.a(_copy_data.o)
 .bss           0x0000000000000000        0x0 /usr/lib/gcc/avr/8.3.0/avr5/libgcc.a(_copy_data.o)
 .text.libgcc.mul
                0x0000000000000000        0x0 /usr/lib/gcc/avr/8.3.0/avr5/libgcc.a(_copy_data.o)
 .text.libgcc.div
                0x0000000000000000        0x0 /usr/lib/gcc/avr/8.3.0/avr5/libgcc.a(_copy_data.o)
 .text.libgcc   0x0000000000000000        0x0 /usr/lib/gcc/avr/8.3.0/avr5/libgcc.a(_copy_data.o)
 .text.libgcc.prologue
                0x0000000000000000        0x0 /usr/lib/gcc/avr/8.3.0/avr5/libgcc.a(_copy_data.o)
 .text.libgcc.builtins
                0x0000000000000000        0x0 /usr/lib/gcc/avr/8.3.0/avr5/libgcc.a(_copy_data.o)
 .text.libgcc.fmul
                0x0000000000000000        0x0 /usr/lib/gcc/avr/8.3.0/avr5/libgcc.a(_copy_data.o)
 .text.libgcc.fixed
                0x0000000000000000        0x0 /usr/lib/gcc/avr/8.3.0/avr5/libgcc.a(_copy_data.o)
 .text          0x0000000000000000        0x0 /usr/lib/gcc/avr/8.3.0/avr5/libgcc.a(_clear_bss.o)
 .data          0x0000000000000000        0x0 /usr/lib/gcc/avr/8.3.0/avr5/libgcc.a(_clear_bss.o)
 .bss           0x0000000000000000        0x0 /usr/lib/gcc/avr/8.3.0/avr5/libgcc.a(_clear_bss.o)
 .text.libgcc.mul
                0x0000000000000000        0x0 /usr/lib/gcc/avr/8.3.0/avr5/libgcc.a(_clear_bss.o)
 .text.libgcc.div
                0x0000000000000000        0x0 /usr/lib/gcc/avr/8.3.0/avr5/libgcc.a(_clear_bss.o)
 .text.libgcc   0x0000000000000000        0x0 /usr/lib/gcc/avr/8.3.0/avr5/libgcc.a(_clear_bss.o)
 .text.libgcc.prologue
                0x0000000000000000        0x0 /usr/lib/gcc/avr/8.3.0/avr5/libgcc.a(_clear_bss.o)
 .text.libgcc.builtins
                0x0000000000000000        0x0 /usr/lib/gcc/avr/8.3.0/avr5/libgcc.a(_clear_bss.o)
 .text.libgcc.fmul
                0x0000000000000000        0x0 /usr/lib/gcc/avr/8.3.0/avr5/libgcc.a(_clear_bss.o)
 .text.libgcc.fixed
                0x0000000000000000        0x0 /usr/lib/gcc/avr/8.3.0/avr5/libgcc.a(_clear_bss.o)
 .text          0x0000000000000000        0x0 /usr/lib/gcc/avr/8.3.0/avr5/libgcc.a(_udivmodsi4.o)
 .data          0x0000000000000000        0x0 /usr/lib/gcc/avr/8.3.0/avr5/libgcc.a(_udivmodsi4.o)
 .bss           0x0000000000000000        0x0 /usr/lib/gcc/avr/8.3.0/avr5/libgcc.a(_udivmodsi4.o)
 .text.libgcc.mul
                0x0000000000000000        0x0 /usr/lib/gcc/avr/8.3.0/avr5/libgcc.a(_udivmodsi4.o)
 .text.libgcc   0x0000000000000000        0x0 /usr/lib/gcc/avr/8.3.0/avr5/libgcc.a(_udivmodsi4.o)
 .text.libgcc.prologue
                0x0000000000000000        0x0 /usr/lib/gcc/avr/8.3.0/avr5/libgcc.a(_udivmodsi4.o)
 .text.libgcc.builtins
                0x0000000000000000        0x0 /usr/lib/gcc/avr/8.3.0/avr5/libgcc.a(_udivmodsi4.o)
 .text.libgcc.fmul
                0x0000000000000000        0x0 /usr/lib/gcc/avr/8.3.0/avr5/libgcc.a(_udivmodsi4.o)
 .text.libgcc.fixed
                0x0000000000000000        0x0 /usr/lib/gcc/avr/8.3.0/avr5/libgcc.a(_udivmodsi4.o)
 .text          0x0000000000000000        0x0 /usr/lib/gcc/avr/8.3.0/../../../../avr/lib/avr5/libc.a(memcpy_P.o)
 .data          0x0000000000000000        0x0 /usr/lib/gcc/avr/8.3.0/../../../../avr/lib/avr5/libc.a(memcpy_P.o)
 .bss           0x0000000000000000        0x0 /usr/lib/gcc/avr/8.3.0/../../../../avr/lib/avr5/libc.a(memcpy_P.o)
 .text          0x0000000000000000        0x0 /usr/lib/gcc/avr/8.3.0/../../../../avr/lib/avr5/libc.a(memcmp.o)
 .data          0x0000000000000000        0x0 /usr/lib/gcc/avr/8.3.0/../../../../avr/lib/avr5/libc.a(memcmp.o)
 .bss           0x0000000000000000        0x0 /usr/lib/gcc/avr/8.3.0/../../../../avr/lib/avr5/libc.a(memcmp.o)
 .text          0x0000000000000000        0x0 /usr/lib/gcc/avr/8.3.0/../../../../avr/lib/avr5/libc.a(memcpy.o)
 .data          0x0000000000000000        0x0 /usr/lib/gcc/avr/8.3.0/../../../../avr/lib/avr5/libc.a(memcpy.o)
 .bss           0x0000000000000000        0x0 /usr/lib/gcc/avr/8.3.0/../../../../avr/lib/avr5/libc.a(memcpy.o)
 .text          0x0000000000000000        0x0 /usr/lib/gcc/avr/8.3.0/../../../../avr/lib/avr5/libatmega32u4.a(eerd_byte.o)
 .data          0x0000000000000000        0x0 /usr/lib/gcc/avr/8.3.0/../../../../avr/lib/avr5/libatmega32u4.a(eerd_byte.o)
 .bss           0x0000000000000000        0x0 /usr/lib/gcc/avr/8.3.0/../../../../avr/lib/avr5/libatmega32u4.a(eerd_byte.o)
 .text          0x0000000000000000        0x0 /usr/lib/gcc/avr/8.3.0/../../../../avr/lib/avr5/libatmega32u4.a(eerd_dword.o)
 .data          0x0000000000000000        0x0 /usr/lib/gcc/avr/8.3.0/../../../../avr/lib/avr5/libatmega32u4.a(eerd_dword.o)
 .bss           0x0000000000000000        0x0 /usr/lib/gcc/avr/8.3.0/../../../../avr/lib/avr5/libatmega32u4.a(eerd_dword.o)
 .text.avr-libc
                0x0000000000000000        0xc /usr/lib/gcc/avr/8.3.0/../../../../avr/lib/avr5/libatmega32u4.a(eerd_dword.o)
 .text          0x0000000000000000        0x0 /usr/lib/gcc/avr/8.3.0/../../../../avr/lib/avr5/libatmega32u4.a(eerd_word.o)
 .data          0x0000000000000000        0x0 /usr/lib/gcc/avr/8.3.0/../../../../avr/lib/avr5/libatmega32u4.a(eerd_word.o)
 .bss           0x0000000000000000        0x0 /usr/lib/gcc/avr/8.3.0/../../../../avr/lib/avr5/libatmega32u4.a(eerd_word.o)
 .text          0x0000000000000000        0x0 /usr/lib/gcc/avr/8.3.0/../../../../avr/lib/avr5/libatmega32u4.a(eeupd_byte.o)
 .data          0x0000000000000000        0x0 /usr/lib/gcc/avr/8.3.0/../../../../avr/lib/avr5/libatmega32u4.a(eeupd_byte.o)
 .bss           0x0000000000000000        0x0 /usr/lib/gcc/avr/8.3.0/../../../../avr/lib/avr5/libatmega32u4.a(eeupd_byte.o)
 .text          0x0000000000000000        0x0 /usr/lib/gcc/avr/8.3.0/../../../../avr/lib/avr5/libatmega32u4.a(eeupd_dword.o)
 .data          0x0000000000000000        0x0 /usr/lib/gcc/avr/8.3.0/../../../../avr/lib/avr5/libatmega32u4.a(eeupd_dword.o)
 .bss           0x0000000000000000        0x0 /usr/lib/gcc/avr/8.3.0/../../../../avr/lib/avr5/libatmega32u4.a(eeupd_dword.o)
 .text          0x0000000000000000        0x0 /usr/lib/gcc/avr/8.3.0/../../../../avr/lib/avr5/libatmega32u4.a(eeupd_word.o)
 .data          0x0000000000000000        0x0 /usr/lib/gcc/avr/8.3.0/../../../../avr/lib/avr5/libatmega32u4.a(eeupd_word.o)
 .bss           0x0000000000000000        0x0 /usr/lib/gcc/avr/8.3.0/../../../../avr/lib/avr5/libatmega32u4.a(eeupd_word.o)
 .text          0x0000000000000000        0x0 /usr/lib/gcc/avr/8.3.0/../../../../avr/lib/avr5/libatmega32u4.a(eerd_block.o)
 .data          0x0000000000000000        0x0 /usr/lib/gcc/avr/8.3.0/../../../../avr/lib/avr5/libatmega32u4.a(eerd_block.o)
 .bss           0x0000000000000000        0x0 /usr/lib/gcc/avr/8.3.0/../../../../avr/lib/avr5/libatmega32u4.a(eerd_block.o)

Memory Configuration

Name             Origin             Length             Attributes
text             0x0000000000000000 0x0000000000020000 xr
data             0x0000000000800060 0x000000000000ffa0 rw !x
eeprom           0x0000000000810000 0x0000000000010000 rw !x
fuse             0x0000000000820000 0x0000000000000400 rw !x
lock             0x0000000000830000 0x0000000000000400 rw !x
signature        0x0000000000840000 0x0000000000000400 rw !x
user_signatures  0x0000000000850000 0x0000000000000400 rw !x
*default*        0x0000000000000000 0xffffffffffffffff

Linker script and memory map

Address of section .data set to 0x800100
LOAD /usr/lib/gcc/avr/8.3.0/../../../../avr/lib/avr5/crtatmega32u4.o
LOAD .build/obj_sofle_rev1_LohseBoi/keyboards/sofle/sofle.o
LOAD .build/obj_sofle_rev1_LohseBoi/keyboards/sofle/rev1/rev1.o
LOAD .build/obj_sofle_rev1_LohseBoi/keyboards/sofle/keymaps/LohseBoi/keymap.o
LOAD .build/obj_sofle_rev1_LohseBoi/quantum/quantum.o
LOAD .build/obj_sofle_rev1_LohseBoi/quantum/send_string.o
LOAD .build/obj_sofle_rev1_LohseBoi/quantum/bitwise.o
LOAD .build/obj_sofle_rev1_LohseBoi/quantum/led.o
LOAD .build/obj_sofle_rev1_LohseBoi/quantum/action.o
LOAD .build/obj_sofle_rev1_LohseBoi/quantum/action_layer.o
LOAD .build/obj_sofle_rev1_LohseBoi/quantum/action_macro.o
LOAD .build/obj_sofle_rev1_LohseBoi/quantum/action_tapping.o
LOAD .build/obj_sofle_rev1_LohseBoi/quantum/action_util.o
LOAD .build/obj_sofle_rev1_LohseBoi/quantum/eeconfig.o
LOAD .build/obj_sofle_rev1_LohseBoi/quantum/keyboard.o
LOAD .build/obj_sofle_rev1_LohseBoi/quantum/keymap_common.o
LOAD .build/obj_sofle_rev1_LohseBoi/quantum/keycode_config.o
LOAD .build/obj_sofle_rev1_LohseBoi/quantum/logging/debug.o
LOAD .build/obj_sofle_rev1_LohseBoi/quantum/logging/sendchar.o
LOAD .build/obj_sofle_rev1_LohseBoi/quantum/bootmagic/magic.o
LOAD .build/obj_sofle_rev1_LohseBoi/quantum/matrix_common.o
LOAD .build/obj_sofle_rev1_LohseBoi/quantum/matrix.o
LOAD .build/obj_sofle_rev1_LohseBoi/quantum/debounce/sym_defer_g.o
LOAD .build/obj_sofle_rev1_LohseBoi/quantum/split_common/split_util.o
LOAD .build/obj_sofle_rev1_LohseBoi/quantum/split_common/transport.o
LOAD .build/obj_sofle_rev1_LohseBoi/quantum/split_common/transactions.o
LOAD .build/obj_sofle_rev1_LohseBoi/quantum/main.o
LOAD .build/obj_sofle_rev1_LohseBoi/quantum/wpm.o
LOAD .build/obj_sofle_rev1_LohseBoi/quantum/encoder.o
LOAD .build/obj_sofle_rev1_LohseBoi/crc.o
LOAD .build/obj_sofle_rev1_LohseBoi/ssd1306_sh1106.o
LOAD .build/obj_sofle_rev1_LohseBoi/quantum/process_keycode/process_space_cadet.o
LOAD .build/obj_sofle_rev1_LohseBoi/quantum/process_keycode/process_magic.o
LOAD .build/obj_sofle_rev1_LohseBoi/quantum/process_keycode/process_grave_esc.o
LOAD .build/obj_sofle_rev1_LohseBoi/i2c_master.a
LOAD .build/obj_sofle_rev1_LohseBoi/i2c_slave.a
LOAD .build/obj_sofle_rev1_LohseBoi/serial.a
LOAD .build/obj_sofle_rev1_LohseBoi/common/host.o
LOAD .build/obj_sofle_rev1_LohseBoi/common/report.o
LOAD .build/obj_sofle_rev1_LohseBoi/common/sync_timer.o
LOAD .build/obj_sofle_rev1_LohseBoi/common/usb_util.o
LOAD .build/obj_sofle_rev1_LohseBoi/common/avr/platform.o
LOAD .build/obj_sofle_rev1_LohseBoi/common/avr/suspend.o
LOAD .build/obj_sofle_rev1_LohseBoi/common/avr/timer.o
LOAD .build/obj_sofle_rev1_LohseBoi/common/avr/bootloader.o
LOAD .build/obj_sofle_rev1_LohseBoi/common/avr/xprintf.o
LOAD .build/obj_sofle_rev1_LohseBoi/common/avr/printf.o
LOAD .build/obj_sofle_rev1_LohseBoi/lufa.o
LOAD .build/obj_sofle_rev1_LohseBoi/usb_descriptor.o
LOAD .build/obj_sofle_rev1_LohseBoi/lib/lufa/LUFA/Drivers/USB/Class/Common/HIDParser.o
LOAD .build/obj_sofle_rev1_LohseBoi/lib/lufa/LUFA/Drivers/USB/Core/AVR8/Device_AVR8.o
LOAD .build/obj_sofle_rev1_LohseBoi/lib/lufa/LUFA/Drivers/USB/Core/AVR8/EndpointStream_AVR8.o
LOAD .build/obj_sofle_rev1_LohseBoi/lib/lufa/LUFA/Drivers/USB/Core/AVR8/Endpoint_AVR8.o
LOAD .build/obj_sofle_rev1_LohseBoi/lib/lufa/LUFA/Drivers/USB/Core/AVR8/Host_AVR8.o
LOAD .build/obj_sofle_rev1_LohseBoi/lib/lufa/LUFA/Drivers/USB/Core/AVR8/PipeStream_AVR8.o
LOAD .build/obj_sofle_rev1_LohseBoi/lib/lufa/LUFA/Drivers/USB/Core/AVR8/Pipe_AVR8.o
LOAD .build/obj_sofle_rev1_LohseBoi/lib/lufa/LUFA/Drivers/USB/Core/AVR8/USBController_AVR8.o
LOAD .build/obj_sofle_rev1_LohseBoi/lib/lufa/LUFA/Drivers/USB/Core/AVR8/USBInterrupt_AVR8.o
LOAD .build/obj_sofle_rev1_LohseBoi/lib/lufa/LUFA/Drivers/USB/Core/ConfigDescriptors.o
LOAD .build/obj_sofle_rev1_LohseBoi/lib/lufa/LUFA/Drivers/USB/Core/DeviceStandardReq.o
LOAD .build/obj_sofle_rev1_LohseBoi/lib/lufa/LUFA/Drivers/USB/Core/Events.o
LOAD .build/obj_sofle_rev1_LohseBoi/lib/lufa/LUFA/Drivers/USB/Core/HostStandardReq.o
LOAD .build/obj_sofle_rev1_LohseBoi/lib/lufa/LUFA/Drivers/USB/Core/USBTask.o
LOAD .build/obj_sofle_rev1_LohseBoi/protocol/lufa/usb_util.o
LOAD /usr/lib/gcc/avr/8.3.0/../../../../avr/lib/avr5/libm.a
START GROUP
LOAD /usr/lib/gcc/avr/8.3.0/avr5/libgcc.a
LOAD /usr/lib/gcc/avr/8.3.0/../../../../avr/lib/avr5/libm.a
LOAD /usr/lib/gcc/avr/8.3.0/../../../../avr/lib/avr5/libc.a
LOAD /usr/lib/gcc/avr/8.3.0/../../../../avr/lib/avr5/libatmega32u4.a
END GROUP
                0x0000000000020000                __TEXT_REGION_LENGTH__ = DEFINED (__TEXT_REGION_LENGTH__)?__TEXT_REGION_LENGTH__:0x20000
                0x000000000000ffa0                __DATA_REGION_LENGTH__ = DEFINED (__DATA_REGION_LENGTH__)?__DATA_REGION_LENGTH__:0xffa0
                0x0000000000010000                __EEPROM_REGION_LENGTH__ = DEFINED (__EEPROM_REGION_LENGTH__)?__EEPROM_REGION_LENGTH__:0x10000
                0x0000000000000400                __FUSE_REGION_LENGTH__ = DEFINED (__FUSE_REGION_LENGTH__)?__FUSE_REGION_LENGTH__:0x400
                0x0000000000000400                __LOCK_REGION_LENGTH__ = DEFINED (__LOCK_REGION_LENGTH__)?__LOCK_REGION_LENGTH__:0x400
                0x0000000000000400                __SIGNATURE_REGION_LENGTH__ = DEFINED (__SIGNATURE_REGION_LENGTH__)?__SIGNATURE_REGION_LENGTH__:0x400
                0x0000000000000400                __USER_SIGNATURE_REGION_LENGTH__ = DEFINED (__USER_SIGNATURE_REGION_LENGTH__)?__USER_SIGNATURE_REGION_LENGTH__:0x400

.hash
 *(.hash)

.dynsym
 *(.dynsym)

.dynstr
 *(.dynstr)

.gnu.version
 *(.gnu.version)

.gnu.version_d
 *(.gnu.version_d)

.gnu.version_r
 *(.gnu.version_r)

.rel.init
 *(.rel.init)

.rela.init
 *(.rela.init)

.rel.text
 *(.rel.text)
 *(.rel.text.*)
 *(.rel.gnu.linkonce.t*)

.rela.text
 *(.rela.text)
 *(.rela.text.*)
 *(.rela.gnu.linkonce.t*)

.rel.fini
 *(.rel.fini)

.rela.fini
 *(.rela.fini)

.rel.rodata
 *(.rel.rodata)
 *(.rel.rodata.*)
 *(.rel.gnu.linkonce.r*)

.rela.rodata
 *(.rela.rodata)
 *(.rela.rodata.*)
 *(.rela.gnu.linkonce.r*)

.rel.data
 *(.rel.data)
 *(.rel.data.*)
 *(.rel.gnu.linkonce.d*)

.rela.data
 *(.rela.data)
 *(.rela.data.*)
 *(.rela.gnu.linkonce.d*)

.rel.ctors
 *(.rel.ctors)

.rela.ctors
 *(.rela.ctors)

.rel.dtors
 *(.rel.dtors)

.rela.dtors
 *(.rela.dtors)

.rel.got
 *(.rel.got)

.rela.got
 *(.rela.got)

.rel.bss
 *(.rel.bss)

.rela.bss
 *(.rela.bss)

.rel.plt
 *(.rel.plt)

.rela.plt
 *(.rela.plt)

.text           0x0000000000000000     0x641c
 *(.vectors)
 .vectors       0x0000000000000000       0xac /usr/lib/gcc/avr/8.3.0/../../../../avr/lib/avr5/crtatmega32u4.o
                0x0000000000000000                __vectors
                0x0000000000000000                __vector_default
 *(.vectors)
 *(.progmem.gcc*)
                0x00000000000000ac                . = ALIGN (0x2)
                0x00000000000000ac                __trampolines_start = .
 *(.trampolines)
 .trampolines   0x00000000000000ac        0x0 linker stubs
 *(.trampolines*)
                0x00000000000000ac                __trampolines_end = .
 *libprintf_flt.a:*(.progmem.data)
 *libc.a:*(.progmem.data)
 *(.progmem.*)
 .progmem.data.hand_swap_config
                0x00000000000000ac       0x78 .build/obj_sofle_rev1_LohseBoi/keyboards/sofle/sofle.o
                0x00000000000000ac                hand_swap_config
 .progmem.data.__c.3971
                0x0000000000000124        0x4 .build/obj_sofle_rev1_LohseBoi/keyboards/sofle/keymaps/LohseBoi/keymap.o
 .progmem.data.__c.3967
                0x0000000000000128        0x4 .build/obj_sofle_rev1_LohseBoi/keyboards/sofle/keymaps/LohseBoi/keymap.o
 .progmem.data.__c.3963
                0x000000000000012c        0x4 .build/obj_sofle_rev1_LohseBoi/keyboards/sofle/keymaps/LohseBoi/keymap.o
 .progmem.data.__c.3956
                0x0000000000000130        0x4 .build/obj_sofle_rev1_LohseBoi/keyboards/sofle/keymaps/LohseBoi/keymap.o
 .progmem.data.__c.3880
                0x0000000000000134       0x15 .build/obj_sofle_rev1_LohseBoi/keyboards/sofle/keymaps/LohseBoi/keymap.o
 .progmem.data.__c.3876
                0x0000000000000149        0x5 .build/obj_sofle_rev1_LohseBoi/keyboards/sofle/keymaps/LohseBoi/keymap.o
 .progmem.data.__c.3874
                0x000000000000014e        0x3 .build/obj_sofle_rev1_LohseBoi/keyboards/sofle/keymaps/LohseBoi/keymap.o
 .progmem.data.__c.3936
                0x0000000000000151        0x6 .build/obj_sofle_rev1_LohseBoi/keyboards/sofle/keymaps/LohseBoi/keymap.o
 .progmem.data.__c.3933
                0x0000000000000157        0x4 .build/obj_sofle_rev1_LohseBoi/keyboards/sofle/keymaps/LohseBoi/keymap.o
 .progmem.data.__c.3931
                0x000000000000015b        0x7 .build/obj_sofle_rev1_LohseBoi/keyboards/sofle/keymaps/LohseBoi/keymap.o
 .progmem.data.__c.3928
                0x0000000000000162        0x5 .build/obj_sofle_rev1_LohseBoi/keyboards/sofle/keymaps/LohseBoi/keymap.o
 .progmem.data.__c.3925
                0x0000000000000167        0x5 .build/obj_sofle_rev1_LohseBoi/keyboards/sofle/keymaps/LohseBoi/keymap.o
 .progmem.data.__c.3922
                0x000000000000016c        0x5 .build/obj_sofle_rev1_LohseBoi/keyboards/sofle/keymaps/LohseBoi/keymap.o
 .progmem.data.__c.3919
                0x0000000000000171        0x7 .build/obj_sofle_rev1_LohseBoi/keyboards/sofle/keymaps/LohseBoi/keymap.o
 .progmem.data.__c.3915
                0x0000000000000178        0x6 .build/obj_sofle_rev1_LohseBoi/keyboards/sofle/keymaps/LohseBoi/keymap.o
 .progmem.data.__c.3912
                0x000000000000017e        0x6 .build/obj_sofle_rev1_LohseBoi/keyboards/sofle/keymaps/LohseBoi/keymap.o
 .progmem.data.__c.3910
                0x0000000000000184        0x3 .build/obj_sofle_rev1_LohseBoi/keyboards/sofle/keymaps/LohseBoi/keymap.o
 .progmem.data.__c.3908
                0x0000000000000187        0x6 .build/obj_sofle_rev1_LohseBoi/keyboards/sofle/keymaps/LohseBoi/keymap.o
 .progmem.data.__c.3905
                0x000000000000018d        0x6 .build/obj_sofle_rev1_LohseBoi/keyboards/sofle/keymaps/LohseBoi/keymap.o
 .progmem.data.__c.3901
                0x0000000000000193        0x6 .build/obj_sofle_rev1_LohseBoi/keyboards/sofle/keymaps/LohseBoi/keymap.o
 .progmem.data.__c.3898
                0x0000000000000199        0x4 .build/obj_sofle_rev1_LohseBoi/keyboards/sofle/keymaps/LohseBoi/keymap.o
 .progmem.data.__c.3896
                0x000000000000019d        0x4 .build/obj_sofle_rev1_LohseBoi/keyboards/sofle/keymaps/LohseBoi/keymap.o
 .progmem.data.__c.3894
                0x00000000000001a1        0x1 .build/obj_sofle_rev1_LohseBoi/keyboards/sofle/keymaps/LohseBoi/keymap.o
 .progmem.data.__c.3892
                0x00000000000001a2        0x5 .build/obj_sofle_rev1_LohseBoi/keyboards/sofle/keymaps/LohseBoi/keymap.o
 .progmem.data.__c.3890
                0x00000000000001a7        0x3 .build/obj_sofle_rev1_LohseBoi/keyboards/sofle/keymaps/LohseBoi/keymap.o
 .progmem.data.keymaps
                0x00000000000001aa      0x258 .build/obj_sofle_rev1_LohseBoi/keyboards/sofle/keymaps/LohseBoi/keymap.o
                0x00000000000001aa                keymaps
 .progmem.data.ascii_to_keycode_lut
                0x0000000000000402       0x80 .build/obj_sofle_rev1_LohseBoi/quantum/send_string.o
                0x0000000000000402                ascii_to_keycode_lut
 .progmem.data.ascii_to_dead_lut
                0x0000000000000482       0x10 .build/obj_sofle_rev1_LohseBoi/quantum/send_string.o
                0x0000000000000482                ascii_to_dead_lut
 .progmem.data.ascii_to_altgr_lut
                0x0000000000000492       0x10 .build/obj_sofle_rev1_LohseBoi/quantum/send_string.o
                0x0000000000000492                ascii_to_altgr_lut
 .progmem.data.ascii_to_shift_lut
                0x00000000000004a2       0x10 .build/obj_sofle_rev1_LohseBoi/quantum/send_string.o
                0x00000000000004a2                ascii_to_shift_lut
 .progmem.data.display_off.2276
                0x00000000000004b2        0x2 .build/obj_sofle_rev1_LohseBoi/ssd1306_sh1106.o
 .progmem.data.display_on.2272
                0x00000000000004b4        0x2 .build/obj_sofle_rev1_LohseBoi/ssd1306_sh1106.o
 .progmem.data.display_setup2.2106
                0x00000000000004b6        0xd .build/obj_sofle_rev1_LohseBoi/ssd1306_sh1106.o
 .progmem.data.display_flipped.2105
                0x00000000000004c3        0x3 .build/obj_sofle_rev1_LohseBoi/ssd1306_sh1106.o
 .progmem.data.display_normal.2104
                0x00000000000004c6        0x3 .build/obj_sofle_rev1_LohseBoi/ssd1306_sh1106.o
 .progmem.data.display_setup1.2103
                0x00000000000004c9        0xd .build/obj_sofle_rev1_LohseBoi/ssd1306_sh1106.o
 .progmem.data.font
                0x00000000000004d6      0x540 .build/obj_sofle_rev1_LohseBoi/ssd1306_sh1106.o
 .progmem.data.ProductString
                0x0000000000000a16        0xe .build/obj_sofle_rev1_LohseBoi/usb_descriptor.o
                0x0000000000000a16                ProductString
 .progmem.data.ManufacturerString
                0x0000000000000a24       0x1c .build/obj_sofle_rev1_LohseBoi/usb_descriptor.o
                0x0000000000000a24                ManufacturerString
 .progmem.data.LanguageString
                0x0000000000000a40        0x4 .build/obj_sofle_rev1_LohseBoi/usb_descriptor.o
                0x0000000000000a40                LanguageString
 .progmem.data.ConfigurationDescriptor
                0x0000000000000a44       0x3b .build/obj_sofle_rev1_LohseBoi/usb_descriptor.o
                0x0000000000000a44                ConfigurationDescriptor
 .progmem.data.DeviceDescriptor
                0x0000000000000a7f       0x12 .build/obj_sofle_rev1_LohseBoi/usb_descriptor.o
                0x0000000000000a7f                DeviceDescriptor
 .progmem.data.SharedReport
                0x0000000000000a91       0x32 .build/obj_sofle_rev1_LohseBoi/usb_descriptor.o
                0x0000000000000a91                SharedReport
 .progmem.data.KeyboardReport
                0x0000000000000ac3       0x40 .build/obj_sofle_rev1_LohseBoi/usb_descriptor.o
                0x0000000000000ac3                KeyboardReport
                0x0000000000000b04                . = ALIGN (0x2)
 *fill*         0x0000000000000b03        0x1 
 *(.lowtext)
 *(.lowtext*)
                0x0000000000000b04                __ctors_start = .
 *(.ctors)
                0x0000000000000b04                __ctors_end = .
                0x0000000000000b04                __dtors_start = .
 *(.dtors)
                0x0000000000000b04                __dtors_end = .
 SORT_BY_NAME(*)(.ctors)
 SORT_BY_NAME(*)(.dtors)
 *(.init0)
 .init0         0x0000000000000b04        0x0 /usr/lib/gcc/avr/8.3.0/../../../../avr/lib/avr5/crtatmega32u4.o
                0x0000000000000b04                __init
 *(.init0)
 *(.init1)
 *(.init1)
 *(.init2)
 .init2         0x0000000000000b04        0xc /usr/lib/gcc/avr/8.3.0/../../../../avr/lib/avr5/crtatmega32u4.o
 *(.init2)
 *(.init3)
 .init3         0x0000000000000b10       0x54 .build/obj_sofle_rev1_LohseBoi/common/avr/bootloader.o
                0x0000000000000b10                bootloader_jump_after_watchdog_reset
 *(.init3)
 *(.init4)
 .init4         0x0000000000000b64       0x16 /usr/lib/gcc/avr/8.3.0/avr5/libgcc.a(_copy_data.o)
                0x0000000000000b64                __do_copy_data
 .init4         0x0000000000000b7a       0x10 /usr/lib/gcc/avr/8.3.0/avr5/libgcc.a(_clear_bss.o)
                0x0000000000000b7a                __do_clear_bss
 *(.init4)
 *(.init5)
 *(.init5)
 *(.init6)
 *(.init6)
 *(.init7)
 *(.init7)
 *(.init8)
 *(.init8)
 *(.init9)
 .init9         0x0000000000000b8a        0x8 /usr/lib/gcc/avr/8.3.0/../../../../avr/lib/avr5/crtatmega32u4.o
 *(.init9)
 *(.text)
 .text          0x0000000000000b92        0x4 /usr/lib/gcc/avr/8.3.0/../../../../avr/lib/avr5/crtatmega32u4.o
                0x0000000000000b92                __vector_38
                0x0000000000000b92                __vector_22
                0x0000000000000b92                __vector_28
                0x0000000000000b92                __vector_1
                0x0000000000000b92                __vector_32
                0x0000000000000b92                __vector_34
                0x0000000000000b92                __vector_24
                0x0000000000000b92                __bad_interrupt
                0x0000000000000b92                __vector_6
                0x0000000000000b92                __vector_31
                0x0000000000000b92                __vector_35
                0x0000000000000b92                __vector_39
                0x0000000000000b92                __vector_23
                0x0000000000000b92                __vector_30
                0x0000000000000b92                __vector_25
                0x0000000000000b92                __vector_13
                0x0000000000000b92                __vector_17
                0x0000000000000b92                __vector_19
                0x0000000000000b92                __vector_7
                0x0000000000000b92                __vector_41
                0x0000000000000b92                __vector_27
                0x0000000000000b92                __vector_5
                0x0000000000000b92                __vector_33
                0x0000000000000b92                __vector_37
                0x0000000000000b92                __vector_4
                0x0000000000000b92                __vector_9
                0x0000000000000b92                __vector_2
                0x0000000000000b92                __vector_15
                0x0000000000000b92                __vector_36
                0x0000000000000b92                __vector_29
                0x0000000000000b92                __vector_40
                0x0000000000000b92                __vector_8
                0x0000000000000b92                __vector_26
                0x0000000000000b92                __vector_14
                0x0000000000000b92                __vector_16
                0x0000000000000b92                __vector_18
                0x0000000000000b92                __vector_20
                0x0000000000000b92                __vector_42
                0x0000000000000b96                . = ALIGN (0x2)
 *(.text.*)
 .text.oled_init_user
                0x0000000000000b96        0x4 .build/obj_sofle_rev1_LohseBoi/keyboards/sofle/keymaps/LohseBoi/keymap.o
                0x0000000000000b96                oled_init_user
 .text.oled_task_user
                0x0000000000000b9a      0x220 .build/obj_sofle_rev1_LohseBoi/keyboards/sofle/keymaps/LohseBoi/keymap.o
                0x0000000000000b9a                oled_task_user
 .text.process_record_user
                0x0000000000000dba      0x136 .build/obj_sofle_rev1_LohseBoi/keyboards/sofle/keymaps/LohseBoi/keymap.o
                0x0000000000000dba                process_record_user
 .text.matrix_scan_user
                0x0000000000000ef0       0x44 .build/obj_sofle_rev1_LohseBoi/keyboards/sofle/keymaps/LohseBoi/keymap.o
                0x0000000000000ef0                matrix_scan_user
 .text.encoder_update_user
                0x0000000000000f34       0x50 .build/obj_sofle_rev1_LohseBoi/keyboards/sofle/keymaps/LohseBoi/keymap.o
                0x0000000000000f34                encoder_update_user
 .text.process_action_kb
                0x0000000000000f84        0x4 .build/obj_sofle_rev1_LohseBoi/quantum/quantum.o
                0x0000000000000f84                process_action_kb
 .text.process_record_kb
                0x0000000000000f88        0x4 .build/obj_sofle_rev1_LohseBoi/quantum/quantum.o
                0x0000000000000f88                process_record_kb
 .text.post_process_record_user
                0x0000000000000f8c        0x2 .build/obj_sofle_rev1_LohseBoi/quantum/quantum.o
                0x0000000000000f8c                post_process_record_user
 .text.post_process_record_kb
                0x0000000000000f8e        0x4 .build/obj_sofle_rev1_LohseBoi/quantum/quantum.o
                0x0000000000000f8e                post_process_record_kb
 .text.get_event_keycode
                0x0000000000000f92       0x66 .build/obj_sofle_rev1_LohseBoi/quantum/quantum.o
                0x0000000000000f92                get_event_keycode
 .text.get_record_keycode
                0x0000000000000ff8       0x12 .build/obj_sofle_rev1_LohseBoi/quantum/quantum.o
                0x0000000000000ff8                get_record_keycode
 .text.pre_process_record_quantum
                0x000000000000100a        0x4 .build/obj_sofle_rev1_LohseBoi/quantum/quantum.o
                0x000000000000100a                pre_process_record_quantum
 .text.post_process_record_quantum
                0x000000000000100e       0x16 .build/obj_sofle_rev1_LohseBoi/quantum/quantum.o
                0x000000000000100e                post_process_record_quantum
 .text.set_single_persistent_default_layer
                0x0000000000001024       0x34 .build/obj_sofle_rev1_LohseBoi/quantum/quantum.o
                0x0000000000001024                set_single_persistent_default_layer
 .text.update_tri_layer_state
                0x0000000000001058       0xa8 .build/obj_sofle_rev1_LohseBoi/quantum/quantum.o
                0x0000000000001058                update_tri_layer_state
 .text.update_tri_layer
                0x0000000000001100       0x24 .build/obj_sofle_rev1_LohseBoi/quantum/quantum.o
                0x0000000000001100                update_tri_layer
 .text.matrix_init_quantum
                0x0000000000001124        0xc .build/obj_sofle_rev1_LohseBoi/quantum/quantum.o
                0x0000000000001124                matrix_init_quantum
 .text.matrix_scan_quantum
                0x0000000000001130        0x8 .build/obj_sofle_rev1_LohseBoi/quantum/quantum.o
                0x0000000000001130                matrix_scan_quantum
 .text.shutdown_user
                0x0000000000001138        0x2 .build/obj_sofle_rev1_LohseBoi/quantum/quantum.o
                0x0000000000001138                shutdown_user
 .text.reset_keyboard
                0x000000000000113a       0x1e .build/obj_sofle_rev1_LohseBoi/quantum/quantum.o
                0x000000000000113a                reset_keyboard
 .text.process_record_quantum
                0x0000000000001158       0xb4 .build/obj_sofle_rev1_LohseBoi/quantum/quantum.o
                0x0000000000001158                process_record_quantum
 .text.send_char
                0x000000000000120c       0xcc .build/obj_sofle_rev1_LohseBoi/quantum/send_string.o
                0x000000000000120c                send_char
 .text.send_string_with_delay_P
                0x00000000000012d8       0xd4 .build/obj_sofle_rev1_LohseBoi/quantum/send_string.o
                0x00000000000012d8                send_string_with_delay_P
 .text.send_string_P
                0x00000000000013ac        0x6 .build/obj_sofle_rev1_LohseBoi/quantum/send_string.o
                0x00000000000013ac                send_string_P
 .text.biton32  0x00000000000013b2       0x9a .build/obj_sofle_rev1_LohseBoi/quantum/bitwise.o
                0x00000000000013b2                biton32
 .text.led_set_user
                0x000000000000144c        0x2 .build/obj_sofle_rev1_LohseBoi/quantum/led.o
                0x000000000000144c                led_set_user
 .text.led_set_kb
                0x000000000000144e        0x4 .build/obj_sofle_rev1_LohseBoi/quantum/led.o
                0x000000000000144e                led_set_kb
 .text.led_update_user
                0x0000000000001452        0x4 .build/obj_sofle_rev1_LohseBoi/quantum/led.o
                0x0000000000001452                led_update_user
 .text.led_update_kb
                0x0000000000001456        0x4 .build/obj_sofle_rev1_LohseBoi/quantum/led.o
                0x0000000000001456                led_update_kb
 .text.led_init_ports
                0x000000000000145a        0x2 .build/obj_sofle_rev1_LohseBoi/quantum/led.o
                0x000000000000145a                led_init_ports
 .text.led_set  0x000000000000145c       0x10 .build/obj_sofle_rev1_LohseBoi/quantum/led.o
                0x000000000000145c                led_set
 .text.process_hand_swap
                0x000000000000146c       0x6a .build/obj_sofle_rev1_LohseBoi/quantum/action.o
                0x000000000000146c                process_hand_swap
 .text.action_exec
                0x00000000000014d6       0x98 .build/obj_sofle_rev1_LohseBoi/quantum/action.o
                0x00000000000014d6                action_exec
 .text.process_record_tap_hint
                0x000000000000156e       0x28 .build/obj_sofle_rev1_LohseBoi/quantum/action.o
                0x000000000000156e                process_record_tap_hint
 .text.register_code
                0x0000000000001596       0x8c .build/obj_sofle_rev1_LohseBoi/quantum/action.o
                0x0000000000001596                register_code
 .text.unregister_code
                0x0000000000001622       0x50 .build/obj_sofle_rev1_LohseBoi/quantum/action.o
                0x0000000000001622                unregister_code
 .text.tap_code_delay
                0x0000000000001672       0x2e .build/obj_sofle_rev1_LohseBoi/quantum/action.o
                0x0000000000001672                tap_code_delay
 .text.tap_code
                0x00000000000016a0       0x10 .build/obj_sofle_rev1_LohseBoi/quantum/action.o
                0x00000000000016a0                tap_code
 .text.register_mods
                0x00000000000016b0        0xe .build/obj_sofle_rev1_LohseBoi/quantum/action.o
                0x00000000000016b0                register_mods
 .text.unregister_mods
                0x00000000000016be        0xe .build/obj_sofle_rev1_LohseBoi/quantum/action.o
                0x00000000000016be                unregister_mods
 .text.process_action
                0x00000000000016cc      0x50a .build/obj_sofle_rev1_LohseBoi/quantum/action.o
                0x00000000000016cc                process_action
 .text.process_record_handler
                0x0000000000001bd6       0x2e .build/obj_sofle_rev1_LohseBoi/quantum/action.o
                0x0000000000001bd6                process_record_handler
 .text.process_record
                0x0000000000001c04       0x50 .build/obj_sofle_rev1_LohseBoi/quantum/action.o
                0x0000000000001c04                process_record
 .text.clear_keyboard_but_mods_and_keys
                0x0000000000001c54       0x1c .build/obj_sofle_rev1_LohseBoi/quantum/action.o
                0x0000000000001c54                clear_keyboard_but_mods_and_keys
 .text.clear_keyboard_but_mods
                0x0000000000001c70        0x8 .build/obj_sofle_rev1_LohseBoi/quantum/action.o
                0x0000000000001c70                clear_keyboard_but_mods
 .text.clear_keyboard
                0x0000000000001c78        0x8 .build/obj_sofle_rev1_LohseBoi/quantum/action.o
                0x0000000000001c78                clear_keyboard
 .text.is_tap_action
                0x0000000000001c80       0x3e .build/obj_sofle_rev1_LohseBoi/quantum/action.o
                0x0000000000001c80                is_tap_action
 .text.is_tap_record
                0x0000000000001cbe        0xe .build/obj_sofle_rev1_LohseBoi/quantum/action.o
                0x0000000000001cbe                is_tap_record
 .text.debug_event
                0x0000000000001ccc       0x1e .build/obj_sofle_rev1_LohseBoi/quantum/action.o
                0x0000000000001ccc                debug_event
 .text.debug_record
                0x0000000000001cea       0x20 .build/obj_sofle_rev1_LohseBoi/quantum/action.o
                0x0000000000001cea                debug_record
 .text.default_layer_state_set_user
                0x0000000000001d0a        0x2 .build/obj_sofle_rev1_LohseBoi/quantum/action_layer.o
                0x0000000000001d0a                default_layer_state_set_user
 .text.default_layer_state_set_kb
                0x0000000000001d0c        0x4 .build/obj_sofle_rev1_LohseBoi/quantum/action_layer.o
                0x0000000000001d0c                default_layer_state_set_kb
 .text.default_layer_state_set
                0x0000000000001d10       0x18 .build/obj_sofle_rev1_LohseBoi/quantum/action_layer.o
 .text.default_layer_debug
                0x0000000000001d28        0x2 .build/obj_sofle_rev1_LohseBoi/quantum/action_layer.o
                0x0000000000001d28                default_layer_debug
 .text.default_layer_set
                0x0000000000001d2a        0x4 .build/obj_sofle_rev1_LohseBoi/quantum/action_layer.o
                0x0000000000001d2a                default_layer_set
 .text.default_layer_or
                0x0000000000001d2e       0x24 .build/obj_sofle_rev1_LohseBoi/quantum/action_layer.o
                0x0000000000001d2e                default_layer_or
 .text.default_layer_and
                0x0000000000001d52       0x24 .build/obj_sofle_rev1_LohseBoi/quantum/action_layer.o
                0x0000000000001d52                default_layer_and
 .text.default_layer_xor
                0x0000000000001d76       0x24 .build/obj_sofle_rev1_LohseBoi/quantum/action_layer.o
                0x0000000000001d76                default_layer_xor
 .text.layer_state_set_user
                0x0000000000001d9a        0x4 .build/obj_sofle_rev1_LohseBoi/quantum/action_layer.o
                0x0000000000001d9a                layer_state_set_user
 .text.layer_state_set_kb
                0x0000000000001d9e        0x4 .build/obj_sofle_rev1_LohseBoi/quantum/action_layer.o
                0x0000000000001d9e                layer_state_set_kb
 .text.layer_state_set
                0x0000000000001da2       0x18 .build/obj_sofle_rev1_LohseBoi/quantum/action_layer.o
                0x0000000000001da2                layer_state_set
 .text.layer_clear
                0x0000000000001dba        0xa .build/obj_sofle_rev1_LohseBoi/quantum/action_layer.o
                0x0000000000001dba                layer_clear
 .text.layer_move
                0x0000000000001dc4       0x2a .build/obj_sofle_rev1_LohseBoi/quantum/action_layer.o
                0x0000000000001dc4                layer_move
 .text.layer_on
                0x0000000000001dee       0x42 .build/obj_sofle_rev1_LohseBoi/quantum/action_layer.o
                0x0000000000001dee                layer_on
 .text.layer_off
                0x0000000000001e30       0x46 .build/obj_sofle_rev1_LohseBoi/quantum/action_layer.o
                0x0000000000001e30                layer_off
 .text.layer_invert
                0x0000000000001e76       0x42 .build/obj_sofle_rev1_LohseBoi/quantum/action_layer.o
                0x0000000000001e76                layer_invert
 .text.layer_or
                0x0000000000001eb8       0x24 .build/obj_sofle_rev1_LohseBoi/quantum/action_layer.o
                0x0000000000001eb8                layer_or
 .text.layer_and
                0x0000000000001edc       0x24 .build/obj_sofle_rev1_LohseBoi/quantum/action_layer.o
                0x0000000000001edc                layer_and
 .text.layer_xor
                0x0000000000001f00       0x24 .build/obj_sofle_rev1_LohseBoi/quantum/action_layer.o
                0x0000000000001f00                layer_xor
 .text.layer_debug
                0x0000000000001f24        0x2 .build/obj_sofle_rev1_LohseBoi/quantum/action_layer.o
                0x0000000000001f24                layer_debug
 .text.update_source_layers_cache
                0x0000000000001f26       0x5c .build/obj_sofle_rev1_LohseBoi/quantum/action_layer.o
                0x0000000000001f26                update_source_layers_cache
 .text.read_source_layers_cache
                0x0000000000001f82       0x52 .build/obj_sofle_rev1_LohseBoi/quantum/action_layer.o
                0x0000000000001f82                read_source_layers_cache
 .text.layer_switch_get_layer
                0x0000000000001fd4       0x84 .build/obj_sofle_rev1_LohseBoi/quantum/action_layer.o
                0x0000000000001fd4                layer_switch_get_layer
 .text.layer_switch_get_action
                0x0000000000002058       0x14 .build/obj_sofle_rev1_LohseBoi/quantum/action_layer.o
                0x0000000000002058                layer_switch_get_action
 .text.store_or_get_action
                0x000000000000206c       0x48 .build/obj_sofle_rev1_LohseBoi/quantum/action_layer.o
                0x000000000000206c                store_or_get_action
 .text.debug_waiting_buffer
                0x00000000000020b4       0x42 .build/obj_sofle_rev1_LohseBoi/quantum/action_tapping.o
 .text.debug_tapping_key
                0x00000000000020f6       0x1c .build/obj_sofle_rev1_LohseBoi/quantum/action_tapping.o
 .text.waiting_buffer_scan_tap
                0x0000000000002112       0xac .build/obj_sofle_rev1_LohseBoi/quantum/action_tapping.o
 .text.process_tapping
                0x00000000000021be      0x33e .build/obj_sofle_rev1_LohseBoi/quantum/action_tapping.o
 .text.action_tapping_process
                0x00000000000024fc      0x134 .build/obj_sofle_rev1_LohseBoi/quantum/action_tapping.o
                0x00000000000024fc                action_tapping_process
 .text.add_key  0x0000000000002630        0xe .build/obj_sofle_rev1_LohseBoi/quantum/action_util.o
                0x0000000000002630                add_key
 .text.del_key  0x000000000000263e        0xe .build/obj_sofle_rev1_LohseBoi/quantum/action_util.o
                0x000000000000263e                del_key
 .text.clear_keys
                0x000000000000264c        0xc .build/obj_sofle_rev1_LohseBoi/quantum/action_util.o
                0x000000000000264c                clear_keys
 .text.get_oneshot_layer
                0x0000000000002658        0xc .build/obj_sofle_rev1_LohseBoi/quantum/action_util.o
                0x0000000000002658                get_oneshot_layer
 .text.get_oneshot_layer_state
                0x0000000000002664        0x8 .build/obj_sofle_rev1_LohseBoi/quantum/action_util.o
                0x0000000000002664                get_oneshot_layer_state
 .text.set_oneshot_swaphands
                0x000000000000266c        0xe .build/obj_sofle_rev1_LohseBoi/quantum/action_util.o
                0x000000000000266c                set_oneshot_swaphands
 .text.clear_oneshot_swaphands
                0x000000000000267a        0xa .build/obj_sofle_rev1_LohseBoi/quantum/action_util.o
                0x000000000000267a                clear_oneshot_swaphands
 .text.release_oneshot_swaphands
                0x0000000000002684       0x1a .build/obj_sofle_rev1_LohseBoi/quantum/action_util.o
                0x0000000000002684                release_oneshot_swaphands
 .text.use_oneshot_swaphands
                0x000000000000269e       0x1a .build/obj_sofle_rev1_LohseBoi/quantum/action_util.o
                0x000000000000269e                use_oneshot_swaphands
 .text.is_oneshot_layer_active
                0x00000000000026b8        0xe .build/obj_sofle_rev1_LohseBoi/quantum/action_util.o
                0x00000000000026b8                is_oneshot_layer_active
 .text.oneshot_set
                0x00000000000026c6       0x24 .build/obj_sofle_rev1_LohseBoi/quantum/action_util.o
                0x00000000000026c6                oneshot_set
 .text.oneshot_toggle
                0x00000000000026ea       0x12 .build/obj_sofle_rev1_LohseBoi/quantum/action_util.o
                0x00000000000026ea                oneshot_toggle
 .text.oneshot_enable
                0x00000000000026fc        0x6 .build/obj_sofle_rev1_LohseBoi/quantum/action_util.o
                0x00000000000026fc                oneshot_enable
 .text.oneshot_disable
                0x0000000000002702        0x6 .build/obj_sofle_rev1_LohseBoi/quantum/action_util.o
                0x0000000000002702                oneshot_disable
 .text.get_mods
                0x0000000000002708        0x6 .build/obj_sofle_rev1_LohseBoi/quantum/action_util.o
                0x0000000000002708                get_mods
 .text.add_mods
                0x000000000000270e        0xc .build/obj_sofle_rev1_LohseBoi/quantum/action_util.o
                0x000000000000270e                add_mods
 .text.del_mods
                0x000000000000271a        0xe .build/obj_sofle_rev1_LohseBoi/quantum/action_util.o
                0x000000000000271a                del_mods
 .text.clear_mods
                0x0000000000002728        0x6 .build/obj_sofle_rev1_LohseBoi/quantum/action_util.o
                0x0000000000002728                clear_mods
 .text.add_weak_mods
                0x000000000000272e        0xc .build/obj_sofle_rev1_LohseBoi/quantum/action_util.o
                0x000000000000272e                add_weak_mods
 .text.del_weak_mods
                0x000000000000273a        0xe .build/obj_sofle_rev1_LohseBoi/quantum/action_util.o
                0x000000000000273a                del_weak_mods
 .text.clear_weak_mods
                0x0000000000002748        0x6 .build/obj_sofle_rev1_LohseBoi/quantum/action_util.o
                0x0000000000002748                clear_weak_mods
 .text.clear_macro_mods
                0x000000000000274e        0x6 .build/obj_sofle_rev1_LohseBoi/quantum/action_util.o
                0x000000000000274e                clear_macro_mods
 .text.get_oneshot_mods
                0x0000000000002754        0x6 .build/obj_sofle_rev1_LohseBoi/quantum/action_util.o
                0x0000000000002754                get_oneshot_mods
 .text.oneshot_mods_changed_user
                0x000000000000275a        0x2 .build/obj_sofle_rev1_LohseBoi/quantum/action_util.o
                0x000000000000275a                oneshot_mods_changed_user
 .text.oneshot_mods_changed_kb
                0x000000000000275c        0x4 .build/obj_sofle_rev1_LohseBoi/quantum/action_util.o
                0x000000000000275c                oneshot_mods_changed_kb
 .text.set_oneshot_mods
                0x0000000000002760       0x1a .build/obj_sofle_rev1_LohseBoi/quantum/action_util.o
                0x0000000000002760                set_oneshot_mods
 .text.clear_oneshot_mods
                0x000000000000277a       0x14 .build/obj_sofle_rev1_LohseBoi/quantum/action_util.o
                0x000000000000277a                clear_oneshot_mods
 .text.send_keyboard_report
                0x000000000000278e       0x66 .build/obj_sofle_rev1_LohseBoi/quantum/action_util.o
                0x000000000000278e                send_keyboard_report
 .text.oneshot_layer_changed_user
                0x00000000000027f4        0x2 .build/obj_sofle_rev1_LohseBoi/quantum/action_util.o
                0x00000000000027f4                oneshot_layer_changed_user
 .text.oneshot_layer_changed_kb
                0x00000000000027f6        0x4 .build/obj_sofle_rev1_LohseBoi/quantum/action_util.o
                0x00000000000027f6                oneshot_layer_changed_kb
 .text.set_oneshot_layer
                0x00000000000027fa       0x2c .build/obj_sofle_rev1_LohseBoi/quantum/action_util.o
                0x00000000000027fa                set_oneshot_layer
 .text.reset_oneshot_layer
                0x0000000000002826        0xa .build/obj_sofle_rev1_LohseBoi/quantum/action_util.o
                0x0000000000002826                reset_oneshot_layer
 .text.clear_oneshot_layer_state
                0x0000000000002830       0x38 .build/obj_sofle_rev1_LohseBoi/quantum/action_util.o
                0x0000000000002830                clear_oneshot_layer_state
 .text.eeconfig_is_enabled
                0x0000000000002868       0x16 .build/obj_sofle_rev1_LohseBoi/quantum/eeconfig.o
                0x0000000000002868                eeconfig_is_enabled
 .text.eeconfig_read_debug
                0x000000000000287e        0x8 .build/obj_sofle_rev1_LohseBoi/quantum/eeconfig.o
                0x000000000000287e                eeconfig_read_debug
 .text.eeconfig_read_default_layer
                0x0000000000002886        0x8 .build/obj_sofle_rev1_LohseBoi/quantum/eeconfig.o
                0x0000000000002886                eeconfig_read_default_layer
 .text.eeconfig_update_default_layer
                0x000000000000288e        0xa .build/obj_sofle_rev1_LohseBoi/quantum/eeconfig.o
                0x000000000000288e                eeconfig_update_default_layer
 .text.eeconfig_read_keymap
                0x0000000000002898       0x1c .build/obj_sofle_rev1_LohseBoi/quantum/eeconfig.o
                0x0000000000002898                eeconfig_read_keymap
 .text.eeconfig_update_keymap
                0x00000000000028b4       0x1a .build/obj_sofle_rev1_LohseBoi/quantum/eeconfig.o
                0x00000000000028b4                eeconfig_update_keymap
 .text.eeconfig_update_kb
                0x00000000000028ce        0xc .build/obj_sofle_rev1_LohseBoi/quantum/eeconfig.o
                0x00000000000028ce                eeconfig_update_kb
 .text.eeconfig_update_user
                0x00000000000028da        0xc .build/obj_sofle_rev1_LohseBoi/quantum/eeconfig.o
                0x00000000000028da                eeconfig_update_user
 .text.eeconfig_init_user
                0x00000000000028e6        0xa .build/obj_sofle_rev1_LohseBoi/quantum/eeconfig.o
                0x00000000000028e6                eeconfig_init_user
 .text.eeconfig_init_kb
                0x00000000000028f0        0xe .build/obj_sofle_rev1_LohseBoi/quantum/eeconfig.o
                0x00000000000028f0                eeconfig_init_kb
 .text.eeconfig_init_quantum
                0x00000000000028fe       0xbe .build/obj_sofle_rev1_LohseBoi/quantum/eeconfig.o
                0x00000000000028fe                eeconfig_init_quantum
 .text.eeconfig_init
                0x00000000000029bc        0x4 .build/obj_sofle_rev1_LohseBoi/quantum/eeconfig.o
                0x00000000000029bc                eeconfig_init
 .text.eeconfig_update_handedness
                0x00000000000029c0        0xa .build/obj_sofle_rev1_LohseBoi/quantum/eeconfig.o
                0x00000000000029c0                eeconfig_update_handedness
 .text.last_matrix_activity_trigger
                0x00000000000029ca       0x26 .build/obj_sofle_rev1_LohseBoi/quantum/keyboard.o
                0x00000000000029ca                last_matrix_activity_trigger
 .text.last_encoder_activity_trigger
                0x00000000000029f0       0x26 .build/obj_sofle_rev1_LohseBoi/quantum/keyboard.o
                0x00000000000029f0                last_encoder_activity_trigger
 .text.disable_jtag
                0x0000000000002a16        0xe .build/obj_sofle_rev1_LohseBoi/quantum/keyboard.o
                0x0000000000002a16                disable_jtag
 .text.keyboard_pre_init_user
                0x0000000000002a24        0x2 .build/obj_sofle_rev1_LohseBoi/quantum/keyboard.o
                0x0000000000002a24                keyboard_pre_init_user
 .text.matrix_setup
                0x0000000000002a26        0x2 .build/obj_sofle_rev1_LohseBoi/quantum/keyboard.o
                0x0000000000002a26                matrix_setup
 .text.keyboard_pre_init_kb
                0x0000000000002a28        0x4 .build/obj_sofle_rev1_LohseBoi/quantum/keyboard.o
                0x0000000000002a28                keyboard_pre_init_kb
 .text.keyboard_post_init_user
                0x0000000000002a2c        0x2 .build/obj_sofle_rev1_LohseBoi/quantum/keyboard.o
                0x0000000000002a2c                keyboard_post_init_user
 .text.keyboard_post_init_kb
                0x0000000000002a2e        0x4 .build/obj_sofle_rev1_LohseBoi/quantum/keyboard.o
                0x0000000000002a2e                keyboard_post_init_kb
 .text.keyboard_setup
                0x0000000000002a32       0x14 .build/obj_sofle_rev1_LohseBoi/quantum/keyboard.o
                0x0000000000002a32                keyboard_setup
 .text.should_process_keypress
                0x0000000000002a46        0x4 .build/obj_sofle_rev1_LohseBoi/quantum/keyboard.o
                0x0000000000002a46                should_process_keypress
 .text.housekeeping_task_kb
                0x0000000000002a4a        0x2 .build/obj_sofle_rev1_LohseBoi/quantum/keyboard.o
                0x0000000000002a4a                housekeeping_task_kb
 .text.housekeeping_task_user
                0x0000000000002a4c        0x2 .build/obj_sofle_rev1_LohseBoi/quantum/keyboard.o
                0x0000000000002a4c                housekeeping_task_user
 .text.housekeeping_task
                0x0000000000002a4e        0x8 .build/obj_sofle_rev1_LohseBoi/quantum/keyboard.o
                0x0000000000002a4e                housekeeping_task
 .text.keyboard_init
                0x0000000000002a56       0x1e .build/obj_sofle_rev1_LohseBoi/quantum/keyboard.o
                0x0000000000002a56                keyboard_init
 .text.keyboard_task
                0x0000000000002a74      0x15e .build/obj_sofle_rev1_LohseBoi/quantum/keyboard.o
                0x0000000000002a74                keyboard_task
 .text.action_for_keycode
                0x0000000000002bd2      0x1e4 .build/obj_sofle_rev1_LohseBoi/quantum/keymap_common.o
                0x0000000000002bd2                action_for_keycode
 .text.keymap_key_to_keycode
                0x0000000000002db6       0x28 .build/obj_sofle_rev1_LohseBoi/quantum/keymap_common.o
                0x0000000000002db6                keymap_key_to_keycode
 .text.action_for_key
                0x0000000000002dde        0x8 .build/obj_sofle_rev1_LohseBoi/quantum/keymap_common.o
                0x0000000000002dde                action_for_key
 .text.keycode_config
                0x0000000000002de6      0x12e .build/obj_sofle_rev1_LohseBoi/quantum/keycode_config.o
                0x0000000000002de6                keycode_config
 .text.mod_config
                0x0000000000002f14       0x86 .build/obj_sofle_rev1_LohseBoi/quantum/keycode_config.o
                0x0000000000002f14                mod_config
 .text.sendchar
                0x0000000000002f9a        0x4 .build/obj_sofle_rev1_LohseBoi/quantum/logging/sendchar.o
                0x0000000000002f9a                sendchar
 .text.bootmagic
                0x0000000000002f9e        0x2 .build/obj_sofle_rev1_LohseBoi/quantum/bootmagic/magic.o
                0x0000000000002f9e                bootmagic
 .text.magic    0x0000000000002fa0       0x48 .build/obj_sofle_rev1_LohseBoi/quantum/bootmagic/magic.o
                0x0000000000002fa0                magic
 .text.matrix_init_user
                0x0000000000002fe8        0x2 .build/obj_sofle_rev1_LohseBoi/quantum/matrix_common.o
                0x0000000000002fe8                matrix_init_user
 .text.matrix_init_kb
                0x0000000000002fea        0x4 .build/obj_sofle_rev1_LohseBoi/quantum/matrix_common.o
                0x0000000000002fea                matrix_init_kb
 .text.matrix_scan_kb
                0x0000000000002fee        0x4 .build/obj_sofle_rev1_LohseBoi/quantum/matrix_common.o
                0x0000000000002fee                matrix_scan_kb
 .text.matrix_get_row
                0x0000000000002ff2        0xc .build/obj_sofle_rev1_LohseBoi/quantum/matrix_common.o
                0x0000000000002ff2                matrix_get_row
 .text.matrix_print
                0x0000000000002ffe        0x2 .build/obj_sofle_rev1_LohseBoi/quantum/matrix_common.o
                0x0000000000002ffe                matrix_print
 .text.matrix_io_delay
                0x0000000000003000        0x8 .build/obj_sofle_rev1_LohseBoi/quantum/matrix_common.o
                0x0000000000003000                matrix_io_delay
 .text.matrix_output_select_delay
                0x0000000000003008        0x4 .build/obj_sofle_rev1_LohseBoi/quantum/matrix_common.o
                0x0000000000003008                matrix_output_select_delay
 .text.matrix_output_unselect_delay
                0x000000000000300c        0x4 .build/obj_sofle_rev1_LohseBoi/quantum/matrix_common.o
                0x000000000000300c                matrix_output_unselect_delay
 .text.setPinInputHigh_atomic
                0x0000000000003010       0x2e .build/obj_sofle_rev1_LohseBoi/quantum/matrix.o
 .text.matrix_slave_scan_user
                0x000000000000303e        0x2 .build/obj_sofle_rev1_LohseBoi/quantum/matrix.o
                0x000000000000303e                matrix_slave_scan_user
 .text.matrix_slave_scan_kb
                0x0000000000003040        0x4 .build/obj_sofle_rev1_LohseBoi/quantum/matrix.o
                0x0000000000003040                matrix_slave_scan_kb
 .text.matrix_init_pins
                0x0000000000003044       0x40 .build/obj_sofle_rev1_LohseBoi/quantum/matrix.o
                0x0000000000003044                matrix_init_pins
 .text.matrix_read_cols_on_row
                0x0000000000003084       0xd6 .build/obj_sofle_rev1_LohseBoi/quantum/matrix.o
                0x0000000000003084                matrix_read_cols_on_row
 .text.matrix_init
                0x000000000000315a       0x44 .build/obj_sofle_rev1_LohseBoi/quantum/matrix.o
                0x000000000000315a                matrix_init
 .text.matrix_post_scan
                0x000000000000319e       0xc2 .build/obj_sofle_rev1_LohseBoi/quantum/matrix.o
                0x000000000000319e                matrix_post_scan
 .text.matrix_scan
                0x0000000000003260       0xa6 .build/obj_sofle_rev1_LohseBoi/quantum/matrix.o
                0x0000000000003260                matrix_scan
 .text.debounce_init
                0x0000000000003306        0x2 .build/obj_sofle_rev1_LohseBoi/quantum/debounce/sym_defer_g.o
                0x0000000000003306                debounce_init
 .text.debounce
                0x0000000000003308       0x6c .build/obj_sofle_rev1_LohseBoi/quantum/debounce/sym_defer_g.o
                0x0000000000003308                debounce
 .text.is_keyboard_master
                0x0000000000003374       0x30 .build/obj_sofle_rev1_LohseBoi/quantum/split_common/split_util.o
                0x0000000000003374                is_keyboard_master
 .text.is_keyboard_left
                0x00000000000033a4        0x4 .build/obj_sofle_rev1_LohseBoi/quantum/split_common/split_util.o
                0x00000000000033a4                is_keyboard_left
 .text.split_pre_init
                0x00000000000033a8       0x14 .build/obj_sofle_rev1_LohseBoi/quantum/split_common/split_util.o
                0x00000000000033a8                split_pre_init
 .text.split_post_init
                0x00000000000033bc        0xe .build/obj_sofle_rev1_LohseBoi/quantum/split_common/split_util.o
                0x00000000000033bc                split_post_init
 .text.is_transport_connected
                0x00000000000033ca        0xe .build/obj_sofle_rev1_LohseBoi/quantum/split_common/split_util.o
                0x00000000000033ca                is_transport_connected
 .text.transport_master_if_connected
                0x00000000000033d8       0x6c .build/obj_sofle_rev1_LohseBoi/quantum/split_common/split_util.o
                0x00000000000033d8                transport_master_if_connected
 .text.transport_master_init
                0x0000000000003444        0x4 .build/obj_sofle_rev1_LohseBoi/quantum/split_common/transport.o
                0x0000000000003444                transport_master_init
 .text.transport_slave_init
                0x0000000000003448        0x4 .build/obj_sofle_rev1_LohseBoi/quantum/split_common/transport.o
                0x0000000000003448                transport_slave_init
 .text.transport_execute_transaction
                0x000000000000344c       0xa2 .build/obj_sofle_rev1_LohseBoi/quantum/split_common/transport.o
                0x000000000000344c                transport_execute_transaction
 .text.transport_master
                0x00000000000034ee        0x4 .build/obj_sofle_rev1_LohseBoi/quantum/split_common/transport.o
                0x00000000000034ee                transport_master
 .text.transport_slave
                0x00000000000034f2        0x4 .build/obj_sofle_rev1_LohseBoi/quantum/split_common/transport.o
                0x00000000000034f2                transport_slave
 .text.sync_timer_handlers_master
                0x00000000000034f6       0x8a .build/obj_sofle_rev1_LohseBoi/quantum/split_common/transactions.o
 .text.read_if_checksum_mismatch
                0x0000000000003580       0xce .build/obj_sofle_rev1_LohseBoi/quantum/split_common/transactions.o
 .text.encoder_handlers_master
                0x000000000000364e       0x56 .build/obj_sofle_rev1_LohseBoi/quantum/split_common/transactions.o
 .text.slave_matrix_handlers_master
                0x00000000000036a4       0x82 .build/obj_sofle_rev1_LohseBoi/quantum/split_common/transactions.o
 .text.transaction_handler_master.isra.3
                0x0000000000003726       0x7e .build/obj_sofle_rev1_LohseBoi/quantum/split_common/transactions.o
 .text.transactions_master
                0x00000000000037a4       0x48 .build/obj_sofle_rev1_LohseBoi/quantum/split_common/transactions.o
                0x00000000000037a4                transactions_master
 .text.transactions_slave
                0x00000000000037ec       0xa0 .build/obj_sofle_rev1_LohseBoi/quantum/split_common/transactions.o
                0x00000000000037ec                transactions_slave
 .text.startup.main
                0x000000000000388c       0x16 .build/obj_sofle_rev1_LohseBoi/quantum/main.o
                0x000000000000388c                main
 .text.get_current_wpm
                0x00000000000038a2        0x6 .build/obj_sofle_rev1_LohseBoi/quantum/wpm.o
                0x00000000000038a2                get_current_wpm
 .text.wpm_keycode_user
                0x00000000000038a8       0x4e .build/obj_sofle_rev1_LohseBoi/quantum/wpm.o
                0x00000000000038a8                wpm_keycode_user
 .text.wpm_keycode_kb
                0x00000000000038f6        0x4 .build/obj_sofle_rev1_LohseBoi/quantum/wpm.o
                0x00000000000038f6                wpm_keycode_kb
 .text.update_wpm
                0x00000000000038fa       0xb4 .build/obj_sofle_rev1_LohseBoi/quantum/wpm.o
                0x00000000000038fa                update_wpm
 .text.decay_wpm
                0x00000000000039ae       0x84 .build/obj_sofle_rev1_LohseBoi/quantum/wpm.o
                0x00000000000039ae                decay_wpm
 .text.encoder_update_kb
                0x0000000000003a32        0x4 .build/obj_sofle_rev1_LohseBoi/quantum/encoder.o
                0x0000000000003a32                encoder_update_kb
 .text.encoder_init
                0x0000000000003a36       0xba .build/obj_sofle_rev1_LohseBoi/quantum/encoder.o
                0x0000000000003a36                encoder_init
 .text.encoder_read
                0x0000000000003af0       0xd2 .build/obj_sofle_rev1_LohseBoi/quantum/encoder.o
                0x0000000000003af0                encoder_read
 .text.encoder_state_raw
                0x0000000000003bc2       0x12 .build/obj_sofle_rev1_LohseBoi/quantum/encoder.o
                0x0000000000003bc2                encoder_state_raw
 .text.encoder_update_raw
                0x0000000000003bd4       0x7e .build/obj_sofle_rev1_LohseBoi/quantum/encoder.o
                0x0000000000003bd4                encoder_update_raw
 .text.crc_init
                0x0000000000003c52        0x2 .build/obj_sofle_rev1_LohseBoi/crc.o
                0x0000000000003c52                crc_init
 .text.crc8     0x0000000000003c54       0x2e .build/obj_sofle_rev1_LohseBoi/crc.o
                0x0000000000003c54                crc8
 .text.i2c_transmit_P.constprop.2
                0x0000000000003c82       0x60 .build/obj_sofle_rev1_LohseBoi/ssd1306_sh1106.o
 .text.oled_clear
                0x0000000000003ce2       0x2a .build/obj_sofle_rev1_LohseBoi/ssd1306_sh1106.o
                0x0000000000003ce2                oled_clear
 .text.oled_init
                0x0000000000003d0c       0x8c .build/obj_sofle_rev1_LohseBoi/ssd1306_sh1106.o
                0x0000000000003d0c                oled_init
 .text.oled_set_cursor
                0x0000000000003d98       0x2e .build/obj_sofle_rev1_LohseBoi/ssd1306_sh1106.o
                0x0000000000003d98                oled_set_cursor
 .text.oled_advance_char
                0x0000000000003dc6       0x3e .build/obj_sofle_rev1_LohseBoi/ssd1306_sh1106.o
                0x0000000000003dc6                oled_advance_char
 .text.oled_write_char
                0x0000000000003e04       0xf4 .build/obj_sofle_rev1_LohseBoi/ssd1306_sh1106.o
                0x0000000000003e04                oled_write_char
 .text.oled_advance_page
                0x0000000000003ef8       0x66 .build/obj_sofle_rev1_LohseBoi/ssd1306_sh1106.o
                0x0000000000003ef8                oled_advance_page
 .text.oled_write
                0x0000000000003f5e       0x38 .build/obj_sofle_rev1_LohseBoi/ssd1306_sh1106.o
                0x0000000000003f5e                oled_write
 .text.oled_write_ln
                0x0000000000003f96        0xa .build/obj_sofle_rev1_LohseBoi/ssd1306_sh1106.o
                0x0000000000003f96                oled_write_ln
 .text.oled_write_P
                0x0000000000003fa0       0x24 .build/obj_sofle_rev1_LohseBoi/ssd1306_sh1106.o
                0x0000000000003fa0                oled_write_P
 .text.oled_write_ln_P
                0x0000000000003fc4        0xa .build/obj_sofle_rev1_LohseBoi/ssd1306_sh1106.o
                0x0000000000003fc4                oled_write_ln_P
 .text.oled_on  0x0000000000003fce       0x4a .build/obj_sofle_rev1_LohseBoi/ssd1306_sh1106.o
                0x0000000000003fce                oled_on
 .text.oled_render
                0x0000000000004018      0x1ee .build/obj_sofle_rev1_LohseBoi/ssd1306_sh1106.o
                0x0000000000004018                oled_render
 .text.oled_off
                0x0000000000004206       0x36 .build/obj_sofle_rev1_LohseBoi/ssd1306_sh1106.o
                0x0000000000004206                oled_off
 .text.is_oled_on
                0x000000000000423c        0x6 .build/obj_sofle_rev1_LohseBoi/ssd1306_sh1106.o
                0x000000000000423c                is_oled_on
 .text.oled_task
                0x0000000000004242       0x74 .build/obj_sofle_rev1_LohseBoi/ssd1306_sh1106.o
                0x0000000000004242                oled_task
 .text.perform_space_cadet
                0x00000000000042b6       0xd8 .build/obj_sofle_rev1_LohseBoi/quantum/process_keycode/process_space_cadet.o
                0x00000000000042b6                perform_space_cadet
 .text.process_space_cadet
                0x000000000000438e       0xa4 .build/obj_sofle_rev1_LohseBoi/quantum/process_keycode/process_space_cadet.o
                0x000000000000438e                process_space_cadet
 .text.process_magic
                0x0000000000004432      0x254 .build/obj_sofle_rev1_LohseBoi/quantum/process_keycode/process_magic.o
                0x0000000000004432                process_magic
 .text.process_grave_esc
                0x0000000000004686       0x54 .build/obj_sofle_rev1_LohseBoi/quantum/process_keycode/process_grave_esc.o
                0x0000000000004686                process_grave_esc
 .text.i2c_init
                0x00000000000046da        0xc .build/obj_sofle_rev1_LohseBoi/i2c_master.a(i2c_master.o)
                0x00000000000046da                i2c_init
 .text.i2c_start
                0x00000000000046e6       0xf4 .build/obj_sofle_rev1_LohseBoi/i2c_master.a(i2c_master.o)
                0x00000000000046e6                i2c_start
 .text.i2c_write
                0x00000000000047da       0x5e .build/obj_sofle_rev1_LohseBoi/i2c_master.a(i2c_master.o)
                0x00000000000047da                i2c_write
 .text.i2c_transmit
                0x0000000000004838       0x4e .build/obj_sofle_rev1_LohseBoi/i2c_master.a(i2c_master.o)
                0x0000000000004838                i2c_transmit
 .text.i2c_writeReg
                0x0000000000004886       0x5a .build/obj_sofle_rev1_LohseBoi/i2c_master.a(i2c_master.o)
                0x0000000000004886                i2c_writeReg
 .text.i2c_stop
                0x00000000000048e0        0x8 .build/obj_sofle_rev1_LohseBoi/i2c_master.a(i2c_master.o)
                0x00000000000048e0                i2c_stop
 .text.sync_recv
                0x00000000000048e8       0x10 .build/obj_sofle_rev1_LohseBoi/serial.a(serial.o)
 .text.sync_send
                0x00000000000048f8        0xc .build/obj_sofle_rev1_LohseBoi/serial.a(serial.o)
 .text.serial_read_chunk.constprop.0
                0x0000000000004904       0x58 .build/obj_sofle_rev1_LohseBoi/serial.a(serial.o)
 .text.serial_recive_packet
                0x000000000000495c       0x4e .build/obj_sofle_rev1_LohseBoi/serial.a(serial.o)
 .text.soft_serial_initiator_init
                0x00000000000049aa        0x6 .build/obj_sofle_rev1_LohseBoi/serial.a(serial.o)
                0x00000000000049aa                soft_serial_initiator_init
 .text.soft_serial_target_init
                0x00000000000049b0       0x12 .build/obj_sofle_rev1_LohseBoi/serial.a(serial.o)
                0x00000000000049b0                soft_serial_target_init
 .text.serial_write_chunk
                0x00000000000049c2       0x42 .build/obj_sofle_rev1_LohseBoi/serial.a(serial.o)
                0x00000000000049c2                serial_write_chunk
 .text.serial_send_packet
                0x0000000000004a04       0x34 .build/obj_sofle_rev1_LohseBoi/serial.a(serial.o)
 .text.__vector_3
                0x0000000000004a38      0x18c .build/obj_sofle_rev1_LohseBoi/serial.a(serial.o)
                0x0000000000004a38                __vector_3
 .text.soft_serial_transaction
                0x0000000000004bc4      0x168 .build/obj_sofle_rev1_LohseBoi/serial.a(serial.o)
                0x0000000000004bc4                soft_serial_transaction
 .text.host_set_driver
                0x0000000000004d2c        0xa .build/obj_sofle_rev1_LohseBoi/common/host.o
                0x0000000000004d2c                host_set_driver
 .text.host_keyboard_leds
                0x0000000000004d36       0x26 .build/obj_sofle_rev1_LohseBoi/common/host.o
                0x0000000000004d36                host_keyboard_leds
 .text.host_keyboard_led_state
                0x0000000000004d5c        0x6 .build/obj_sofle_rev1_LohseBoi/common/host.o
                0x0000000000004d5c                host_keyboard_led_state
 .text.host_keyboard_send
                0x0000000000004d62       0x16 .build/obj_sofle_rev1_LohseBoi/common/host.o
                0x0000000000004d62                host_keyboard_send
 .text.host_system_send
                0x0000000000004d78       0x2c .build/obj_sofle_rev1_LohseBoi/common/host.o
                0x0000000000004d78                host_system_send
 .text.host_consumer_send
                0x0000000000004da4       0x2c .build/obj_sofle_rev1_LohseBoi/common/host.o
                0x0000000000004da4                host_consumer_send
 .text.has_anykey
                0x0000000000004dd0       0x24 .build/obj_sofle_rev1_LohseBoi/common/report.o
                0x0000000000004dd0                has_anykey
 .text.is_key_pressed
                0x0000000000004df4       0x1e .build/obj_sofle_rev1_LohseBoi/common/report.o
                0x0000000000004df4                is_key_pressed
 .text.add_key_byte
                0x0000000000004e12       0x34 .build/obj_sofle_rev1_LohseBoi/common/report.o
                0x0000000000004e12                add_key_byte
 .text.del_key_byte
                0x0000000000004e46       0x1a .build/obj_sofle_rev1_LohseBoi/common/report.o
                0x0000000000004e46                del_key_byte
 .text.add_key_to_report
                0x0000000000004e60        0x4 .build/obj_sofle_rev1_LohseBoi/common/report.o
                0x0000000000004e60                add_key_to_report
 .text.del_key_from_report
                0x0000000000004e64        0x4 .build/obj_sofle_rev1_LohseBoi/common/report.o
                0x0000000000004e64                del_key_from_report
 .text.clear_keys_from_report
                0x0000000000004e68        0xe .build/obj_sofle_rev1_LohseBoi/common/report.o
                0x0000000000004e68                clear_keys_from_report
 .text.sync_timer_init
                0x0000000000004e76       0x12 .build/obj_sofle_rev1_LohseBoi/common/sync_timer.o
                0x0000000000004e76                sync_timer_init
 .text.sync_timer_update
                0x0000000000004e88       0x3a .build/obj_sofle_rev1_LohseBoi/common/sync_timer.o
                0x0000000000004e88                sync_timer_update
 .text.sync_timer_read32
                0x0000000000004ec2       0x36 .build/obj_sofle_rev1_LohseBoi/common/sync_timer.o
                0x0000000000004ec2                sync_timer_read32
 .text.platform_setup
                0x0000000000004ef8        0x2 .build/obj_sofle_rev1_LohseBoi/common/avr/platform.o
                0x0000000000004ef8                platform_setup
 .text.matrix_power_up
                0x0000000000004efa        0x2 .build/obj_sofle_rev1_LohseBoi/common/avr/suspend.o
                0x0000000000004efa                matrix_power_up
 .text.suspend_power_down_user
                0x0000000000004efc        0x2 .build/obj_sofle_rev1_LohseBoi/common/avr/suspend.o
                0x0000000000004efc                suspend_power_down_user
 .text.suspend_power_down_kb
                0x0000000000004efe        0x4 .build/obj_sofle_rev1_LohseBoi/common/avr/suspend.o
                0x0000000000004efe                suspend_power_down_kb
 .text.suspend_power_down
                0x0000000000004f02       0x5c .build/obj_sofle_rev1_LohseBoi/common/avr/suspend.o
                0x0000000000004f02                suspend_power_down
 .text.matrix_power_down
                0x0000000000004f5e        0x2 .build/obj_sofle_rev1_LohseBoi/common/avr/suspend.o
                0x0000000000004f5e                matrix_power_down
 .text.suspend_wakeup_condition
                0x0000000000004f60       0x28 .build/obj_sofle_rev1_LohseBoi/common/avr/suspend.o
                0x0000000000004f60                suspend_wakeup_condition
 .text.suspend_wakeup_init_user
                0x0000000000004f88        0x2 .build/obj_sofle_rev1_LohseBoi/common/avr/suspend.o
                0x0000000000004f88                suspend_wakeup_init_user
 .text.suspend_wakeup_init_kb
                0x0000000000004f8a        0x4 .build/obj_sofle_rev1_LohseBoi/common/avr/suspend.o
                0x0000000000004f8a                suspend_wakeup_init_kb
 .text.suspend_wakeup_init
                0x0000000000004f8e       0x10 .build/obj_sofle_rev1_LohseBoi/common/avr/suspend.o
                0x0000000000004f8e                suspend_wakeup_init
 .text.__vector_12
                0x0000000000004f9e       0x4e .build/obj_sofle_rev1_LohseBoi/common/avr/suspend.o
                0x0000000000004f9e                __vector_12
 .text.timer_init
                0x0000000000004fec       0x12 .build/obj_sofle_rev1_LohseBoi/common/avr/timer.o
                0x0000000000004fec                timer_init
 .text.timer_read
                0x0000000000004ffe       0x18 .build/obj_sofle_rev1_LohseBoi/common/avr/timer.o
                0x0000000000004ffe                timer_read
 .text.timer_read32
                0x0000000000005016       0x18 .build/obj_sofle_rev1_LohseBoi/common/avr/timer.o
                0x0000000000005016                timer_read32
 .text.timer_elapsed
                0x000000000000502e       0x1e .build/obj_sofle_rev1_LohseBoi/common/avr/timer.o
                0x000000000000502e                timer_elapsed
 .text.timer_elapsed32
                0x000000000000504c       0x38 .build/obj_sofle_rev1_LohseBoi/common/avr/timer.o
                0x000000000000504c                timer_elapsed32
 .text.__vector_21
                0x0000000000005084       0x48 .build/obj_sofle_rev1_LohseBoi/common/avr/timer.o
                0x0000000000005084                __vector_21
 .text.bootloader_jump
                0x00000000000050cc       0x22 .build/obj_sofle_rev1_LohseBoi/common/avr/bootloader.o
                0x00000000000050cc                bootloader_jump
 .text.print_set_sendchar
                0x00000000000050ee        0xa .build/obj_sofle_rev1_LohseBoi/common/avr/printf.o
                0x00000000000050ee                print_set_sendchar
 .text.keyboard_leds
                0x00000000000050f8        0x6 .build/obj_sofle_rev1_LohseBoi/lufa.o
 .text.send_extra
                0x00000000000050fe       0x56 .build/obj_sofle_rev1_LohseBoi/lufa.o
 .text.send_consumer
                0x0000000000005154        0x8 .build/obj_sofle_rev1_LohseBoi/lufa.o
 .text.send_system
                0x000000000000515c        0x8 .build/obj_sofle_rev1_LohseBoi/lufa.o
 .text.send_keyboard
                0x0000000000005164       0x5a .build/obj_sofle_rev1_LohseBoi/lufa.o
 .text.send_mouse
                0x00000000000051be        0x2 .build/obj_sofle_rev1_LohseBoi/lufa.o
 .text.EVENT_USB_Device_Connect
                0x00000000000051c0       0x1c .build/obj_sofle_rev1_LohseBoi/lufa.o
                0x00000000000051c0                EVENT_USB_Device_Connect
 .text.EVENT_USB_Device_Disconnect
                0x00000000000051dc        0x6 .build/obj_sofle_rev1_LohseBoi/lufa.o
                0x00000000000051dc                EVENT_USB_Device_Disconnect
 .text.EVENT_USB_Device_Reset
                0x00000000000051e2        0x2 .build/obj_sofle_rev1_LohseBoi/lufa.o
                0x00000000000051e2                EVENT_USB_Device_Reset
 .text.EVENT_USB_Device_Suspend
                0x00000000000051e4        0x2 .build/obj_sofle_rev1_LohseBoi/lufa.o
                0x00000000000051e4                EVENT_USB_Device_Suspend
 .text.EVENT_USB_Device_WakeUp
                0x00000000000051e6        0x2 .build/obj_sofle_rev1_LohseBoi/lufa.o
                0x00000000000051e6                EVENT_USB_Device_WakeUp
 .text.EVENT_USB_Device_ConfigurationChanged
                0x00000000000051e8       0x14 .build/obj_sofle_rev1_LohseBoi/lufa.o
                0x00000000000051e8                EVENT_USB_Device_ConfigurationChanged
 .text.EVENT_USB_Device_ControlRequest
                0x00000000000051fc      0x16e .build/obj_sofle_rev1_LohseBoi/lufa.o
                0x00000000000051fc                EVENT_USB_Device_ControlRequest
 .text.protocol_setup
                0x000000000000536a       0x32 .build/obj_sofle_rev1_LohseBoi/lufa.o
                0x000000000000536a                protocol_setup
 .text.protocol_init
                0x000000000000539c       0x24 .build/obj_sofle_rev1_LohseBoi/lufa.o
                0x000000000000539c                protocol_init
 .text.protocol_task
                0x00000000000053c0       0x36 .build/obj_sofle_rev1_LohseBoi/lufa.o
                0x00000000000053c0                protocol_task
 .text.CALLBACK_USB_GetDescriptor
                0x00000000000053f6        0x4 .build/obj_sofle_rev1_LohseBoi/lufa.o
                0x00000000000053f6                CALLBACK_USB_GetDescriptor
 .text.get_usb_descriptor
                0x00000000000053fa       0xb0 .build/obj_sofle_rev1_LohseBoi/usb_descriptor.o
                0x00000000000053fa                get_usb_descriptor
 .text.USB_Device_SendRemoteWakeup
                0x00000000000054aa       0x2c .build/obj_sofle_rev1_LohseBoi/lib/lufa/LUFA/Drivers/USB/Core/AVR8/Device_AVR8.o
                0x00000000000054aa                USB_Device_SendRemoteWakeup
 .text.Endpoint_Write_Stream_LE
                0x00000000000054d6       0x9e .build/obj_sofle_rev1_LohseBoi/lib/lufa/LUFA/Drivers/USB/Core/AVR8/EndpointStream_AVR8.o
                0x00000000000054d6                Endpoint_Write_Stream_LE
 .text.Endpoint_Write_Control_Stream_LE
                0x0000000000005574       0xbc .build/obj_sofle_rev1_LohseBoi/lib/lufa/LUFA/Drivers/USB/Core/AVR8/EndpointStream_AVR8.o
                0x0000000000005574                Endpoint_Write_Control_Stream_LE
 .text.Endpoint_Write_Control_PStream_LE
                0x0000000000005630       0xbe .build/obj_sofle_rev1_LohseBoi/lib/lufa/LUFA/Drivers/USB/Core/AVR8/EndpointStream_AVR8.o
                0x0000000000005630                Endpoint_Write_Control_PStream_LE
 .text.Endpoint_ConfigureEndpoint_Prv
                0x00000000000056ee       0x68 .build/obj_sofle_rev1_LohseBoi/lib/lufa/LUFA/Drivers/USB/Core/AVR8/Endpoint_AVR8.o
                0x00000000000056ee                Endpoint_ConfigureEndpoint_Prv
 .text.Endpoint_ClearStatusStage
                0x0000000000005756       0x3e .build/obj_sofle_rev1_LohseBoi/lib/lufa/LUFA/Drivers/USB/Core/AVR8/Endpoint_AVR8.o
                0x0000000000005756                Endpoint_ClearStatusStage
 .text.Endpoint_WaitUntilReady
                0x0000000000005794       0x62 .build/obj_sofle_rev1_LohseBoi/lib/lufa/LUFA/Drivers/USB/Core/AVR8/Endpoint_AVR8.o
                0x0000000000005794                Endpoint_WaitUntilReady
 .text.USB_Disable
                0x00000000000057f6       0x34 .build/obj_sofle_rev1_LohseBoi/lib/lufa/LUFA/Drivers/USB/Core/AVR8/USBController_AVR8.o
                0x00000000000057f6                USB_Disable
 .text.USB_ResetInterface
                0x000000000000582a       0x86 .build/obj_sofle_rev1_LohseBoi/lib/lufa/LUFA/Drivers/USB/Core/AVR8/USBController_AVR8.o
                0x000000000000582a                USB_ResetInterface
 .text.USB_Init
                0x00000000000058b0       0x22 .build/obj_sofle_rev1_LohseBoi/lib/lufa/LUFA/Drivers/USB/Core/AVR8/USBController_AVR8.o
                0x00000000000058b0                USB_Init
 .text.USB_INT_DisableAllInterrupts
                0x00000000000058d2       0x10 .build/obj_sofle_rev1_LohseBoi/lib/lufa/LUFA/Drivers/USB/Core/AVR8/USBInterrupt_AVR8.o
                0x00000000000058d2                USB_INT_DisableAllInterrupts
 .text.USB_INT_ClearAllInterrupts
                0x00000000000058e2        0xa .build/obj_sofle_rev1_LohseBoi/lib/lufa/LUFA/Drivers/USB/Core/AVR8/USBInterrupt_AVR8.o
                0x00000000000058e2                USB_INT_ClearAllInterrupts
 .text.__vector_10
                0x00000000000058ec      0x1a8 .build/obj_sofle_rev1_LohseBoi/lib/lufa/LUFA/Drivers/USB/Core/AVR8/USBInterrupt_AVR8.o
                0x00000000000058ec                __vector_10
 .text.__vector_11
                0x0000000000005a94       0x88 .build/obj_sofle_rev1_LohseBoi/lib/lufa/LUFA/Drivers/USB/Core/AVR8/USBInterrupt_AVR8.o
                0x0000000000005a94                __vector_11
 .text.USB_Device_ProcessControlRequest
                0x0000000000005b1c      0x2a4 .build/obj_sofle_rev1_LohseBoi/lib/lufa/LUFA/Drivers/USB/Core/DeviceStandardReq.o
                0x0000000000005b1c                USB_Device_ProcessControlRequest
 .text.USB_Event_Stub
                0x0000000000005dc0        0x2 .build/obj_sofle_rev1_LohseBoi/lib/lufa/LUFA/Drivers/USB/Core/Events.o
                0x0000000000005dc0                USB_Event_Stub
                0x0000000000005dc0                EVENT_USB_Device_StartOfFrame
 .text.USB_USBTask
                0x0000000000005dc2       0x36 .build/obj_sofle_rev1_LohseBoi/lib/lufa/LUFA/Drivers/USB/Core/USBTask.o
                0x0000000000005dc2                USB_USBTask
 .text.usb_disconnect
                0x0000000000005df8        0xa .build/obj_sofle_rev1_LohseBoi/protocol/lufa/usb_util.o
                0x0000000000005df8                usb_disconnect
 .text.usb_vbus_state
                0x0000000000005e02       0x1a .build/obj_sofle_rev1_LohseBoi/protocol/lufa/usb_util.o
                0x0000000000005e02                usb_vbus_state
 .text.avr-libc.fplib
                0x0000000000005e1c        0xe /usr/lib/gcc/avr/8.3.0/../../../../avr/lib/avr5/libm.a(addsf3.o)
                0x0000000000005e1c                __subsf3
                0x0000000000005e1e                __addsf3
 .text.avr-libc.fplib
                0x0000000000005e2a       0xcc /usr/lib/gcc/avr/8.3.0/../../../../avr/lib/avr5/libm.a(addsf3x.o)
                0x0000000000005e4c                __addsf3x
 .text.avr-libc.fplib
                0x0000000000005ef6       0x2e /usr/lib/gcc/avr/8.3.0/../../../../avr/lib/avr5/libm.a(ceil.o)
                0x0000000000005ef6                ceil
 .text.avr-libc.fplib
                0x0000000000005f24       0x5e /usr/lib/gcc/avr/8.3.0/../../../../avr/lib/avr5/libm.a(fixunssfsi.o)
                0x0000000000005f24                __fixunssfsi
 .text.avr-libc.fplib
                0x0000000000005f82       0x7a /usr/lib/gcc/avr/8.3.0/../../../../avr/lib/avr5/libm.a(floatsisf.o)
                0x0000000000005f82                __floatunsisf
                0x0000000000005f86                __floatsisf
 .text.avr-libc.fplib
                0x0000000000005ffc        0xc /usr/lib/gcc/avr/8.3.0/../../../../avr/lib/avr5/libm.a(fp_inf.o)
                0x0000000000005ffc                __fp_inf
 .text.avr-libc.fplib
                0x0000000000006008       0x36 /usr/lib/gcc/avr/8.3.0/../../../../avr/lib/avr5/libm.a(fp_mintl.o)
                0x0000000000006008                __fp_mintl
 .text.avr-libc.fplib
                0x000000000000603e       0x1c /usr/lib/gcc/avr/8.3.0/../../../../avr/lib/avr5/libm.a(fp_mpack.o)
                0x000000000000603e                __fp_mpack
                0x0000000000006042                __fp_mpack_finite
 .text.avr-libc.fplib
                0x000000000000605a        0x6 /usr/lib/gcc/avr/8.3.0/../../../../avr/lib/avr5/libm.a(fp_nan.o)
                0x000000000000605a                __fp_nan
 .text.avr-libc.fplib
                0x0000000000006060        0xe /usr/lib/gcc/avr/8.3.0/../../../../avr/lib/avr5/libm.a(fp_pscA.o)
                0x0000000000006060                __fp_pscA
 .text.avr-libc.fplib
                0x000000000000606e        0xe /usr/lib/gcc/avr/8.3.0/../../../../avr/lib/avr5/libm.a(fp_pscB.o)
                0x000000000000606e                __fp_pscB
 .text.avr-libc.fplib
                0x000000000000607c       0x22 /usr/lib/gcc/avr/8.3.0/../../../../avr/lib/avr5/libm.a(fp_round.o)
                0x000000000000607c                __fp_round
 .text.avr-libc.fplib
                0x000000000000609e       0x44 /usr/lib/gcc/avr/8.3.0/../../../../avr/lib/avr5/libm.a(fp_split3.o)
                0x000000000000609e                __fp_split3
                0x00000000000060ae                __fp_splitA
 .text.avr-libc.fplib
                0x00000000000060e2       0x30 /usr/lib/gcc/avr/8.3.0/../../../../avr/lib/avr5/libm.a(fp_trunc.o)
                0x00000000000060e2                __fp_trunc
 .text.avr-libc.fplib
                0x0000000000006112        0xe /usr/lib/gcc/avr/8.3.0/../../../../avr/lib/avr5/libm.a(fp_zero.o)
                0x0000000000006112                __fp_zero
                0x0000000000006114                __fp_szero
 .text.avr-libc.fplib
                0x0000000000006120        0x8 /usr/lib/gcc/avr/8.3.0/../../../../avr/lib/avr5/libm.a(mulsf3.o)
                0x0000000000006120                __mulsf3
 .text.avr-libc.fplib
                0x0000000000006128       0xd2 /usr/lib/gcc/avr/8.3.0/../../../../avr/lib/avr5/libm.a(mulsf3x.o)
                0x0000000000006146                __mulsf3x
                0x000000000000614c                __mulsf3_pse
 .text.libgcc.div
                0x00000000000061fa       0x18 /usr/lib/gcc/avr/8.3.0/avr5/libgcc.a(_udivmodqi4.o)
                0x00000000000061fa                __udivmodqi4
 .text.libgcc.div
                0x0000000000006212       0x28 /usr/lib/gcc/avr/8.3.0/avr5/libgcc.a(_udivmodhi4.o)
                0x0000000000006212                __udivmodhi4
 .text.libgcc.div
                0x000000000000623a       0x28 /usr/lib/gcc/avr/8.3.0/avr5/libgcc.a(_divmodhi4.o)
                0x000000000000623a                __divmodhi4
                0x000000000000623a                _div
 .text.libgcc.div
                0x0000000000006262       0x2e /usr/lib/gcc/avr/8.3.0/avr5/libgcc.a(_divmodsi4.o)
                0x0000000000006262                __divmodsi4
 .text.libgcc.div
                0x0000000000006290       0x10 /usr/lib/gcc/avr/8.3.0/avr5/libgcc.a(_negsi2.o)
                0x0000000000006290                __negsi2
 .text.libgcc   0x00000000000062a0        0xc /usr/lib/gcc/avr/8.3.0/avr5/libgcc.a(_tablejump2.o)
                0x00000000000062a0                __tablejump2__
 .text.libgcc.div
                0x00000000000062ac       0x44 /usr/lib/gcc/avr/8.3.0/avr5/libgcc.a(_udivmodsi4.o)
                0x00000000000062ac                __udivmodsi4
 .text.avr-libc
                0x00000000000062f0       0x12 /usr/lib/gcc/avr/8.3.0/../../../../avr/lib/avr5/libc.a(memcpy_P.o)
                0x00000000000062f0                memcpy_P
 .text.avr-libc
                0x0000000000006302       0x1a /usr/lib/gcc/avr/8.3.0/../../../../avr/lib/avr5/libc.a(memcmp.o)
                0x0000000000006302                memcmp
 .text.avr-libc
                0x000000000000631c       0x12 /usr/lib/gcc/avr/8.3.0/../../../../avr/lib/avr5/libc.a(memcpy.o)
                0x000000000000631c                memcpy
 .text.avr-libc
                0x000000000000632e       0x10 /usr/lib/gcc/avr/8.3.0/../../../../avr/lib/avr5/libatmega32u4.a(eerd_byte.o)
                0x000000000000632e                eeprom_read_byte
 .text.avr-libc
                0x000000000000633e        0xc /usr/lib/gcc/avr/8.3.0/../../../../avr/lib/avr5/libatmega32u4.a(eerd_word.o)
                0x000000000000633e                eeprom_read_word
 .text.avr-libc
                0x000000000000634a       0x24 /usr/lib/gcc/avr/8.3.0/../../../../avr/lib/avr5/libatmega32u4.a(eeupd_byte.o)
                0x000000000000634a                eeprom_update_byte
                0x000000000000634c                eeprom_update_r18
 .text.avr-libc
                0x000000000000636e       0x18 /usr/lib/gcc/avr/8.3.0/../../../../avr/lib/avr5/libatmega32u4.a(eeupd_dword.o)
                0x000000000000636e                eeprom_update_dword
                0x000000000000636e                eeprom_update_float
 .text.avr-libc
                0x0000000000006386        0xc /usr/lib/gcc/avr/8.3.0/../../../../avr/lib/avr5/libatmega32u4.a(eeupd_word.o)
                0x0000000000006386                eeprom_update_word
 .text.avr-libc
                0x0000000000006392       0x20 /usr/lib/gcc/avr/8.3.0/../../../../avr/lib/avr5/libatmega32u4.a(eerd_block.o)
                0x0000000000006392                eeprom_read_block
                0x0000000000006396                eeprom_read_blraw
                0x00000000000063b2                . = ALIGN (0x2)
 *(.fini9)
 .fini9         0x00000000000063b2        0x0 /usr/lib/gcc/avr/8.3.0/avr5/libgcc.a(_exit.o)
                0x00000000000063b2                exit
                0x00000000000063b2                _exit
 *(.fini9)
 *(.fini8)
 *(.fini8)
 *(.fini7)
 *(.fini7)
 *(.fini6)
 *(.fini6)
 *(.fini5)
 *(.fini5)
 *(.fini4)
 *(.fini4)
 *(.fini3)
 *(.fini3)
 *(.fini2)
 *(.fini2)
 *(.fini1)
 *(.fini1)
 *(.fini0)
 .fini0         0x00000000000063b2        0x4 /usr/lib/gcc/avr/8.3.0/avr5/libgcc.a(_exit.o)
 *(.fini0)
 *(.hightext)
 *(.hightext*)
 *(.progmemx.*)
                0x00000000000063b6                . = ALIGN (0x2)
 *(.jumptables)
 *(.jumptables*)
 .jumptables.gcc.process_record_user
                0x00000000000063b6       0x10 .build/obj_sofle_rev1_LohseBoi/keyboards/sofle/keymaps/LohseBoi/keymap.o
 .jumptables.gcc.process_action
                0x00000000000063c6       0x26 .build/obj_sofle_rev1_LohseBoi/quantum/action.o
 .jumptables.gcc.is_tap_action
                0x00000000000063ec       0x1c .build/obj_sofle_rev1_LohseBoi/quantum/action.o
 .jumptables.gcc.USB_Device_ProcessControlRequest
                0x0000000000006408       0x14 .build/obj_sofle_rev1_LohseBoi/lib/lufa/LUFA/Drivers/USB/Core/DeviceStandardReq.o
                0x000000000000641c                _etext = .

.data           0x0000000000800100       0xdc load address 0x000000000000641c
                0x0000000000800100                PROVIDE (__data_start = .)
 *(.data)
 *(.data*)
 .data.keyboard_report
                0x0000000000800100        0x2 .build/obj_sofle_rev1_LohseBoi/quantum/action_util.o
                0x0000000000800100                keyboard_report
 .data.isLeftHand
                0x0000000000800102        0x1 .build/obj_sofle_rev1_LohseBoi/quantum/split_common/split_util.o
                0x0000000000800102                isLeftHand
 .data.split_transaction_table
                0x0000000000800103       0x32 .build/obj_sofle_rev1_LohseBoi/quantum/split_common/transactions.o
                0x0000000000800103                split_transaction_table
 .data.encoders_pad_b
                0x0000000000800135        0x1 .build/obj_sofle_rev1_LohseBoi/quantum/encoder.o
 .data.encoders_pad_a
                0x0000000000800136        0x1 .build/obj_sofle_rev1_LohseBoi/quantum/encoder.o
 .data.display_start.2149
                0x0000000000800137        0x7 .build/obj_sofle_rev1_LohseBoi/ssd1306_sh1106.o
 .data.lufa_driver
                0x000000000080013e        0xa .build/obj_sofle_rev1_LohseBoi/lufa.o
                0x000000000080013e                lufa_driver
 .data.keyboard_protocol
                0x0000000000800148        0x1 .build/obj_sofle_rev1_LohseBoi/lufa.o
                0x0000000000800148                keyboard_protocol
 *(.gnu.linkonce.d*)
 *(.rodata)
 .rodata        0x0000000000800149        0x7 .build/obj_sofle_rev1_LohseBoi/keyboards/sofle/keymaps/LohseBoi/keymap.o
 *(.rodata*)
 .rodata.CSWTCH.24
                0x0000000000800150       0x2e .build/obj_sofle_rev1_LohseBoi/quantum/action.o
 .rodata.CSWTCH.23
                0x000000000080017e        0x3 .build/obj_sofle_rev1_LohseBoi/quantum/action.o
 .rodata.CSWTCH.1
                0x0000000000800181       0x2e .build/obj_sofle_rev1_LohseBoi/quantum/keymap_common.o
 .rodata.CSWTCH.0
                0x00000000008001af        0x3 .build/obj_sofle_rev1_LohseBoi/quantum/keymap_common.o
 .rodata.col_pins
                0x00000000008001b2        0x6 .build/obj_sofle_rev1_LohseBoi/quantum/matrix.o
 .rodata.row_pins
                0x00000000008001b8        0xa .build/obj_sofle_rev1_LohseBoi/quantum/matrix.o
 .rodata.split_shmem
                0x00000000008001c2        0x2 .build/obj_sofle_rev1_LohseBoi/quantum/split_common/transport.o
                0x00000000008001c2                split_shmem
 .rodata.encoder_LUT
                0x00000000008001c4       0x10 .build/obj_sofle_rev1_LohseBoi/quantum/encoder.o
 .rodata.source_map.2150
                0x00000000008001d4        0x4 .build/obj_sofle_rev1_LohseBoi/ssd1306_sh1106.o
 .rodata.target_map.2151
                0x00000000008001d8        0x4 .build/obj_sofle_rev1_LohseBoi/ssd1306_sh1106.o
 *(.gnu.linkonce.r*)
                0x00000000008001dc                . = ALIGN (0x2)
                0x00000000008001dc                _edata = .
                0x00000000008001dc                PROVIDE (__data_end = .)

.bss            0x00000000008001dc      0x355
                0x00000000008001dc                PROVIDE (__bss_start = .)
 *(.bss)
 .bss           0x00000000008001dc        0x2 .build/obj_sofle_rev1_LohseBoi/common/avr/xprintf.o
                0x00000000008001dc                xfunc_out
 *(.bss*)
 .bss.turner    0x00000000008001de        0x2 .build/obj_sofle_rev1_LohseBoi/keyboards/sofle/keymaps/LohseBoi/keymap.o
                0x00000000008001de                turner
 .bss.media_counter
                0x00000000008001e0        0x1 .build/obj_sofle_rev1_LohseBoi/keyboards/sofle/keymaps/LohseBoi/keymap.o
                0x00000000008001e0                media_counter
 .bss.media_timer
                0x00000000008001e1        0x2 .build/obj_sofle_rev1_LohseBoi/keyboards/sofle/keymaps/LohseBoi/keymap.o
                0x00000000008001e1                media_timer
 .bss.is_media_active
                0x00000000008001e3        0x1 .build/obj_sofle_rev1_LohseBoi/keyboards/sofle/keymaps/LohseBoi/keymap.o
                0x00000000008001e3                is_media_active
 .bss.lwr_tapped
                0x00000000008001e4        0x1 .build/obj_sofle_rev1_LohseBoi/keyboards/sofle/keymaps/LohseBoi/keymap.o
                0x00000000008001e4                lwr_tapped
 .bss.lwr_timer
                0x00000000008001e5        0x2 .build/obj_sofle_rev1_LohseBoi/keyboards/sofle/keymaps/LohseBoi/keymap.o
                0x00000000008001e5                lwr_timer
 .bss.wpm_timer
                0x00000000008001e7        0x2 .build/obj_sofle_rev1_LohseBoi/keyboards/sofle/keymaps/LohseBoi/keymap.o
                0x00000000008001e7                wpm_timer
 .bss.swap_state.2819
                0x00000000008001e9        0xa .build/obj_sofle_rev1_LohseBoi/quantum/action.o
 .bss.disable_action_cache
                0x00000000008001f3        0x1 .build/obj_sofle_rev1_LohseBoi/quantum/action.o
                0x00000000008001f3                disable_action_cache
 .bss.swap_held
                0x00000000008001f4        0x1 .build/obj_sofle_rev1_LohseBoi/quantum/action.o
                0x00000000008001f4                swap_held
 .bss.swap_hands
                0x00000000008001f5        0x1 .build/obj_sofle_rev1_LohseBoi/quantum/action.o
                0x00000000008001f5                swap_hands
 .bss.source_layers_cache
                0x00000000008001f6       0x28 .build/obj_sofle_rev1_LohseBoi/quantum/action_layer.o
                0x00000000008001f6                source_layers_cache
 .bss.layer_state
                0x000000000080021e        0x4 .build/obj_sofle_rev1_LohseBoi/quantum/action_layer.o
                0x000000000080021e                layer_state
 .bss.default_layer_state
                0x0000000000800222        0x4 .build/obj_sofle_rev1_LohseBoi/quantum/action_layer.o
                0x0000000000800222                default_layer_state
 .bss.waiting_buffer_tail
                0x0000000000800226        0x1 .build/obj_sofle_rev1_LohseBoi/quantum/action_tapping.o
 .bss.waiting_buffer_head
                0x0000000000800227        0x1 .build/obj_sofle_rev1_LohseBoi/quantum/action_tapping.o
 .bss.waiting_buffer
                0x0000000000800228       0x30 .build/obj_sofle_rev1_LohseBoi/quantum/action_tapping.o
 .bss.tapping_key
                0x0000000000800258        0x6 .build/obj_sofle_rev1_LohseBoi/quantum/action_tapping.o
 .bss.swap_hands_oneshot
                0x000000000080025e        0x1 .build/obj_sofle_rev1_LohseBoi/quantum/action_util.o
                0x000000000080025e                swap_hands_oneshot
 .bss.oneshot_layer_data
                0x000000000080025f        0x1 .build/obj_sofle_rev1_LohseBoi/quantum/action_util.o
 .bss.oneshot_mods
                0x0000000000800260        0x1 .build/obj_sofle_rev1_LohseBoi/quantum/action_util.o
 .bss.__compound_literal.0
                0x0000000000800261        0x8 .build/obj_sofle_rev1_LohseBoi/quantum/action_util.o
 .bss.macro_mods
                0x0000000000800269        0x1 .build/obj_sofle_rev1_LohseBoi/quantum/action_util.o
 .bss.weak_mods
                0x000000000080026a        0x1 .build/obj_sofle_rev1_LohseBoi/quantum/action_util.o
 .bss.real_mods
                0x000000000080026b        0x1 .build/obj_sofle_rev1_LohseBoi/quantum/action_util.o
 .bss.led_status.3930
                0x000000000080026c        0x1 .build/obj_sofle_rev1_LohseBoi/quantum/keyboard.o
 .bss.matrix_prev.3929
                0x000000000080026d        0xa .build/obj_sofle_rev1_LohseBoi/quantum/keyboard.o
 .bss.last_encoder_modification_time
                0x0000000000800277        0x4 .build/obj_sofle_rev1_LohseBoi/quantum/keyboard.o
 .bss.last_matrix_modification_time
                0x000000000080027b        0x4 .build/obj_sofle_rev1_LohseBoi/quantum/keyboard.o
 .bss.last_input_modification_time
                0x000000000080027f        0x4 .build/obj_sofle_rev1_LohseBoi/quantum/keyboard.o
 .bss.debug_config
                0x0000000000800283        0x1 .build/obj_sofle_rev1_LohseBoi/quantum/logging/debug.o
                0x0000000000800283                debug_config
 .bss.debouncing_time
                0x0000000000800284        0x2 .build/obj_sofle_rev1_LohseBoi/quantum/debounce/sym_defer_g.o
 .bss.debouncing
                0x0000000000800286        0x1 .build/obj_sofle_rev1_LohseBoi/quantum/debounce/sym_defer_g.o
 .bss.connection_check_timer.4123
                0x0000000000800287        0x2 .build/obj_sofle_rev1_LohseBoi/quantum/split_common/split_util.o
 .bss.usbstate.4109
                0x0000000000800289        0x1 .build/obj_sofle_rev1_LohseBoi/quantum/split_common/split_util.o
 .bss.connection_errors
                0x000000000080028a        0x1 .build/obj_sofle_rev1_LohseBoi/quantum/split_common/split_util.o
 .bss.shared_memory
                0x000000000080028b        0xc .build/obj_sofle_rev1_LohseBoi/quantum/split_common/transport.o
 .bss.last_sync_timer.4351
                0x0000000000800297        0x4 .build/obj_sofle_rev1_LohseBoi/quantum/split_common/transactions.o
 .bss.last_matrix.4319
                0x000000000080029b        0x5 .build/obj_sofle_rev1_LohseBoi/quantum/split_common/transactions.o
 .bss.last_update.4318
                0x00000000008002a0        0x4 .build/obj_sofle_rev1_LohseBoi/quantum/split_common/transactions.o
 .bss.last_update.4330
                0x00000000008002a4        0x4 .build/obj_sofle_rev1_LohseBoi/quantum/split_common/transactions.o
 .bss.last_update.4344
                0x00000000008002a8        0x4 .build/obj_sofle_rev1_LohseBoi/quantum/split_common/transactions.o
 .bss.wpm_timer
                0x00000000008002ac        0x2 .build/obj_sofle_rev1_LohseBoi/quantum/wpm.o
 .bss.current_wpm
                0x00000000008002ae        0x1 .build/obj_sofle_rev1_LohseBoi/quantum/wpm.o
 .bss.thatHand  0x00000000008002af        0x1 .build/obj_sofle_rev1_LohseBoi/quantum/encoder.o
 .bss.thisHand  0x00000000008002b0        0x1 .build/obj_sofle_rev1_LohseBoi/quantum/encoder.o
 .bss.encoder_value
                0x00000000008002b1        0x2 .build/obj_sofle_rev1_LohseBoi/quantum/encoder.o
 .bss.encoder_pulses
                0x00000000008002b3        0x1 .build/obj_sofle_rev1_LohseBoi/quantum/encoder.o
 .bss.encoder_state
                0x00000000008002b4        0x1 .build/obj_sofle_rev1_LohseBoi/quantum/encoder.o
 .bss.oled_temp_buffer.2179
                0x00000000008002b5        0x6 .build/obj_sofle_rev1_LohseBoi/ssd1306_sh1106.o
 .bss.temp_buffer.2152
                0x00000000008002bb       0x20 .build/obj_sofle_rev1_LohseBoi/ssd1306_sh1106.o
 .bss.oled_rotation_width
                0x00000000008002db        0x1 .build/obj_sofle_rev1_LohseBoi/ssd1306_sh1106.o
                0x00000000008002db                oled_rotation_width
 .bss.oled_rotation
                0x00000000008002dc        0x1 .build/obj_sofle_rev1_LohseBoi/ssd1306_sh1106.o
                0x00000000008002dc                oled_rotation
 .bss.oled_scrolling
                0x00000000008002dd        0x1 .build/obj_sofle_rev1_LohseBoi/ssd1306_sh1106.o
                0x00000000008002dd                oled_scrolling
 .bss.oled_active
                0x00000000008002de        0x1 .build/obj_sofle_rev1_LohseBoi/ssd1306_sh1106.o
                0x00000000008002de                oled_active
 .bss.oled_initialized
                0x00000000008002df        0x1 .build/obj_sofle_rev1_LohseBoi/ssd1306_sh1106.o
                0x00000000008002df                oled_initialized
 .bss.oled_dirty
                0x00000000008002e0        0x2 .build/obj_sofle_rev1_LohseBoi/ssd1306_sh1106.o
                0x00000000008002e0                oled_dirty
 .bss.sc_timer  0x00000000008002e2        0x2 .build/obj_sofle_rev1_LohseBoi/quantum/process_keycode/process_space_cadet.o
 .bss.sc_last   0x00000000008002e4        0x1 .build/obj_sofle_rev1_LohseBoi/quantum/process_keycode/process_space_cadet.o
 .bss.grave_esc_was_shifted
                0x00000000008002e5        0x1 .build/obj_sofle_rev1_LohseBoi/quantum/process_keycode/process_grave_esc.o
 .bss.split_led_state
                0x00000000008002e6        0x1 .build/obj_sofle_rev1_LohseBoi/common/host.o
                0x00000000008002e6                split_led_state
 .bss.last_consumer_report
                0x00000000008002e7        0x2 .build/obj_sofle_rev1_LohseBoi/common/host.o
 .bss.last_system_report
                0x00000000008002e9        0x2 .build/obj_sofle_rev1_LohseBoi/common/host.o
 .bss.driver    0x00000000008002eb        0x2 .build/obj_sofle_rev1_LohseBoi/common/host.o
 .bss.wdt_timeout
                0x00000000008002ed        0x1 .build/obj_sofle_rev1_LohseBoi/common/avr/suspend.o
 .bss.r.6488    0x00000000008002ee        0x3 .build/obj_sofle_rev1_LohseBoi/lufa.o
 .bss.keyboard_report_sent
                0x00000000008002f1        0x8 .build/obj_sofle_rev1_LohseBoi/lufa.o
 .bss.keyboard_led_state
                0x00000000008002f9        0x1 .build/obj_sofle_rev1_LohseBoi/lufa.o
 .bss.keyboard_idle
                0x00000000008002fa        0x1 .build/obj_sofle_rev1_LohseBoi/lufa.o
                0x00000000008002fa                keyboard_idle
 *(COMMON)
 COMMON         0x00000000008002fb        0x2 .build/obj_sofle_rev1_LohseBoi/quantum/bootmagic/magic.o
                0x00000000008002fb                keymap_config
 COMMON         0x00000000008002fd       0x14 .build/obj_sofle_rev1_LohseBoi/quantum/matrix_common.o
                0x00000000008002fd                raw_matrix
                0x0000000000800307                matrix
 COMMON         0x0000000000800311        0x2 .build/obj_sofle_rev1_LohseBoi/quantum/matrix.o
                0x0000000000800311                thatHand
                0x0000000000800312                thisHand
 COMMON         0x0000000000800313        0x1 .build/obj_sofle_rev1_LohseBoi/quantum/split_common/transactions.o
                0x0000000000800313                dummy
 COMMON         0x0000000000800314      0x208 .build/obj_sofle_rev1_LohseBoi/ssd1306_sh1106.o
                0x0000000000800314                oled_buffer
                0x0000000000800514                oled_update_timeout
                0x0000000000800516                oled_timeout
                0x000000000080051a                oled_cursor
 COMMON         0x000000000080051c        0x4 .build/obj_sofle_rev1_LohseBoi/common/sync_timer.o
                0x000000000080051c                sync_timer_ms
 COMMON         0x0000000000800520        0x4 .build/obj_sofle_rev1_LohseBoi/common/avr/timer.o
                0x0000000000800520                timer_count
 COMMON         0x0000000000800524        0x3 .build/obj_sofle_rev1_LohseBoi/lib/lufa/LUFA/Drivers/USB/Core/DeviceStandardReq.o
                0x0000000000800524                USB_Device_ConfigurationNumber
                0x0000000000800525                USB_Device_CurrentlySelfPowered
                0x0000000000800526                USB_Device_RemoteWakeupEnabled
 COMMON         0x0000000000800527        0xa .build/obj_sofle_rev1_LohseBoi/lib/lufa/LUFA/Drivers/USB/Core/USBTask.o
                0x0000000000800527                USB_IsInitialized
                0x0000000000800528                USB_DeviceState
                0x0000000000800529                USB_ControlRequest
                0x0000000000800531                PROVIDE (__bss_end = .)
                0x000000000000641c                __data_load_start = LOADADDR (.data)
                0x00000000000064f8                __data_load_end = (__data_load_start + SIZEOF (.data))

.noinit         0x0000000000800531        0x4
                [!provide]                        PROVIDE (__noinit_start = .)
 *(.noinit .noinit.* .gnu.linkonce.n.*)
 .noinit        0x0000000000800531        0x4 .build/obj_sofle_rev1_LohseBoi/common/avr/bootloader.o
                0x0000000000800531                reset_key
                [!provide]                        PROVIDE (__noinit_end = .)
                0x0000000000800535                _end = .
                [!provide]                        PROVIDE (__heap_start = .)

.eeprom         0x0000000000810000        0x0
 *(.eeprom*)
                0x0000000000810000                __eeprom_end = .

.fuse
 *(.fuse)
 *(.lfuse)
 *(.hfuse)
 *(.efuse)

.lock
 *(.lock*)

.signature
 *(.signature*)

.stab           0x0000000000000000       0x24
 *(.stab)
 .stab          0x0000000000000000       0x24 .build/obj_sofle_rev1_LohseBoi/common/avr/xprintf.o
                                        0x8b8 (size before relaxing)

.stabstr        0x0000000000000000       0x6d
 *(.stabstr)
 .stabstr       0x0000000000000000       0x6d .build/obj_sofle_rev1_LohseBoi/common/avr/xprintf.o

.stab.excl
 *(.stab.excl)

.stab.exclstr
 *(.stab.exclstr)

.stab.index
 *(.stab.index)

.stab.indexstr
 *(.stab.indexstr)

.comment        0x0000000000000000       0x11
 *(.comment)
 .comment       0x0000000000000000       0x11 .build/obj_sofle_rev1_LohseBoi/keyboards/sofle/sofle.o
                                         0x12 (size before relaxing)
 .comment       0x0000000000000011       0x12 .build/obj_sofle_rev1_LohseBoi/keyboards/sofle/keymaps/LohseBoi/keymap.o
 .comment       0x0000000000000011       0x12 .build/obj_sofle_rev1_LohseBoi/quantum/quantum.o
 .comment       0x0000000000000011       0x12 .build/obj_sofle_rev1_LohseBoi/quantum/send_string.o
 .comment       0x0000000000000011       0x12 .build/obj_sofle_rev1_LohseBoi/quantum/bitwise.o
 .comment       0x0000000000000011       0x12 .build/obj_sofle_rev1_LohseBoi/quantum/led.o
 .comment       0x0000000000000011       0x12 .build/obj_sofle_rev1_LohseBoi/quantum/action.o
 .comment       0x0000000000000011       0x12 .build/obj_sofle_rev1_LohseBoi/quantum/action_layer.o
 .comment       0x0000000000000011       0x12 .build/obj_sofle_rev1_LohseBoi/quantum/action_tapping.o
 .comment       0x0000000000000011       0x12 .build/obj_sofle_rev1_LohseBoi/quantum/action_util.o
 .comment       0x0000000000000011       0x12 .build/obj_sofle_rev1_LohseBoi/quantum/eeconfig.o
 .comment       0x0000000000000011       0x12 .build/obj_sofle_rev1_LohseBoi/quantum/keyboard.o
 .comment       0x0000000000000011       0x12 .build/obj_sofle_rev1_LohseBoi/quantum/keymap_common.o
 .comment       0x0000000000000011       0x12 .build/obj_sofle_rev1_LohseBoi/quantum/keycode_config.o
 .comment       0x0000000000000011       0x12 .build/obj_sofle_rev1_LohseBoi/quantum/logging/debug.o
 .comment       0x0000000000000011       0x12 .build/obj_sofle_rev1_LohseBoi/quantum/logging/sendchar.o
 .comment       0x0000000000000011       0x12 .build/obj_sofle_rev1_LohseBoi/quantum/bootmagic/magic.o
 .comment       0x0000000000000011       0x12 .build/obj_sofle_rev1_LohseBoi/quantum/matrix_common.o
 .comment       0x0000000000000011       0x12 .build/obj_sofle_rev1_LohseBoi/quantum/matrix.o
 .comment       0x0000000000000011       0x12 .build/obj_sofle_rev1_LohseBoi/quantum/debounce/sym_defer_g.o
 .comment       0x0000000000000011       0x12 .build/obj_sofle_rev1_LohseBoi/quantum/split_common/split_util.o
 .comment       0x0000000000000011       0x12 .build/obj_sofle_rev1_LohseBoi/quantum/split_common/transport.o
 .comment       0x0000000000000011       0x12 .build/obj_sofle_rev1_LohseBoi/quantum/split_common/transactions.o
 .comment       0x0000000000000011       0x12 .build/obj_sofle_rev1_LohseBoi/quantum/main.o
 .comment       0x0000000000000011       0x12 .build/obj_sofle_rev1_LohseBoi/quantum/wpm.o
 .comment       0x0000000000000011       0x12 .build/obj_sofle_rev1_LohseBoi/quantum/encoder.o
 .comment       0x0000000000000011       0x12 .build/obj_sofle_rev1_LohseBoi/crc.o
 .comment       0x0000000000000011       0x12 .build/obj_sofle_rev1_LohseBoi/ssd1306_sh1106.o
 .comment       0x0000000000000011       0x12 .build/obj_sofle_rev1_LohseBoi/quantum/process_keycode/process_space_cadet.o
 .comment       0x0000000000000011       0x12 .build/obj_sofle_rev1_LohseBoi/quantum/process_keycode/process_magic.o
 .comment       0x0000000000000011       0x12 .build/obj_sofle_rev1_LohseBoi/quantum/process_keycode/process_grave_esc.o
 .comment       0x0000000000000011       0x12 .build/obj_sofle_rev1_LohseBoi/i2c_master.a(i2c_master.o)
 .comment       0x0000000000000011       0x12 .build/obj_sofle_rev1_LohseBoi/serial.a(serial.o)
 .comment       0x0000000000000011       0x12 .build/obj_sofle_rev1_LohseBoi/common/host.o
 .comment       0x0000000000000011       0x12 .build/obj_sofle_rev1_LohseBoi/common/report.o
 .comment       0x0000000000000011       0x12 .build/obj_sofle_rev1_LohseBoi/common/sync_timer.o
 .comment       0x0000000000000011       0x12 .build/obj_sofle_rev1_LohseBoi/common/avr/platform.o
 .comment       0x0000000000000011       0x12 .build/obj_sofle_rev1_LohseBoi/common/avr/suspend.o
 .comment       0x0000000000000011       0x12 .build/obj_sofle_rev1_LohseBoi/common/avr/timer.o
 .comment       0x0000000000000011       0x12 .build/obj_sofle_rev1_LohseBoi/common/avr/bootloader.o
 .comment       0x0000000000000011       0x12 .build/obj_sofle_rev1_LohseBoi/common/avr/printf.o
 .comment       0x0000000000000011       0x12 .build/obj_sofle_rev1_LohseBoi/lufa.o
 .comment       0x0000000000000011       0x12 .build/obj_sofle_rev1_LohseBoi/usb_descriptor.o
 .comment       0x0000000000000011       0x12 .build/obj_sofle_rev1_LohseBoi/lib/lufa/LUFA/Drivers/USB/Core/AVR8/Device_AVR8.o
 .comment       0x0000000000000011       0x12 .build/obj_sofle_rev1_LohseBoi/lib/lufa/LUFA/Drivers/USB/Core/AVR8/EndpointStream_AVR8.o
 .comment       0x0000000000000011       0x12 .build/obj_sofle_rev1_LohseBoi/lib/lufa/LUFA/Drivers/USB/Core/AVR8/Endpoint_AVR8.o
 .comment       0x0000000000000011       0x12 .build/obj_sofle_rev1_LohseBoi/lib/lufa/LUFA/Drivers/USB/Core/AVR8/USBController_AVR8.o
 .comment       0x0000000000000011       0x12 .build/obj_sofle_rev1_LohseBoi/lib/lufa/LUFA/Drivers/USB/Core/AVR8/USBInterrupt_AVR8.o
 .comment       0x0000000000000011       0x12 .build/obj_sofle_rev1_LohseBoi/lib/lufa/LUFA/Drivers/USB/Core/DeviceStandardReq.o
 .comment       0x0000000000000011       0x12 .build/obj_sofle_rev1_LohseBoi/lib/lufa/LUFA/Drivers/USB/Core/Events.o
 .comment       0x0000000000000011       0x12 .build/obj_sofle_rev1_LohseBoi/lib/lufa/LUFA/Drivers/USB/Core/USBTask.o
 .comment       0x0000000000000011       0x12 .build/obj_sofle_rev1_LohseBoi/protocol/lufa/usb_util.o

.note.gnu.avr.deviceinfo
                0x0000000000000000       0x40
 .note.gnu.avr.deviceinfo
                0x0000000000000000       0x40 /usr/lib/gcc/avr/8.3.0/../../../../avr/lib/avr5/crtatmega32u4.o

.note.gnu.build-id
 *(.note.gnu.build-id)

.debug
 *(.debug)

.line
 *(.line)

.debug_srcinfo
 *(.debug_srcinfo)

.debug_sfnames
 *(.debug_sfnames)

.debug_aranges  0x0000000000000000     0x12a8
 *(.debug_aranges)
 .debug_aranges
                0x0000000000000000       0x18 .build/obj_sofle_rev1_LohseBoi/keyboards/sofle/sofle.o
 .debug_aranges
                0x0000000000000018       0x40 .build/obj_sofle_rev1_LohseBoi/keyboards/sofle/keymaps/LohseBoi/keymap.o
 .debug_aranges
                0x0000000000000058       0xc8 .build/obj_sofle_rev1_LohseBoi/quantum/quantum.o
 .debug_aranges
                0x0000000000000120       0x68 .build/obj_sofle_rev1_LohseBoi/quantum/send_string.o
 .debug_aranges
                0x0000000000000188       0x60 .build/obj_sofle_rev1_LohseBoi/quantum/bitwise.o
 .debug_aranges
                0x00000000000001e8       0x48 .build/obj_sofle_rev1_LohseBoi/quantum/led.o
 .debug_aranges
                0x0000000000000230       0xe8 .build/obj_sofle_rev1_LohseBoi/quantum/action.o
 .debug_aranges
                0x0000000000000318       0xe0 .build/obj_sofle_rev1_LohseBoi/quantum/action_layer.o
 .debug_aranges
                0x00000000000003f8       0x48 .build/obj_sofle_rev1_LohseBoi/quantum/action_tapping.o
 .debug_aranges
                0x0000000000000440      0x198 .build/obj_sofle_rev1_LohseBoi/quantum/action_util.o
 .debug_aranges
                0x00000000000005d8       0xd8 .build/obj_sofle_rev1_LohseBoi/quantum/eeconfig.o
 .debug_aranges
                0x00000000000006b0       0xb0 .build/obj_sofle_rev1_LohseBoi/quantum/keyboard.o
 .debug_aranges
                0x0000000000000760       0x48 .build/obj_sofle_rev1_LohseBoi/quantum/keymap_common.o
 .debug_aranges
                0x00000000000007a8       0x28 .build/obj_sofle_rev1_LohseBoi/quantum/keycode_config.o
 .debug_aranges
                0x00000000000007d0       0x18 .build/obj_sofle_rev1_LohseBoi/quantum/logging/debug.o
 .debug_aranges
                0x00000000000007e8       0x20 .build/obj_sofle_rev1_LohseBoi/quantum/logging/sendchar.o
 .debug_aranges
                0x0000000000000808       0x28 .build/obj_sofle_rev1_LohseBoi/quantum/bootmagic/magic.o
 .debug_aranges
                0x0000000000000830       0xa0 .build/obj_sofle_rev1_LohseBoi/quantum/matrix_common.o
 .debug_aranges
                0x00000000000008d0       0x60 .build/obj_sofle_rev1_LohseBoi/quantum/matrix.o
 .debug_aranges
                0x0000000000000930       0x38 .build/obj_sofle_rev1_LohseBoi/quantum/debounce/sym_defer_g.o
 .debug_aranges
                0x0000000000000968       0x48 .build/obj_sofle_rev1_LohseBoi/quantum/split_common/split_util.o
 .debug_aranges
                0x00000000000009b0       0x40 .build/obj_sofle_rev1_LohseBoi/quantum/split_common/transport.o
 .debug_aranges
                0x00000000000009f0       0x50 .build/obj_sofle_rev1_LohseBoi/quantum/split_common/transactions.o
 .debug_aranges
                0x0000000000000a40       0x20 .build/obj_sofle_rev1_LohseBoi/quantum/main.o
 .debug_aranges
                0x0000000000000a60       0x50 .build/obj_sofle_rev1_LohseBoi/quantum/wpm.o
 .debug_aranges
                0x0000000000000ab0       0x48 .build/obj_sofle_rev1_LohseBoi/quantum/encoder.o
 .debug_aranges
                0x0000000000000af8       0x28 .build/obj_sofle_rev1_LohseBoi/crc.o
 .debug_aranges
                0x0000000000000b20      0x138 .build/obj_sofle_rev1_LohseBoi/ssd1306_sh1106.o
 .debug_aranges
                0x0000000000000c58       0x28 .build/obj_sofle_rev1_LohseBoi/quantum/process_keycode/process_space_cadet.o
 .debug_aranges
                0x0000000000000c80       0x20 .build/obj_sofle_rev1_LohseBoi/quantum/process_keycode/process_magic.o
 .debug_aranges
                0x0000000000000ca0       0x20 .build/obj_sofle_rev1_LohseBoi/quantum/process_keycode/process_grave_esc.o
 .debug_aranges
                0x0000000000000cc0       0x68 .build/obj_sofle_rev1_LohseBoi/i2c_master.a(i2c_master.o)
 .debug_aranges
                0x0000000000000d28       0x70 .build/obj_sofle_rev1_LohseBoi/serial.a(serial.o)
 .debug_aranges
                0x0000000000000d98       0x80 .build/obj_sofle_rev1_LohseBoi/common/host.o
 .debug_aranges
                0x0000000000000e18       0x58 .build/obj_sofle_rev1_LohseBoi/common/report.o
 .debug_aranges
                0x0000000000000e70       0x48 .build/obj_sofle_rev1_LohseBoi/common/sync_timer.o
 .debug_aranges
                0x0000000000000eb8       0x20 .build/obj_sofle_rev1_LohseBoi/common/avr/platform.o
 .debug_aranges
                0x0000000000000ed8       0x58 .build/obj_sofle_rev1_LohseBoi/common/avr/suspend.o
 .debug_aranges
                0x0000000000000f30       0x50 .build/obj_sofle_rev1_LohseBoi/common/avr/timer.o
 .debug_aranges
                0x0000000000000f80       0x28 .build/obj_sofle_rev1_LohseBoi/common/avr/bootloader.o
 .debug_aranges
                0x0000000000000fa8       0x20 .build/obj_sofle_rev1_LohseBoi/common/avr/printf.o
 .debug_aranges
                0x0000000000000fc8       0x90 .build/obj_sofle_rev1_LohseBoi/lufa.o
 .debug_aranges
                0x0000000000001058       0x20 .build/obj_sofle_rev1_LohseBoi/usb_descriptor.o
 .debug_aranges
                0x0000000000001078       0x20 .build/obj_sofle_rev1_LohseBoi/lib/lufa/LUFA/Drivers/USB/Core/AVR8/Device_AVR8.o
 .debug_aranges
                0x0000000000001098       0xc8 .build/obj_sofle_rev1_LohseBoi/lib/lufa/LUFA/Drivers/USB/Core/AVR8/EndpointStream_AVR8.o
 .debug_aranges
                0x0000000000001160       0x40 .build/obj_sofle_rev1_LohseBoi/lib/lufa/LUFA/Drivers/USB/Core/AVR8/Endpoint_AVR8.o
 .debug_aranges
                0x00000000000011a0       0x30 .build/obj_sofle_rev1_LohseBoi/lib/lufa/LUFA/Drivers/USB/Core/AVR8/USBController_AVR8.o
 .debug_aranges
                0x00000000000011d0       0x38 .build/obj_sofle_rev1_LohseBoi/lib/lufa/LUFA/Drivers/USB/Core/AVR8/USBInterrupt_AVR8.o
 .debug_aranges
                0x0000000000001208       0x20 .build/obj_sofle_rev1_LohseBoi/lib/lufa/LUFA/Drivers/USB/Core/DeviceStandardReq.o
 .debug_aranges
                0x0000000000001228       0x30 .build/obj_sofle_rev1_LohseBoi/lib/lufa/LUFA/Drivers/USB/Core/Events.o
 .debug_aranges
                0x0000000000001258       0x20 .build/obj_sofle_rev1_LohseBoi/lib/lufa/LUFA/Drivers/USB/Core/USBTask.o
 .debug_aranges
                0x0000000000001278       0x30 .build/obj_sofle_rev1_LohseBoi/protocol/lufa/usb_util.o

.debug_pubnames
 *(.debug_pubnames)

.debug_info     0x0000000000000000    0x28cf2
 *(.debug_info .gnu.linkonce.wi.*)
 .debug_info    0x0000000000000000      0x9f4 /usr/lib/gcc/avr/8.3.0/../../../../avr/lib/avr5/crtatmega32u4.o
 .debug_info    0x00000000000009f4      0x614 .build/obj_sofle_rev1_LohseBoi/keyboards/sofle/sofle.o
 .debug_info    0x0000000000001008     0x23f0 .build/obj_sofle_rev1_LohseBoi/keyboards/sofle/keymaps/LohseBoi/keymap.o
 .debug_info    0x00000000000033f8     0x2245 .build/obj_sofle_rev1_LohseBoi/quantum/quantum.o
 .debug_info    0x000000000000563d     0x13fe .build/obj_sofle_rev1_LohseBoi/quantum/send_string.o
 .debug_info    0x0000000000006a3b      0x2f9 .build/obj_sofle_rev1_LohseBoi/quantum/bitwise.o
 .debug_info    0x0000000000006d34      0x802 .build/obj_sofle_rev1_LohseBoi/quantum/led.o
 .debug_info    0x0000000000007536     0x2217 .build/obj_sofle_rev1_LohseBoi/quantum/action.o
 .debug_info    0x000000000000974d      0xcd6 .build/obj_sofle_rev1_LohseBoi/quantum/action_layer.o
 .debug_info    0x000000000000a423      0xfcd .build/obj_sofle_rev1_LohseBoi/quantum/action_tapping.o
 .debug_info    0x000000000000b3f0      0xe36 .build/obj_sofle_rev1_LohseBoi/quantum/action_util.o
 .debug_info    0x000000000000c226      0x923 .build/obj_sofle_rev1_LohseBoi/quantum/eeconfig.o
 .debug_info    0x000000000000cb49      0xd3a .build/obj_sofle_rev1_LohseBoi/quantum/keyboard.o
 .debug_info    0x000000000000d883     0x20cb .build/obj_sofle_rev1_LohseBoi/quantum/keymap_common.o
 .debug_info    0x000000000000f94e      0x64e .build/obj_sofle_rev1_LohseBoi/quantum/keycode_config.o
 .debug_info    0x000000000000ff9c      0x110 .build/obj_sofle_rev1_LohseBoi/quantum/logging/debug.o
 .debug_info    0x00000000000100ac       0xa8 .build/obj_sofle_rev1_LohseBoi/quantum/logging/sendchar.o
 .debug_info    0x0000000000010154      0x5d3 .build/obj_sofle_rev1_LohseBoi/quantum/bootmagic/magic.o
 .debug_info    0x0000000000010727      0xb4a .build/obj_sofle_rev1_LohseBoi/quantum/matrix_common.o
 .debug_info    0x0000000000011271     0x110d .build/obj_sofle_rev1_LohseBoi/quantum/matrix.o
 .debug_info    0x000000000001237e      0x7d2 .build/obj_sofle_rev1_LohseBoi/quantum/debounce/sym_defer_g.o
 .debug_info    0x0000000000012b50      0xac2 .build/obj_sofle_rev1_LohseBoi/quantum/split_common/split_util.o
 .debug_info    0x0000000000013612      0xabe .build/obj_sofle_rev1_LohseBoi/quantum/split_common/transport.o
 .debug_info    0x00000000000140d0     0x158b .build/obj_sofle_rev1_LohseBoi/quantum/split_common/transactions.o
 .debug_info    0x000000000001565b       0xfc .build/obj_sofle_rev1_LohseBoi/quantum/main.o
 .debug_info    0x0000000000015757     0x17d5 .build/obj_sofle_rev1_LohseBoi/quantum/wpm.o
 .debug_info    0x0000000000016f2c      0xb5a .build/obj_sofle_rev1_LohseBoi/quantum/encoder.o
 .debug_info    0x0000000000017a86      0x6e0 .build/obj_sofle_rev1_LohseBoi/crc.o
 .debug_info    0x0000000000018166     0x1657 .build/obj_sofle_rev1_LohseBoi/ssd1306_sh1106.o
 .debug_info    0x00000000000197bd     0x1813 .build/obj_sofle_rev1_LohseBoi/quantum/process_keycode/process_space_cadet.o
 .debug_info    0x000000000001afd0     0x12fe .build/obj_sofle_rev1_LohseBoi/quantum/process_keycode/process_magic.o
 .debug_info    0x000000000001c2ce     0x175e .build/obj_sofle_rev1_LohseBoi/quantum/process_keycode/process_grave_esc.o
 .debug_info    0x000000000001da2c      0x7e3 .build/obj_sofle_rev1_LohseBoi/i2c_master.a(i2c_master.o)
 .debug_info    0x000000000001e20f     0x15c4 .build/obj_sofle_rev1_LohseBoi/serial.a(serial.o)
 .debug_info    0x000000000001f7d3      0xba7 .build/obj_sofle_rev1_LohseBoi/common/host.o
 .debug_info    0x000000000002037a      0x9a4 .build/obj_sofle_rev1_LohseBoi/common/report.o
 .debug_info    0x0000000000020d1e      0x28c .build/obj_sofle_rev1_LohseBoi/common/sync_timer.o
 .debug_info    0x0000000000020faa       0x79 .build/obj_sofle_rev1_LohseBoi/common/avr/platform.o
 .debug_info    0x0000000000021023      0x76e .build/obj_sofle_rev1_LohseBoi/common/avr/suspend.o
 .debug_info    0x0000000000021791      0x443 .build/obj_sofle_rev1_LohseBoi/common/avr/timer.o
 .debug_info    0x0000000000021bd4      0x357 .build/obj_sofle_rev1_LohseBoi/common/avr/bootloader.o
 .debug_info    0x0000000000021f2b       0xe7 .build/obj_sofle_rev1_LohseBoi/common/avr/printf.o
 .debug_info    0x0000000000022012     0x17e2 .build/obj_sofle_rev1_LohseBoi/lufa.o
 .debug_info    0x00000000000237f4      0x9b8 .build/obj_sofle_rev1_LohseBoi/usb_descriptor.o
 .debug_info    0x00000000000241ac      0x1c0 .build/obj_sofle_rev1_LohseBoi/lib/lufa/LUFA/Drivers/USB/Core/AVR8/Device_AVR8.o
 .debug_info    0x000000000002436c     0x1da4 .build/obj_sofle_rev1_LohseBoi/lib/lufa/LUFA/Drivers/USB/Core/AVR8/EndpointStream_AVR8.o
 .debug_info    0x0000000000026110      0x75d .build/obj_sofle_rev1_LohseBoi/lib/lufa/LUFA/Drivers/USB/Core/AVR8/Endpoint_AVR8.o
 .debug_info    0x000000000002686d      0x606 .build/obj_sofle_rev1_LohseBoi/lib/lufa/LUFA/Drivers/USB/Core/AVR8/USBController_AVR8.o
 .debug_info    0x0000000000026e73      0xa43 .build/obj_sofle_rev1_LohseBoi/lib/lufa/LUFA/Drivers/USB/Core/AVR8/USBInterrupt_AVR8.o
 .debug_info    0x00000000000278b6      0xc59 .build/obj_sofle_rev1_LohseBoi/lib/lufa/LUFA/Drivers/USB/Core/DeviceStandardReq.o
 .debug_info    0x000000000002850f       0xe9 .build/obj_sofle_rev1_LohseBoi/lib/lufa/LUFA/Drivers/USB/Core/Events.o
 .debug_info    0x00000000000285f8      0x2fb .build/obj_sofle_rev1_LohseBoi/lib/lufa/LUFA/Drivers/USB/Core/USBTask.o
 .debug_info    0x00000000000288f3      0x3ff .build/obj_sofle_rev1_LohseBoi/protocol/lufa/usb_util.o

.debug_abbrev   0x0000000000000000     0x85ac
 *(.debug_abbrev)
 .debug_abbrev  0x0000000000000000      0x96a /usr/lib/gcc/avr/8.3.0/../../../../avr/lib/avr5/crtatmega32u4.o
 .debug_abbrev  0x000000000000096a      0x136 .build/obj_sofle_rev1_LohseBoi/keyboards/sofle/sofle.o
 .debug_abbrev  0x0000000000000aa0      0x342 .build/obj_sofle_rev1_LohseBoi/keyboards/sofle/keymaps/LohseBoi/keymap.o
 .debug_abbrev  0x0000000000000de2      0x3ed .build/obj_sofle_rev1_LohseBoi/quantum/quantum.o
 .debug_abbrev  0x00000000000011cf      0x32b .build/obj_sofle_rev1_LohseBoi/quantum/send_string.o
 .debug_abbrev  0x00000000000014fa       0xdd .build/obj_sofle_rev1_LohseBoi/quantum/bitwise.o
 .debug_abbrev  0x00000000000015d7      0x220 .build/obj_sofle_rev1_LohseBoi/quantum/led.o
 .debug_abbrev  0x00000000000017f7      0x4ea .build/obj_sofle_rev1_LohseBoi/quantum/action.o
 .debug_abbrev  0x0000000000001ce1      0x30f .build/obj_sofle_rev1_LohseBoi/quantum/action_layer.o
 .debug_abbrev  0x0000000000001ff0      0x366 .build/obj_sofle_rev1_LohseBoi/quantum/action_tapping.o
 .debug_abbrev  0x0000000000002356      0x339 .build/obj_sofle_rev1_LohseBoi/quantum/action_util.o
 .debug_abbrev  0x000000000000268f      0x182 .build/obj_sofle_rev1_LohseBoi/quantum/eeconfig.o
 .debug_abbrev  0x0000000000002811      0x364 .build/obj_sofle_rev1_LohseBoi/quantum/keyboard.o
 .debug_abbrev  0x0000000000002b75      0x2fd .build/obj_sofle_rev1_LohseBoi/quantum/keymap_common.o
 .debug_abbrev  0x0000000000002e72      0x119 .build/obj_sofle_rev1_LohseBoi/quantum/keycode_config.o
 .debug_abbrev  0x0000000000002f8b       0xa2 .build/obj_sofle_rev1_LohseBoi/quantum/logging/debug.o
 .debug_abbrev  0x000000000000302d       0x6b .build/obj_sofle_rev1_LohseBoi/quantum/logging/sendchar.o
 .debug_abbrev  0x0000000000003098      0x197 .build/obj_sofle_rev1_LohseBoi/quantum/bootmagic/magic.o
 .debug_abbrev  0x000000000000322f      0x396 .build/obj_sofle_rev1_LohseBoi/quantum/matrix_common.o
 .debug_abbrev  0x00000000000035c5      0x472 .build/obj_sofle_rev1_LohseBoi/quantum/matrix.o
 .debug_abbrev  0x0000000000003a37      0x296 .build/obj_sofle_rev1_LohseBoi/quantum/debounce/sym_defer_g.o
 .debug_abbrev  0x0000000000003ccd      0x2ce .build/obj_sofle_rev1_LohseBoi/quantum/split_common/split_util.o
 .debug_abbrev  0x0000000000003f9b      0x287 .build/obj_sofle_rev1_LohseBoi/quantum/split_common/transport.o
 .debug_abbrev  0x0000000000004222      0x47f .build/obj_sofle_rev1_LohseBoi/quantum/split_common/transactions.o
 .debug_abbrev  0x00000000000046a1       0x69 .build/obj_sofle_rev1_LohseBoi/quantum/main.o
 .debug_abbrev  0x000000000000470a      0x2ae .build/obj_sofle_rev1_LohseBoi/quantum/wpm.o
 .debug_abbrev  0x00000000000049b8      0x33c .build/obj_sofle_rev1_LohseBoi/quantum/encoder.o
 .debug_abbrev  0x0000000000004cf4      0x192 .build/obj_sofle_rev1_LohseBoi/crc.o
 .debug_abbrev  0x0000000000004e86      0x471 .build/obj_sofle_rev1_LohseBoi/ssd1306_sh1106.o
 .debug_abbrev  0x00000000000052f7      0x1eb .build/obj_sofle_rev1_LohseBoi/quantum/process_keycode/process_space_cadet.o
 .debug_abbrev  0x00000000000054e2      0x187 .build/obj_sofle_rev1_LohseBoi/quantum/process_keycode/process_magic.o
 .debug_abbrev  0x0000000000005669      0x1d5 .build/obj_sofle_rev1_LohseBoi/quantum/process_keycode/process_grave_esc.o
 .debug_abbrev  0x000000000000583e      0x1d5 .build/obj_sofle_rev1_LohseBoi/i2c_master.a(i2c_master.o)
 .debug_abbrev  0x0000000000005a13      0x462 .build/obj_sofle_rev1_LohseBoi/serial.a(serial.o)
 .debug_abbrev  0x0000000000005e75      0x29c .build/obj_sofle_rev1_LohseBoi/common/host.o
 .debug_abbrev  0x0000000000006111      0x1fd .build/obj_sofle_rev1_LohseBoi/common/report.o
 .debug_abbrev  0x000000000000630e      0x137 .build/obj_sofle_rev1_LohseBoi/common/sync_timer.o
 .debug_abbrev  0x0000000000006445       0x46 .build/obj_sofle_rev1_LohseBoi/common/avr/platform.o
 .debug_abbrev  0x000000000000648b      0x312 .build/obj_sofle_rev1_LohseBoi/common/avr/suspend.o
 .debug_abbrev  0x000000000000679d      0x1ba .build/obj_sofle_rev1_LohseBoi/common/avr/timer.o
 .debug_abbrev  0x0000000000006957      0x200 .build/obj_sofle_rev1_LohseBoi/common/avr/bootloader.o
 .debug_abbrev  0x0000000000006b57       0x9d .build/obj_sofle_rev1_LohseBoi/common/avr/printf.o
 .debug_abbrev  0x0000000000006bf4      0x5b2 .build/obj_sofle_rev1_LohseBoi/lufa.o
 .debug_abbrev  0x00000000000071a6      0x207 .build/obj_sofle_rev1_LohseBoi/usb_descriptor.o
 .debug_abbrev  0x00000000000073ad       0xcb .build/obj_sofle_rev1_LohseBoi/lib/lufa/LUFA/Drivers/USB/Core/AVR8/Device_AVR8.o
 .debug_abbrev  0x0000000000007478      0x23b .build/obj_sofle_rev1_LohseBoi/lib/lufa/LUFA/Drivers/USB/Core/AVR8/EndpointStream_AVR8.o
 .debug_abbrev  0x00000000000076b3      0x29d .build/obj_sofle_rev1_LohseBoi/lib/lufa/LUFA/Drivers/USB/Core/AVR8/Endpoint_AVR8.o
 .debug_abbrev  0x0000000000007950      0x1f5 .build/obj_sofle_rev1_LohseBoi/lib/lufa/LUFA/Drivers/USB/Core/AVR8/USBController_AVR8.o
 .debug_abbrev  0x0000000000007b45      0x2a5 .build/obj_sofle_rev1_LohseBoi/lib/lufa/LUFA/Drivers/USB/Core/AVR8/USBInterrupt_AVR8.o
 .debug_abbrev  0x0000000000007dea      0x346 .build/obj_sofle_rev1_LohseBoi/lib/lufa/LUFA/Drivers/USB/Core/DeviceStandardReq.o
 .debug_abbrev  0x0000000000008130       0x89 .build/obj_sofle_rev1_LohseBoi/lib/lufa/LUFA/Drivers/USB/Core/Events.o
 .debug_abbrev  0x00000000000081b9      0x1b3 .build/obj_sofle_rev1_LohseBoi/lib/lufa/LUFA/Drivers/USB/Core/USBTask.o
 .debug_abbrev  0x000000000000836c      0x240 .build/obj_sofle_rev1_LohseBoi/protocol/lufa/usb_util.o

.debug_line     0x0000000000000000    0x18545
 *(.debug_line .debug_line.* .debug_line_end)
 .debug_line    0x0000000000000000       0x1d /usr/lib/gcc/avr/8.3.0/../../../../avr/lib/avr5/crtatmega32u4.o
 .debug_line    0x000000000000001d      0x16f .build/obj_sofle_rev1_LohseBoi/keyboards/sofle/sofle.o
 .debug_line    0x000000000000018c      0xb7e .build/obj_sofle_rev1_LohseBoi/keyboards/sofle/keymaps/LohseBoi/keymap.o
 .debug_line    0x0000000000000d0a      0xbc3 .build/obj_sofle_rev1_LohseBoi/quantum/quantum.o
 .debug_line    0x00000000000018cd      0xbbf .build/obj_sofle_rev1_LohseBoi/quantum/send_string.o
 .debug_line    0x000000000000248c      0x62c .build/obj_sofle_rev1_LohseBoi/quantum/bitwise.o
 .debug_line    0x0000000000002ab8      0x259 .build/obj_sofle_rev1_LohseBoi/quantum/led.o
 .debug_line    0x0000000000002d11     0x176a .build/obj_sofle_rev1_LohseBoi/quantum/action.o
 .debug_line    0x000000000000447b      0x8fd .build/obj_sofle_rev1_LohseBoi/quantum/action_layer.o
 .debug_line    0x0000000000004d78      0xcda .build/obj_sofle_rev1_LohseBoi/quantum/action_tapping.o
 .debug_line    0x0000000000005a52      0xc7c .build/obj_sofle_rev1_LohseBoi/quantum/action_util.o
 .debug_line    0x00000000000066ce      0x4c1 .build/obj_sofle_rev1_LohseBoi/quantum/eeconfig.o
 .debug_line    0x0000000000006b8f      0x7e8 .build/obj_sofle_rev1_LohseBoi/quantum/keyboard.o
 .debug_line    0x0000000000007377      0x610 .build/obj_sofle_rev1_LohseBoi/quantum/keymap_common.o
 .debug_line    0x0000000000007987      0x56b .build/obj_sofle_rev1_LohseBoi/quantum/keycode_config.o
 .debug_line    0x0000000000007ef2       0x60 .build/obj_sofle_rev1_LohseBoi/quantum/logging/debug.o
 .debug_line    0x0000000000007f52       0x81 .build/obj_sofle_rev1_LohseBoi/quantum/logging/sendchar.o
 .debug_line    0x0000000000007fd3      0x1dd .build/obj_sofle_rev1_LohseBoi/quantum/bootmagic/magic.o
 .debug_line    0x00000000000081b0      0x5c7 .build/obj_sofle_rev1_LohseBoi/quantum/matrix_common.o
 .debug_line    0x0000000000008777      0x94f .build/obj_sofle_rev1_LohseBoi/quantum/matrix.o
 .debug_line    0x00000000000090c6      0x308 .build/obj_sofle_rev1_LohseBoi/quantum/debounce/sym_defer_g.o
 .debug_line    0x00000000000093ce      0x4c8 .build/obj_sofle_rev1_LohseBoi/quantum/split_common/split_util.o
 .debug_line    0x0000000000009896      0x39d .build/obj_sofle_rev1_LohseBoi/quantum/split_common/transport.o
 .debug_line    0x0000000000009c33      0xa1e .build/obj_sofle_rev1_LohseBoi/quantum/split_common/transactions.o
 .debug_line    0x000000000000a651       0x83 .build/obj_sofle_rev1_LohseBoi/quantum/main.o
 .debug_line    0x000000000000a6d4      0x466 .build/obj_sofle_rev1_LohseBoi/quantum/wpm.o
 .debug_line    0x000000000000ab3a      0x683 .build/obj_sofle_rev1_LohseBoi/quantum/encoder.o
 .debug_line    0x000000000000b1bd      0x261 .build/obj_sofle_rev1_LohseBoi/crc.o
 .debug_line    0x000000000000b41e     0x18ef .build/obj_sofle_rev1_LohseBoi/ssd1306_sh1106.o
 .debug_line    0x000000000000cd0d      0x470 .build/obj_sofle_rev1_LohseBoi/quantum/process_keycode/process_space_cadet.o
 .debug_line    0x000000000000d17d      0x487 .build/obj_sofle_rev1_LohseBoi/quantum/process_keycode/process_magic.o
 .debug_line    0x000000000000d604      0x295 .build/obj_sofle_rev1_LohseBoi/quantum/process_keycode/process_grave_esc.o
 .debug_line    0x000000000000d899      0xb06 .build/obj_sofle_rev1_LohseBoi/i2c_master.a(i2c_master.o)
 .debug_line    0x000000000000e39f     0x1256 .build/obj_sofle_rev1_LohseBoi/serial.a(serial.o)
 .debug_line    0x000000000000f5f5      0x4f9 .build/obj_sofle_rev1_LohseBoi/common/host.o
 .debug_line    0x000000000000faee      0x37a .build/obj_sofle_rev1_LohseBoi/common/report.o
 .debug_line    0x000000000000fe68      0x2d9 .build/obj_sofle_rev1_LohseBoi/common/sync_timer.o
 .debug_line    0x0000000000010141       0x59 .build/obj_sofle_rev1_LohseBoi/common/avr/platform.o
 .debug_line    0x000000000001019a      0x457 .build/obj_sofle_rev1_LohseBoi/common/avr/suspend.o
 .debug_line    0x00000000000105f1      0x433 .build/obj_sofle_rev1_LohseBoi/common/avr/timer.o
 .debug_line    0x0000000000010a24      0x22e .build/obj_sofle_rev1_LohseBoi/common/avr/bootloader.o
 .debug_line    0x0000000000010c52       0xa8 .build/obj_sofle_rev1_LohseBoi/common/avr/printf.o
 .debug_line    0x0000000000010cfa      0xf4e .build/obj_sofle_rev1_LohseBoi/lufa.o
 .debug_line    0x0000000000011c48      0x360 .build/obj_sofle_rev1_LohseBoi/usb_descriptor.o
 .debug_line    0x0000000000011fa8      0x225 .build/obj_sofle_rev1_LohseBoi/lib/lufa/LUFA/Drivers/USB/Core/AVR8/Device_AVR8.o
 .debug_line    0x00000000000121cd     0x3333 .build/obj_sofle_rev1_LohseBoi/lib/lufa/LUFA/Drivers/USB/Core/AVR8/EndpointStream_AVR8.o
 .debug_line    0x0000000000015500      0x97f .build/obj_sofle_rev1_LohseBoi/lib/lufa/LUFA/Drivers/USB/Core/AVR8/Endpoint_AVR8.o
 .debug_line    0x0000000000015e7f      0x676 .build/obj_sofle_rev1_LohseBoi/lib/lufa/LUFA/Drivers/USB/Core/AVR8/USBController_AVR8.o
 .debug_line    0x00000000000164f5      0xd18 .build/obj_sofle_rev1_LohseBoi/lib/lufa/LUFA/Drivers/USB/Core/AVR8/USBInterrupt_AVR8.o
 .debug_line    0x000000000001720d      0xd42 .build/obj_sofle_rev1_LohseBoi/lib/lufa/LUFA/Drivers/USB/Core/DeviceStandardReq.o
 .debug_line    0x0000000000017f4f       0xd5 .build/obj_sofle_rev1_LohseBoi/lib/lufa/LUFA/Drivers/USB/Core/Events.o
 .debug_line    0x0000000000018024      0x24f .build/obj_sofle_rev1_LohseBoi/lib/lufa/LUFA/Drivers/USB/Core/USBTask.o
 .debug_line    0x0000000000018273      0x2d2 .build/obj_sofle_rev1_LohseBoi/protocol/lufa/usb_util.o

.debug_frame    0x0000000000000000     0x2e48
 *(.debug_frame)
 .debug_frame   0x0000000000000000       0x98 .build/obj_sofle_rev1_LohseBoi/keyboards/sofle/keymaps/LohseBoi/keymap.o
 .debug_frame   0x0000000000000098      0x230 .build/obj_sofle_rev1_LohseBoi/quantum/quantum.o
 .debug_frame   0x00000000000002c8      0x13c .build/obj_sofle_rev1_LohseBoi/quantum/send_string.o
 .debug_frame   0x0000000000000404      0x100 .build/obj_sofle_rev1_LohseBoi/quantum/bitwise.o
 .debug_frame   0x0000000000000504       0x7c .build/obj_sofle_rev1_LohseBoi/quantum/led.o
 .debug_frame   0x0000000000000580      0x27c .build/obj_sofle_rev1_LohseBoi/quantum/action.o
 .debug_frame   0x00000000000007fc      0x288 .build/obj_sofle_rev1_LohseBoi/quantum/action_layer.o
 .debug_frame   0x0000000000000a84       0xe4 .build/obj_sofle_rev1_LohseBoi/quantum/action_tapping.o
 .debug_frame   0x0000000000000b68      0x334 .build/obj_sofle_rev1_LohseBoi/quantum/action_util.o
 .debug_frame   0x0000000000000e9c      0x1a4 .build/obj_sofle_rev1_LohseBoi/quantum/eeconfig.o
 .debug_frame   0x0000000000001040      0x1c8 .build/obj_sofle_rev1_LohseBoi/quantum/keyboard.o
 .debug_frame   0x0000000000001208       0x80 .build/obj_sofle_rev1_LohseBoi/quantum/keymap_common.o
 .debug_frame   0x0000000000001288       0x34 .build/obj_sofle_rev1_LohseBoi/quantum/keycode_config.o
 .debug_frame   0x00000000000012bc       0x24 .build/obj_sofle_rev1_LohseBoi/quantum/logging/sendchar.o
 .debug_frame   0x00000000000012e0       0x34 .build/obj_sofle_rev1_LohseBoi/quantum/bootmagic/magic.o
 .debug_frame   0x0000000000001314      0x15c .build/obj_sofle_rev1_LohseBoi/quantum/matrix_common.o
 .debug_frame   0x0000000000001470      0x124 .build/obj_sofle_rev1_LohseBoi/quantum/matrix.o
 .debug_frame   0x0000000000001594       0x70 .build/obj_sofle_rev1_LohseBoi/quantum/debounce/sym_defer_g.o
 .debug_frame   0x0000000000001604       0x88 .build/obj_sofle_rev1_LohseBoi/quantum/split_common/split_util.o
 .debug_frame   0x000000000000168c       0x84 .build/obj_sofle_rev1_LohseBoi/quantum/split_common/transport.o
 .debug_frame   0x0000000000001710      0x1a0 .build/obj_sofle_rev1_LohseBoi/quantum/split_common/transactions.o
 .debug_frame   0x00000000000018b0       0x24 .build/obj_sofle_rev1_LohseBoi/quantum/main.o
 .debug_frame   0x00000000000018d4       0xc4 .build/obj_sofle_rev1_LohseBoi/quantum/wpm.o
 .debug_frame   0x0000000000001998       0x98 .build/obj_sofle_rev1_LohseBoi/quantum/encoder.o
 .debug_frame   0x0000000000001a30       0x34 .build/obj_sofle_rev1_LohseBoi/crc.o
 .debug_frame   0x0000000000001a64      0x368 .build/obj_sofle_rev1_LohseBoi/ssd1306_sh1106.o
 .debug_frame   0x0000000000001dcc       0x50 .build/obj_sofle_rev1_LohseBoi/quantum/process_keycode/process_space_cadet.o
 .debug_frame   0x0000000000001e1c       0x30 .build/obj_sofle_rev1_LohseBoi/quantum/process_keycode/process_magic.o
 .debug_frame   0x0000000000001e4c       0x30 .build/obj_sofle_rev1_LohseBoi/quantum/process_keycode/process_grave_esc.o
 .debug_frame   0x0000000000001e7c      0x1c8 .build/obj_sofle_rev1_LohseBoi/i2c_master.a(i2c_master.o)
 .debug_frame   0x0000000000002044      0x184 .build/obj_sofle_rev1_LohseBoi/serial.a(serial.o)
 .debug_frame   0x00000000000021c8      0x100 .build/obj_sofle_rev1_LohseBoi/common/host.o
 .debug_frame   0x00000000000022c8       0x94 .build/obj_sofle_rev1_LohseBoi/common/report.o
 .debug_frame   0x000000000000235c       0xb4 .build/obj_sofle_rev1_LohseBoi/common/sync_timer.o
 .debug_frame   0x0000000000002410       0x24 .build/obj_sofle_rev1_LohseBoi/common/avr/platform.o
 .debug_frame   0x0000000000002434       0xdc .build/obj_sofle_rev1_LohseBoi/common/avr/suspend.o
 .debug_frame   0x0000000000002510       0xa8 .build/obj_sofle_rev1_LohseBoi/common/avr/timer.o
 .debug_frame   0x00000000000025b8       0x34 .build/obj_sofle_rev1_LohseBoi/common/avr/bootloader.o
 .debug_frame   0x00000000000025ec       0x24 .build/obj_sofle_rev1_LohseBoi/common/avr/printf.o
 .debug_frame   0x0000000000002610      0x140 .build/obj_sofle_rev1_LohseBoi/lufa.o
 .debug_frame   0x0000000000002750       0x24 .build/obj_sofle_rev1_LohseBoi/usb_descriptor.o
 .debug_frame   0x0000000000002774       0x24 .build/obj_sofle_rev1_LohseBoi/lib/lufa/LUFA/Drivers/USB/Core/AVR8/Device_AVR8.o
 .debug_frame   0x0000000000002798      0x404 .build/obj_sofle_rev1_LohseBoi/lib/lufa/LUFA/Drivers/USB/Core/AVR8/EndpointStream_AVR8.o
 .debug_frame   0x0000000000002b9c       0x78 .build/obj_sofle_rev1_LohseBoi/lib/lufa/LUFA/Drivers/USB/Core/AVR8/Endpoint_AVR8.o
 .debug_frame   0x0000000000002c14       0x58 .build/obj_sofle_rev1_LohseBoi/lib/lufa/LUFA/Drivers/USB/Core/AVR8/USBController_AVR8.o
 .debug_frame   0x0000000000002c6c       0xec .build/obj_sofle_rev1_LohseBoi/lib/lufa/LUFA/Drivers/USB/Core/AVR8/USBInterrupt_AVR8.o
 .debug_frame   0x0000000000002d58       0x3c .build/obj_sofle_rev1_LohseBoi/lib/lufa/LUFA/Drivers/USB/Core/DeviceStandardReq.o
 .debug_frame   0x0000000000002d94       0x44 .build/obj_sofle_rev1_LohseBoi/lib/lufa/LUFA/Drivers/USB/Core/Events.o
 .debug_frame   0x0000000000002dd8       0x2c .build/obj_sofle_rev1_LohseBoi/lib/lufa/LUFA/Drivers/USB/Core/USBTask.o
 .debug_frame   0x0000000000002e04       0x44 .build/obj_sofle_rev1_LohseBoi/protocol/lufa/usb_util.o

.debug_str      0x0000000000000000     0x762e
 *(.debug_str)
 .debug_str     0x0000000000000000      0x371 /usr/lib/gcc/avr/8.3.0/../../../../avr/lib/avr5/crtatmega32u4.o
 .debug_str     0x0000000000000371      0x507 .build/obj_sofle_rev1_LohseBoi/keyboards/sofle/sofle.o
                                        0x591 (size before relaxing)
 .debug_str     0x0000000000000878     0x1d55 .build/obj_sofle_rev1_LohseBoi/keyboards/sofle/keymaps/LohseBoi/keymap.o
                                       0x2382 (size before relaxing)
 .debug_str     0x00000000000025cd      0x35d .build/obj_sofle_rev1_LohseBoi/quantum/quantum.o
                                       0x2172 (size before relaxing)
 .debug_str     0x000000000000292a       0xd4 .build/obj_sofle_rev1_LohseBoi/quantum/send_string.o
                                        0xc98 (size before relaxing)
 .debug_str     0x00000000000029fe       0x52 .build/obj_sofle_rev1_LohseBoi/quantum/bitwise.o
                                        0x1db (size before relaxing)
 .debug_str     0x0000000000002a50       0x54 .build/obj_sofle_rev1_LohseBoi/quantum/led.o
                                        0x618 (size before relaxing)
 .debug_str     0x0000000000002aa4      0xa25 .build/obj_sofle_rev1_LohseBoi/quantum/action.o
                                       0x17cc (size before relaxing)
 .debug_str     0x00000000000034c9       0xd3 .build/obj_sofle_rev1_LohseBoi/quantum/action_layer.o
                                        0x5a0 (size before relaxing)
 .debug_str     0x000000000000359c       0xef .build/obj_sofle_rev1_LohseBoi/quantum/action_tapping.o
                                        0xbb5 (size before relaxing)
 .debug_str     0x000000000000368b      0x2f0 .build/obj_sofle_rev1_LohseBoi/quantum/action_util.o
                                        0x87f (size before relaxing)
 .debug_str     0x000000000000397b      0x25b .build/obj_sofle_rev1_LohseBoi/quantum/eeconfig.o
                                        0x488 (size before relaxing)
 .debug_str     0x0000000000003bd6      0x366 .build/obj_sofle_rev1_LohseBoi/quantum/keyboard.o
                                        0x9ed (size before relaxing)
 .debug_str     0x0000000000003f3c       0xa3 .build/obj_sofle_rev1_LohseBoi/quantum/keymap_common.o
                                       0x2633 (size before relaxing)
 .debug_str     0x0000000000003fdf       0x19 .build/obj_sofle_rev1_LohseBoi/quantum/keycode_config.o
                                        0x889 (size before relaxing)
 .debug_str     0x0000000000003ff8       0x18 .build/obj_sofle_rev1_LohseBoi/quantum/logging/debug.o
                                        0x1ca (size before relaxing)
 .debug_str     0x0000000000004010       0x1b .build/obj_sofle_rev1_LohseBoi/quantum/logging/sendchar.o
                                        0x195 (size before relaxing)
 .debug_str     0x000000000000402b       0x24 .build/obj_sofle_rev1_LohseBoi/quantum/bootmagic/magic.o
                                        0x582 (size before relaxing)
 .debug_str     0x000000000000404f      0x150 .build/obj_sofle_rev1_LohseBoi/quantum/matrix_common.o
                                        0x7ba (size before relaxing)
 .debug_str     0x000000000000419f      0x3ba .build/obj_sofle_rev1_LohseBoi/quantum/matrix.o
                                        0xaa3 (size before relaxing)
 .debug_str     0x0000000000004559       0x88 .build/obj_sofle_rev1_LohseBoi/quantum/debounce/sym_defer_g.o
                                        0x65b (size before relaxing)
 .debug_str     0x00000000000045e1       0xf6 .build/obj_sofle_rev1_LohseBoi/quantum/split_common/split_util.o
                                        0x825 (size before relaxing)
 .debug_str     0x00000000000046d7      0x130 .build/obj_sofle_rev1_LohseBoi/quantum/split_common/transport.o
                                        0x971 (size before relaxing)
 .debug_str     0x0000000000004807      0x203 .build/obj_sofle_rev1_LohseBoi/quantum/split_common/transactions.o
                                        0xb31 (size before relaxing)
 .debug_str     0x0000000000004a0a       0x4e .build/obj_sofle_rev1_LohseBoi/quantum/main.o
                                        0x1c8 (size before relaxing)
 .debug_str     0x0000000000004a58       0x76 .build/obj_sofle_rev1_LohseBoi/quantum/wpm.o
                                       0x1d7a (size before relaxing)
 .debug_str     0x0000000000004ace       0xb6 .build/obj_sofle_rev1_LohseBoi/quantum/encoder.o
                                        0x71a (size before relaxing)
 .debug_str     0x0000000000004b84       0x2b .build/obj_sofle_rev1_LohseBoi/crc.o
                                        0x5b7 (size before relaxing)
 .debug_str     0x0000000000004baf      0x50b .build/obj_sofle_rev1_LohseBoi/ssd1306_sh1106.o
                                        0x839 (size before relaxing)
 .debug_str     0x00000000000050ba       0x6d .build/obj_sofle_rev1_LohseBoi/quantum/process_keycode/process_space_cadet.o
                                       0x1dd8 (size before relaxing)
 .debug_str     0x0000000000005127       0x28 .build/obj_sofle_rev1_LohseBoi/quantum/process_keycode/process_magic.o
                                       0x17e7 (size before relaxing)
 .debug_str     0x000000000000514f       0x42 .build/obj_sofle_rev1_LohseBoi/quantum/process_keycode/process_grave_esc.o
                                       0x1da1 (size before relaxing)
 .debug_str     0x0000000000005191      0x18d .build/obj_sofle_rev1_LohseBoi/i2c_master.a(i2c_master.o)
                                        0x2bb (size before relaxing)
 .debug_str     0x000000000000531e      0x190 .build/obj_sofle_rev1_LohseBoi/serial.a(serial.o)
                                        0xa0d (size before relaxing)
 .debug_str     0x00000000000054ae      0x143 .build/obj_sofle_rev1_LohseBoi/common/host.o
                                        0x7e3 (size before relaxing)
 .debug_str     0x00000000000055f1       0x47 .build/obj_sofle_rev1_LohseBoi/common/report.o
                                        0x935 (size before relaxing)
 .debug_str     0x0000000000005638       0x63 .build/obj_sofle_rev1_LohseBoi/common/sync_timer.o
                                        0x280 (size before relaxing)
 .debug_str     0x000000000000569b       0x1f .build/obj_sofle_rev1_LohseBoi/common/avr/platform.o
                                        0x190 (size before relaxing)
 .debug_str     0x00000000000056ba      0x2c0 .build/obj_sofle_rev1_LohseBoi/common/avr/suspend.o
                                        0x5b8 (size before relaxing)
 .debug_str     0x000000000000597a       0x49 .build/obj_sofle_rev1_LohseBoi/common/avr/timer.o
                                        0x235 (size before relaxing)
 .debug_str     0x00000000000059c3       0x6e .build/obj_sofle_rev1_LohseBoi/common/avr/bootloader.o
                                        0x336 (size before relaxing)
 .debug_str     0x0000000000005a31       0x37 .build/obj_sofle_rev1_LohseBoi/common/avr/printf.o
                                        0x1c0 (size before relaxing)
 .debug_str     0x0000000000005a68      0x620 .build/obj_sofle_rev1_LohseBoi/lufa.o
                                        0xf50 (size before relaxing)
 .debug_str     0x0000000000006088      0x6a9 .build/obj_sofle_rev1_LohseBoi/usb_descriptor.o
                                        0xacc (size before relaxing)
 .debug_str     0x0000000000006731       0x5e .build/obj_sofle_rev1_LohseBoi/lib/lufa/LUFA/Drivers/USB/Core/AVR8/Device_AVR8.o
                                        0x2c8 (size before relaxing)
 .debug_str     0x000000000000678f      0x4a3 .build/obj_sofle_rev1_LohseBoi/lib/lufa/LUFA/Drivers/USB/Core/AVR8/EndpointStream_AVR8.o
                                        0x8bc (size before relaxing)
 .debug_str     0x0000000000006c32      0x254 .build/obj_sofle_rev1_LohseBoi/lib/lufa/LUFA/Drivers/USB/Core/AVR8/Endpoint_AVR8.o
                                        0x67c (size before relaxing)
 .debug_str     0x0000000000006e86      0x181 .build/obj_sofle_rev1_LohseBoi/lib/lufa/LUFA/Drivers/USB/Core/AVR8/USBController_AVR8.o
                                        0x5a0 (size before relaxing)
 .debug_str     0x0000000000007007      0x146 .build/obj_sofle_rev1_LohseBoi/lib/lufa/LUFA/Drivers/USB/Core/AVR8/USBInterrupt_AVR8.o
                                        0x670 (size before relaxing)
 .debug_str     0x000000000000714d      0x40d .build/obj_sofle_rev1_LohseBoi/lib/lufa/LUFA/Drivers/USB/Core/DeviceStandardReq.o
                                        0x9ad (size before relaxing)
 .debug_str     0x000000000000755a       0x59 .build/obj_sofle_rev1_LohseBoi/lib/lufa/LUFA/Drivers/USB/Core/Events.o
                                        0x1c3 (size before relaxing)
 .debug_str     0x00000000000075b3       0x45 .build/obj_sofle_rev1_LohseBoi/lib/lufa/LUFA/Drivers/USB/Core/USBTask.o
                                        0x3cf (size before relaxing)
 .debug_str     0x00000000000075f8       0x36 .build/obj_sofle_rev1_LohseBoi/protocol/lufa/usb_util.o
                                        0x414 (size before relaxing)

.debug_loc      0x0000000000000000     0xedf4
 *(.debug_loc)
 .debug_loc     0x0000000000000000      0x2fd .build/obj_sofle_rev1_LohseBoi/keyboards/sofle/keymaps/LohseBoi/keymap.o
 .debug_loc     0x00000000000002fd      0xade .build/obj_sofle_rev1_LohseBoi/quantum/quantum.o
 .debug_loc     0x0000000000000ddb      0xebc .build/obj_sofle_rev1_LohseBoi/quantum/send_string.o
 .debug_loc     0x0000000000001c97      0x58d .build/obj_sofle_rev1_LohseBoi/quantum/bitwise.o
 .debug_loc     0x0000000000002224       0xb0 .build/obj_sofle_rev1_LohseBoi/quantum/led.o
 .debug_loc     0x00000000000022d4      0xcf8 .build/obj_sofle_rev1_LohseBoi/quantum/action.o
 .debug_loc     0x0000000000002fcc      0x92e .build/obj_sofle_rev1_LohseBoi/quantum/action_layer.o
 .debug_loc     0x00000000000038fa      0x6c1 .build/obj_sofle_rev1_LohseBoi/quantum/action_tapping.o
 .debug_loc     0x0000000000003fbb      0x389 .build/obj_sofle_rev1_LohseBoi/quantum/action_util.o
 .debug_loc     0x0000000000004344      0x203 .build/obj_sofle_rev1_LohseBoi/quantum/eeconfig.o
 .debug_loc     0x0000000000004547      0x259 .build/obj_sofle_rev1_LohseBoi/quantum/keyboard.o
 .debug_loc     0x00000000000047a0      0x770 .build/obj_sofle_rev1_LohseBoi/quantum/keymap_common.o
 .debug_loc     0x0000000000004f10      0x203 .build/obj_sofle_rev1_LohseBoi/quantum/keycode_config.o
 .debug_loc     0x0000000000005113       0x25 .build/obj_sofle_rev1_LohseBoi/quantum/logging/sendchar.o
 .debug_loc     0x0000000000005138       0x2c .build/obj_sofle_rev1_LohseBoi/quantum/bootmagic/magic.o
 .debug_loc     0x0000000000005164      0x2e1 .build/obj_sofle_rev1_LohseBoi/quantum/matrix_common.o
 .debug_loc     0x0000000000005445      0x6a6 .build/obj_sofle_rev1_LohseBoi/quantum/matrix.o
 .debug_loc     0x0000000000005aeb      0x16f .build/obj_sofle_rev1_LohseBoi/quantum/debounce/sym_defer_g.o
 .debug_loc     0x0000000000005c5a      0x195 .build/obj_sofle_rev1_LohseBoi/quantum/split_common/split_util.o
 .debug_loc     0x0000000000005def      0x1f7 .build/obj_sofle_rev1_LohseBoi/quantum/split_common/transport.o
 .debug_loc     0x0000000000005fe6      0xcd3 .build/obj_sofle_rev1_LohseBoi/quantum/split_common/transactions.o
 .debug_loc     0x0000000000006cb9      0x20a .build/obj_sofle_rev1_LohseBoi/quantum/wpm.o
 .debug_loc     0x0000000000006ec3      0x338 .build/obj_sofle_rev1_LohseBoi/quantum/encoder.o
 .debug_loc     0x00000000000071fb      0x159 .build/obj_sofle_rev1_LohseBoi/crc.o
 .debug_loc     0x0000000000007354     0x13ef .build/obj_sofle_rev1_LohseBoi/ssd1306_sh1106.o
 .debug_loc     0x0000000000008743      0x4a6 .build/obj_sofle_rev1_LohseBoi/quantum/process_keycode/process_space_cadet.o
 .debug_loc     0x0000000000008be9       0xdb .build/obj_sofle_rev1_LohseBoi/quantum/process_keycode/process_magic.o
 .debug_loc     0x0000000000008cc4      0x143 .build/obj_sofle_rev1_LohseBoi/quantum/process_keycode/process_grave_esc.o
 .debug_loc     0x0000000000008e07      0xd9b .build/obj_sofle_rev1_LohseBoi/i2c_master.a(i2c_master.o)
 .debug_loc     0x0000000000009ba2      0xb76 .build/obj_sofle_rev1_LohseBoi/serial.a(serial.o)
 .debug_loc     0x000000000000a718      0x18e .build/obj_sofle_rev1_LohseBoi/common/host.o
 .debug_loc     0x000000000000a8a6      0x333 .build/obj_sofle_rev1_LohseBoi/common/report.o
 .debug_loc     0x000000000000abd9      0x1c0 .build/obj_sofle_rev1_LohseBoi/common/sync_timer.o
 .debug_loc     0x000000000000ad99       0xdf .build/obj_sofle_rev1_LohseBoi/common/avr/suspend.o
 .debug_loc     0x000000000000ae78      0x2c0 .build/obj_sofle_rev1_LohseBoi/common/avr/timer.o
 .debug_loc     0x000000000000b138      0x48f .build/obj_sofle_rev1_LohseBoi/lufa.o
 .debug_loc     0x000000000000b5c7      0x27d .build/obj_sofle_rev1_LohseBoi/usb_descriptor.o
 .debug_loc     0x000000000000b844     0x2752 .build/obj_sofle_rev1_LohseBoi/lib/lufa/LUFA/Drivers/USB/Core/AVR8/EndpointStream_AVR8.o
 .debug_loc     0x000000000000df96      0x4a0 .build/obj_sofle_rev1_LohseBoi/lib/lufa/LUFA/Drivers/USB/Core/AVR8/Endpoint_AVR8.o
 .debug_loc     0x000000000000e436       0xf9 .build/obj_sofle_rev1_LohseBoi/lib/lufa/LUFA/Drivers/USB/Core/AVR8/USBController_AVR8.o
 .debug_loc     0x000000000000e52f      0x492 .build/obj_sofle_rev1_LohseBoi/lib/lufa/LUFA/Drivers/USB/Core/AVR8/USBInterrupt_AVR8.o
 .debug_loc     0x000000000000e9c1      0x386 .build/obj_sofle_rev1_LohseBoi/lib/lufa/LUFA/Drivers/USB/Core/DeviceStandardReq.o
 .debug_loc     0x000000000000ed47       0x62 .build/obj_sofle_rev1_LohseBoi/lib/lufa/LUFA/Drivers/USB/Core/USBTask.o
 .debug_loc     0x000000000000eda9       0x4b .build/obj_sofle_rev1_LohseBoi/protocol/lufa/usb_util.o

.debug_macinfo
 *(.debug_macinfo)

.debug_weaknames
 *(.debug_weaknames)

.debug_funcnames
 *(.debug_funcnames)

.debug_typenames
 *(.debug_typenames)

.debug_varnames
 *(.debug_varnames)

.debug_pubtypes
 *(.debug_pubtypes)

.debug_ranges   0x0000000000000000     0x1d68
 *(.debug_ranges)
 .debug_ranges  0x0000000000000000      0x128 .build/obj_sofle_rev1_LohseBoi/keyboards/sofle/keymaps/LohseBoi/keymap.o
 .debug_ranges  0x0000000000000128      0x100 .build/obj_sofle_rev1_LohseBoi/quantum/quantum.o
 .debug_ranges  0x0000000000000228       0xd0 .build/obj_sofle_rev1_LohseBoi/quantum/send_string.o
 .debug_ranges  0x00000000000002f8       0x50 .build/obj_sofle_rev1_LohseBoi/quantum/bitwise.o
 .debug_ranges  0x0000000000000348       0x38 .build/obj_sofle_rev1_LohseBoi/quantum/led.o
 .debug_ranges  0x0000000000000380      0x158 .build/obj_sofle_rev1_LohseBoi/quantum/action.o
 .debug_ranges  0x00000000000004d8      0x128 .build/obj_sofle_rev1_LohseBoi/quantum/action_layer.o
 .debug_ranges  0x0000000000000600       0xf0 .build/obj_sofle_rev1_LohseBoi/quantum/action_tapping.o
 .debug_ranges  0x00000000000006f0      0x188 .build/obj_sofle_rev1_LohseBoi/quantum/action_util.o
 .debug_ranges  0x0000000000000878       0xc8 .build/obj_sofle_rev1_LohseBoi/quantum/eeconfig.o
 .debug_ranges  0x0000000000000940      0x110 .build/obj_sofle_rev1_LohseBoi/quantum/keyboard.o
 .debug_ranges  0x0000000000000a50       0x38 .build/obj_sofle_rev1_LohseBoi/quantum/keymap_common.o
 .debug_ranges  0x0000000000000a88       0x18 .build/obj_sofle_rev1_LohseBoi/quantum/keycode_config.o
 .debug_ranges  0x0000000000000aa0       0x10 .build/obj_sofle_rev1_LohseBoi/quantum/logging/sendchar.o
 .debug_ranges  0x0000000000000ab0       0x18 .build/obj_sofle_rev1_LohseBoi/quantum/bootmagic/magic.o
 .debug_ranges  0x0000000000000ac8       0xa8 .build/obj_sofle_rev1_LohseBoi/quantum/matrix_common.o
 .debug_ranges  0x0000000000000b70      0x108 .build/obj_sofle_rev1_LohseBoi/quantum/matrix.o
 .debug_ranges  0x0000000000000c78       0x40 .build/obj_sofle_rev1_LohseBoi/quantum/debounce/sym_defer_g.o
 .debug_ranges  0x0000000000000cb8       0x58 .build/obj_sofle_rev1_LohseBoi/quantum/split_common/split_util.o
 .debug_ranges  0x0000000000000d10       0x30 .build/obj_sofle_rev1_LohseBoi/quantum/split_common/transport.o
 .debug_ranges  0x0000000000000d40       0x78 .build/obj_sofle_rev1_LohseBoi/quantum/split_common/transactions.o
 .debug_ranges  0x0000000000000db8       0x10 .build/obj_sofle_rev1_LohseBoi/quantum/main.o
 .debug_ranges  0x0000000000000dc8       0x40 .build/obj_sofle_rev1_LohseBoi/quantum/wpm.o
 .debug_ranges  0x0000000000000e08       0x58 .build/obj_sofle_rev1_LohseBoi/quantum/encoder.o
 .debug_ranges  0x0000000000000e60       0x18 .build/obj_sofle_rev1_LohseBoi/crc.o
 .debug_ranges  0x0000000000000e78      0x2e0 .build/obj_sofle_rev1_LohseBoi/ssd1306_sh1106.o
 .debug_ranges  0x0000000000001158       0x18 .build/obj_sofle_rev1_LohseBoi/quantum/process_keycode/process_space_cadet.o
 .debug_ranges  0x0000000000001170       0x10 .build/obj_sofle_rev1_LohseBoi/quantum/process_keycode/process_magic.o
 .debug_ranges  0x0000000000001180       0x28 .build/obj_sofle_rev1_LohseBoi/quantum/process_keycode/process_grave_esc.o
 .debug_ranges  0x00000000000011a8       0xe0 .build/obj_sofle_rev1_LohseBoi/i2c_master.a(i2c_master.o)
 .debug_ranges  0x0000000000001288      0x270 .build/obj_sofle_rev1_LohseBoi/serial.a(serial.o)
 .debug_ranges  0x00000000000014f8       0x70 .build/obj_sofle_rev1_LohseBoi/common/host.o
 .debug_ranges  0x0000000000001568       0x60 .build/obj_sofle_rev1_LohseBoi/common/report.o
 .debug_ranges  0x00000000000015c8       0x38 .build/obj_sofle_rev1_LohseBoi/common/sync_timer.o
 .debug_ranges  0x0000000000001600       0x10 .build/obj_sofle_rev1_LohseBoi/common/avr/platform.o
 .debug_ranges  0x0000000000001610       0x90 .build/obj_sofle_rev1_LohseBoi/common/avr/suspend.o
 .debug_ranges  0x00000000000016a0       0x40 .build/obj_sofle_rev1_LohseBoi/common/avr/timer.o
 .debug_ranges  0x00000000000016e0       0x30 .build/obj_sofle_rev1_LohseBoi/common/avr/bootloader.o
 .debug_ranges  0x0000000000001710       0x10 .build/obj_sofle_rev1_LohseBoi/common/avr/printf.o
 .debug_ranges  0x0000000000001720      0x140 .build/obj_sofle_rev1_LohseBoi/lufa.o
 .debug_ranges  0x0000000000001860       0x28 .build/obj_sofle_rev1_LohseBoi/usb_descriptor.o
 .debug_ranges  0x0000000000001888       0x10 .build/obj_sofle_rev1_LohseBoi/lib/lufa/LUFA/Drivers/USB/Core/AVR8/Device_AVR8.o
 .debug_ranges  0x0000000000001898      0x1f8 .build/obj_sofle_rev1_LohseBoi/lib/lufa/LUFA/Drivers/USB/Core/AVR8/EndpointStream_AVR8.o
 .debug_ranges  0x0000000000001a90       0xd8 .build/obj_sofle_rev1_LohseBoi/lib/lufa/LUFA/Drivers/USB/Core/AVR8/Endpoint_AVR8.o
 .debug_ranges  0x0000000000001b68       0x50 .build/obj_sofle_rev1_LohseBoi/lib/lufa/LUFA/Drivers/USB/Core/AVR8/USBController_AVR8.o
 .debug_ranges  0x0000000000001bb8       0x70 .build/obj_sofle_rev1_LohseBoi/lib/lufa/LUFA/Drivers/USB/Core/AVR8/USBInterrupt_AVR8.o
 .debug_ranges  0x0000000000001c28       0xf0 .build/obj_sofle_rev1_LohseBoi/lib/lufa/LUFA/Drivers/USB/Core/DeviceStandardReq.o
 .debug_ranges  0x0000000000001d18       0x20 .build/obj_sofle_rev1_LohseBoi/lib/lufa/LUFA/Drivers/USB/Core/Events.o
 .debug_ranges  0x0000000000001d38       0x10 .build/obj_sofle_rev1_LohseBoi/lib/lufa/LUFA/Drivers/USB/Core/USBTask.o
 .debug_ranges  0x0000000000001d48       0x20 .build/obj_sofle_rev1_LohseBoi/protocol/lufa/usb_util.o

.debug_addr
 *(.debug_addr)

.debug_line_str
 *(.debug_line_str)

.debug_loclists
 *(.debug_loclists)

.debug_macro
 *(.debug_macro)

.debug_names
 *(.debug_names)

.debug_rnglists
 *(.debug_rnglists)

.debug_str_offsets
 *(.debug_str_offsets)

.debug_sup
 *(.debug_sup)
OUTPUT(.build/sofle_rev1_LohseBoi.elf elf32-avr)
LOAD linker stubs

Cross Reference Table

Symbol                                            File
CALLBACK_HIDParser_FilterHIDReportItem            .build/obj_sofle_rev1_LohseBoi/lib/lufa/LUFA/Drivers/USB/Class/Common/HIDParser.o
CALLBACK_USB_GetDescriptor                        .build/obj_sofle_rev1_LohseBoi/lufa.o
                                                  .build/obj_sofle_rev1_LohseBoi/lib/lufa/LUFA/Drivers/USB/Core/DeviceStandardReq.o
ConfigurationDescriptor                           .build/obj_sofle_rev1_LohseBoi/usb_descriptor.o
DeviceDescriptor                                  .build/obj_sofle_rev1_LohseBoi/usb_descriptor.o
EVENT_USB_Device_ConfigurationChanged             .build/obj_sofle_rev1_LohseBoi/lufa.o
                                                  .build/obj_sofle_rev1_LohseBoi/lib/lufa/LUFA/Drivers/USB/Core/DeviceStandardReq.o
EVENT_USB_Device_Connect                          .build/obj_sofle_rev1_LohseBoi/lufa.o
                                                  .build/obj_sofle_rev1_LohseBoi/lib/lufa/LUFA/Drivers/USB/Core/AVR8/USBInterrupt_AVR8.o
EVENT_USB_Device_ControlRequest                   .build/obj_sofle_rev1_LohseBoi/lufa.o
                                                  .build/obj_sofle_rev1_LohseBoi/lib/lufa/LUFA/Drivers/USB/Core/DeviceStandardReq.o
EVENT_USB_Device_Disconnect                       .build/obj_sofle_rev1_LohseBoi/lufa.o
                                                  .build/obj_sofle_rev1_LohseBoi/lib/lufa/LUFA/Drivers/USB/Core/AVR8/USBInterrupt_AVR8.o
EVENT_USB_Device_Reset                            .build/obj_sofle_rev1_LohseBoi/lufa.o
                                                  .build/obj_sofle_rev1_LohseBoi/lib/lufa/LUFA/Drivers/USB/Core/AVR8/USBInterrupt_AVR8.o
EVENT_USB_Device_StartOfFrame                     .build/obj_sofle_rev1_LohseBoi/lib/lufa/LUFA/Drivers/USB/Core/Events.o
                                                  .build/obj_sofle_rev1_LohseBoi/lib/lufa/LUFA/Drivers/USB/Core/AVR8/USBInterrupt_AVR8.o
EVENT_USB_Device_Suspend                          .build/obj_sofle_rev1_LohseBoi/lufa.o
                                                  .build/obj_sofle_rev1_LohseBoi/lib/lufa/LUFA/Drivers/USB/Core/AVR8/USBInterrupt_AVR8.o
EVENT_USB_Device_WakeUp                           .build/obj_sofle_rev1_LohseBoi/lufa.o
                                                  .build/obj_sofle_rev1_LohseBoi/lib/lufa/LUFA/Drivers/USB/Core/AVR8/USBInterrupt_AVR8.o
Endpoint_ClearEndpoints                           .build/obj_sofle_rev1_LohseBoi/lib/lufa/LUFA/Drivers/USB/Core/AVR8/Endpoint_AVR8.o
Endpoint_ClearStatusStage                         .build/obj_sofle_rev1_LohseBoi/lib/lufa/LUFA/Drivers/USB/Core/AVR8/Endpoint_AVR8.o
                                                  .build/obj_sofle_rev1_LohseBoi/lib/lufa/LUFA/Drivers/USB/Core/DeviceStandardReq.o
                                                  .build/obj_sofle_rev1_LohseBoi/lufa.o
Endpoint_ConfigureEndpointTable                   .build/obj_sofle_rev1_LohseBoi/lib/lufa/LUFA/Drivers/USB/Core/AVR8/Endpoint_AVR8.o
Endpoint_ConfigureEndpoint_Prv                    .build/obj_sofle_rev1_LohseBoi/lib/lufa/LUFA/Drivers/USB/Core/AVR8/Endpoint_AVR8.o
                                                  .build/obj_sofle_rev1_LohseBoi/lib/lufa/LUFA/Drivers/USB/Core/AVR8/USBInterrupt_AVR8.o
                                                  .build/obj_sofle_rev1_LohseBoi/lib/lufa/LUFA/Drivers/USB/Core/AVR8/USBController_AVR8.o
                                                  .build/obj_sofle_rev1_LohseBoi/lufa.o
Endpoint_Discard_Stream                           .build/obj_sofle_rev1_LohseBoi/lib/lufa/LUFA/Drivers/USB/Core/AVR8/EndpointStream_AVR8.o
Endpoint_Null_Stream                              .build/obj_sofle_rev1_LohseBoi/lib/lufa/LUFA/Drivers/USB/Core/AVR8/EndpointStream_AVR8.o
Endpoint_Read_Control_EStream_BE                  .build/obj_sofle_rev1_LohseBoi/lib/lufa/LUFA/Drivers/USB/Core/AVR8/EndpointStream_AVR8.o
Endpoint_Read_Control_EStream_LE                  .build/obj_sofle_rev1_LohseBoi/lib/lufa/LUFA/Drivers/USB/Core/AVR8/EndpointStream_AVR8.o
Endpoint_Read_Control_Stream_BE                   .build/obj_sofle_rev1_LohseBoi/lib/lufa/LUFA/Drivers/USB/Core/AVR8/EndpointStream_AVR8.o
Endpoint_Read_Control_Stream_LE                   .build/obj_sofle_rev1_LohseBoi/lib/lufa/LUFA/Drivers/USB/Core/AVR8/EndpointStream_AVR8.o
Endpoint_Read_EStream_BE                          .build/obj_sofle_rev1_LohseBoi/lib/lufa/LUFA/Drivers/USB/Core/AVR8/EndpointStream_AVR8.o
Endpoint_Read_EStream_LE                          .build/obj_sofle_rev1_LohseBoi/lib/lufa/LUFA/Drivers/USB/Core/AVR8/EndpointStream_AVR8.o
Endpoint_Read_Stream_BE                           .build/obj_sofle_rev1_LohseBoi/lib/lufa/LUFA/Drivers/USB/Core/AVR8/EndpointStream_AVR8.o
Endpoint_Read_Stream_LE                           .build/obj_sofle_rev1_LohseBoi/lib/lufa/LUFA/Drivers/USB/Core/AVR8/EndpointStream_AVR8.o
Endpoint_WaitUntilReady                           .build/obj_sofle_rev1_LohseBoi/lib/lufa/LUFA/Drivers/USB/Core/AVR8/Endpoint_AVR8.o
                                                  .build/obj_sofle_rev1_LohseBoi/lib/lufa/LUFA/Drivers/USB/Core/AVR8/EndpointStream_AVR8.o
Endpoint_Write_Control_EStream_BE                 .build/obj_sofle_rev1_LohseBoi/lib/lufa/LUFA/Drivers/USB/Core/AVR8/EndpointStream_AVR8.o
Endpoint_Write_Control_EStream_LE                 .build/obj_sofle_rev1_LohseBoi/lib/lufa/LUFA/Drivers/USB/Core/AVR8/EndpointStream_AVR8.o
Endpoint_Write_Control_PStream_BE                 .build/obj_sofle_rev1_LohseBoi/lib/lufa/LUFA/Drivers/USB/Core/AVR8/EndpointStream_AVR8.o
Endpoint_Write_Control_PStream_LE                 .build/obj_sofle_rev1_LohseBoi/lib/lufa/LUFA/Drivers/USB/Core/AVR8/EndpointStream_AVR8.o
                                                  .build/obj_sofle_rev1_LohseBoi/lib/lufa/LUFA/Drivers/USB/Core/DeviceStandardReq.o
Endpoint_Write_Control_Stream_BE                  .build/obj_sofle_rev1_LohseBoi/lib/lufa/LUFA/Drivers/USB/Core/AVR8/EndpointStream_AVR8.o
Endpoint_Write_Control_Stream_LE                  .build/obj_sofle_rev1_LohseBoi/lib/lufa/LUFA/Drivers/USB/Core/AVR8/EndpointStream_AVR8.o
                                                  .build/obj_sofle_rev1_LohseBoi/lib/lufa/LUFA/Drivers/USB/Core/DeviceStandardReq.o
                                                  .build/obj_sofle_rev1_LohseBoi/lufa.o
Endpoint_Write_EStream_BE                         .build/obj_sofle_rev1_LohseBoi/lib/lufa/LUFA/Drivers/USB/Core/AVR8/EndpointStream_AVR8.o
Endpoint_Write_EStream_LE                         .build/obj_sofle_rev1_LohseBoi/lib/lufa/LUFA/Drivers/USB/Core/AVR8/EndpointStream_AVR8.o
Endpoint_Write_PStream_BE                         .build/obj_sofle_rev1_LohseBoi/lib/lufa/LUFA/Drivers/USB/Core/AVR8/EndpointStream_AVR8.o
Endpoint_Write_PStream_LE                         .build/obj_sofle_rev1_LohseBoi/lib/lufa/LUFA/Drivers/USB/Core/AVR8/EndpointStream_AVR8.o
Endpoint_Write_Stream_BE                          .build/obj_sofle_rev1_LohseBoi/lib/lufa/LUFA/Drivers/USB/Core/AVR8/EndpointStream_AVR8.o
Endpoint_Write_Stream_LE                          .build/obj_sofle_rev1_LohseBoi/lib/lufa/LUFA/Drivers/USB/Core/AVR8/EndpointStream_AVR8.o
                                                  .build/obj_sofle_rev1_LohseBoi/lufa.o
KeyboardReport                                    .build/obj_sofle_rev1_LohseBoi/usb_descriptor.o
LanguageString                                    .build/obj_sofle_rev1_LohseBoi/usb_descriptor.o
ManufacturerString                                .build/obj_sofle_rev1_LohseBoi/usb_descriptor.o
ProductString                                     .build/obj_sofle_rev1_LohseBoi/usb_descriptor.o
SharedReport                                      .build/obj_sofle_rev1_LohseBoi/usb_descriptor.o
USB_ControlRequest                                .build/obj_sofle_rev1_LohseBoi/lib/lufa/LUFA/Drivers/USB/Core/USBTask.o
                                                  .build/obj_sofle_rev1_LohseBoi/lib/lufa/LUFA/Drivers/USB/Core/DeviceStandardReq.o
                                                  .build/obj_sofle_rev1_LohseBoi/lib/lufa/LUFA/Drivers/USB/Core/AVR8/Endpoint_AVR8.o
                                                  .build/obj_sofle_rev1_LohseBoi/lib/lufa/LUFA/Drivers/USB/Core/AVR8/EndpointStream_AVR8.o
                                                  .build/obj_sofle_rev1_LohseBoi/lufa.o
USB_DeviceState                                   .build/obj_sofle_rev1_LohseBoi/lib/lufa/LUFA/Drivers/USB/Core/USBTask.o
                                                  .build/obj_sofle_rev1_LohseBoi/protocol/lufa/usb_util.o
                                                  .build/obj_sofle_rev1_LohseBoi/lib/lufa/LUFA/Drivers/USB/Core/DeviceStandardReq.o
                                                  .build/obj_sofle_rev1_LohseBoi/lib/lufa/LUFA/Drivers/USB/Core/AVR8/USBInterrupt_AVR8.o
                                                  .build/obj_sofle_rev1_LohseBoi/lib/lufa/LUFA/Drivers/USB/Core/AVR8/USBController_AVR8.o
                                                  .build/obj_sofle_rev1_LohseBoi/lib/lufa/LUFA/Drivers/USB/Core/AVR8/Endpoint_AVR8.o
                                                  .build/obj_sofle_rev1_LohseBoi/lib/lufa/LUFA/Drivers/USB/Core/AVR8/EndpointStream_AVR8.o
                                                  .build/obj_sofle_rev1_LohseBoi/lufa.o
                                                  .build/obj_sofle_rev1_LohseBoi/common/avr/suspend.o
USB_Device_ConfigurationNumber                    .build/obj_sofle_rev1_LohseBoi/lib/lufa/LUFA/Drivers/USB/Core/DeviceStandardReq.o
                                                  .build/obj_sofle_rev1_LohseBoi/lib/lufa/LUFA/Drivers/USB/Core/AVR8/USBInterrupt_AVR8.o
                                                  .build/obj_sofle_rev1_LohseBoi/lib/lufa/LUFA/Drivers/USB/Core/AVR8/USBController_AVR8.o
USB_Device_CurrentlySelfPowered                   .build/obj_sofle_rev1_LohseBoi/lib/lufa/LUFA/Drivers/USB/Core/DeviceStandardReq.o
                                                  .build/obj_sofle_rev1_LohseBoi/lib/lufa/LUFA/Drivers/USB/Core/AVR8/USBController_AVR8.o
USB_Device_ProcessControlRequest                  .build/obj_sofle_rev1_LohseBoi/lib/lufa/LUFA/Drivers/USB/Core/DeviceStandardReq.o
                                                  .build/obj_sofle_rev1_LohseBoi/lib/lufa/LUFA/Drivers/USB/Core/USBTask.o
                                                  .build/obj_sofle_rev1_LohseBoi/lib/lufa/LUFA/Drivers/USB/Core/AVR8/USBInterrupt_AVR8.o
USB_Device_RemoteWakeupEnabled                    .build/obj_sofle_rev1_LohseBoi/lib/lufa/LUFA/Drivers/USB/Core/DeviceStandardReq.o
                                                  .build/obj_sofle_rev1_LohseBoi/lib/lufa/LUFA/Drivers/USB/Core/AVR8/USBController_AVR8.o
                                                  .build/obj_sofle_rev1_LohseBoi/lufa.o
USB_Device_SendRemoteWakeup                       .build/obj_sofle_rev1_LohseBoi/lib/lufa/LUFA/Drivers/USB/Core/AVR8/Device_AVR8.o
                                                  .build/obj_sofle_rev1_LohseBoi/lufa.o
USB_Disable                                       .build/obj_sofle_rev1_LohseBoi/lib/lufa/LUFA/Drivers/USB/Core/AVR8/USBController_AVR8.o
                                                  .build/obj_sofle_rev1_LohseBoi/protocol/lufa/usb_util.o
                                                  .build/obj_sofle_rev1_LohseBoi/lufa.o
USB_Event_Stub                                    .build/obj_sofle_rev1_LohseBoi/lib/lufa/LUFA/Drivers/USB/Core/Events.o
USB_Event_Stub_2                                  .build/obj_sofle_rev1_LohseBoi/lib/lufa/LUFA/Drivers/USB/Core/Events.o
USB_Event_Stub_3                                  .build/obj_sofle_rev1_LohseBoi/lib/lufa/LUFA/Drivers/USB/Core/Events.o
USB_GetHIDReportItemInfo                          .build/obj_sofle_rev1_LohseBoi/lib/lufa/LUFA/Drivers/USB/Class/Common/HIDParser.o
USB_GetHIDReportSize                              .build/obj_sofle_rev1_LohseBoi/lib/lufa/LUFA/Drivers/USB/Class/Common/HIDParser.o
USB_GetNextDescriptorComp                         .build/obj_sofle_rev1_LohseBoi/lib/lufa/LUFA/Drivers/USB/Core/ConfigDescriptors.o
USB_GetNextDescriptorOfType                       .build/obj_sofle_rev1_LohseBoi/lib/lufa/LUFA/Drivers/USB/Core/ConfigDescriptors.o
USB_GetNextDescriptorOfTypeAfter                  .build/obj_sofle_rev1_LohseBoi/lib/lufa/LUFA/Drivers/USB/Core/ConfigDescriptors.o
USB_GetNextDescriptorOfTypeBefore                 .build/obj_sofle_rev1_LohseBoi/lib/lufa/LUFA/Drivers/USB/Core/ConfigDescriptors.o
USB_INT_ClearAllInterrupts                        .build/obj_sofle_rev1_LohseBoi/lib/lufa/LUFA/Drivers/USB/Core/AVR8/USBInterrupt_AVR8.o
                                                  .build/obj_sofle_rev1_LohseBoi/lib/lufa/LUFA/Drivers/USB/Core/AVR8/USBController_AVR8.o
USB_INT_DisableAllInterrupts                      .build/obj_sofle_rev1_LohseBoi/lib/lufa/LUFA/Drivers/USB/Core/AVR8/USBInterrupt_AVR8.o
                                                  .build/obj_sofle_rev1_LohseBoi/lib/lufa/LUFA/Drivers/USB/Core/AVR8/USBController_AVR8.o
USB_Init                                          .build/obj_sofle_rev1_LohseBoi/lib/lufa/LUFA/Drivers/USB/Core/AVR8/USBController_AVR8.o
                                                  .build/obj_sofle_rev1_LohseBoi/lufa.o
USB_IsInitialized                                 .build/obj_sofle_rev1_LohseBoi/lib/lufa/LUFA/Drivers/USB/Core/USBTask.o
                                                  .build/obj_sofle_rev1_LohseBoi/lib/lufa/LUFA/Drivers/USB/Core/AVR8/USBController_AVR8.o
                                                  .build/obj_sofle_rev1_LohseBoi/lufa.o
USB_ProcessHIDReport                              .build/obj_sofle_rev1_LohseBoi/lib/lufa/LUFA/Drivers/USB/Class/Common/HIDParser.o
USB_ResetInterface                                .build/obj_sofle_rev1_LohseBoi/lib/lufa/LUFA/Drivers/USB/Core/AVR8/USBController_AVR8.o
USB_SetHIDReportItemInfo                          .build/obj_sofle_rev1_LohseBoi/lib/lufa/LUFA/Drivers/USB/Class/Common/HIDParser.o
USB_USBTask                                       .build/obj_sofle_rev1_LohseBoi/lib/lufa/LUFA/Drivers/USB/Core/USBTask.o
                                                  .build/obj_sofle_rev1_LohseBoi/lufa.o
__addsf3                                          /usr/lib/gcc/avr/8.3.0/../../../../avr/lib/avr5/libm.a(addsf3.o)
                                                  .build/obj_sofle_rev1_LohseBoi/quantum/wpm.o
__addsf3x                                         /usr/lib/gcc/avr/8.3.0/../../../../avr/lib/avr5/libm.a(addsf3x.o)
                                                  /usr/lib/gcc/avr/8.3.0/../../../../avr/lib/avr5/libm.a(addsf3.o)
__bad_interrupt                                   /usr/lib/gcc/avr/8.3.0/../../../../avr/lib/avr5/crtatmega32u4.o
__bss_end                                         /usr/lib/gcc/avr/8.3.0/avr5/libgcc.a(_clear_bss.o)
__bss_start                                       /usr/lib/gcc/avr/8.3.0/avr5/libgcc.a(_clear_bss.o)
__data_end                                        /usr/lib/gcc/avr/8.3.0/avr5/libgcc.a(_copy_data.o)
__data_load_start                                 /usr/lib/gcc/avr/8.3.0/avr5/libgcc.a(_copy_data.o)
__data_start                                      /usr/lib/gcc/avr/8.3.0/avr5/libgcc.a(_copy_data.o)
__divmodhi4                                       /usr/lib/gcc/avr/8.3.0/avr5/libgcc.a(_divmodhi4.o)
                                                  .build/obj_sofle_rev1_LohseBoi/quantum/encoder.o
                                                  .build/obj_sofle_rev1_LohseBoi/keyboards/sofle/keymaps/LohseBoi/keymap.o
__divmodsi4                                       /usr/lib/gcc/avr/8.3.0/avr5/libgcc.a(_divmodsi4.o)
                                                  .build/obj_sofle_rev1_LohseBoi/quantum/wpm.o
__do_clear_bss                                    /usr/lib/gcc/avr/8.3.0/avr5/libgcc.a(_clear_bss.o)
                                                  .build/obj_sofle_rev1_LohseBoi/lib/lufa/LUFA/Drivers/USB/Core/USBTask.o
                                                  .build/obj_sofle_rev1_LohseBoi/lib/lufa/LUFA/Drivers/USB/Core/DeviceStandardReq.o
                                                  .build/obj_sofle_rev1_LohseBoi/lufa.o
                                                  .build/obj_sofle_rev1_LohseBoi/common/avr/timer.o
                                                  .build/obj_sofle_rev1_LohseBoi/common/avr/suspend.o
                                                  .build/obj_sofle_rev1_LohseBoi/common/sync_timer.o
                                                  .build/obj_sofle_rev1_LohseBoi/common/host.o
                                                  .build/obj_sofle_rev1_LohseBoi/quantum/process_keycode/process_grave_esc.o
                                                  .build/obj_sofle_rev1_LohseBoi/quantum/process_keycode/process_space_cadet.o
                                                  .build/obj_sofle_rev1_LohseBoi/ssd1306_sh1106.o
                                                  .build/obj_sofle_rev1_LohseBoi/quantum/encoder.o
                                                  .build/obj_sofle_rev1_LohseBoi/quantum/wpm.o
                                                  .build/obj_sofle_rev1_LohseBoi/quantum/split_common/transactions.o
                                                  .build/obj_sofle_rev1_LohseBoi/quantum/split_common/transport.o
                                                  .build/obj_sofle_rev1_LohseBoi/quantum/split_common/split_util.o
                                                  .build/obj_sofle_rev1_LohseBoi/quantum/debounce/sym_defer_g.o
                                                  .build/obj_sofle_rev1_LohseBoi/quantum/matrix.o
                                                  .build/obj_sofle_rev1_LohseBoi/quantum/matrix_common.o
                                                  .build/obj_sofle_rev1_LohseBoi/quantum/bootmagic/magic.o
                                                  .build/obj_sofle_rev1_LohseBoi/quantum/logging/debug.o
                                                  .build/obj_sofle_rev1_LohseBoi/quantum/keyboard.o
                                                  .build/obj_sofle_rev1_LohseBoi/quantum/action_util.o
                                                  .build/obj_sofle_rev1_LohseBoi/quantum/action_tapping.o
                                                  .build/obj_sofle_rev1_LohseBoi/quantum/action_layer.o
                                                  .build/obj_sofle_rev1_LohseBoi/quantum/action.o
                                                  .build/obj_sofle_rev1_LohseBoi/keyboards/sofle/keymaps/LohseBoi/keymap.o
__do_copy_data                                    /usr/lib/gcc/avr/8.3.0/avr5/libgcc.a(_copy_data.o)
                                                  .build/obj_sofle_rev1_LohseBoi/lufa.o
                                                  .build/obj_sofle_rev1_LohseBoi/ssd1306_sh1106.o
                                                  .build/obj_sofle_rev1_LohseBoi/quantum/encoder.o
                                                  .build/obj_sofle_rev1_LohseBoi/quantum/split_common/transactions.o
                                                  .build/obj_sofle_rev1_LohseBoi/quantum/split_common/transport.o
                                                  .build/obj_sofle_rev1_LohseBoi/quantum/split_common/split_util.o
                                                  .build/obj_sofle_rev1_LohseBoi/quantum/matrix.o
                                                  .build/obj_sofle_rev1_LohseBoi/quantum/keymap_common.o
                                                  .build/obj_sofle_rev1_LohseBoi/quantum/action_util.o
                                                  .build/obj_sofle_rev1_LohseBoi/quantum/action.o
                                                  .build/obj_sofle_rev1_LohseBoi/keyboards/sofle/keymaps/LohseBoi/keymap.o
__fixunssfsi                                      /usr/lib/gcc/avr/8.3.0/../../../../avr/lib/avr5/libm.a(fixunssfsi.o)
                                                  .build/obj_sofle_rev1_LohseBoi/common/host.o
                                                  .build/obj_sofle_rev1_LohseBoi/quantum/wpm.o
__floatsisf                                       /usr/lib/gcc/avr/8.3.0/../../../../avr/lib/avr5/libm.a(floatsisf.o)
                                                  .build/obj_sofle_rev1_LohseBoi/quantum/wpm.o
__floatunsisf                                     /usr/lib/gcc/avr/8.3.0/../../../../avr/lib/avr5/libm.a(floatsisf.o)
                                                  .build/obj_sofle_rev1_LohseBoi/quantum/wpm.o
__fp_inf                                          /usr/lib/gcc/avr/8.3.0/../../../../avr/lib/avr5/libm.a(fp_inf.o)
                                                  /usr/lib/gcc/avr/8.3.0/../../../../avr/lib/avr5/libm.a(mulsf3x.o)
                                                  /usr/lib/gcc/avr/8.3.0/../../../../avr/lib/avr5/libm.a(addsf3x.o)
__fp_mintl                                        /usr/lib/gcc/avr/8.3.0/../../../../avr/lib/avr5/libm.a(fp_mintl.o)
                                                  /usr/lib/gcc/avr/8.3.0/../../../../avr/lib/avr5/libm.a(ceil.o)
__fp_mpack                                        /usr/lib/gcc/avr/8.3.0/../../../../avr/lib/avr5/libm.a(fp_mpack.o)
                                                  /usr/lib/gcc/avr/8.3.0/../../../../avr/lib/avr5/libm.a(ceil.o)
__fp_mpack_finite                                 /usr/lib/gcc/avr/8.3.0/../../../../avr/lib/avr5/libm.a(fp_mpack.o)
__fp_nan                                          /usr/lib/gcc/avr/8.3.0/../../../../avr/lib/avr5/libm.a(fp_nan.o)
                                                  /usr/lib/gcc/avr/8.3.0/../../../../avr/lib/avr5/libm.a(mulsf3x.o)
                                                  /usr/lib/gcc/avr/8.3.0/../../../../avr/lib/avr5/libm.a(addsf3x.o)
__fp_pscA                                         /usr/lib/gcc/avr/8.3.0/../../../../avr/lib/avr5/libm.a(fp_pscA.o)
                                                  /usr/lib/gcc/avr/8.3.0/../../../../avr/lib/avr5/libm.a(mulsf3x.o)
                                                  /usr/lib/gcc/avr/8.3.0/../../../../avr/lib/avr5/libm.a(addsf3x.o)
__fp_pscB                                         /usr/lib/gcc/avr/8.3.0/../../../../avr/lib/avr5/libm.a(fp_pscB.o)
                                                  /usr/lib/gcc/avr/8.3.0/../../../../avr/lib/avr5/libm.a(mulsf3x.o)
                                                  /usr/lib/gcc/avr/8.3.0/../../../../avr/lib/avr5/libm.a(addsf3x.o)
__fp_round                                        /usr/lib/gcc/avr/8.3.0/../../../../avr/lib/avr5/libm.a(fp_round.o)
                                                  /usr/lib/gcc/avr/8.3.0/../../../../avr/lib/avr5/libm.a(mulsf3.o)
                                                  /usr/lib/gcc/avr/8.3.0/../../../../avr/lib/avr5/libm.a(addsf3.o)
__fp_split3                                       /usr/lib/gcc/avr/8.3.0/../../../../avr/lib/avr5/libm.a(fp_split3.o)
                                                  /usr/lib/gcc/avr/8.3.0/../../../../avr/lib/avr5/libm.a(mulsf3x.o)
                                                  /usr/lib/gcc/avr/8.3.0/../../../../avr/lib/avr5/libm.a(addsf3x.o)
__fp_splitA                                       /usr/lib/gcc/avr/8.3.0/../../../../avr/lib/avr5/libm.a(fp_split3.o)
                                                  /usr/lib/gcc/avr/8.3.0/../../../../avr/lib/avr5/libm.a(fp_trunc.o)
                                                  /usr/lib/gcc/avr/8.3.0/../../../../avr/lib/avr5/libm.a(fixunssfsi.o)
__fp_szero                                        /usr/lib/gcc/avr/8.3.0/../../../../avr/lib/avr5/libm.a(fp_zero.o)
                                                  /usr/lib/gcc/avr/8.3.0/../../../../avr/lib/avr5/libm.a(mulsf3x.o)
                                                  /usr/lib/gcc/avr/8.3.0/../../../../avr/lib/avr5/libm.a(ceil.o)
__fp_trunc                                        /usr/lib/gcc/avr/8.3.0/../../../../avr/lib/avr5/libm.a(fp_trunc.o)
                                                  /usr/lib/gcc/avr/8.3.0/../../../../avr/lib/avr5/libm.a(ceil.o)
__fp_zero                                         /usr/lib/gcc/avr/8.3.0/../../../../avr/lib/avr5/libm.a(fp_zero.o)
                                                  /usr/lib/gcc/avr/8.3.0/../../../../avr/lib/avr5/libm.a(fixunssfsi.o)
                                                  /usr/lib/gcc/avr/8.3.0/../../../../avr/lib/avr5/libm.a(addsf3x.o)
__heap_end                                        /usr/lib/gcc/avr/8.3.0/../../../../avr/lib/avr5/crtatmega32u4.o
__init                                            /usr/lib/gcc/avr/8.3.0/../../../../avr/lib/avr5/crtatmega32u4.o
__mulsf3                                          /usr/lib/gcc/avr/8.3.0/../../../../avr/lib/avr5/libm.a(mulsf3.o)
                                                  .build/obj_sofle_rev1_LohseBoi/common/host.o
                                                  .build/obj_sofle_rev1_LohseBoi/quantum/wpm.o
__mulsf3_pse                                      /usr/lib/gcc/avr/8.3.0/../../../../avr/lib/avr5/libm.a(mulsf3x.o)
__mulsf3x                                         /usr/lib/gcc/avr/8.3.0/../../../../avr/lib/avr5/libm.a(mulsf3x.o)
                                                  /usr/lib/gcc/avr/8.3.0/../../../../avr/lib/avr5/libm.a(mulsf3.o)
__negsi2                                          /usr/lib/gcc/avr/8.3.0/avr5/libgcc.a(_negsi2.o)
                                                  /usr/lib/gcc/avr/8.3.0/avr5/libgcc.a(_divmodsi4.o)
__stack                                           /usr/lib/gcc/avr/8.3.0/../../../../avr/lib/avr5/crtatmega32u4.o
__subsf3                                          /usr/lib/gcc/avr/8.3.0/../../../../avr/lib/avr5/libm.a(addsf3.o)
__tablejump2__                                    /usr/lib/gcc/avr/8.3.0/avr5/libgcc.a(_tablejump2.o)
                                                  .build/obj_sofle_rev1_LohseBoi/lib/lufa/LUFA/Drivers/USB/Core/DeviceStandardReq.o
                                                  .build/obj_sofle_rev1_LohseBoi/quantum/action.o
                                                  .build/obj_sofle_rev1_LohseBoi/keyboards/sofle/keymaps/LohseBoi/keymap.o
__udivmodhi4                                      /usr/lib/gcc/avr/8.3.0/avr5/libgcc.a(_udivmodhi4.o)
                                                  /usr/lib/gcc/avr/8.3.0/avr5/libgcc.a(_divmodhi4.o)
                                                  .build/obj_sofle_rev1_LohseBoi/i2c_master.a(i2c_master.o)
                                                  .build/obj_sofle_rev1_LohseBoi/ssd1306_sh1106.o
__udivmodqi4                                      /usr/lib/gcc/avr/8.3.0/avr5/libgcc.a(_udivmodqi4.o)
                                                  .build/obj_sofle_rev1_LohseBoi/ssd1306_sh1106.o
                                                  .build/obj_sofle_rev1_LohseBoi/keyboards/sofle/keymaps/LohseBoi/keymap.o
__udivmodsi4                                      /usr/lib/gcc/avr/8.3.0/avr5/libgcc.a(_udivmodsi4.o)
                                                  /usr/lib/gcc/avr/8.3.0/avr5/libgcc.a(_divmodsi4.o)
__vector_1                                        /usr/lib/gcc/avr/8.3.0/../../../../avr/lib/avr5/crtatmega32u4.o
__vector_10                                       .build/obj_sofle_rev1_LohseBoi/lib/lufa/LUFA/Drivers/USB/Core/AVR8/USBInterrupt_AVR8.o
                                                  /usr/lib/gcc/avr/8.3.0/../../../../avr/lib/avr5/crtatmega32u4.o
__vector_11                                       .build/obj_sofle_rev1_LohseBoi/lib/lufa/LUFA/Drivers/USB/Core/AVR8/USBInterrupt_AVR8.o
                                                  /usr/lib/gcc/avr/8.3.0/../../../../avr/lib/avr5/crtatmega32u4.o
__vector_12                                       .build/obj_sofle_rev1_LohseBoi/common/avr/suspend.o
                                                  /usr/lib/gcc/avr/8.3.0/../../../../avr/lib/avr5/crtatmega32u4.o
__vector_13                                       /usr/lib/gcc/avr/8.3.0/../../../../avr/lib/avr5/crtatmega32u4.o
__vector_14                                       /usr/lib/gcc/avr/8.3.0/../../../../avr/lib/avr5/crtatmega32u4.o
__vector_15                                       /usr/lib/gcc/avr/8.3.0/../../../../avr/lib/avr5/crtatmega32u4.o
__vector_16                                       /usr/lib/gcc/avr/8.3.0/../../../../avr/lib/avr5/crtatmega32u4.o
__vector_17                                       /usr/lib/gcc/avr/8.3.0/../../../../avr/lib/avr5/crtatmega32u4.o
__vector_18                                       /usr/lib/gcc/avr/8.3.0/../../../../avr/lib/avr5/crtatmega32u4.o
__vector_19                                       /usr/lib/gcc/avr/8.3.0/../../../../avr/lib/avr5/crtatmega32u4.o
__vector_2                                        /usr/lib/gcc/avr/8.3.0/../../../../avr/lib/avr5/crtatmega32u4.o
__vector_20                                       /usr/lib/gcc/avr/8.3.0/../../../../avr/lib/avr5/crtatmega32u4.o
__vector_21                                       .build/obj_sofle_rev1_LohseBoi/common/avr/timer.o
                                                  /usr/lib/gcc/avr/8.3.0/../../../../avr/lib/avr5/crtatmega32u4.o
__vector_22                                       /usr/lib/gcc/avr/8.3.0/../../../../avr/lib/avr5/crtatmega32u4.o
__vector_23                                       /usr/lib/gcc/avr/8.3.0/../../../../avr/lib/avr5/crtatmega32u4.o
__vector_24                                       /usr/lib/gcc/avr/8.3.0/../../../../avr/lib/avr5/crtatmega32u4.o
__vector_25                                       /usr/lib/gcc/avr/8.3.0/../../../../avr/lib/avr5/crtatmega32u4.o
__vector_26                                       /usr/lib/gcc/avr/8.3.0/../../../../avr/lib/avr5/crtatmega32u4.o
__vector_27                                       /usr/lib/gcc/avr/8.3.0/../../../../avr/lib/avr5/crtatmega32u4.o
__vector_28                                       /usr/lib/gcc/avr/8.3.0/../../../../avr/lib/avr5/crtatmega32u4.o
__vector_29                                       /usr/lib/gcc/avr/8.3.0/../../../../avr/lib/avr5/crtatmega32u4.o
__vector_3                                        .build/obj_sofle_rev1_LohseBoi/serial.a(serial.o)
                                                  /usr/lib/gcc/avr/8.3.0/../../../../avr/lib/avr5/crtatmega32u4.o
__vector_30                                       /usr/lib/gcc/avr/8.3.0/../../../../avr/lib/avr5/crtatmega32u4.o
__vector_31                                       /usr/lib/gcc/avr/8.3.0/../../../../avr/lib/avr5/crtatmega32u4.o
__vector_32                                       /usr/lib/gcc/avr/8.3.0/../../../../avr/lib/avr5/crtatmega32u4.o
__vector_33                                       /usr/lib/gcc/avr/8.3.0/../../../../avr/lib/avr5/crtatmega32u4.o
__vector_34                                       /usr/lib/gcc/avr/8.3.0/../../../../avr/lib/avr5/crtatmega32u4.o
__vector_35                                       /usr/lib/gcc/avr/8.3.0/../../../../avr/lib/avr5/crtatmega32u4.o
__vector_36                                       /usr/lib/gcc/avr/8.3.0/../../../../avr/lib/avr5/crtatmega32u4.o
__vector_37                                       /usr/lib/gcc/avr/8.3.0/../../../../avr/lib/avr5/crtatmega32u4.o
__vector_38                                       /usr/lib/gcc/avr/8.3.0/../../../../avr/lib/avr5/crtatmega32u4.o
__vector_39                                       /usr/lib/gcc/avr/8.3.0/../../../../avr/lib/avr5/crtatmega32u4.o
__vector_4                                        /usr/lib/gcc/avr/8.3.0/../../../../avr/lib/avr5/crtatmega32u4.o
__vector_40                                       /usr/lib/gcc/avr/8.3.0/../../../../avr/lib/avr5/crtatmega32u4.o
__vector_41                                       /usr/lib/gcc/avr/8.3.0/../../../../avr/lib/avr5/crtatmega32u4.o
__vector_42                                       /usr/lib/gcc/avr/8.3.0/../../../../avr/lib/avr5/crtatmega32u4.o
__vector_5                                        /usr/lib/gcc/avr/8.3.0/../../../../avr/lib/avr5/crtatmega32u4.o
__vector_6                                        /usr/lib/gcc/avr/8.3.0/../../../../avr/lib/avr5/crtatmega32u4.o
__vector_7                                        /usr/lib/gcc/avr/8.3.0/../../../../avr/lib/avr5/crtatmega32u4.o
__vector_8                                        /usr/lib/gcc/avr/8.3.0/../../../../avr/lib/avr5/crtatmega32u4.o
__vector_9                                        /usr/lib/gcc/avr/8.3.0/../../../../avr/lib/avr5/crtatmega32u4.o
__vector_default                                  /usr/lib/gcc/avr/8.3.0/../../../../avr/lib/avr5/crtatmega32u4.o
__vectors                                         /usr/lib/gcc/avr/8.3.0/../../../../avr/lib/avr5/crtatmega32u4.o
__xprintf                                         .build/obj_sofle_rev1_LohseBoi/common/avr/xprintf.o
_div                                              /usr/lib/gcc/avr/8.3.0/avr5/libgcc.a(_divmodhi4.o)
_exit                                             /usr/lib/gcc/avr/8.3.0/avr5/libgcc.a(_exit.o)
action_exec                                       .build/obj_sofle_rev1_LohseBoi/quantum/action.o
                                                  .build/obj_sofle_rev1_LohseBoi/quantum/keyboard.o
action_for_key                                    .build/obj_sofle_rev1_LohseBoi/quantum/keymap_common.o
                                                  .build/obj_sofle_rev1_LohseBoi/quantum/action_layer.o
action_for_keycode                                .build/obj_sofle_rev1_LohseBoi/quantum/keymap_common.o
action_function                                   .build/obj_sofle_rev1_LohseBoi/quantum/keymap_common.o
action_get_macro                                  .build/obj_sofle_rev1_LohseBoi/quantum/keymap_common.o
action_tapping_process                            .build/obj_sofle_rev1_LohseBoi/quantum/action_tapping.o
                                                  .build/obj_sofle_rev1_LohseBoi/quantum/action.o
add_key                                           .build/obj_sofle_rev1_LohseBoi/quantum/action_util.o
                                                  .build/obj_sofle_rev1_LohseBoi/quantum/process_keycode/process_grave_esc.o
                                                  .build/obj_sofle_rev1_LohseBoi/quantum/action.o
add_key_byte                                      .build/obj_sofle_rev1_LohseBoi/common/report.o
add_key_to_report                                 .build/obj_sofle_rev1_LohseBoi/common/report.o
                                                  .build/obj_sofle_rev1_LohseBoi/quantum/action_util.o
add_macro_mods                                    .build/obj_sofle_rev1_LohseBoi/quantum/action_util.o
add_mods                                          .build/obj_sofle_rev1_LohseBoi/quantum/action_util.o
                                                  .build/obj_sofle_rev1_LohseBoi/quantum/action.o
add_oneshot_mods                                  .build/obj_sofle_rev1_LohseBoi/quantum/action_util.o
add_weak_mods                                     .build/obj_sofle_rev1_LohseBoi/quantum/action_util.o
                                                  .build/obj_sofle_rev1_LohseBoi/quantum/action.o
alttab_active                                     .build/obj_sofle_rev1_LohseBoi/keyboards/sofle/keymaps/LohseBoi/keymap.o
api_send_unicode                                  .build/obj_sofle_rev1_LohseBoi/quantum/quantum.o
ascii_to_altgr_lut                                .build/obj_sofle_rev1_LohseBoi/quantum/send_string.o
ascii_to_dead_lut                                 .build/obj_sofle_rev1_LohseBoi/quantum/send_string.o
ascii_to_keycode_lut                              .build/obj_sofle_rev1_LohseBoi/quantum/send_string.o
ascii_to_shift_lut                                .build/obj_sofle_rev1_LohseBoi/quantum/send_string.o
biton                                             .build/obj_sofle_rev1_LohseBoi/quantum/bitwise.o
biton16                                           .build/obj_sofle_rev1_LohseBoi/quantum/bitwise.o
biton32                                           .build/obj_sofle_rev1_LohseBoi/quantum/bitwise.o
                                                  .build/obj_sofle_rev1_LohseBoi/keyboards/sofle/keymaps/LohseBoi/keymap.o
bitpop                                            .build/obj_sofle_rev1_LohseBoi/quantum/bitwise.o
                                                  .build/obj_sofle_rev1_LohseBoi/quantum/matrix_common.o
                                                  .build/obj_sofle_rev1_LohseBoi/quantum/action_util.o
bitpop16                                          .build/obj_sofle_rev1_LohseBoi/quantum/bitwise.o
bitpop32                                          .build/obj_sofle_rev1_LohseBoi/quantum/bitwise.o
bitrev                                            .build/obj_sofle_rev1_LohseBoi/quantum/bitwise.o
bitrev16                                          .build/obj_sofle_rev1_LohseBoi/quantum/bitwise.o
bitrev32                                          .build/obj_sofle_rev1_LohseBoi/quantum/bitwise.o
bootloader_jump                                   .build/obj_sofle_rev1_LohseBoi/common/avr/bootloader.o
                                                  .build/obj_sofle_rev1_LohseBoi/quantum/quantum.o
bootloader_jump_after_watchdog_reset              .build/obj_sofle_rev1_LohseBoi/common/avr/bootloader.o
bootmagic                                         .build/obj_sofle_rev1_LohseBoi/quantum/bootmagic/magic.o
ceil                                              /usr/lib/gcc/avr/8.3.0/../../../../avr/lib/avr5/libm.a(ceil.o)
                                                  .build/obj_sofle_rev1_LohseBoi/quantum/wpm.o
clear_keyboard                                    .build/obj_sofle_rev1_LohseBoi/quantum/action.o
                                                  .build/obj_sofle_rev1_LohseBoi/lufa.o
                                                  .build/obj_sofle_rev1_LohseBoi/common/avr/suspend.o
                                                  .build/obj_sofle_rev1_LohseBoi/quantum/process_keycode/process_magic.o
                                                  .build/obj_sofle_rev1_LohseBoi/quantum/action_tapping.o
                                                  .build/obj_sofle_rev1_LohseBoi/quantum/quantum.o
clear_keyboard_but_mods                           .build/obj_sofle_rev1_LohseBoi/quantum/action.o
clear_keyboard_but_mods_and_keys                  .build/obj_sofle_rev1_LohseBoi/quantum/action.o
                                                  .build/obj_sofle_rev1_LohseBoi/quantum/action_layer.o
clear_keys                                        .build/obj_sofle_rev1_LohseBoi/quantum/action_util.o
                                                  .build/obj_sofle_rev1_LohseBoi/quantum/action.o
clear_keys_from_report                            .build/obj_sofle_rev1_LohseBoi/common/report.o
                                                  .build/obj_sofle_rev1_LohseBoi/quantum/action_util.o
clear_macro_mods                                  .build/obj_sofle_rev1_LohseBoi/quantum/action_util.o
                                                  .build/obj_sofle_rev1_LohseBoi/quantum/action.o
clear_mods                                        .build/obj_sofle_rev1_LohseBoi/quantum/action_util.o
                                                  .build/obj_sofle_rev1_LohseBoi/quantum/action.o
clear_oneshot_layer_state                         .build/obj_sofle_rev1_LohseBoi/quantum/action_util.o
                                                  .build/obj_sofle_rev1_LohseBoi/quantum/action.o
clear_oneshot_locked_mods                         .build/obj_sofle_rev1_LohseBoi/quantum/action_util.o
clear_oneshot_mods                                .build/obj_sofle_rev1_LohseBoi/quantum/action_util.o
                                                  .build/obj_sofle_rev1_LohseBoi/quantum/action.o
clear_oneshot_swaphands                           .build/obj_sofle_rev1_LohseBoi/quantum/action_util.o
clear_weak_mods                                   .build/obj_sofle_rev1_LohseBoi/quantum/action_util.o
                                                  .build/obj_sofle_rev1_LohseBoi/quantum/action.o
crc8                                              .build/obj_sofle_rev1_LohseBoi/crc.o
                                                  .build/obj_sofle_rev1_LohseBoi/quantum/split_common/transactions.o
crc_init                                          .build/obj_sofle_rev1_LohseBoi/crc.o
                                                  .build/obj_sofle_rev1_LohseBoi/quantum/keyboard.o
crot                                              .build/obj_sofle_rev1_LohseBoi/ssd1306_sh1106.o
debounce                                          .build/obj_sofle_rev1_LohseBoi/quantum/debounce/sym_defer_g.o
                                                  .build/obj_sofle_rev1_LohseBoi/quantum/matrix.o
                                                  .build/obj_sofle_rev1_LohseBoi/quantum/matrix_common.o
debounce_active                                   .build/obj_sofle_rev1_LohseBoi/quantum/debounce/sym_defer_g.o
                                                  .build/obj_sofle_rev1_LohseBoi/quantum/matrix_common.o
debounce_free                                     .build/obj_sofle_rev1_LohseBoi/quantum/debounce/sym_defer_g.o
debounce_init                                     .build/obj_sofle_rev1_LohseBoi/quantum/debounce/sym_defer_g.o
                                                  .build/obj_sofle_rev1_LohseBoi/quantum/matrix.o
                                                  .build/obj_sofle_rev1_LohseBoi/quantum/matrix_common.o
debug_action                                      .build/obj_sofle_rev1_LohseBoi/quantum/action.o
debug_config                                      .build/obj_sofle_rev1_LohseBoi/quantum/logging/debug.o
                                                  .build/obj_sofle_rev1_LohseBoi/quantum/bootmagic/magic.o
                                                  .build/obj_sofle_rev1_LohseBoi/quantum/keyboard.o
debug_event                                       .build/obj_sofle_rev1_LohseBoi/quantum/action.o
                                                  .build/obj_sofle_rev1_LohseBoi/quantum/action_tapping.o
debug_record                                      .build/obj_sofle_rev1_LohseBoi/quantum/action.o
                                                  .build/obj_sofle_rev1_LohseBoi/quantum/action_tapping.o
decay_wpm                                         .build/obj_sofle_rev1_LohseBoi/quantum/wpm.o
                                                  .build/obj_sofle_rev1_LohseBoi/quantum/quantum.o
default_layer_and                                 .build/obj_sofle_rev1_LohseBoi/quantum/action_layer.o
                                                  .build/obj_sofle_rev1_LohseBoi/quantum/action.o
default_layer_debug                               .build/obj_sofle_rev1_LohseBoi/quantum/action_layer.o
                                                  .build/obj_sofle_rev1_LohseBoi/quantum/action.o
default_layer_or                                  .build/obj_sofle_rev1_LohseBoi/quantum/action_layer.o
                                                  .build/obj_sofle_rev1_LohseBoi/quantum/action.o
default_layer_set                                 .build/obj_sofle_rev1_LohseBoi/quantum/action_layer.o
                                                  .build/obj_sofle_rev1_LohseBoi/quantum/bootmagic/magic.o
                                                  .build/obj_sofle_rev1_LohseBoi/quantum/action.o
                                                  .build/obj_sofle_rev1_LohseBoi/quantum/quantum.o
default_layer_state                               .build/obj_sofle_rev1_LohseBoi/quantum/action_layer.o
                                                  .build/obj_sofle_rev1_LohseBoi/quantum/eeconfig.o
                                                  .build/obj_sofle_rev1_LohseBoi/keyboards/sofle/keymaps/LohseBoi/keymap.o
default_layer_state_set_kb                        .build/obj_sofle_rev1_LohseBoi/quantum/action_layer.o
default_layer_state_set_user                      .build/obj_sofle_rev1_LohseBoi/quantum/action_layer.o
default_layer_xor                                 .build/obj_sofle_rev1_LohseBoi/quantum/action_layer.o
                                                  .build/obj_sofle_rev1_LohseBoi/quantum/action.o
del_key                                           .build/obj_sofle_rev1_LohseBoi/quantum/action_util.o
                                                  .build/obj_sofle_rev1_LohseBoi/quantum/process_keycode/process_grave_esc.o
                                                  .build/obj_sofle_rev1_LohseBoi/quantum/action.o
del_key_byte                                      .build/obj_sofle_rev1_LohseBoi/common/report.o
del_key_from_report                               .build/obj_sofle_rev1_LohseBoi/common/report.o
                                                  .build/obj_sofle_rev1_LohseBoi/quantum/action_util.o
del_macro_mods                                    .build/obj_sofle_rev1_LohseBoi/quantum/action_util.o
del_mods                                          .build/obj_sofle_rev1_LohseBoi/quantum/action_util.o
                                                  .build/obj_sofle_rev1_LohseBoi/quantum/action.o
del_oneshot_mods                                  .build/obj_sofle_rev1_LohseBoi/quantum/action_util.o
del_weak_mods                                     .build/obj_sofle_rev1_LohseBoi/quantum/action_util.o
                                                  .build/obj_sofle_rev1_LohseBoi/quantum/action.o
disable_action_cache                              .build/obj_sofle_rev1_LohseBoi/quantum/action.o
                                                  .build/obj_sofle_rev1_LohseBoi/quantum/action_layer.o
                                                  .build/obj_sofle_rev1_LohseBoi/quantum/quantum.o
disable_jtag                                      .build/obj_sofle_rev1_LohseBoi/quantum/keyboard.o
dummy                                             .build/obj_sofle_rev1_LohseBoi/quantum/split_common/transactions.o
eeconfig_disable                                  .build/obj_sofle_rev1_LohseBoi/quantum/eeconfig.o
eeconfig_enable                                   .build/obj_sofle_rev1_LohseBoi/quantum/eeconfig.o
eeconfig_init                                     .build/obj_sofle_rev1_LohseBoi/quantum/eeconfig.o
                                                  .build/obj_sofle_rev1_LohseBoi/quantum/bootmagic/magic.o
                                                  .build/obj_sofle_rev1_LohseBoi/quantum/quantum.o
eeconfig_init_kb                                  .build/obj_sofle_rev1_LohseBoi/quantum/eeconfig.o
eeconfig_init_quantum                             .build/obj_sofle_rev1_LohseBoi/quantum/eeconfig.o
eeconfig_init_user                                .build/obj_sofle_rev1_LohseBoi/quantum/eeconfig.o
eeconfig_is_disabled                              .build/obj_sofle_rev1_LohseBoi/quantum/eeconfig.o
eeconfig_is_enabled                               .build/obj_sofle_rev1_LohseBoi/quantum/eeconfig.o
                                                  .build/obj_sofle_rev1_LohseBoi/quantum/bootmagic/magic.o
eeconfig_read_audio                               .build/obj_sofle_rev1_LohseBoi/quantum/eeconfig.o
eeconfig_read_debug                               .build/obj_sofle_rev1_LohseBoi/quantum/eeconfig.o
                                                  .build/obj_sofle_rev1_LohseBoi/quantum/bootmagic/magic.o
eeconfig_read_default_layer                       .build/obj_sofle_rev1_LohseBoi/quantum/eeconfig.o
                                                  .build/obj_sofle_rev1_LohseBoi/quantum/bootmagic/magic.o
eeconfig_read_handedness                          .build/obj_sofle_rev1_LohseBoi/quantum/eeconfig.o
eeconfig_read_haptic                              .build/obj_sofle_rev1_LohseBoi/quantum/eeconfig.o
eeconfig_read_kb                                  .build/obj_sofle_rev1_LohseBoi/quantum/eeconfig.o
eeconfig_read_keymap                              .build/obj_sofle_rev1_LohseBoi/quantum/eeconfig.o
                                                  .build/obj_sofle_rev1_LohseBoi/quantum/process_keycode/process_magic.o
                                                  .build/obj_sofle_rev1_LohseBoi/quantum/bootmagic/magic.o
eeconfig_read_user                                .build/obj_sofle_rev1_LohseBoi/quantum/eeconfig.o
eeconfig_update_audio                             .build/obj_sofle_rev1_LohseBoi/quantum/eeconfig.o
eeconfig_update_debug                             .build/obj_sofle_rev1_LohseBoi/quantum/eeconfig.o
eeconfig_update_default_layer                     .build/obj_sofle_rev1_LohseBoi/quantum/eeconfig.o
                                                  .build/obj_sofle_rev1_LohseBoi/quantum/quantum.o
eeconfig_update_handedness                        .build/obj_sofle_rev1_LohseBoi/quantum/eeconfig.o
                                                  .build/obj_sofle_rev1_LohseBoi/quantum/process_keycode/process_magic.o
eeconfig_update_haptic                            .build/obj_sofle_rev1_LohseBoi/quantum/eeconfig.o
eeconfig_update_kb                                .build/obj_sofle_rev1_LohseBoi/quantum/eeconfig.o
eeconfig_update_keymap                            .build/obj_sofle_rev1_LohseBoi/quantum/eeconfig.o
                                                  .build/obj_sofle_rev1_LohseBoi/quantum/process_keycode/process_magic.o
                                                  .build/obj_sofle_rev1_LohseBoi/quantum/action_util.o
eeconfig_update_user                              .build/obj_sofle_rev1_LohseBoi/quantum/eeconfig.o
eeprom_read_block                                 /usr/lib/gcc/avr/8.3.0/../../../../avr/lib/avr5/libatmega32u4.a(eerd_block.o)
eeprom_read_blraw                                 /usr/lib/gcc/avr/8.3.0/../../../../avr/lib/avr5/libatmega32u4.a(eerd_block.o)
                                                  /usr/lib/gcc/avr/8.3.0/../../../../avr/lib/avr5/libatmega32u4.a(eerd_word.o)
                                                  /usr/lib/gcc/avr/8.3.0/../../../../avr/lib/avr5/libatmega32u4.a(eerd_dword.o)
eeprom_read_byte                                  /usr/lib/gcc/avr/8.3.0/../../../../avr/lib/avr5/libatmega32u4.a(eerd_byte.o)
                                                  .build/obj_sofle_rev1_LohseBoi/lib/lufa/LUFA/Drivers/USB/Core/AVR8/EndpointStream_AVR8.o
                                                  .build/obj_sofle_rev1_LohseBoi/quantum/eeconfig.o
eeprom_read_dword                                 /usr/lib/gcc/avr/8.3.0/../../../../avr/lib/avr5/libatmega32u4.a(eerd_dword.o)
                                                  .build/obj_sofle_rev1_LohseBoi/quantum/eeconfig.o
eeprom_read_float                                 /usr/lib/gcc/avr/8.3.0/../../../../avr/lib/avr5/libatmega32u4.a(eerd_dword.o)
eeprom_read_word                                  /usr/lib/gcc/avr/8.3.0/../../../../avr/lib/avr5/libatmega32u4.a(eerd_word.o)
                                                  .build/obj_sofle_rev1_LohseBoi/quantum/eeconfig.o
eeprom_update_byte                                /usr/lib/gcc/avr/8.3.0/../../../../avr/lib/avr5/libatmega32u4.a(eeupd_byte.o)
                                                  /usr/lib/gcc/avr/8.3.0/../../../../avr/lib/avr5/libatmega32u4.a(eeupd_word.o)
                                                  /usr/lib/gcc/avr/8.3.0/../../../../avr/lib/avr5/libatmega32u4.a(eeupd_dword.o)
                                                  .build/obj_sofle_rev1_LohseBoi/lib/lufa/LUFA/Drivers/USB/Core/AVR8/EndpointStream_AVR8.o
                                                  .build/obj_sofle_rev1_LohseBoi/quantum/eeconfig.o
eeprom_update_dword                               /usr/lib/gcc/avr/8.3.0/../../../../avr/lib/avr5/libatmega32u4.a(eeupd_dword.o)
                                                  .build/obj_sofle_rev1_LohseBoi/quantum/eeconfig.o
eeprom_update_float                               /usr/lib/gcc/avr/8.3.0/../../../../avr/lib/avr5/libatmega32u4.a(eeupd_dword.o)
eeprom_update_r18                                 /usr/lib/gcc/avr/8.3.0/../../../../avr/lib/avr5/libatmega32u4.a(eeupd_byte.o)
                                                  /usr/lib/gcc/avr/8.3.0/../../../../avr/lib/avr5/libatmega32u4.a(eeupd_word.o)
                                                  /usr/lib/gcc/avr/8.3.0/../../../../avr/lib/avr5/libatmega32u4.a(eeupd_dword.o)
eeprom_update_word                                /usr/lib/gcc/avr/8.3.0/../../../../avr/lib/avr5/libatmega32u4.a(eeupd_word.o)
                                                  .build/obj_sofle_rev1_LohseBoi/quantum/eeconfig.o
encoder_init                                      .build/obj_sofle_rev1_LohseBoi/quantum/encoder.o
                                                  .build/obj_sofle_rev1_LohseBoi/quantum/keyboard.o
encoder_read                                      .build/obj_sofle_rev1_LohseBoi/quantum/encoder.o
                                                  .build/obj_sofle_rev1_LohseBoi/quantum/keyboard.o
encoder_state_raw                                 .build/obj_sofle_rev1_LohseBoi/quantum/encoder.o
                                                  .build/obj_sofle_rev1_LohseBoi/quantum/split_common/transactions.o
encoder_update_kb                                 .build/obj_sofle_rev1_LohseBoi/quantum/encoder.o
encoder_update_raw                                .build/obj_sofle_rev1_LohseBoi/quantum/encoder.o
                                                  .build/obj_sofle_rev1_LohseBoi/quantum/split_common/transactions.o
encoder_update_user                               .build/obj_sofle_rev1_LohseBoi/keyboards/sofle/keymaps/LohseBoi/keymap.o
exit                                              /usr/lib/gcc/avr/8.3.0/avr5/libgcc.a(_exit.o)
                                                  /usr/lib/gcc/avr/8.3.0/../../../../avr/lib/avr5/crtatmega32u4.o
extract_mod_bits                                  .build/obj_sofle_rev1_LohseBoi/quantum/quantum.o
fn_actions                                        .build/obj_sofle_rev1_LohseBoi/quantum/keymap_common.o
get_current_wpm                                   .build/obj_sofle_rev1_LohseBoi/quantum/wpm.o
                                                  .build/obj_sofle_rev1_LohseBoi/keyboards/sofle/keymaps/LohseBoi/keymap.o
get_event_keycode                                 .build/obj_sofle_rev1_LohseBoi/quantum/quantum.o
get_first_key                                     .build/obj_sofle_rev1_LohseBoi/common/report.o
get_macro_mods                                    .build/obj_sofle_rev1_LohseBoi/quantum/action_util.o
get_mods                                          .build/obj_sofle_rev1_LohseBoi/quantum/action_util.o
                                                  .build/obj_sofle_rev1_LohseBoi/quantum/process_keycode/process_grave_esc.o
get_oneshot_layer                                 .build/obj_sofle_rev1_LohseBoi/quantum/action_util.o
                                                  .build/obj_sofle_rev1_LohseBoi/quantum/action.o
get_oneshot_layer_state                           .build/obj_sofle_rev1_LohseBoi/quantum/action_util.o
                                                  .build/obj_sofle_rev1_LohseBoi/quantum/action.o
get_oneshot_locked_mods                           .build/obj_sofle_rev1_LohseBoi/quantum/action_util.o
get_oneshot_mods                                  .build/obj_sofle_rev1_LohseBoi/quantum/action_util.o
                                                  .build/obj_sofle_rev1_LohseBoi/quantum/action.o
get_record_keycode                                .build/obj_sofle_rev1_LohseBoi/quantum/quantum.o
get_tapping_term                                  .build/obj_sofle_rev1_LohseBoi/quantum/action_tapping.o
get_usb_descriptor                                .build/obj_sofle_rev1_LohseBoi/usb_descriptor.o
                                                  .build/obj_sofle_rev1_LohseBoi/lufa.o
get_weak_mods                                     .build/obj_sofle_rev1_LohseBoi/quantum/action_util.o
hand_swap_config                                  .build/obj_sofle_rev1_LohseBoi/keyboards/sofle/sofle.o
                                                  .build/obj_sofle_rev1_LohseBoi/quantum/action.o
has_anykey                                        .build/obj_sofle_rev1_LohseBoi/common/report.o
                                                  .build/obj_sofle_rev1_LohseBoi/quantum/action_util.o
has_anymod                                        .build/obj_sofle_rev1_LohseBoi/quantum/action_util.o
has_oneshot_mods_timed_out                        .build/obj_sofle_rev1_LohseBoi/quantum/action_util.o
host_consumer_send                                .build/obj_sofle_rev1_LohseBoi/common/host.o
                                                  .build/obj_sofle_rev1_LohseBoi/quantum/action.o
host_digitizer_send                               .build/obj_sofle_rev1_LohseBoi/common/host.o
host_get_driver                                   .build/obj_sofle_rev1_LohseBoi/common/host.o
host_keyboard_led_state                           .build/obj_sofle_rev1_LohseBoi/common/host.o
                                                  .build/obj_sofle_rev1_LohseBoi/keyboards/sofle/keymaps/LohseBoi/keymap.o
host_keyboard_leds                                .build/obj_sofle_rev1_LohseBoi/common/host.o
                                                  .build/obj_sofle_rev1_LohseBoi/common/avr/suspend.o
                                                  .build/obj_sofle_rev1_LohseBoi/quantum/keyboard.o
                                                  .build/obj_sofle_rev1_LohseBoi/quantum/action.o
host_keyboard_send                                .build/obj_sofle_rev1_LohseBoi/common/host.o
                                                  .build/obj_sofle_rev1_LohseBoi/quantum/action_util.o
host_last_consumer_report                         .build/obj_sofle_rev1_LohseBoi/common/host.o
host_last_system_report                           .build/obj_sofle_rev1_LohseBoi/common/host.o
host_mouse_send                                   .build/obj_sofle_rev1_LohseBoi/common/host.o
host_set_driver                                   .build/obj_sofle_rev1_LohseBoi/common/host.o
                                                  .build/obj_sofle_rev1_LohseBoi/lufa.o
host_system_send                                  .build/obj_sofle_rev1_LohseBoi/common/host.o
                                                  .build/obj_sofle_rev1_LohseBoi/quantum/action.o
housekeeping_task                                 .build/obj_sofle_rev1_LohseBoi/quantum/keyboard.o
                                                  .build/obj_sofle_rev1_LohseBoi/quantum/main.o
housekeeping_task_kb                              .build/obj_sofle_rev1_LohseBoi/quantum/keyboard.o
housekeeping_task_user                            .build/obj_sofle_rev1_LohseBoi/quantum/keyboard.o
i2c_init                                          .build/obj_sofle_rev1_LohseBoi/i2c_master.a(i2c_master.o)
                                                  .build/obj_sofle_rev1_LohseBoi/ssd1306_sh1106.o
i2c_readReg                                       .build/obj_sofle_rev1_LohseBoi/i2c_master.a(i2c_master.o)
i2c_read_ack                                      .build/obj_sofle_rev1_LohseBoi/i2c_master.a(i2c_master.o)
i2c_read_nack                                     .build/obj_sofle_rev1_LohseBoi/i2c_master.a(i2c_master.o)
i2c_receive                                       .build/obj_sofle_rev1_LohseBoi/i2c_master.a(i2c_master.o)
i2c_start                                         .build/obj_sofle_rev1_LohseBoi/i2c_master.a(i2c_master.o)
                                                  .build/obj_sofle_rev1_LohseBoi/ssd1306_sh1106.o
i2c_stop                                          .build/obj_sofle_rev1_LohseBoi/i2c_master.a(i2c_master.o)
                                                  .build/obj_sofle_rev1_LohseBoi/ssd1306_sh1106.o
i2c_transmit                                      .build/obj_sofle_rev1_LohseBoi/i2c_master.a(i2c_master.o)
                                                  .build/obj_sofle_rev1_LohseBoi/ssd1306_sh1106.o
i2c_write                                         .build/obj_sofle_rev1_LohseBoi/i2c_master.a(i2c_master.o)
                                                  .build/obj_sofle_rev1_LohseBoi/ssd1306_sh1106.o
i2c_writeReg                                      .build/obj_sofle_rev1_LohseBoi/i2c_master.a(i2c_master.o)
                                                  .build/obj_sofle_rev1_LohseBoi/ssd1306_sh1106.o
isLeftHand                                        .build/obj_sofle_rev1_LohseBoi/quantum/split_common/split_util.o
                                                  .build/obj_sofle_rev1_LohseBoi/quantum/encoder.o
                                                  .build/obj_sofle_rev1_LohseBoi/quantum/matrix.o
is_key_pressed                                    .build/obj_sofle_rev1_LohseBoi/common/report.o
                                                  .build/obj_sofle_rev1_LohseBoi/quantum/action.o
is_keyboard_left                                  .build/obj_sofle_rev1_LohseBoi/quantum/split_common/split_util.o
is_keyboard_master                                .build/obj_sofle_rev1_LohseBoi/quantum/split_common/split_util.o
                                                  .build/obj_sofle_rev1_LohseBoi/common/sync_timer.o
                                                  .build/obj_sofle_rev1_LohseBoi/common/host.o
                                                  .build/obj_sofle_rev1_LohseBoi/quantum/matrix.o
                                                  .build/obj_sofle_rev1_LohseBoi/quantum/keyboard.o
                                                  .build/obj_sofle_rev1_LohseBoi/keyboards/sofle/keymaps/LohseBoi/keymap.o
is_media_active                                   .build/obj_sofle_rev1_LohseBoi/keyboards/sofle/keymaps/LohseBoi/keymap.o
is_oled_on                                        .build/obj_sofle_rev1_LohseBoi/ssd1306_sh1106.o
                                                  .build/obj_sofle_rev1_LohseBoi/keyboards/sofle/keymaps/LohseBoi/keymap.o
is_oled_scrolling                                 .build/obj_sofle_rev1_LohseBoi/ssd1306_sh1106.o
is_oneshot_enabled                                .build/obj_sofle_rev1_LohseBoi/quantum/action_util.o
is_oneshot_layer_active                           .build/obj_sofle_rev1_LohseBoi/quantum/action_util.o
                                                  .build/obj_sofle_rev1_LohseBoi/quantum/action.o
is_tap_action                                     .build/obj_sofle_rev1_LohseBoi/quantum/action.o
is_tap_key                                        .build/obj_sofle_rev1_LohseBoi/quantum/action.o
is_tap_record                                     .build/obj_sofle_rev1_LohseBoi/quantum/action.o
                                                  .build/obj_sofle_rev1_LohseBoi/quantum/action_tapping.o
is_transport_connected                            .build/obj_sofle_rev1_LohseBoi/quantum/split_common/split_util.o
                                                  .build/obj_sofle_rev1_LohseBoi/quantum/split_common/transactions.o
keyboard_idle                                     .build/obj_sofle_rev1_LohseBoi/lufa.o
keyboard_init                                     .build/obj_sofle_rev1_LohseBoi/quantum/keyboard.o
                                                  .build/obj_sofle_rev1_LohseBoi/lufa.o
keyboard_post_init_kb                             .build/obj_sofle_rev1_LohseBoi/quantum/keyboard.o
keyboard_post_init_user                           .build/obj_sofle_rev1_LohseBoi/quantum/keyboard.o
keyboard_pre_init_kb                              .build/obj_sofle_rev1_LohseBoi/quantum/keyboard.o
keyboard_pre_init_user                            .build/obj_sofle_rev1_LohseBoi/quantum/keyboard.o
keyboard_protocol                                 .build/obj_sofle_rev1_LohseBoi/lufa.o
keyboard_report                                   .build/obj_sofle_rev1_LohseBoi/quantum/action_util.o
                                                  .build/obj_sofle_rev1_LohseBoi/quantum/action.o
keyboard_set_leds                                 .build/obj_sofle_rev1_LohseBoi/quantum/keyboard.o
keyboard_setup                                    .build/obj_sofle_rev1_LohseBoi/quantum/keyboard.o
                                                  .build/obj_sofle_rev1_LohseBoi/lufa.o
keyboard_task                                     .build/obj_sofle_rev1_LohseBoi/quantum/keyboard.o
                                                  .build/obj_sofle_rev1_LohseBoi/lufa.o
keycode_config                                    .build/obj_sofle_rev1_LohseBoi/quantum/keycode_config.o
                                                  .build/obj_sofle_rev1_LohseBoi/quantum/keymap_common.o
keymap_config                                     .build/obj_sofle_rev1_LohseBoi/quantum/bootmagic/magic.o
                                                  .build/obj_sofle_rev1_LohseBoi/quantum/process_keycode/process_magic.o
                                                  .build/obj_sofle_rev1_LohseBoi/quantum/keycode_config.o
                                                  .build/obj_sofle_rev1_LohseBoi/quantum/action_util.o
                                                  .build/obj_sofle_rev1_LohseBoi/keyboards/sofle/keymaps/LohseBoi/keymap.o
keymap_function_id_to_action                      .build/obj_sofle_rev1_LohseBoi/quantum/keymap_common.o
keymap_key_to_keycode                             .build/obj_sofle_rev1_LohseBoi/quantum/keymap_common.o
                                                  .build/obj_sofle_rev1_LohseBoi/quantum/quantum.o
keymaps                                           .build/obj_sofle_rev1_LohseBoi/keyboards/sofle/keymaps/LohseBoi/keymap.o
                                                  .build/obj_sofle_rev1_LohseBoi/quantum/keymap_common.o
last_encoder_activity_elapsed                     .build/obj_sofle_rev1_LohseBoi/quantum/keyboard.o
last_encoder_activity_time                        .build/obj_sofle_rev1_LohseBoi/quantum/keyboard.o
last_encoder_activity_trigger                     .build/obj_sofle_rev1_LohseBoi/quantum/keyboard.o
                                                  .build/obj_sofle_rev1_LohseBoi/quantum/encoder.o
last_input_activity_elapsed                       .build/obj_sofle_rev1_LohseBoi/quantum/keyboard.o
last_input_activity_time                          .build/obj_sofle_rev1_LohseBoi/quantum/keyboard.o
last_matrix_activity_elapsed                      .build/obj_sofle_rev1_LohseBoi/quantum/keyboard.o
last_matrix_activity_time                         .build/obj_sofle_rev1_LohseBoi/quantum/keyboard.o
last_matrix_activity_trigger                      .build/obj_sofle_rev1_LohseBoi/quantum/keyboard.o
layer_and                                         .build/obj_sofle_rev1_LohseBoi/quantum/action_layer.o
                                                  .build/obj_sofle_rev1_LohseBoi/quantum/action.o
layer_clear                                       .build/obj_sofle_rev1_LohseBoi/quantum/action_layer.o
                                                  .build/obj_sofle_rev1_LohseBoi/quantum/action.o
layer_debug                                       .build/obj_sofle_rev1_LohseBoi/quantum/action_layer.o
                                                  .build/obj_sofle_rev1_LohseBoi/quantum/action.o
layer_invert                                      .build/obj_sofle_rev1_LohseBoi/quantum/action_layer.o
                                                  .build/obj_sofle_rev1_LohseBoi/quantum/action.o
layer_move                                        .build/obj_sofle_rev1_LohseBoi/quantum/action_layer.o
                                                  .build/obj_sofle_rev1_LohseBoi/quantum/action.o
layer_off                                         .build/obj_sofle_rev1_LohseBoi/quantum/action_layer.o
                                                  .build/obj_sofle_rev1_LohseBoi/quantum/action_util.o
                                                  .build/obj_sofle_rev1_LohseBoi/quantum/action.o
                                                  .build/obj_sofle_rev1_LohseBoi/keyboards/sofle/keymaps/LohseBoi/keymap.o
layer_on                                          .build/obj_sofle_rev1_LohseBoi/quantum/action_layer.o
                                                  .build/obj_sofle_rev1_LohseBoi/quantum/action_util.o
                                                  .build/obj_sofle_rev1_LohseBoi/quantum/action.o
                                                  .build/obj_sofle_rev1_LohseBoi/keyboards/sofle/keymaps/LohseBoi/keymap.o
layer_or                                          .build/obj_sofle_rev1_LohseBoi/quantum/action_layer.o
                                                  .build/obj_sofle_rev1_LohseBoi/quantum/action.o
layer_state                                       .build/obj_sofle_rev1_LohseBoi/quantum/action_layer.o
                                                  .build/obj_sofle_rev1_LohseBoi/quantum/bootmagic/magic.o
                                                  .build/obj_sofle_rev1_LohseBoi/quantum/quantum.o
                                                  .build/obj_sofle_rev1_LohseBoi/keyboards/sofle/keymaps/LohseBoi/keymap.o
layer_state_cmp                                   .build/obj_sofle_rev1_LohseBoi/quantum/action_layer.o
layer_state_is                                    .build/obj_sofle_rev1_LohseBoi/quantum/action_layer.o
layer_state_set                                   .build/obj_sofle_rev1_LohseBoi/quantum/action_layer.o
                                                  .build/obj_sofle_rev1_LohseBoi/quantum/action.o
                                                  .build/obj_sofle_rev1_LohseBoi/quantum/quantum.o
layer_state_set_kb                                .build/obj_sofle_rev1_LohseBoi/quantum/action_layer.o
                                                  .build/obj_sofle_rev1_LohseBoi/quantum/bootmagic/magic.o
layer_state_set_user                              .build/obj_sofle_rev1_LohseBoi/quantum/action_layer.o
layer_switch_get_action                           .build/obj_sofle_rev1_LohseBoi/quantum/action_layer.o
                                                  .build/obj_sofle_rev1_LohseBoi/quantum/action_tapping.o
                                                  .build/obj_sofle_rev1_LohseBoi/quantum/action.o
layer_switch_get_layer                            .build/obj_sofle_rev1_LohseBoi/quantum/action_layer.o
                                                  .build/obj_sofle_rev1_LohseBoi/quantum/quantum.o
layer_xor                                         .build/obj_sofle_rev1_LohseBoi/quantum/action_layer.o
                                                  .build/obj_sofle_rev1_LohseBoi/quantum/action.o
led_init_ports                                    .build/obj_sofle_rev1_LohseBoi/quantum/led.o
                                                  .build/obj_sofle_rev1_LohseBoi/quantum/quantum.o
led_set                                           .build/obj_sofle_rev1_LohseBoi/quantum/led.o
                                                  .build/obj_sofle_rev1_LohseBoi/common/avr/suspend.o
                                                  .build/obj_sofle_rev1_LohseBoi/quantum/keyboard.o
                                                  .build/obj_sofle_rev1_LohseBoi/quantum/action.o
led_set_kb                                        .build/obj_sofle_rev1_LohseBoi/quantum/led.o
led_set_user                                      .build/obj_sofle_rev1_LohseBoi/quantum/led.o
led_update_kb                                     .build/obj_sofle_rev1_LohseBoi/quantum/led.o
led_update_user                                   .build/obj_sofle_rev1_LohseBoi/quantum/led.o
lufa_driver                                       .build/obj_sofle_rev1_LohseBoi/lufa.o
lwr_tapped                                        .build/obj_sofle_rev1_LohseBoi/keyboards/sofle/keymaps/LohseBoi/keymap.o
lwr_timer                                         .build/obj_sofle_rev1_LohseBoi/keyboards/sofle/keymaps/LohseBoi/keymap.o
magic                                             .build/obj_sofle_rev1_LohseBoi/quantum/bootmagic/magic.o
                                                  .build/obj_sofle_rev1_LohseBoi/quantum/quantum.o
main                                              .build/obj_sofle_rev1_LohseBoi/quantum/main.o
                                                  /usr/lib/gcc/avr/8.3.0/../../../../avr/lib/avr5/crtatmega32u4.o
matrix                                            .build/obj_sofle_rev1_LohseBoi/quantum/matrix_common.o
                                                  .build/obj_sofle_rev1_LohseBoi/quantum/matrix.o
matrix_cols                                       .build/obj_sofle_rev1_LohseBoi/quantum/matrix_common.o
matrix_get_row                                    .build/obj_sofle_rev1_LohseBoi/quantum/matrix_common.o
                                                  .build/obj_sofle_rev1_LohseBoi/common/avr/suspend.o
                                                  .build/obj_sofle_rev1_LohseBoi/quantum/keyboard.o
matrix_init                                       .build/obj_sofle_rev1_LohseBoi/quantum/matrix.o
                                                  .build/obj_sofle_rev1_LohseBoi/quantum/matrix_common.o
                                                  .build/obj_sofle_rev1_LohseBoi/quantum/keyboard.o
matrix_init_custom                                .build/obj_sofle_rev1_LohseBoi/quantum/matrix_common.o
matrix_init_kb                                    .build/obj_sofle_rev1_LohseBoi/quantum/matrix_common.o
                                                  .build/obj_sofle_rev1_LohseBoi/quantum/quantum.o
matrix_init_pins                                  .build/obj_sofle_rev1_LohseBoi/quantum/matrix.o
matrix_init_quantum                               .build/obj_sofle_rev1_LohseBoi/quantum/quantum.o
                                                  .build/obj_sofle_rev1_LohseBoi/quantum/matrix.o
                                                  .build/obj_sofle_rev1_LohseBoi/quantum/matrix_common.o
matrix_init_user                                  .build/obj_sofle_rev1_LohseBoi/quantum/matrix_common.o
matrix_io_delay                                   .build/obj_sofle_rev1_LohseBoi/quantum/matrix_common.o
matrix_is_modified                                .build/obj_sofle_rev1_LohseBoi/quantum/matrix_common.o
matrix_is_on                                      .build/obj_sofle_rev1_LohseBoi/quantum/matrix_common.o
matrix_key_count                                  .build/obj_sofle_rev1_LohseBoi/quantum/matrix_common.o
matrix_output_select_delay                        .build/obj_sofle_rev1_LohseBoi/quantum/matrix_common.o
                                                  .build/obj_sofle_rev1_LohseBoi/quantum/matrix.o
matrix_output_unselect_delay                      .build/obj_sofle_rev1_LohseBoi/quantum/matrix_common.o
                                                  .build/obj_sofle_rev1_LohseBoi/quantum/matrix.o
matrix_post_scan                                  .build/obj_sofle_rev1_LohseBoi/quantum/matrix.o
matrix_power_down                                 .build/obj_sofle_rev1_LohseBoi/common/avr/suspend.o
matrix_power_up                                   .build/obj_sofle_rev1_LohseBoi/common/avr/suspend.o
matrix_print                                      .build/obj_sofle_rev1_LohseBoi/quantum/matrix_common.o
                                                  .build/obj_sofle_rev1_LohseBoi/quantum/keyboard.o
matrix_read_cols_on_row                           .build/obj_sofle_rev1_LohseBoi/quantum/matrix.o
matrix_rows                                       .build/obj_sofle_rev1_LohseBoi/quantum/matrix_common.o
matrix_scan                                       .build/obj_sofle_rev1_LohseBoi/quantum/matrix.o
                                                  .build/obj_sofle_rev1_LohseBoi/quantum/matrix_common.o
                                                  .build/obj_sofle_rev1_LohseBoi/common/avr/suspend.o
                                                  .build/obj_sofle_rev1_LohseBoi/quantum/keyboard.o
matrix_scan_custom                                .build/obj_sofle_rev1_LohseBoi/quantum/matrix_common.o
matrix_scan_kb                                    .build/obj_sofle_rev1_LohseBoi/quantum/matrix_common.o
                                                  .build/obj_sofle_rev1_LohseBoi/quantum/quantum.o
matrix_scan_quantum                               .build/obj_sofle_rev1_LohseBoi/quantum/quantum.o
                                                  .build/obj_sofle_rev1_LohseBoi/quantum/matrix.o
                                                  .build/obj_sofle_rev1_LohseBoi/quantum/matrix_common.o
matrix_scan_user                                  .build/obj_sofle_rev1_LohseBoi/keyboards/sofle/keymaps/LohseBoi/keymap.o
matrix_setup                                      .build/obj_sofle_rev1_LohseBoi/quantum/keyboard.o
matrix_slave_scan_kb                              .build/obj_sofle_rev1_LohseBoi/quantum/matrix.o
matrix_slave_scan_user                            .build/obj_sofle_rev1_LohseBoi/quantum/matrix.o
media_counter                                     .build/obj_sofle_rev1_LohseBoi/keyboards/sofle/keymaps/LohseBoi/keymap.o
media_time                                        .build/obj_sofle_rev1_LohseBoi/keyboards/sofle/keymaps/LohseBoi/keymap.o
media_timer                                       .build/obj_sofle_rev1_LohseBoi/keyboards/sofle/keymaps/LohseBoi/keymap.o
memcmp                                            /usr/lib/gcc/avr/8.3.0/../../../../avr/lib/avr5/libc.a(memcmp.o)
                                                  .build/obj_sofle_rev1_LohseBoi/ssd1306_sh1106.o
                                                  .build/obj_sofle_rev1_LohseBoi/quantum/matrix.o
memcpy                                            /usr/lib/gcc/avr/8.3.0/../../../../avr/lib/avr5/libc.a(memcpy.o)
                                                  .build/obj_sofle_rev1_LohseBoi/quantum/split_common/transactions.o
                                                  .build/obj_sofle_rev1_LohseBoi/quantum/split_common/transport.o
memcpy_P                                          /usr/lib/gcc/avr/8.3.0/../../../../avr/lib/avr5/libc.a(memcpy_P.o)
                                                  .build/obj_sofle_rev1_LohseBoi/ssd1306_sh1106.o
mod_config                                        .build/obj_sofle_rev1_LohseBoi/quantum/keycode_config.o
                                                  .build/obj_sofle_rev1_LohseBoi/quantum/keymap_common.o
oled_active                                       .build/obj_sofle_rev1_LohseBoi/ssd1306_sh1106.o
oled_advance_char                                 .build/obj_sofle_rev1_LohseBoi/ssd1306_sh1106.o
oled_advance_page                                 .build/obj_sofle_rev1_LohseBoi/ssd1306_sh1106.o
oled_brightness                                   .build/obj_sofle_rev1_LohseBoi/ssd1306_sh1106.o
oled_buffer                                       .build/obj_sofle_rev1_LohseBoi/ssd1306_sh1106.o
oled_clear                                        .build/obj_sofle_rev1_LohseBoi/ssd1306_sh1106.o
oled_cursor                                       .build/obj_sofle_rev1_LohseBoi/ssd1306_sh1106.o
oled_dirty                                        .build/obj_sofle_rev1_LohseBoi/ssd1306_sh1106.o
oled_get_brightness                               .build/obj_sofle_rev1_LohseBoi/ssd1306_sh1106.o
oled_init                                         .build/obj_sofle_rev1_LohseBoi/ssd1306_sh1106.o
                                                  .build/obj_sofle_rev1_LohseBoi/quantum/keyboard.o
oled_init_user                                    .build/obj_sofle_rev1_LohseBoi/keyboards/sofle/keymaps/LohseBoi/keymap.o
oled_initialized                                  .build/obj_sofle_rev1_LohseBoi/ssd1306_sh1106.o
oled_invert                                       .build/obj_sofle_rev1_LohseBoi/ssd1306_sh1106.o
oled_inverted                                     .build/obj_sofle_rev1_LohseBoi/ssd1306_sh1106.o
oled_max_chars                                    .build/obj_sofle_rev1_LohseBoi/ssd1306_sh1106.o
oled_max_lines                                    .build/obj_sofle_rev1_LohseBoi/ssd1306_sh1106.o
oled_off                                          .build/obj_sofle_rev1_LohseBoi/ssd1306_sh1106.o
                                                  .build/obj_sofle_rev1_LohseBoi/keyboards/sofle/keymaps/LohseBoi/keymap.o
oled_on                                           .build/obj_sofle_rev1_LohseBoi/ssd1306_sh1106.o
                                                  .build/obj_sofle_rev1_LohseBoi/quantum/keyboard.o
                                                  .build/obj_sofle_rev1_LohseBoi/keyboards/sofle/keymaps/LohseBoi/keymap.o
oled_pan                                          .build/obj_sofle_rev1_LohseBoi/ssd1306_sh1106.o
oled_read_raw                                     .build/obj_sofle_rev1_LohseBoi/ssd1306_sh1106.o
oled_render                                       .build/obj_sofle_rev1_LohseBoi/ssd1306_sh1106.o
oled_rotation                                     .build/obj_sofle_rev1_LohseBoi/ssd1306_sh1106.o
oled_rotation_width                               .build/obj_sofle_rev1_LohseBoi/ssd1306_sh1106.o
oled_scroll_end                                   .build/obj_sofle_rev1_LohseBoi/ssd1306_sh1106.o
oled_scroll_left                                  .build/obj_sofle_rev1_LohseBoi/ssd1306_sh1106.o
oled_scroll_off                                   .build/obj_sofle_rev1_LohseBoi/ssd1306_sh1106.o
oled_scroll_right                                 .build/obj_sofle_rev1_LohseBoi/ssd1306_sh1106.o
oled_scroll_set_area                              .build/obj_sofle_rev1_LohseBoi/ssd1306_sh1106.o
oled_scroll_set_speed                             .build/obj_sofle_rev1_LohseBoi/ssd1306_sh1106.o
oled_scroll_speed                                 .build/obj_sofle_rev1_LohseBoi/ssd1306_sh1106.o
oled_scroll_start                                 .build/obj_sofle_rev1_LohseBoi/ssd1306_sh1106.o
oled_scrolling                                    .build/obj_sofle_rev1_LohseBoi/ssd1306_sh1106.o
oled_set_brightness                               .build/obj_sofle_rev1_LohseBoi/ssd1306_sh1106.o
oled_set_cursor                                   .build/obj_sofle_rev1_LohseBoi/ssd1306_sh1106.o
oled_task                                         .build/obj_sofle_rev1_LohseBoi/ssd1306_sh1106.o
                                                  .build/obj_sofle_rev1_LohseBoi/quantum/keyboard.o
oled_task_user                                    .build/obj_sofle_rev1_LohseBoi/keyboards/sofle/keymaps/LohseBoi/keymap.o
oled_timeout                                      .build/obj_sofle_rev1_LohseBoi/ssd1306_sh1106.o
oled_update_timeout                               .build/obj_sofle_rev1_LohseBoi/ssd1306_sh1106.o
oled_write                                        .build/obj_sofle_rev1_LohseBoi/ssd1306_sh1106.o
oled_write_P                                      .build/obj_sofle_rev1_LohseBoi/ssd1306_sh1106.o
                                                  .build/obj_sofle_rev1_LohseBoi/keyboards/sofle/keymaps/LohseBoi/keymap.o
oled_write_char                                   .build/obj_sofle_rev1_LohseBoi/ssd1306_sh1106.o
oled_write_ln                                     .build/obj_sofle_rev1_LohseBoi/ssd1306_sh1106.o
                                                  .build/obj_sofle_rev1_LohseBoi/keyboards/sofle/keymaps/LohseBoi/keymap.o
oled_write_ln_P                                   .build/obj_sofle_rev1_LohseBoi/ssd1306_sh1106.o
                                                  .build/obj_sofle_rev1_LohseBoi/keyboards/sofle/keymaps/LohseBoi/keymap.o
oled_write_pixel                                  .build/obj_sofle_rev1_LohseBoi/ssd1306_sh1106.o
oled_write_raw                                    .build/obj_sofle_rev1_LohseBoi/ssd1306_sh1106.o
oled_write_raw_P                                  .build/obj_sofle_rev1_LohseBoi/ssd1306_sh1106.o
oled_write_raw_byte                               .build/obj_sofle_rev1_LohseBoi/ssd1306_sh1106.o
oneshot_disable                                   .build/obj_sofle_rev1_LohseBoi/quantum/action_util.o
                                                  .build/obj_sofle_rev1_LohseBoi/quantum/quantum.o
oneshot_enable                                    .build/obj_sofle_rev1_LohseBoi/quantum/action_util.o
                                                  .build/obj_sofle_rev1_LohseBoi/quantum/quantum.o
oneshot_layer_changed_kb                          .build/obj_sofle_rev1_LohseBoi/quantum/action_util.o
oneshot_layer_changed_user                        .build/obj_sofle_rev1_LohseBoi/quantum/action_util.o
oneshot_locked_mods_changed_kb                    .build/obj_sofle_rev1_LohseBoi/quantum/action_util.o
oneshot_locked_mods_changed_user                  .build/obj_sofle_rev1_LohseBoi/quantum/action_util.o
oneshot_mods_changed_kb                           .build/obj_sofle_rev1_LohseBoi/quantum/action_util.o
oneshot_mods_changed_user                         .build/obj_sofle_rev1_LohseBoi/quantum/action_util.o
oneshot_set                                       .build/obj_sofle_rev1_LohseBoi/quantum/action_util.o
oneshot_toggle                                    .build/obj_sofle_rev1_LohseBoi/quantum/action_util.o
                                                  .build/obj_sofle_rev1_LohseBoi/quantum/quantum.o
peek_matrix                                       .build/obj_sofle_rev1_LohseBoi/quantum/matrix_common.o
perform_space_cadet                               .build/obj_sofle_rev1_LohseBoi/quantum/process_keycode/process_space_cadet.o
platform_setup                                    .build/obj_sofle_rev1_LohseBoi/common/avr/platform.o
                                                  .build/obj_sofle_rev1_LohseBoi/quantum/main.o
post_process_record_kb                            .build/obj_sofle_rev1_LohseBoi/quantum/quantum.o
post_process_record_quantum                       .build/obj_sofle_rev1_LohseBoi/quantum/quantum.o
post_process_record_user                          .build/obj_sofle_rev1_LohseBoi/quantum/quantum.o
pre_process_record_quantum                        .build/obj_sofle_rev1_LohseBoi/quantum/quantum.o
print_set_sendchar                                .build/obj_sofle_rev1_LohseBoi/common/avr/printf.o
                                                  .build/obj_sofle_rev1_LohseBoi/quantum/keyboard.o
process_action                                    .build/obj_sofle_rev1_LohseBoi/quantum/action.o
process_action_kb                                 .build/obj_sofle_rev1_LohseBoi/quantum/quantum.o
process_grave_esc                                 .build/obj_sofle_rev1_LohseBoi/quantum/process_keycode/process_grave_esc.o
                                                  .build/obj_sofle_rev1_LohseBoi/quantum/quantum.o
process_hand_swap                                 .build/obj_sofle_rev1_LohseBoi/quantum/action.o
process_magic                                     .build/obj_sofle_rev1_LohseBoi/quantum/process_keycode/process_magic.o
                                                  .build/obj_sofle_rev1_LohseBoi/quantum/quantum.o
process_record                                    .build/obj_sofle_rev1_LohseBoi/quantum/action.o
                                                  .build/obj_sofle_rev1_LohseBoi/quantum/action_tapping.o
process_record_handler                            .build/obj_sofle_rev1_LohseBoi/quantum/action.o
process_record_kb                                 .build/obj_sofle_rev1_LohseBoi/quantum/quantum.o
process_record_nocache                            .build/obj_sofle_rev1_LohseBoi/quantum/action.o
process_record_quantum                            .build/obj_sofle_rev1_LohseBoi/quantum/quantum.o
process_record_tap_hint                           .build/obj_sofle_rev1_LohseBoi/quantum/action.o
                                                  .build/obj_sofle_rev1_LohseBoi/quantum/action_tapping.o
process_record_user                               .build/obj_sofle_rev1_LohseBoi/keyboards/sofle/keymaps/LohseBoi/keymap.o
process_space_cadet                               .build/obj_sofle_rev1_LohseBoi/quantum/process_keycode/process_space_cadet.o
                                                  .build/obj_sofle_rev1_LohseBoi/quantum/quantum.o
protocol_init                                     .build/obj_sofle_rev1_LohseBoi/lufa.o
                                                  .build/obj_sofle_rev1_LohseBoi/quantum/main.o
protocol_setup                                    .build/obj_sofle_rev1_LohseBoi/lufa.o
                                                  .build/obj_sofle_rev1_LohseBoi/quantum/main.o
protocol_task                                     .build/obj_sofle_rev1_LohseBoi/lufa.o
                                                  .build/obj_sofle_rev1_LohseBoi/quantum/main.o
raw_matrix                                        .build/obj_sofle_rev1_LohseBoi/quantum/matrix_common.o
                                                  .build/obj_sofle_rev1_LohseBoi/quantum/matrix.o
read_source_layers_cache                          .build/obj_sofle_rev1_LohseBoi/quantum/action_layer.o
                                                  .build/obj_sofle_rev1_LohseBoi/quantum/quantum.o
register_code                                     .build/obj_sofle_rev1_LohseBoi/quantum/action.o
                                                  .build/obj_sofle_rev1_LohseBoi/quantum/send_string.o
                                                  .build/obj_sofle_rev1_LohseBoi/quantum/quantum.o
                                                  .build/obj_sofle_rev1_LohseBoi/keyboards/sofle/keymaps/LohseBoi/keymap.o
register_code16                                   .build/obj_sofle_rev1_LohseBoi/quantum/quantum.o
register_mods                                     .build/obj_sofle_rev1_LohseBoi/quantum/action.o
                                                  .build/obj_sofle_rev1_LohseBoi/quantum/process_keycode/process_space_cadet.o
                                                  .build/obj_sofle_rev1_LohseBoi/quantum/quantum.o
register_weak_mods                                .build/obj_sofle_rev1_LohseBoi/quantum/action.o
                                                  .build/obj_sofle_rev1_LohseBoi/quantum/quantum.o
release_oneshot_swaphands                         .build/obj_sofle_rev1_LohseBoi/quantum/action_util.o
                                                  .build/obj_sofle_rev1_LohseBoi/quantum/action.o
reset_key                                         .build/obj_sofle_rev1_LohseBoi/common/avr/bootloader.o
reset_keyboard                                    .build/obj_sofle_rev1_LohseBoi/quantum/quantum.o
reset_oneshot_layer                               .build/obj_sofle_rev1_LohseBoi/quantum/action_util.o
send_byte                                         .build/obj_sofle_rev1_LohseBoi/quantum/send_string.o
send_char                                         .build/obj_sofle_rev1_LohseBoi/quantum/send_string.o
send_digitizer                                    .build/obj_sofle_rev1_LohseBoi/lufa.o
                                                  .build/obj_sofle_rev1_LohseBoi/common/host.o
send_dword                                        .build/obj_sofle_rev1_LohseBoi/quantum/send_string.o
send_keyboard_report                              .build/obj_sofle_rev1_LohseBoi/quantum/action_util.o
                                                  .build/obj_sofle_rev1_LohseBoi/quantum/process_keycode/process_grave_esc.o
                                                  .build/obj_sofle_rev1_LohseBoi/quantum/action.o
send_nibble                                       .build/obj_sofle_rev1_LohseBoi/quantum/send_string.o
send_string                                       .build/obj_sofle_rev1_LohseBoi/quantum/send_string.o
send_string_P                                     .build/obj_sofle_rev1_LohseBoi/quantum/send_string.o
                                                  .build/obj_sofle_rev1_LohseBoi/keyboards/sofle/keymaps/LohseBoi/keymap.o
send_string_with_delay                            .build/obj_sofle_rev1_LohseBoi/quantum/send_string.o
send_string_with_delay_P                          .build/obj_sofle_rev1_LohseBoi/quantum/send_string.o
send_word                                         .build/obj_sofle_rev1_LohseBoi/quantum/send_string.o
sendchar                                          .build/obj_sofle_rev1_LohseBoi/quantum/logging/sendchar.o
                                                  .build/obj_sofle_rev1_LohseBoi/quantum/keyboard.o
serial_write_chunk                                .build/obj_sofle_rev1_LohseBoi/serial.a(serial.o)
set_current_wpm                                   .build/obj_sofle_rev1_LohseBoi/quantum/wpm.o
set_macro_mods                                    .build/obj_sofle_rev1_LohseBoi/quantum/action_util.o
set_mods                                          .build/obj_sofle_rev1_LohseBoi/quantum/action_util.o
set_oneshot_layer                                 .build/obj_sofle_rev1_LohseBoi/quantum/action_util.o
                                                  .build/obj_sofle_rev1_LohseBoi/quantum/action.o
set_oneshot_locked_mods                           .build/obj_sofle_rev1_LohseBoi/quantum/action_util.o
set_oneshot_mods                                  .build/obj_sofle_rev1_LohseBoi/quantum/action_util.o
                                                  .build/obj_sofle_rev1_LohseBoi/quantum/action.o
set_oneshot_swaphands                             .build/obj_sofle_rev1_LohseBoi/quantum/action_util.o
                                                  .build/obj_sofle_rev1_LohseBoi/quantum/action.o
set_single_persistent_default_layer               .build/obj_sofle_rev1_LohseBoi/quantum/quantum.o
                                                  .build/obj_sofle_rev1_LohseBoi/keyboards/sofle/keymaps/LohseBoi/keymap.o
set_split_host_keyboard_leds                      .build/obj_sofle_rev1_LohseBoi/common/host.o
set_weak_mods                                     .build/obj_sofle_rev1_LohseBoi/quantum/action_util.o
should_process_keypress                           .build/obj_sofle_rev1_LohseBoi/quantum/keyboard.o
shutdown_user                                     .build/obj_sofle_rev1_LohseBoi/quantum/quantum.o
soft_serial_get_and_clean_status                  .build/obj_sofle_rev1_LohseBoi/serial.a(serial.o)
soft_serial_initiator_init                        .build/obj_sofle_rev1_LohseBoi/serial.a(serial.o)
                                                  .build/obj_sofle_rev1_LohseBoi/quantum/split_common/transport.o
soft_serial_target_init                           .build/obj_sofle_rev1_LohseBoi/serial.a(serial.o)
                                                  .build/obj_sofle_rev1_LohseBoi/quantum/split_common/transport.o
soft_serial_transaction                           .build/obj_sofle_rev1_LohseBoi/serial.a(serial.o)
                                                  .build/obj_sofle_rev1_LohseBoi/quantum/split_common/transport.o
source_layers_cache                               .build/obj_sofle_rev1_LohseBoi/quantum/action_layer.o
split_led_state                                   .build/obj_sofle_rev1_LohseBoi/common/host.o
split_post_init                                   .build/obj_sofle_rev1_LohseBoi/quantum/split_common/split_util.o
                                                  .build/obj_sofle_rev1_LohseBoi/quantum/matrix.o
split_pre_init                                    .build/obj_sofle_rev1_LohseBoi/quantum/split_common/split_util.o
                                                  .build/obj_sofle_rev1_LohseBoi/quantum/matrix.o
split_shmem                                       .build/obj_sofle_rev1_LohseBoi/quantum/split_common/transport.o
                                                  .build/obj_sofle_rev1_LohseBoi/serial.a(serial.o)
                                                  .build/obj_sofle_rev1_LohseBoi/quantum/split_common/transactions.o
split_transaction_table                           .build/obj_sofle_rev1_LohseBoi/quantum/split_common/transactions.o
                                                  .build/obj_sofle_rev1_LohseBoi/serial.a(serial.o)
                                                  .build/obj_sofle_rev1_LohseBoi/quantum/split_common/transport.o
startup_user                                      .build/obj_sofle_rev1_LohseBoi/quantum/quantum.o
store_or_get_action                               .build/obj_sofle_rev1_LohseBoi/quantum/action_layer.o
                                                  .build/obj_sofle_rev1_LohseBoi/quantum/action.o
suspend_idle                                      .build/obj_sofle_rev1_LohseBoi/common/avr/suspend.o
suspend_power_down                                .build/obj_sofle_rev1_LohseBoi/common/avr/suspend.o
                                                  .build/obj_sofle_rev1_LohseBoi/lufa.o
suspend_power_down_kb                             .build/obj_sofle_rev1_LohseBoi/common/avr/suspend.o
suspend_power_down_user                           .build/obj_sofle_rev1_LohseBoi/common/avr/suspend.o
suspend_wakeup_condition                          .build/obj_sofle_rev1_LohseBoi/common/avr/suspend.o
                                                  .build/obj_sofle_rev1_LohseBoi/lufa.o
suspend_wakeup_init                               .build/obj_sofle_rev1_LohseBoi/common/avr/suspend.o
                                                  .build/obj_sofle_rev1_LohseBoi/lufa.o
suspend_wakeup_init_kb                            .build/obj_sofle_rev1_LohseBoi/common/avr/suspend.o
suspend_wakeup_init_user                          .build/obj_sofle_rev1_LohseBoi/common/avr/suspend.o
swap_hands                                        .build/obj_sofle_rev1_LohseBoi/quantum/action.o
                                                  .build/obj_sofle_rev1_LohseBoi/quantum/action_util.o
swap_hands_oneshot                                .build/obj_sofle_rev1_LohseBoi/quantum/action_util.o
swap_held                                         .build/obj_sofle_rev1_LohseBoi/quantum/action.o
switch_events                                     .build/obj_sofle_rev1_LohseBoi/quantum/keyboard.o
sync_timer_elapsed                                .build/obj_sofle_rev1_LohseBoi/common/sync_timer.o
sync_timer_elapsed32                              .build/obj_sofle_rev1_LohseBoi/common/sync_timer.o
sync_timer_init                                   .build/obj_sofle_rev1_LohseBoi/common/sync_timer.o
                                                  .build/obj_sofle_rev1_LohseBoi/quantum/keyboard.o
sync_timer_ms                                     .build/obj_sofle_rev1_LohseBoi/common/sync_timer.o
sync_timer_read                                   .build/obj_sofle_rev1_LohseBoi/common/sync_timer.o
sync_timer_read32                                 .build/obj_sofle_rev1_LohseBoi/common/sync_timer.o
                                                  .build/obj_sofle_rev1_LohseBoi/quantum/split_common/transactions.o
sync_timer_update                                 .build/obj_sofle_rev1_LohseBoi/common/sync_timer.o
                                                  .build/obj_sofle_rev1_LohseBoi/quantum/split_common/transactions.o
tap_code                                          .build/obj_sofle_rev1_LohseBoi/quantum/action.o
                                                  .build/obj_sofle_rev1_LohseBoi/quantum/process_keycode/process_space_cadet.o
                                                  .build/obj_sofle_rev1_LohseBoi/quantum/send_string.o
                                                  .build/obj_sofle_rev1_LohseBoi/keyboards/sofle/keymaps/LohseBoi/keymap.o
tap_code16                                        .build/obj_sofle_rev1_LohseBoi/quantum/quantum.o
tap_code_delay                                    .build/obj_sofle_rev1_LohseBoi/quantum/action.o
tap_random_base64                                 .build/obj_sofle_rev1_LohseBoi/quantum/send_string.o
thatHand                                          .build/obj_sofle_rev1_LohseBoi/quantum/matrix.o
thisHand                                          .build/obj_sofle_rev1_LohseBoi/quantum/matrix.o
timer_clear                                       .build/obj_sofle_rev1_LohseBoi/common/avr/timer.o
timer_count                                       .build/obj_sofle_rev1_LohseBoi/common/avr/timer.o
                                                  .build/obj_sofle_rev1_LohseBoi/common/avr/suspend.o
timer_elapsed                                     .build/obj_sofle_rev1_LohseBoi/common/avr/timer.o
                                                  .build/obj_sofle_rev1_LohseBoi/common/sync_timer.o
                                                  .build/obj_sofle_rev1_LohseBoi/i2c_master.a(i2c_master.o)
                                                  .build/obj_sofle_rev1_LohseBoi/quantum/process_keycode/process_space_cadet.o
                                                  .build/obj_sofle_rev1_LohseBoi/ssd1306_sh1106.o
                                                  .build/obj_sofle_rev1_LohseBoi/quantum/wpm.o
                                                  .build/obj_sofle_rev1_LohseBoi/quantum/split_common/split_util.o
                                                  .build/obj_sofle_rev1_LohseBoi/quantum/debounce/sym_defer_g.o
                                                  .build/obj_sofle_rev1_LohseBoi/keyboards/sofle/keymaps/LohseBoi/keymap.o
timer_elapsed32                                   .build/obj_sofle_rev1_LohseBoi/common/avr/timer.o
                                                  .build/obj_sofle_rev1_LohseBoi/common/sync_timer.o
                                                  .build/obj_sofle_rev1_LohseBoi/quantum/split_common/transactions.o
                                                  .build/obj_sofle_rev1_LohseBoi/quantum/keyboard.o
timer_init                                        .build/obj_sofle_rev1_LohseBoi/common/avr/timer.o
                                                  .build/obj_sofle_rev1_LohseBoi/quantum/keyboard.o
timer_read                                        .build/obj_sofle_rev1_LohseBoi/common/avr/timer.o
                                                  .build/obj_sofle_rev1_LohseBoi/common/sync_timer.o
                                                  .build/obj_sofle_rev1_LohseBoi/i2c_master.a(i2c_master.o)
                                                  .build/obj_sofle_rev1_LohseBoi/quantum/process_keycode/process_space_cadet.o
                                                  .build/obj_sofle_rev1_LohseBoi/ssd1306_sh1106.o
                                                  .build/obj_sofle_rev1_LohseBoi/quantum/wpm.o
                                                  .build/obj_sofle_rev1_LohseBoi/quantum/split_common/split_util.o
                                                  .build/obj_sofle_rev1_LohseBoi/quantum/debounce/sym_defer_g.o
                                                  .build/obj_sofle_rev1_LohseBoi/quantum/keyboard.o
                                                  .build/obj_sofle_rev1_LohseBoi/keyboards/sofle/keymaps/LohseBoi/keymap.o
timer_read32                                      .build/obj_sofle_rev1_LohseBoi/common/avr/timer.o
                                                  .build/obj_sofle_rev1_LohseBoi/common/sync_timer.o
                                                  .build/obj_sofle_rev1_LohseBoi/ssd1306_sh1106.o
                                                  .build/obj_sofle_rev1_LohseBoi/quantum/split_common/transactions.o
                                                  .build/obj_sofle_rev1_LohseBoi/quantum/keyboard.o
tp_buttons                                        .build/obj_sofle_rev1_LohseBoi/quantum/action.o
transactions_master                               .build/obj_sofle_rev1_LohseBoi/quantum/split_common/transactions.o
                                                  .build/obj_sofle_rev1_LohseBoi/quantum/split_common/transport.o
transactions_slave                                .build/obj_sofle_rev1_LohseBoi/quantum/split_common/transactions.o
                                                  .build/obj_sofle_rev1_LohseBoi/quantum/split_common/transport.o
transport_execute_transaction                     .build/obj_sofle_rev1_LohseBoi/quantum/split_common/transport.o
                                                  .build/obj_sofle_rev1_LohseBoi/quantum/split_common/transactions.o
transport_master                                  .build/obj_sofle_rev1_LohseBoi/quantum/split_common/transport.o
                                                  .build/obj_sofle_rev1_LohseBoi/quantum/split_common/split_util.o
                                                  .build/obj_sofle_rev1_LohseBoi/quantum/matrix.o
transport_master_if_connected                     .build/obj_sofle_rev1_LohseBoi/quantum/split_common/split_util.o
                                                  .build/obj_sofle_rev1_LohseBoi/quantum/matrix.o
transport_master_init                             .build/obj_sofle_rev1_LohseBoi/quantum/split_common/transport.o
                                                  .build/obj_sofle_rev1_LohseBoi/quantum/split_common/split_util.o
transport_slave                                   .build/obj_sofle_rev1_LohseBoi/quantum/split_common/transport.o
                                                  .build/obj_sofle_rev1_LohseBoi/quantum/matrix.o
transport_slave_init                              .build/obj_sofle_rev1_LohseBoi/quantum/split_common/transport.o
                                                  .build/obj_sofle_rev1_LohseBoi/quantum/split_common/split_util.o
turner                                            .build/obj_sofle_rev1_LohseBoi/keyboards/sofle/keymaps/LohseBoi/keymap.o
unregister_code                                   .build/obj_sofle_rev1_LohseBoi/quantum/action.o
                                                  .build/obj_sofle_rev1_LohseBoi/quantum/send_string.o
                                                  .build/obj_sofle_rev1_LohseBoi/quantum/quantum.o
                                                  .build/obj_sofle_rev1_LohseBoi/keyboards/sofle/keymaps/LohseBoi/keymap.o
unregister_code16                                 .build/obj_sofle_rev1_LohseBoi/quantum/quantum.o
unregister_mods                                   .build/obj_sofle_rev1_LohseBoi/quantum/action.o
                                                  .build/obj_sofle_rev1_LohseBoi/quantum/process_keycode/process_space_cadet.o
                                                  .build/obj_sofle_rev1_LohseBoi/quantum/quantum.o
unregister_weak_mods                              .build/obj_sofle_rev1_LohseBoi/quantum/action.o
                                                  .build/obj_sofle_rev1_LohseBoi/quantum/quantum.o
update_source_layers_cache                        .build/obj_sofle_rev1_LohseBoi/quantum/action_layer.o
                                                  .build/obj_sofle_rev1_LohseBoi/quantum/quantum.o
update_tri_layer                                  .build/obj_sofle_rev1_LohseBoi/quantum/quantum.o
                                                  .build/obj_sofle_rev1_LohseBoi/keyboards/sofle/keymaps/LohseBoi/keymap.o
update_tri_layer_state                            .build/obj_sofle_rev1_LohseBoi/quantum/quantum.o
update_wpm                                        .build/obj_sofle_rev1_LohseBoi/quantum/wpm.o
                                                  .build/obj_sofle_rev1_LohseBoi/quantum/quantum.o
usb_connected_state                               .build/obj_sofle_rev1_LohseBoi/protocol/lufa/usb_util.o
                                                  .build/obj_sofle_rev1_LohseBoi/common/usb_util.o
usb_disconnect                                    .build/obj_sofle_rev1_LohseBoi/protocol/lufa/usb_util.o
                                                  .build/obj_sofle_rev1_LohseBoi/common/usb_util.o
                                                  .build/obj_sofle_rev1_LohseBoi/quantum/split_common/split_util.o
usb_vbus_state                                    .build/obj_sofle_rev1_LohseBoi/protocol/lufa/usb_util.o
                                                  .build/obj_sofle_rev1_LohseBoi/common/usb_util.o
                                                  .build/obj_sofle_rev1_LohseBoi/quantum/split_common/split_util.o
use_oneshot_swaphands                             .build/obj_sofle_rev1_LohseBoi/quantum/action_util.o
                                                  .build/obj_sofle_rev1_LohseBoi/quantum/action.o
wpm_keycode                                       .build/obj_sofle_rev1_LohseBoi/quantum/wpm.o
wpm_keycode_kb                                    .build/obj_sofle_rev1_LohseBoi/quantum/wpm.o
wpm_keycode_user                                  .build/obj_sofle_rev1_LohseBoi/quantum/wpm.o
wpm_timer                                         .build/obj_sofle_rev1_LohseBoi/keyboards/sofle/keymaps/LohseBoi/keymap.o
xfunc_out                                         .build/obj_sofle_rev1_LohseBoi/common/avr/xprintf.o
                                                  .build/obj_sofle_rev1_LohseBoi/common/avr/printf.o
xitoa                                             .build/obj_sofle_rev1_LohseBoi/common/avr/xprintf.o
xputc                                             .build/obj_sofle_rev1_LohseBoi/common/avr/xprintf.o
xputs                                             .build/obj_sofle_rev1_LohseBoi/common/avr/xprintf.o
