   1               		.file	"eeconfig.c"
   2               	__SP_H__ = 0x3e
   3               	__SP_L__ = 0x3d
   4               	__SREG__ = 0x3f
   5               	__tmp_reg__ = 0
   6               	__zero_reg__ = 1
   7               		.text
   8               	.Ltext0:
   9               		.cfi_sections	.debug_frame
  10               		.section	.text.eeconfig_enable,"ax",@progbits
  11               	.global	eeconfig_enable
  13               	eeconfig_enable:
  14               	.LFB8:
  15               		.file 1 "quantum/eeconfig.c"
   1:quantum/eeconfig.c **** #include <stdint.h>
   2:quantum/eeconfig.c **** #include <stdbool.h>
   3:quantum/eeconfig.c **** #include "eeprom.h"
   4:quantum/eeconfig.c **** #include "eeconfig.h"
   5:quantum/eeconfig.c **** #include "action_layer.h"
   6:quantum/eeconfig.c **** 
   7:quantum/eeconfig.c **** #ifdef STM32_EEPROM_ENABLE
   8:quantum/eeconfig.c **** #    include <hal.h>
   9:quantum/eeconfig.c **** #    include "eeprom_stm32.h"
  10:quantum/eeconfig.c **** #endif
  11:quantum/eeconfig.c **** 
  12:quantum/eeconfig.c **** #if defined(EEPROM_DRIVER)
  13:quantum/eeconfig.c **** #    include "eeprom_driver.h"
  14:quantum/eeconfig.c **** #endif
  15:quantum/eeconfig.c **** 
  16:quantum/eeconfig.c **** #if defined(HAPTIC_ENABLE)
  17:quantum/eeconfig.c **** #    include "haptic.h"
  18:quantum/eeconfig.c **** #endif
  19:quantum/eeconfig.c **** 
  20:quantum/eeconfig.c **** #if defined(VIA_ENABLE)
  21:quantum/eeconfig.c **** bool via_eeprom_is_valid(void);
  22:quantum/eeconfig.c **** void via_eeprom_set_valid(bool valid);
  23:quantum/eeconfig.c **** void eeconfig_init_via(void);
  24:quantum/eeconfig.c **** #endif
  25:quantum/eeconfig.c **** 
  26:quantum/eeconfig.c **** /** \brief eeconfig enable
  27:quantum/eeconfig.c ****  *
  28:quantum/eeconfig.c ****  * FIXME: needs doc
  29:quantum/eeconfig.c ****  */
  30:quantum/eeconfig.c **** __attribute__((weak)) void eeconfig_init_user(void) {
  31:quantum/eeconfig.c ****     // Reset user EEPROM value to blank, rather than to a set value
  32:quantum/eeconfig.c ****     eeconfig_update_user(0);
  33:quantum/eeconfig.c **** }
  34:quantum/eeconfig.c **** 
  35:quantum/eeconfig.c **** __attribute__((weak)) void eeconfig_init_kb(void) {
  36:quantum/eeconfig.c ****     // Reset Keyboard EEPROM value to blank, rather than to a set value
  37:quantum/eeconfig.c ****     eeconfig_update_kb(0);
  38:quantum/eeconfig.c **** 
  39:quantum/eeconfig.c ****     eeconfig_init_user();
  40:quantum/eeconfig.c **** }
  41:quantum/eeconfig.c **** 
  42:quantum/eeconfig.c **** /*
  43:quantum/eeconfig.c ****  * FIXME: needs doc
  44:quantum/eeconfig.c ****  */
  45:quantum/eeconfig.c **** void eeconfig_init_quantum(void) {
  46:quantum/eeconfig.c **** #ifdef STM32_EEPROM_ENABLE
  47:quantum/eeconfig.c ****     EEPROM_Erase();
  48:quantum/eeconfig.c **** #endif
  49:quantum/eeconfig.c **** #if defined(EEPROM_DRIVER)
  50:quantum/eeconfig.c ****     eeprom_driver_erase();
  51:quantum/eeconfig.c **** #endif
  52:quantum/eeconfig.c ****     eeprom_update_word(EECONFIG_MAGIC, EECONFIG_MAGIC_NUMBER);
  53:quantum/eeconfig.c ****     eeprom_update_byte(EECONFIG_DEBUG, 0);
  54:quantum/eeconfig.c ****     eeprom_update_byte(EECONFIG_DEFAULT_LAYER, 0);
  55:quantum/eeconfig.c ****     default_layer_state = 0;
  56:quantum/eeconfig.c ****     eeprom_update_byte(EECONFIG_KEYMAP_LOWER_BYTE, 0);
  57:quantum/eeconfig.c ****     eeprom_update_byte(EECONFIG_KEYMAP_UPPER_BYTE, 0);
  58:quantum/eeconfig.c ****     eeprom_update_byte(EECONFIG_MOUSEKEY_ACCEL, 0);
  59:quantum/eeconfig.c ****     eeprom_update_byte(EECONFIG_BACKLIGHT, 0);
  60:quantum/eeconfig.c ****     eeprom_update_byte(EECONFIG_AUDIO, 0xFF);  // On by default
  61:quantum/eeconfig.c ****     eeprom_update_dword(EECONFIG_RGBLIGHT, 0);
  62:quantum/eeconfig.c ****     eeprom_update_byte(EECONFIG_STENOMODE, 0);
  63:quantum/eeconfig.c ****     eeprom_update_dword(EECONFIG_HAPTIC, 0);
  64:quantum/eeconfig.c ****     eeprom_update_byte(EECONFIG_VELOCIKEY, 0);
  65:quantum/eeconfig.c ****     eeprom_update_dword(EECONFIG_RGB_MATRIX, 0);
  66:quantum/eeconfig.c ****     eeprom_update_word(EECONFIG_RGB_MATRIX_EXTENDED, 0);
  67:quantum/eeconfig.c **** 
  68:quantum/eeconfig.c ****     // TODO: Remove once ARM has a way to configure EECONFIG_HANDEDNESS
  69:quantum/eeconfig.c ****     //        within the emulated eeprom via dfu-util or another tool
  70:quantum/eeconfig.c **** #if defined INIT_EE_HANDS_LEFT
  71:quantum/eeconfig.c **** #    pragma message "Faking EE_HANDS for left hand"
  72:quantum/eeconfig.c ****     eeprom_update_byte(EECONFIG_HANDEDNESS, 1);
  73:quantum/eeconfig.c **** #elif defined INIT_EE_HANDS_RIGHT
  74:quantum/eeconfig.c **** #    pragma message "Faking EE_HANDS for right hand"
  75:quantum/eeconfig.c ****     eeprom_update_byte(EECONFIG_HANDEDNESS, 0);
  76:quantum/eeconfig.c **** #endif
  77:quantum/eeconfig.c **** 
  78:quantum/eeconfig.c **** #if defined(HAPTIC_ENABLE)
  79:quantum/eeconfig.c ****     haptic_reset();
  80:quantum/eeconfig.c **** #else
  81:quantum/eeconfig.c ****     // this is used in case haptic is disabled, but we still want sane defaults
  82:quantum/eeconfig.c ****     // in the haptic configuration eeprom. All zero will trigger a haptic_reset
  83:quantum/eeconfig.c ****     // when a haptic-enabled firmware is loaded onto the keyboard.
  84:quantum/eeconfig.c ****     eeprom_update_dword(EECONFIG_HAPTIC, 0);
  85:quantum/eeconfig.c **** #endif
  86:quantum/eeconfig.c **** #if defined(VIA_ENABLE)
  87:quantum/eeconfig.c ****     // Invalidate VIA eeprom config, and then reset.
  88:quantum/eeconfig.c ****     // Just in case if power is lost mid init, this makes sure that it pets
  89:quantum/eeconfig.c ****     // properly re-initialized.
  90:quantum/eeconfig.c ****     via_eeprom_set_valid(false);
  91:quantum/eeconfig.c ****     eeconfig_init_via();
  92:quantum/eeconfig.c **** #endif
  93:quantum/eeconfig.c **** 
  94:quantum/eeconfig.c ****     eeconfig_init_kb();
  95:quantum/eeconfig.c **** }
  96:quantum/eeconfig.c **** 
  97:quantum/eeconfig.c **** /** \brief eeconfig initialization
  98:quantum/eeconfig.c ****  *
  99:quantum/eeconfig.c ****  * FIXME: needs doc
 100:quantum/eeconfig.c ****  */
 101:quantum/eeconfig.c **** void eeconfig_init(void) { eeconfig_init_quantum(); }
 102:quantum/eeconfig.c **** 
 103:quantum/eeconfig.c **** /** \brief eeconfig enable
 104:quantum/eeconfig.c ****  *
 105:quantum/eeconfig.c ****  * FIXME: needs doc
 106:quantum/eeconfig.c ****  */
 107:quantum/eeconfig.c **** void eeconfig_enable(void) { eeprom_update_word(EECONFIG_MAGIC, EECONFIG_MAGIC_NUMBER); }
  16               		.loc 1 107 28 view -0
  17               		.cfi_startproc
  18               	/* prologue: function */
  19               	/* frame size = 0 */
  20               	/* stack size = 0 */
  21               	.L__stack_usage = 0
  22               		.loc 1 107 30 view .LVU1
  23 0000 69EE      		ldi r22,lo8(-23)
  24 0002 7EEF      		ldi r23,lo8(-2)
  25 0004 90E0      		ldi r25,0
  26 0006 80E0      		ldi r24,0
  27 0008 0C94 0000 		jmp eeprom_update_word
  28               	.LVL0:
  29               		.cfi_endproc
  30               	.LFE8:
  32               		.section	.text.eeconfig_disable,"ax",@progbits
  33               	.global	eeconfig_disable
  35               	eeconfig_disable:
  36               	.LFB9:
 108:quantum/eeconfig.c **** 
 109:quantum/eeconfig.c **** /** \brief eeconfig disable
 110:quantum/eeconfig.c ****  *
 111:quantum/eeconfig.c ****  * FIXME: needs doc
 112:quantum/eeconfig.c ****  */
 113:quantum/eeconfig.c **** void eeconfig_disable(void) {
  37               		.loc 1 113 29 view -0
  38               		.cfi_startproc
  39               	/* prologue: function */
  40               	/* frame size = 0 */
  41               	/* stack size = 0 */
  42               	.L__stack_usage = 0
 114:quantum/eeconfig.c **** #ifdef STM32_EEPROM_ENABLE
 115:quantum/eeconfig.c ****     EEPROM_Erase();
 116:quantum/eeconfig.c **** #endif
 117:quantum/eeconfig.c **** #if defined(EEPROM_DRIVER)
 118:quantum/eeconfig.c ****     eeprom_driver_erase();
 119:quantum/eeconfig.c **** #endif
 120:quantum/eeconfig.c ****     eeprom_update_word(EECONFIG_MAGIC, EECONFIG_MAGIC_NUMBER_OFF);
  43               		.loc 1 120 5 view .LVU3
  44 0000 6FEF      		ldi r22,lo8(-1)
  45 0002 7FEF      		ldi r23,lo8(-1)
  46 0004 90E0      		ldi r25,0
  47 0006 80E0      		ldi r24,0
  48 0008 0C94 0000 		jmp eeprom_update_word
  49               	.LVL1:
  50               		.cfi_endproc
  51               	.LFE9:
  53               		.section	.text.eeconfig_is_enabled,"ax",@progbits
  54               	.global	eeconfig_is_enabled
  56               	eeconfig_is_enabled:
  57               	.LFB10:
 121:quantum/eeconfig.c **** }
 122:quantum/eeconfig.c **** 
 123:quantum/eeconfig.c **** /** \brief eeconfig is enabled
 124:quantum/eeconfig.c ****  *
 125:quantum/eeconfig.c ****  * FIXME: needs doc
 126:quantum/eeconfig.c ****  */
 127:quantum/eeconfig.c **** bool eeconfig_is_enabled(void) {
  58               		.loc 1 127 32 view -0
  59               		.cfi_startproc
  60               	/* prologue: function */
  61               	/* frame size = 0 */
  62               	/* stack size = 0 */
  63               	.L__stack_usage = 0
 128:quantum/eeconfig.c ****     bool is_eeprom_enabled = (eeprom_read_word(EECONFIG_MAGIC) == EECONFIG_MAGIC_NUMBER);
  64               		.loc 1 128 5 view .LVU5
  65               		.loc 1 128 31 is_stmt 0 view .LVU6
  66 0000 90E0      		ldi r25,0
  67 0002 80E0      		ldi r24,0
  68 0004 0E94 0000 		call eeprom_read_word
  69               	.LVL2:
  70 0008 9C01      		movw r18,r24
  71               	.LVL3:
 129:quantum/eeconfig.c **** #ifdef VIA_ENABLE
 130:quantum/eeconfig.c ****     if (is_eeprom_enabled) {
 131:quantum/eeconfig.c ****         is_eeprom_enabled = via_eeprom_is_valid();
 132:quantum/eeconfig.c ****     }
 133:quantum/eeconfig.c **** #endif
 134:quantum/eeconfig.c ****     return is_eeprom_enabled;
  72               		.loc 1 134 5 is_stmt 1 view .LVU7
 128:quantum/eeconfig.c ****     bool is_eeprom_enabled = (eeprom_read_word(EECONFIG_MAGIC) == EECONFIG_MAGIC_NUMBER);
  73               		.loc 1 128 10 is_stmt 0 view .LVU8
  74 000a 81E0      		ldi r24,lo8(1)
  75 000c 293E      		cpi r18,-23
  76 000e 3E4F      		sbci r19,-2
  77 0010 01F0      		breq .L4
  78 0012 80E0      		ldi r24,0
  79               	.L4:
  80               	/* epilogue start */
 135:quantum/eeconfig.c **** }
  81               		.loc 1 135 1 view .LVU9
  82 0014 0895      		ret
  83               		.cfi_endproc
  84               	.LFE10:
  86               		.section	.text.eeconfig_is_disabled,"ax",@progbits
  87               	.global	eeconfig_is_disabled
  89               	eeconfig_is_disabled:
  90               	.LFB11:
 136:quantum/eeconfig.c **** 
 137:quantum/eeconfig.c **** /** \brief eeconfig is disabled
 138:quantum/eeconfig.c ****  *
 139:quantum/eeconfig.c ****  * FIXME: needs doc
 140:quantum/eeconfig.c ****  */
 141:quantum/eeconfig.c **** bool eeconfig_is_disabled(void) {
  91               		.loc 1 141 33 is_stmt 1 view -0
  92               		.cfi_startproc
  93               	/* prologue: function */
  94               	/* frame size = 0 */
  95               	/* stack size = 0 */
  96               	.L__stack_usage = 0
 142:quantum/eeconfig.c ****     bool is_eeprom_disabled = (eeprom_read_word(EECONFIG_MAGIC) == EECONFIG_MAGIC_NUMBER_OFF);
  97               		.loc 1 142 5 view .LVU11
  98               		.loc 1 142 32 is_stmt 0 view .LVU12
  99 0000 90E0      		ldi r25,0
 100 0002 80E0      		ldi r24,0
 101 0004 0E94 0000 		call eeprom_read_word
 102               	.LVL4:
 103 0008 9C01      		movw r18,r24
 104               	.LVL5:
 143:quantum/eeconfig.c **** #ifdef VIA_ENABLE
 144:quantum/eeconfig.c ****     if (!is_eeprom_disabled) {
 145:quantum/eeconfig.c ****         is_eeprom_disabled = !via_eeprom_is_valid();
 146:quantum/eeconfig.c ****     }
 147:quantum/eeconfig.c **** #endif
 148:quantum/eeconfig.c ****     return is_eeprom_disabled;
 105               		.loc 1 148 5 is_stmt 1 view .LVU13
 142:quantum/eeconfig.c ****     bool is_eeprom_disabled = (eeprom_read_word(EECONFIG_MAGIC) == EECONFIG_MAGIC_NUMBER_OFF);
 106               		.loc 1 142 10 is_stmt 0 view .LVU14
 107 000a 81E0      		ldi r24,lo8(1)
 108 000c 2F3F      		cpi r18,-1
 109 000e 3F4F      		sbci r19,-1
 110 0010 01F0      		breq .L9
 111 0012 80E0      		ldi r24,0
 112               	.L9:
 113               	/* epilogue start */
 149:quantum/eeconfig.c **** }
 114               		.loc 1 149 1 view .LVU15
 115 0014 0895      		ret
 116               		.cfi_endproc
 117               	.LFE11:
 119               		.section	.text.eeconfig_read_debug,"ax",@progbits
 120               	.global	eeconfig_read_debug
 122               	eeconfig_read_debug:
 123               	.LFB12:
 150:quantum/eeconfig.c **** 
 151:quantum/eeconfig.c **** /** \brief eeconfig read debug
 152:quantum/eeconfig.c ****  *
 153:quantum/eeconfig.c ****  * FIXME: needs doc
 154:quantum/eeconfig.c ****  */
 155:quantum/eeconfig.c **** uint8_t eeconfig_read_debug(void) { return eeprom_read_byte(EECONFIG_DEBUG); }
 124               		.loc 1 155 35 is_stmt 1 view -0
 125               		.cfi_startproc
 126               	/* prologue: function */
 127               	/* frame size = 0 */
 128               	/* stack size = 0 */
 129               	.L__stack_usage = 0
 130               		.loc 1 155 37 view .LVU17
 131               		.loc 1 155 44 is_stmt 0 view .LVU18
 132 0000 82E0      		ldi r24,lo8(2)
 133 0002 90E0      		ldi r25,0
 134 0004 0C94 0000 		jmp eeprom_read_byte
 135               	.LVL6:
 136               		.cfi_endproc
 137               	.LFE12:
 139               		.section	.text.eeconfig_update_debug,"ax",@progbits
 140               	.global	eeconfig_update_debug
 142               	eeconfig_update_debug:
 143               	.LVL7:
 144               	.LFB13:
 156:quantum/eeconfig.c **** /** \brief eeconfig update debug
 157:quantum/eeconfig.c ****  *
 158:quantum/eeconfig.c ****  * FIXME: needs doc
 159:quantum/eeconfig.c ****  */
 160:quantum/eeconfig.c **** void eeconfig_update_debug(uint8_t val) { eeprom_update_byte(EECONFIG_DEBUG, val); }
 145               		.loc 1 160 41 is_stmt 1 view -0
 146               		.cfi_startproc
 147               	/* prologue: function */
 148               	/* frame size = 0 */
 149               	/* stack size = 0 */
 150               	.L__stack_usage = 0
 151               		.loc 1 160 41 is_stmt 0 view .LVU20
 152 0000 682F      		mov r22,r24
 153               		.loc 1 160 43 is_stmt 1 view .LVU21
 154 0002 82E0      		ldi r24,lo8(2)
 155 0004 90E0      		ldi r25,0
 156               	.LVL8:
 157               		.loc 1 160 43 is_stmt 0 view .LVU22
 158 0006 0C94 0000 		jmp eeprom_update_byte
 159               	.LVL9:
 160               		.loc 1 160 43 view .LVU23
 161               		.cfi_endproc
 162               	.LFE13:
 164               		.section	.text.eeconfig_read_default_layer,"ax",@progbits
 165               	.global	eeconfig_read_default_layer
 167               	eeconfig_read_default_layer:
 168               	.LFB14:
 161:quantum/eeconfig.c **** 
 162:quantum/eeconfig.c **** /** \brief eeconfig read default layer
 163:quantum/eeconfig.c ****  *
 164:quantum/eeconfig.c ****  * FIXME: needs doc
 165:quantum/eeconfig.c ****  */
 166:quantum/eeconfig.c **** uint8_t eeconfig_read_default_layer(void) { return eeprom_read_byte(EECONFIG_DEFAULT_LAYER); }
 169               		.loc 1 166 43 is_stmt 1 view -0
 170               		.cfi_startproc
 171               	/* prologue: function */
 172               	/* frame size = 0 */
 173               	/* stack size = 0 */
 174               	.L__stack_usage = 0
 175               		.loc 1 166 45 view .LVU25
 176               		.loc 1 166 52 is_stmt 0 view .LVU26
 177 0000 83E0      		ldi r24,lo8(3)
 178 0002 90E0      		ldi r25,0
 179 0004 0C94 0000 		jmp eeprom_read_byte
 180               	.LVL10:
 181               		.cfi_endproc
 182               	.LFE14:
 184               		.section	.text.eeconfig_update_default_layer,"ax",@progbits
 185               	.global	eeconfig_update_default_layer
 187               	eeconfig_update_default_layer:
 188               	.LVL11:
 189               	.LFB15:
 167:quantum/eeconfig.c **** /** \brief eeconfig update default layer
 168:quantum/eeconfig.c ****  *
 169:quantum/eeconfig.c ****  * FIXME: needs doc
 170:quantum/eeconfig.c ****  */
 171:quantum/eeconfig.c **** void eeconfig_update_default_layer(uint8_t val) { eeprom_update_byte(EECONFIG_DEFAULT_LAYER, val); 
 190               		.loc 1 171 49 is_stmt 1 view -0
 191               		.cfi_startproc
 192               	/* prologue: function */
 193               	/* frame size = 0 */
 194               	/* stack size = 0 */
 195               	.L__stack_usage = 0
 196               		.loc 1 171 49 is_stmt 0 view .LVU28
 197 0000 682F      		mov r22,r24
 198               		.loc 1 171 51 is_stmt 1 view .LVU29
 199 0002 83E0      		ldi r24,lo8(3)
 200 0004 90E0      		ldi r25,0
 201               	.LVL12:
 202               		.loc 1 171 51 is_stmt 0 view .LVU30
 203 0006 0C94 0000 		jmp eeprom_update_byte
 204               	.LVL13:
 205               		.loc 1 171 51 view .LVU31
 206               		.cfi_endproc
 207               	.LFE15:
 209               		.section	.text.eeconfig_read_keymap,"ax",@progbits
 210               	.global	eeconfig_read_keymap
 212               	eeconfig_read_keymap:
 213               	.LFB16:
 172:quantum/eeconfig.c **** 
 173:quantum/eeconfig.c **** /** \brief eeconfig read keymap
 174:quantum/eeconfig.c ****  *
 175:quantum/eeconfig.c ****  * FIXME: needs doc
 176:quantum/eeconfig.c ****  */
 177:quantum/eeconfig.c **** uint16_t eeconfig_read_keymap(void) { return (eeprom_read_byte(EECONFIG_KEYMAP_LOWER_BYTE) | (eepro
 214               		.loc 1 177 37 is_stmt 1 view -0
 215               		.cfi_startproc
 216 0000 CF93      		push r28
 217               	.LCFI0:
 218               		.cfi_def_cfa_offset 3
 219               		.cfi_offset 28, -2
 220               	/* prologue: function */
 221               	/* frame size = 0 */
 222               	/* stack size = 1 */
 223               	.L__stack_usage = 1
 224               		.loc 1 177 39 view .LVU33
 225               		.loc 1 177 47 is_stmt 0 view .LVU34
 226 0002 84E0      		ldi r24,lo8(4)
 227 0004 90E0      		ldi r25,0
 228 0006 0E94 0000 		call eeprom_read_byte
 229               	.LVL14:
 230 000a C82F      		mov r28,r24
 231               		.loc 1 177 95 view .LVU35
 232 000c 82E2      		ldi r24,lo8(34)
 233 000e 90E0      		ldi r25,0
 234 0010 0E94 0000 		call eeprom_read_byte
 235               	.LVL15:
 236               		.loc 1 177 148 view .LVU36
 237 0014 982F      		mov r25,r24
 238 0016 8C2F      		mov r24,r28
 239               	/* epilogue start */
 240 0018 CF91      		pop r28
 241 001a 0895      		ret
 242               		.cfi_endproc
 243               	.LFE16:
 245               		.section	.text.eeconfig_update_keymap,"ax",@progbits
 246               	.global	eeconfig_update_keymap
 248               	eeconfig_update_keymap:
 249               	.LVL16:
 250               	.LFB17:
 178:quantum/eeconfig.c **** /** \brief eeconfig update keymap
 179:quantum/eeconfig.c ****  *
 180:quantum/eeconfig.c ****  * FIXME: needs doc
 181:quantum/eeconfig.c ****  */
 182:quantum/eeconfig.c **** void eeconfig_update_keymap(uint16_t val) {
 251               		.loc 1 182 43 is_stmt 1 view -0
 252               		.cfi_startproc
 253               		.loc 1 182 43 is_stmt 0 view .LVU38
 254 0000 CF93      		push r28
 255               	.LCFI1:
 256               		.cfi_def_cfa_offset 3
 257               		.cfi_offset 28, -2
 258               	/* prologue: function */
 259               	/* frame size = 0 */
 260               	/* stack size = 1 */
 261               	.L__stack_usage = 1
 262 0002 682F      		mov r22,r24
 263 0004 C92F      		mov r28,r25
 183:quantum/eeconfig.c ****     eeprom_update_byte(EECONFIG_KEYMAP_LOWER_BYTE, val & 0xFF);
 264               		.loc 1 183 5 is_stmt 1 view .LVU39
 265 0006 84E0      		ldi r24,lo8(4)
 266 0008 90E0      		ldi r25,0
 267               	.LVL17:
 268               		.loc 1 183 5 is_stmt 0 view .LVU40
 269 000a 0E94 0000 		call eeprom_update_byte
 270               	.LVL18:
 184:quantum/eeconfig.c ****     eeprom_update_byte(EECONFIG_KEYMAP_UPPER_BYTE, (val >> 8) & 0xFF);
 271               		.loc 1 184 5 is_stmt 1 view .LVU41
 272 000e 6C2F      		mov r22,r28
 273 0010 82E2      		ldi r24,lo8(34)
 274 0012 90E0      		ldi r25,0
 275               	/* epilogue start */
 185:quantum/eeconfig.c **** }
 276               		.loc 1 185 1 is_stmt 0 view .LVU42
 277 0014 CF91      		pop r28
 184:quantum/eeconfig.c ****     eeprom_update_byte(EECONFIG_KEYMAP_UPPER_BYTE, (val >> 8) & 0xFF);
 278               		.loc 1 184 5 view .LVU43
 279 0016 0C94 0000 		jmp eeprom_update_byte
 280               	.LVL19:
 281               		.cfi_endproc
 282               	.LFE17:
 284               		.section	.text.eeconfig_read_audio,"ax",@progbits
 285               	.global	eeconfig_read_audio
 287               	eeconfig_read_audio:
 288               	.LFB18:
 186:quantum/eeconfig.c **** 
 187:quantum/eeconfig.c **** /** \brief eeconfig read audio
 188:quantum/eeconfig.c ****  *
 189:quantum/eeconfig.c ****  * FIXME: needs doc
 190:quantum/eeconfig.c ****  */
 191:quantum/eeconfig.c **** uint8_t eeconfig_read_audio(void) { return eeprom_read_byte(EECONFIG_AUDIO); }
 289               		.loc 1 191 35 is_stmt 1 view -0
 290               		.cfi_startproc
 291               	/* prologue: function */
 292               	/* frame size = 0 */
 293               	/* stack size = 0 */
 294               	.L__stack_usage = 0
 295               		.loc 1 191 37 view .LVU45
 296               		.loc 1 191 44 is_stmt 0 view .LVU46
 297 0000 87E0      		ldi r24,lo8(7)
 298 0002 90E0      		ldi r25,0
 299 0004 0C94 0000 		jmp eeprom_read_byte
 300               	.LVL20:
 301               		.cfi_endproc
 302               	.LFE18:
 304               		.section	.text.eeconfig_update_audio,"ax",@progbits
 305               	.global	eeconfig_update_audio
 307               	eeconfig_update_audio:
 308               	.LVL21:
 309               	.LFB19:
 192:quantum/eeconfig.c **** /** \brief eeconfig update audio
 193:quantum/eeconfig.c ****  *
 194:quantum/eeconfig.c ****  * FIXME: needs doc
 195:quantum/eeconfig.c ****  */
 196:quantum/eeconfig.c **** void eeconfig_update_audio(uint8_t val) { eeprom_update_byte(EECONFIG_AUDIO, val); }
 310               		.loc 1 196 41 is_stmt 1 view -0
 311               		.cfi_startproc
 312               	/* prologue: function */
 313               	/* frame size = 0 */
 314               	/* stack size = 0 */
 315               	.L__stack_usage = 0
 316               		.loc 1 196 41 is_stmt 0 view .LVU48
 317 0000 682F      		mov r22,r24
 318               		.loc 1 196 43 is_stmt 1 view .LVU49
 319 0002 87E0      		ldi r24,lo8(7)
 320 0004 90E0      		ldi r25,0
 321               	.LVL22:
 322               		.loc 1 196 43 is_stmt 0 view .LVU50
 323 0006 0C94 0000 		jmp eeprom_update_byte
 324               	.LVL23:
 325               		.loc 1 196 43 view .LVU51
 326               		.cfi_endproc
 327               	.LFE19:
 329               		.section	.text.eeconfig_read_kb,"ax",@progbits
 330               	.global	eeconfig_read_kb
 332               	eeconfig_read_kb:
 333               	.LFB20:
 197:quantum/eeconfig.c **** 
 198:quantum/eeconfig.c **** /** \brief eeconfig read kb
 199:quantum/eeconfig.c ****  *
 200:quantum/eeconfig.c ****  * FIXME: needs doc
 201:quantum/eeconfig.c ****  */
 202:quantum/eeconfig.c **** uint32_t eeconfig_read_kb(void) { return eeprom_read_dword(EECONFIG_KEYBOARD); }
 334               		.loc 1 202 33 is_stmt 1 view -0
 335               		.cfi_startproc
 336               	/* prologue: function */
 337               	/* frame size = 0 */
 338               	/* stack size = 0 */
 339               	.L__stack_usage = 0
 340               		.loc 1 202 35 view .LVU53
 341               		.loc 1 202 42 is_stmt 0 view .LVU54
 342 0000 8FE0      		ldi r24,lo8(15)
 343 0002 90E0      		ldi r25,0
 344 0004 0C94 0000 		jmp eeprom_read_dword
 345               	.LVL24:
 346               		.cfi_endproc
 347               	.LFE20:
 349               		.section	.text.eeconfig_update_kb,"ax",@progbits
 350               	.global	eeconfig_update_kb
 352               	eeconfig_update_kb:
 353               	.LVL25:
 354               	.LFB21:
 203:quantum/eeconfig.c **** /** \brief eeconfig update kb
 204:quantum/eeconfig.c ****  *
 205:quantum/eeconfig.c ****  * FIXME: needs doc
 206:quantum/eeconfig.c ****  */
 207:quantum/eeconfig.c **** void eeconfig_update_kb(uint32_t val) { eeprom_update_dword(EECONFIG_KEYBOARD, val); }
 355               		.loc 1 207 39 is_stmt 1 view -0
 356               		.cfi_startproc
 357               	/* prologue: function */
 358               	/* frame size = 0 */
 359               	/* stack size = 0 */
 360               	.L__stack_usage = 0
 361               		.loc 1 207 39 is_stmt 0 view .LVU56
 362 0000 AB01      		movw r20,r22
 363 0002 BC01      		movw r22,r24
 364               	.LVL26:
 365               		.loc 1 207 41 is_stmt 1 view .LVU57
 366 0004 8FE0      		ldi r24,lo8(15)
 367 0006 90E0      		ldi r25,0
 368 0008 0C94 0000 		jmp eeprom_update_dword
 369               	.LVL27:
 370               		.cfi_endproc
 371               	.LFE21:
 373               		.section	.text.eeconfig_read_user,"ax",@progbits
 374               	.global	eeconfig_read_user
 376               	eeconfig_read_user:
 377               	.LFB22:
 208:quantum/eeconfig.c **** 
 209:quantum/eeconfig.c **** /** \brief eeconfig read user
 210:quantum/eeconfig.c ****  *
 211:quantum/eeconfig.c ****  * FIXME: needs doc
 212:quantum/eeconfig.c ****  */
 213:quantum/eeconfig.c **** uint32_t eeconfig_read_user(void) { return eeprom_read_dword(EECONFIG_USER); }
 378               		.loc 1 213 35 view -0
 379               		.cfi_startproc
 380               	/* prologue: function */
 381               	/* frame size = 0 */
 382               	/* stack size = 0 */
 383               	.L__stack_usage = 0
 384               		.loc 1 213 37 view .LVU59
 385               		.loc 1 213 44 is_stmt 0 view .LVU60
 386 0000 83E1      		ldi r24,lo8(19)
 387 0002 90E0      		ldi r25,0
 388 0004 0C94 0000 		jmp eeprom_read_dword
 389               	.LVL28:
 390               		.cfi_endproc
 391               	.LFE22:
 393               		.section	.text.eeconfig_update_user,"ax",@progbits
 394               	.global	eeconfig_update_user
 396               	eeconfig_update_user:
 397               	.LVL29:
 398               	.LFB23:
 214:quantum/eeconfig.c **** /** \brief eeconfig update user
 215:quantum/eeconfig.c ****  *
 216:quantum/eeconfig.c ****  * FIXME: needs doc
 217:quantum/eeconfig.c ****  */
 218:quantum/eeconfig.c **** void eeconfig_update_user(uint32_t val) { eeprom_update_dword(EECONFIG_USER, val); }
 399               		.loc 1 218 41 is_stmt 1 view -0
 400               		.cfi_startproc
 401               	/* prologue: function */
 402               	/* frame size = 0 */
 403               	/* stack size = 0 */
 404               	.L__stack_usage = 0
 405               		.loc 1 218 41 is_stmt 0 view .LVU62
 406 0000 AB01      		movw r20,r22
 407 0002 BC01      		movw r22,r24
 408               	.LVL30:
 409               		.loc 1 218 43 is_stmt 1 view .LVU63
 410 0004 83E1      		ldi r24,lo8(19)
 411 0006 90E0      		ldi r25,0
 412 0008 0C94 0000 		jmp eeprom_update_dword
 413               	.LVL31:
 414               		.cfi_endproc
 415               	.LFE23:
 417               		.section	.text.eeconfig_init_user,"ax",@progbits
 418               		.weak	eeconfig_init_user
 420               	eeconfig_init_user:
 421               	.LFB4:
  30:quantum/eeconfig.c ****     // Reset user EEPROM value to blank, rather than to a set value
 422               		.loc 1 30 53 view -0
 423               		.cfi_startproc
 424               	/* prologue: function */
 425               	/* frame size = 0 */
 426               	/* stack size = 0 */
 427               	.L__stack_usage = 0
  32:quantum/eeconfig.c **** }
 428               		.loc 1 32 5 view .LVU65
 429 0000 60E0      		ldi r22,0
 430 0002 70E0      		ldi r23,0
 431 0004 CB01      		movw r24,r22
 432 0006 0C94 0000 		jmp eeconfig_update_user
 433               	.LVL32:
 434               		.cfi_endproc
 435               	.LFE4:
 437               		.section	.text.eeconfig_init_kb,"ax",@progbits
 438               		.weak	eeconfig_init_kb
 440               	eeconfig_init_kb:
 441               	.LFB5:
  35:quantum/eeconfig.c ****     // Reset Keyboard EEPROM value to blank, rather than to a set value
 442               		.loc 1 35 51 view -0
 443               		.cfi_startproc
 444               	/* prologue: function */
 445               	/* frame size = 0 */
 446               	/* stack size = 0 */
 447               	.L__stack_usage = 0
  37:quantum/eeconfig.c **** 
 448               		.loc 1 37 5 view .LVU67
 449 0000 60E0      		ldi r22,0
 450 0002 70E0      		ldi r23,0
 451 0004 CB01      		movw r24,r22
 452 0006 0E94 0000 		call eeconfig_update_kb
 453               	.LVL33:
  39:quantum/eeconfig.c **** }
 454               		.loc 1 39 5 view .LVU68
 455 000a 0C94 0000 		jmp eeconfig_init_user
 456               	.LVL34:
 457               		.cfi_endproc
 458               	.LFE5:
 460               		.section	.text.eeconfig_init_quantum,"ax",@progbits
 461               	.global	eeconfig_init_quantum
 463               	eeconfig_init_quantum:
 464               	.LFB6:
  45:quantum/eeconfig.c **** #ifdef STM32_EEPROM_ENABLE
 465               		.loc 1 45 34 view -0
 466               		.cfi_startproc
 467               	/* prologue: function */
 468               	/* frame size = 0 */
 469               	/* stack size = 0 */
 470               	.L__stack_usage = 0
  52:quantum/eeconfig.c ****     eeprom_update_byte(EECONFIG_DEBUG, 0);
 471               		.loc 1 52 5 view .LVU70
 472 0000 69EE      		ldi r22,lo8(-23)
 473 0002 7EEF      		ldi r23,lo8(-2)
 474 0004 90E0      		ldi r25,0
 475 0006 80E0      		ldi r24,0
 476 0008 0E94 0000 		call eeprom_update_word
 477               	.LVL35:
  53:quantum/eeconfig.c ****     eeprom_update_byte(EECONFIG_DEFAULT_LAYER, 0);
 478               		.loc 1 53 5 view .LVU71
 479 000c 60E0      		ldi r22,0
 480 000e 82E0      		ldi r24,lo8(2)
 481 0010 90E0      		ldi r25,0
 482 0012 0E94 0000 		call eeprom_update_byte
 483               	.LVL36:
  54:quantum/eeconfig.c ****     default_layer_state = 0;
 484               		.loc 1 54 5 view .LVU72
 485 0016 60E0      		ldi r22,0
 486 0018 83E0      		ldi r24,lo8(3)
 487 001a 90E0      		ldi r25,0
 488 001c 0E94 0000 		call eeprom_update_byte
 489               	.LVL37:
  55:quantum/eeconfig.c ****     eeprom_update_byte(EECONFIG_KEYMAP_LOWER_BYTE, 0);
 490               		.loc 1 55 5 view .LVU73
  55:quantum/eeconfig.c ****     eeprom_update_byte(EECONFIG_KEYMAP_LOWER_BYTE, 0);
 491               		.loc 1 55 25 is_stmt 0 view .LVU74
 492 0020 1092 0000 		sts default_layer_state,__zero_reg__
 493 0024 1092 0000 		sts default_layer_state+1,__zero_reg__
 494 0028 1092 0000 		sts default_layer_state+2,__zero_reg__
 495 002c 1092 0000 		sts default_layer_state+3,__zero_reg__
  56:quantum/eeconfig.c ****     eeprom_update_byte(EECONFIG_KEYMAP_UPPER_BYTE, 0);
 496               		.loc 1 56 5 is_stmt 1 view .LVU75
 497 0030 60E0      		ldi r22,0
 498 0032 84E0      		ldi r24,lo8(4)
 499 0034 90E0      		ldi r25,0
 500 0036 0E94 0000 		call eeprom_update_byte
 501               	.LVL38:
  57:quantum/eeconfig.c ****     eeprom_update_byte(EECONFIG_MOUSEKEY_ACCEL, 0);
 502               		.loc 1 57 5 view .LVU76
 503 003a 60E0      		ldi r22,0
 504 003c 82E2      		ldi r24,lo8(34)
 505 003e 90E0      		ldi r25,0
 506 0040 0E94 0000 		call eeprom_update_byte
 507               	.LVL39:
  58:quantum/eeconfig.c ****     eeprom_update_byte(EECONFIG_BACKLIGHT, 0);
 508               		.loc 1 58 5 view .LVU77
 509 0044 60E0      		ldi r22,0
 510 0046 85E0      		ldi r24,lo8(5)
 511 0048 90E0      		ldi r25,0
 512 004a 0E94 0000 		call eeprom_update_byte
 513               	.LVL40:
  59:quantum/eeconfig.c ****     eeprom_update_byte(EECONFIG_AUDIO, 0xFF);  // On by default
 514               		.loc 1 59 5 view .LVU78
 515 004e 60E0      		ldi r22,0
 516 0050 86E0      		ldi r24,lo8(6)
 517 0052 90E0      		ldi r25,0
 518 0054 0E94 0000 		call eeprom_update_byte
 519               	.LVL41:
  60:quantum/eeconfig.c ****     eeprom_update_dword(EECONFIG_RGBLIGHT, 0);
 520               		.loc 1 60 5 view .LVU79
 521 0058 6FEF      		ldi r22,lo8(-1)
 522 005a 87E0      		ldi r24,lo8(7)
 523 005c 90E0      		ldi r25,0
 524 005e 0E94 0000 		call eeprom_update_byte
 525               	.LVL42:
  61:quantum/eeconfig.c ****     eeprom_update_byte(EECONFIG_STENOMODE, 0);
 526               		.loc 1 61 5 view .LVU80
 527 0062 40E0      		ldi r20,0
 528 0064 50E0      		ldi r21,0
 529 0066 BA01      		movw r22,r20
 530 0068 88E0      		ldi r24,lo8(8)
 531 006a 90E0      		ldi r25,0
 532 006c 0E94 0000 		call eeprom_update_dword
 533               	.LVL43:
  62:quantum/eeconfig.c ****     eeprom_update_dword(EECONFIG_HAPTIC, 0);
 534               		.loc 1 62 5 view .LVU81
 535 0070 60E0      		ldi r22,0
 536 0072 8DE0      		ldi r24,lo8(13)
 537 0074 90E0      		ldi r25,0
 538 0076 0E94 0000 		call eeprom_update_byte
 539               	.LVL44:
  63:quantum/eeconfig.c ****     eeprom_update_byte(EECONFIG_VELOCIKEY, 0);
 540               		.loc 1 63 5 view .LVU82
 541 007a 40E0      		ldi r20,0
 542 007c 50E0      		ldi r21,0
 543 007e BA01      		movw r22,r20
 544 0080 88E1      		ldi r24,lo8(24)
 545 0082 90E0      		ldi r25,0
 546 0084 0E94 0000 		call eeprom_update_dword
 547               	.LVL45:
  64:quantum/eeconfig.c ****     eeprom_update_dword(EECONFIG_RGB_MATRIX, 0);
 548               		.loc 1 64 5 view .LVU83
 549 0088 60E0      		ldi r22,0
 550 008a 87E1      		ldi r24,lo8(23)
 551 008c 90E0      		ldi r25,0
 552 008e 0E94 0000 		call eeprom_update_byte
 553               	.LVL46:
  65:quantum/eeconfig.c ****     eeprom_update_word(EECONFIG_RGB_MATRIX_EXTENDED, 0);
 554               		.loc 1 65 5 view .LVU84
 555 0092 40E0      		ldi r20,0
 556 0094 50E0      		ldi r21,0
 557 0096 BA01      		movw r22,r20
 558 0098 8CE1      		ldi r24,lo8(28)
 559 009a 90E0      		ldi r25,0
 560 009c 0E94 0000 		call eeprom_update_dword
 561               	.LVL47:
  66:quantum/eeconfig.c **** 
 562               		.loc 1 66 5 view .LVU85
 563 00a0 70E0      		ldi r23,0
 564 00a2 60E0      		ldi r22,0
 565 00a4 80E2      		ldi r24,lo8(32)
 566 00a6 90E0      		ldi r25,0
 567 00a8 0E94 0000 		call eeprom_update_word
 568               	.LVL48:
  84:quantum/eeconfig.c **** #endif
 569               		.loc 1 84 5 view .LVU86
 570 00ac 40E0      		ldi r20,0
 571 00ae 50E0      		ldi r21,0
 572 00b0 BA01      		movw r22,r20
 573 00b2 88E1      		ldi r24,lo8(24)
 574 00b4 90E0      		ldi r25,0
 575 00b6 0E94 0000 		call eeprom_update_dword
 576               	.LVL49:
  94:quantum/eeconfig.c **** }
 577               		.loc 1 94 5 view .LVU87
 578 00ba 0C94 0000 		jmp eeconfig_init_kb
 579               	.LVL50:
 580               		.cfi_endproc
 581               	.LFE6:
 583               		.section	.text.eeconfig_init,"ax",@progbits
 584               	.global	eeconfig_init
 586               	eeconfig_init:
 587               	.LFB7:
 101:quantum/eeconfig.c **** 
 588               		.loc 1 101 26 view -0
 589               		.cfi_startproc
 590               	/* prologue: function */
 591               	/* frame size = 0 */
 592               	/* stack size = 0 */
 593               	.L__stack_usage = 0
 101:quantum/eeconfig.c **** 
 594               		.loc 1 101 28 view .LVU89
 595 0000 0C94 0000 		jmp eeconfig_init_quantum
 596               	.LVL51:
 597               		.cfi_endproc
 598               	.LFE7:
 600               		.section	.text.eeconfig_read_haptic,"ax",@progbits
 601               	.global	eeconfig_read_haptic
 603               	eeconfig_read_haptic:
 604               	.LFB24:
 219:quantum/eeconfig.c **** 
 220:quantum/eeconfig.c **** /** \brief eeconfig read haptic
 221:quantum/eeconfig.c ****  *
 222:quantum/eeconfig.c ****  * FIXME: needs doc
 223:quantum/eeconfig.c ****  */
 224:quantum/eeconfig.c **** uint32_t eeconfig_read_haptic(void) { return eeprom_read_dword(EECONFIG_HAPTIC); }
 605               		.loc 1 224 37 view -0
 606               		.cfi_startproc
 607               	/* prologue: function */
 608               	/* frame size = 0 */
 609               	/* stack size = 0 */
 610               	.L__stack_usage = 0
 611               		.loc 1 224 39 view .LVU91
 612               		.loc 1 224 46 is_stmt 0 view .LVU92
 613 0000 88E1      		ldi r24,lo8(24)
 614 0002 90E0      		ldi r25,0
 615 0004 0C94 0000 		jmp eeprom_read_dword
 616               	.LVL52:
 617               		.cfi_endproc
 618               	.LFE24:
 620               		.section	.text.eeconfig_update_haptic,"ax",@progbits
 621               	.global	eeconfig_update_haptic
 623               	eeconfig_update_haptic:
 624               	.LVL53:
 625               	.LFB25:
 225:quantum/eeconfig.c **** /** \brief eeconfig update haptic
 226:quantum/eeconfig.c ****  *
 227:quantum/eeconfig.c ****  * FIXME: needs doc
 228:quantum/eeconfig.c ****  */
 229:quantum/eeconfig.c **** void eeconfig_update_haptic(uint32_t val) { eeprom_update_dword(EECONFIG_HAPTIC, val); }
 626               		.loc 1 229 43 is_stmt 1 view -0
 627               		.cfi_startproc
 628               	/* prologue: function */
 629               	/* frame size = 0 */
 630               	/* stack size = 0 */
 631               	.L__stack_usage = 0
 632               		.loc 1 229 43 is_stmt 0 view .LVU94
 633 0000 AB01      		movw r20,r22
 634 0002 BC01      		movw r22,r24
 635               	.LVL54:
 636               		.loc 1 229 45 is_stmt 1 view .LVU95
 637 0004 88E1      		ldi r24,lo8(24)
 638 0006 90E0      		ldi r25,0
 639 0008 0C94 0000 		jmp eeprom_update_dword
 640               	.LVL55:
 641               		.cfi_endproc
 642               	.LFE25:
 644               		.section	.text.eeconfig_read_handedness,"ax",@progbits
 645               	.global	eeconfig_read_handedness
 647               	eeconfig_read_handedness:
 648               	.LFB26:
 230:quantum/eeconfig.c **** 
 231:quantum/eeconfig.c **** /** \brief eeconfig read split handedness
 232:quantum/eeconfig.c ****  *
 233:quantum/eeconfig.c ****  * FIXME: needs doc
 234:quantum/eeconfig.c ****  */
 235:quantum/eeconfig.c **** bool eeconfig_read_handedness(void) { return !!eeprom_read_byte(EECONFIG_HANDEDNESS); }
 649               		.loc 1 235 37 view -0
 650               		.cfi_startproc
 651               	/* prologue: function */
 652               	/* frame size = 0 */
 653               	/* stack size = 0 */
 654               	.L__stack_usage = 0
 655               		.loc 1 235 39 view .LVU97
 656               		.loc 1 235 48 is_stmt 0 view .LVU98
 657 0000 8EE0      		ldi r24,lo8(14)
 658 0002 90E0      		ldi r25,0
 659 0004 0E94 0000 		call eeprom_read_byte
 660               	.LVL56:
 661 0008 982F      		mov r25,r24
 662               		.loc 1 235 46 view .LVU99
 663 000a 81E0      		ldi r24,lo8(1)
 664 000c 9111      		cpse r25,__zero_reg__
 665 000e 00C0      		rjmp .L32
 666 0010 80E0      		ldi r24,0
 667               	.L32:
 668               	/* epilogue start */
 669               		.loc 1 235 87 view .LVU100
 670 0012 0895      		ret
 671               		.cfi_endproc
 672               	.LFE26:
 674               		.section	.text.eeconfig_update_handedness,"ax",@progbits
 675               	.global	eeconfig_update_handedness
 677               	eeconfig_update_handedness:
 678               	.LVL57:
 679               	.LFB27:
 236:quantum/eeconfig.c **** /** \brief eeconfig update split handedness
 237:quantum/eeconfig.c ****  *
 238:quantum/eeconfig.c ****  * FIXME: needs doc
 239:quantum/eeconfig.c ****  */
 240:quantum/eeconfig.c **** void eeconfig_update_handedness(bool val) { eeprom_update_byte(EECONFIG_HANDEDNESS, !!val); }
 680               		.loc 1 240 43 is_stmt 1 view -0
 681               		.cfi_startproc
 682               	/* prologue: function */
 683               	/* frame size = 0 */
 684               	/* stack size = 0 */
 685               	.L__stack_usage = 0
 686               		.loc 1 240 43 is_stmt 0 view .LVU102
 687 0000 682F      		mov r22,r24
 688               		.loc 1 240 45 is_stmt 1 view .LVU103
 689 0002 8EE0      		ldi r24,lo8(14)
 690 0004 90E0      		ldi r25,0
 691               	.LVL58:
 692               		.loc 1 240 45 is_stmt 0 view .LVU104
 693 0006 0C94 0000 		jmp eeprom_update_byte
 694               	.LVL59:
 695               		.loc 1 240 45 view .LVU105
 696               		.cfi_endproc
 697               	.LFE27:
 699               		.text
 700               	.Letext0:
 701               		.file 2 "/usr/avr/include/stdint.h"
 702               		.file 3 "quantum/action_layer.h"
 703               		.file 4 "/usr/avr/include/avr/eeprom.h"
DEFINED SYMBOLS
                            *ABS*:0000000000000000 eeconfig.c
     /tmp/ccKDCCQO.s:2      *ABS*:000000000000003e __SP_H__
     /tmp/ccKDCCQO.s:3      *ABS*:000000000000003d __SP_L__
     /tmp/ccKDCCQO.s:4      *ABS*:000000000000003f __SREG__
     /tmp/ccKDCCQO.s:5      *ABS*:0000000000000000 __tmp_reg__
     /tmp/ccKDCCQO.s:6      *ABS*:0000000000000001 __zero_reg__
     /tmp/ccKDCCQO.s:13     .text.eeconfig_enable:0000000000000000 eeconfig_enable
     /tmp/ccKDCCQO.s:35     .text.eeconfig_disable:0000000000000000 eeconfig_disable
     /tmp/ccKDCCQO.s:56     .text.eeconfig_is_enabled:0000000000000000 eeconfig_is_enabled
     /tmp/ccKDCCQO.s:89     .text.eeconfig_is_disabled:0000000000000000 eeconfig_is_disabled
     /tmp/ccKDCCQO.s:122    .text.eeconfig_read_debug:0000000000000000 eeconfig_read_debug
     /tmp/ccKDCCQO.s:142    .text.eeconfig_update_debug:0000000000000000 eeconfig_update_debug
     /tmp/ccKDCCQO.s:167    .text.eeconfig_read_default_layer:0000000000000000 eeconfig_read_default_layer
     /tmp/ccKDCCQO.s:187    .text.eeconfig_update_default_layer:0000000000000000 eeconfig_update_default_layer
     /tmp/ccKDCCQO.s:212    .text.eeconfig_read_keymap:0000000000000000 eeconfig_read_keymap
     /tmp/ccKDCCQO.s:248    .text.eeconfig_update_keymap:0000000000000000 eeconfig_update_keymap
     /tmp/ccKDCCQO.s:287    .text.eeconfig_read_audio:0000000000000000 eeconfig_read_audio
     /tmp/ccKDCCQO.s:307    .text.eeconfig_update_audio:0000000000000000 eeconfig_update_audio
     /tmp/ccKDCCQO.s:332    .text.eeconfig_read_kb:0000000000000000 eeconfig_read_kb
     /tmp/ccKDCCQO.s:352    .text.eeconfig_update_kb:0000000000000000 eeconfig_update_kb
     /tmp/ccKDCCQO.s:376    .text.eeconfig_read_user:0000000000000000 eeconfig_read_user
     /tmp/ccKDCCQO.s:396    .text.eeconfig_update_user:0000000000000000 eeconfig_update_user
     /tmp/ccKDCCQO.s:420    .text.eeconfig_init_user:0000000000000000 eeconfig_init_user
     /tmp/ccKDCCQO.s:440    .text.eeconfig_init_kb:0000000000000000 eeconfig_init_kb
     /tmp/ccKDCCQO.s:463    .text.eeconfig_init_quantum:0000000000000000 eeconfig_init_quantum
     /tmp/ccKDCCQO.s:586    .text.eeconfig_init:0000000000000000 eeconfig_init
     /tmp/ccKDCCQO.s:603    .text.eeconfig_read_haptic:0000000000000000 eeconfig_read_haptic
     /tmp/ccKDCCQO.s:623    .text.eeconfig_update_haptic:0000000000000000 eeconfig_update_haptic
     /tmp/ccKDCCQO.s:647    .text.eeconfig_read_handedness:0000000000000000 eeconfig_read_handedness
     /tmp/ccKDCCQO.s:677    .text.eeconfig_update_handedness:0000000000000000 eeconfig_update_handedness

UNDEFINED SYMBOLS
eeprom_update_word
eeprom_read_word
eeprom_read_byte
eeprom_update_byte
eeprom_read_dword
eeprom_update_dword
default_layer_state
