   1               		.file	"host.c"
   2               	__SP_H__ = 0x3e
   3               	__SP_L__ = 0x3d
   4               	__SREG__ = 0x3f
   5               	__tmp_reg__ = 0
   6               	__zero_reg__ = 1
   7               		.text
   8               	.Ltext0:
   9               		.cfi_sections	.debug_frame
  10               		.section	.text.host_set_driver,"ax",@progbits
  11               	.global	host_set_driver
  13               	host_set_driver:
  14               	.LVL0:
  15               	.LFB26:
  16               		.file 1 "tmk_core/common/host.c"
   1:tmk_core/common/host.c **** /*
   2:tmk_core/common/host.c **** Copyright 2011,2012 Jun Wako <wakojun@gmail.com>
   3:tmk_core/common/host.c **** 
   4:tmk_core/common/host.c **** This program is free software: you can redistribute it and/or modify
   5:tmk_core/common/host.c **** it under the terms of the GNU General Public License as published by
   6:tmk_core/common/host.c **** the Free Software Foundation, either version 2 of the License, or
   7:tmk_core/common/host.c **** (at your option) any later version.
   8:tmk_core/common/host.c **** 
   9:tmk_core/common/host.c **** This program is distributed in the hope that it will be useful,
  10:tmk_core/common/host.c **** but WITHOUT ANY WARRANTY; without even the implied warranty of
  11:tmk_core/common/host.c **** MERCHANTABILITY or FITNESS FOR A PARTICULAR PURPOSE.  See the
  12:tmk_core/common/host.c **** GNU General Public License for more details.
  13:tmk_core/common/host.c **** 
  14:tmk_core/common/host.c **** You should have received a copy of the GNU General Public License
  15:tmk_core/common/host.c **** along with this program.  If not, see <http://www.gnu.org/licenses/>.
  16:tmk_core/common/host.c **** */
  17:tmk_core/common/host.c **** 
  18:tmk_core/common/host.c **** #include <stdint.h>
  19:tmk_core/common/host.c **** //#include <avr/interrupt.h>
  20:tmk_core/common/host.c **** #include "keyboard.h"
  21:tmk_core/common/host.c **** #include "keycode.h"
  22:tmk_core/common/host.c **** #include "host.h"
  23:tmk_core/common/host.c **** #include "util.h"
  24:tmk_core/common/host.c **** #include "debug.h"
  25:tmk_core/common/host.c **** #include "digitizer.h"
  26:tmk_core/common/host.c **** 
  27:tmk_core/common/host.c **** #ifdef NKRO_ENABLE
  28:tmk_core/common/host.c **** #    include "keycode_config.h"
  29:tmk_core/common/host.c **** extern keymap_config_t keymap_config;
  30:tmk_core/common/host.c **** #endif
  31:tmk_core/common/host.c **** 
  32:tmk_core/common/host.c **** static host_driver_t *driver;
  33:tmk_core/common/host.c **** static uint16_t       last_system_report   = 0;
  34:tmk_core/common/host.c **** static uint16_t       last_consumer_report = 0;
  35:tmk_core/common/host.c **** 
  36:tmk_core/common/host.c **** void host_set_driver(host_driver_t *d) { driver = d; }
  17               		.loc 1 36 40 view -0
  18               		.cfi_startproc
  19               	/* prologue: function */
  20               	/* frame size = 0 */
  21               	/* stack size = 0 */
  22               	.L__stack_usage = 0
  23               		.loc 1 36 42 view .LVU1
  24               		.loc 1 36 49 is_stmt 0 view .LVU2
  25 0000 9093 0000 		sts driver+1,r25
  26 0004 8093 0000 		sts driver,r24
  27               	/* epilogue start */
  28               		.loc 1 36 1 view .LVU3
  29 0008 0895      		ret
  30               		.cfi_endproc
  31               	.LFE26:
  33               		.section	.text.host_get_driver,"ax",@progbits
  34               	.global	host_get_driver
  36               	host_get_driver:
  37               	.LFB27:
  37:tmk_core/common/host.c **** 
  38:tmk_core/common/host.c **** host_driver_t *host_get_driver(void) { return driver; }
  38               		.loc 1 38 38 is_stmt 1 view -0
  39               		.cfi_startproc
  40               	/* prologue: function */
  41               	/* frame size = 0 */
  42               	/* stack size = 0 */
  43               	.L__stack_usage = 0
  44               		.loc 1 38 40 view .LVU5
  45               		.loc 1 38 1 is_stmt 0 view .LVU6
  46 0000 8091 0000 		lds r24,driver
  47 0004 9091 0000 		lds r25,driver+1
  48               	/* epilogue start */
  49 0008 0895      		ret
  50               		.cfi_endproc
  51               	.LFE27:
  53               		.section	.text.set_split_host_keyboard_leds,"ax",@progbits
  54               	.global	set_split_host_keyboard_leds
  56               	set_split_host_keyboard_leds:
  57               	.LVL1:
  58               	.LFB28:
  39:tmk_core/common/host.c **** 
  40:tmk_core/common/host.c **** #ifdef SPLIT_KEYBOARD
  41:tmk_core/common/host.c **** uint8_t split_led_state = 0;
  42:tmk_core/common/host.c **** void    set_split_host_keyboard_leds(uint8_t led_state) { split_led_state = led_state; }
  59               		.loc 1 42 57 is_stmt 1 view -0
  60               		.cfi_startproc
  61               	/* prologue: function */
  62               	/* frame size = 0 */
  63               	/* stack size = 0 */
  64               	.L__stack_usage = 0
  65               		.loc 1 42 59 view .LVU8
  66               		.loc 1 42 75 is_stmt 0 view .LVU9
  67 0000 8093 0000 		sts split_led_state,r24
  68               	/* epilogue start */
  69               		.loc 1 42 1 view .LVU10
  70 0004 0895      		ret
  71               		.cfi_endproc
  72               	.LFE28:
  74               		.section	.text.host_keyboard_leds,"ax",@progbits
  75               	.global	host_keyboard_leds
  77               	host_keyboard_leds:
  78               	.LFB29:
  43:tmk_core/common/host.c **** #endif
  44:tmk_core/common/host.c **** 
  45:tmk_core/common/host.c **** uint8_t host_keyboard_leds(void) {
  79               		.loc 1 45 34 is_stmt 1 view -0
  80               		.cfi_startproc
  81               	/* prologue: function */
  82               	/* frame size = 0 */
  83               	/* stack size = 0 */
  84               	.L__stack_usage = 0
  46:tmk_core/common/host.c **** #ifdef SPLIT_KEYBOARD
  47:tmk_core/common/host.c ****     if (!is_keyboard_master()) return split_led_state;
  85               		.loc 1 47 5 view .LVU12
  86               		.loc 1 47 10 is_stmt 0 view .LVU13
  87 0000 0E94 0000 		call is_keyboard_master
  88               	.LVL2:
  89               		.loc 1 47 8 view .LVU14
  90 0004 8111      		cpse r24,__zero_reg__
  91 0006 00C0      		rjmp .L5
  92               		.loc 1 47 32 is_stmt 1 discriminator 1 view .LVU15
  93               		.loc 1 47 39 is_stmt 0 discriminator 1 view .LVU16
  94 0008 8091 0000 		lds r24,split_led_state
  95 000c 0895      		ret
  96               	.L5:
  48:tmk_core/common/host.c **** #endif
  49:tmk_core/common/host.c ****     if (!driver) return 0;
  97               		.loc 1 49 5 is_stmt 1 view .LVU17
  98               		.loc 1 49 9 is_stmt 0 view .LVU18
  99 000e E091 0000 		lds r30,driver
 100 0012 F091 0000 		lds r31,driver+1
 101               		.loc 1 49 8 view .LVU19
 102 0016 3097      		sbiw r30,0
 103 0018 01F0      		breq .L7
  50:tmk_core/common/host.c ****     return (*driver->keyboard_leds)();
 104               		.loc 1 50 5 is_stmt 1 view .LVU20
 105               		.loc 1 50 13 is_stmt 0 view .LVU21
 106 001a 0190      		ld __tmp_reg__,Z+
 107 001c F081      		ld r31,Z
 108 001e E02D      		mov r30,__tmp_reg__
 109 0020 0994      		ijmp
 110               	.LVL3:
 111               	.L7:
  49:tmk_core/common/host.c ****     return (*driver->keyboard_leds)();
 112               		.loc 1 49 25 view .LVU22
 113 0022 80E0      		ldi r24,0
 114               	/* epilogue start */
  51:tmk_core/common/host.c **** }
 115               		.loc 1 51 1 view .LVU23
 116 0024 0895      		ret
 117               		.cfi_endproc
 118               	.LFE29:
 120               		.section	.text.host_keyboard_led_state,"ax",@progbits
 121               	.global	host_keyboard_led_state
 123               	host_keyboard_led_state:
 124               	.LFB30:
  52:tmk_core/common/host.c **** 
  53:tmk_core/common/host.c **** led_t host_keyboard_led_state(void) { return (led_t)host_keyboard_leds(); }
 125               		.loc 1 53 37 is_stmt 1 view -0
 126               		.cfi_startproc
 127               	/* prologue: function */
 128               	/* frame size = 0 */
 129               	/* stack size = 0 */
 130               	.L__stack_usage = 0
 131               		.loc 1 53 39 view .LVU25
 132               		.loc 1 53 53 is_stmt 0 view .LVU26
 133 0000 0E94 0000 		call host_keyboard_leds
 134               	.LVL4:
 135               	/* epilogue start */
 136               		.loc 1 53 1 view .LVU27
 137 0004 0895      		ret
 138               		.cfi_endproc
 139               	.LFE30:
 141               		.section	.text.host_keyboard_send,"ax",@progbits
 142               	.global	host_keyboard_send
 144               	host_keyboard_send:
 145               	.LVL5:
 146               	.LFB31:
  54:tmk_core/common/host.c **** 
  55:tmk_core/common/host.c **** /* send report */
  56:tmk_core/common/host.c **** void host_keyboard_send(report_keyboard_t *report) {
 147               		.loc 1 56 52 is_stmt 1 view -0
 148               		.cfi_startproc
 149               	/* prologue: function */
 150               	/* frame size = 0 */
 151               	/* stack size = 0 */
 152               	.L__stack_usage = 0
  57:tmk_core/common/host.c ****     if (!driver) return;
 153               		.loc 1 57 5 view .LVU29
 154               		.loc 1 57 9 is_stmt 0 view .LVU30
 155 0000 E091 0000 		lds r30,driver
 156 0004 F091 0000 		lds r31,driver+1
 157               		.loc 1 57 8 view .LVU31
 158 0008 3097      		sbiw r30,0
 159 000a 01F0      		breq .L9
  58:tmk_core/common/host.c **** #if defined(NKRO_ENABLE) && defined(NKRO_SHARED_EP)
  59:tmk_core/common/host.c ****     if (keyboard_protocol && keymap_config.nkro) {
  60:tmk_core/common/host.c ****         /* The callers of this function assume that report->mods is where mods go in.
  61:tmk_core/common/host.c ****          * But report->nkro.mods can be at a different offset if core keyboard does not have a repo
  62:tmk_core/common/host.c ****          */
  63:tmk_core/common/host.c ****         report->nkro.mods      = report->mods;
  64:tmk_core/common/host.c ****         report->nkro.report_id = REPORT_ID_NKRO;
  65:tmk_core/common/host.c ****     } else
  66:tmk_core/common/host.c **** #endif
  67:tmk_core/common/host.c ****     {
  68:tmk_core/common/host.c **** #ifdef KEYBOARD_SHARED_EP
  69:tmk_core/common/host.c ****         report->report_id = REPORT_ID_KEYBOARD;
  70:tmk_core/common/host.c **** #endif
  71:tmk_core/common/host.c ****     }
 160               		.loc 1 71 5 is_stmt 1 view .LVU32
  72:tmk_core/common/host.c ****     (*driver->send_keyboard)(report);
 161               		.loc 1 72 5 view .LVU33
 162               		.loc 1 72 6 is_stmt 0 view .LVU34
 163 000c 0280      		ldd __tmp_reg__,Z+2
 164 000e F381      		ldd r31,Z+3
 165 0010 E02D      		mov r30,__tmp_reg__
 166 0012 0994      		ijmp
 167               	.LVL6:
 168               	.L9:
 169               	/* epilogue start */
  73:tmk_core/common/host.c **** 
  74:tmk_core/common/host.c ****     if (debug_keyboard) {
  75:tmk_core/common/host.c ****         dprint("keyboard_report: ");
  76:tmk_core/common/host.c ****         for (uint8_t i = 0; i < KEYBOARD_REPORT_SIZE; i++) {
  77:tmk_core/common/host.c ****             dprintf("%02X ", report->raw[i]);
  78:tmk_core/common/host.c ****         }
  79:tmk_core/common/host.c ****         dprint("\n");
  80:tmk_core/common/host.c ****     }
  81:tmk_core/common/host.c **** }
 170               		.loc 1 81 1 view .LVU35
 171 0014 0895      		ret
 172               		.cfi_endproc
 173               	.LFE31:
 175               		.section	.text.host_mouse_send,"ax",@progbits
 176               	.global	host_mouse_send
 178               	host_mouse_send:
 179               	.LVL7:
 180               	.LFB32:
  82:tmk_core/common/host.c **** 
  83:tmk_core/common/host.c **** void host_mouse_send(report_mouse_t *report) {
 181               		.loc 1 83 46 is_stmt 1 view -0
 182               		.cfi_startproc
 183               	/* prologue: function */
 184               	/* frame size = 0 */
 185               	/* stack size = 0 */
 186               	.L__stack_usage = 0
  84:tmk_core/common/host.c ****     if (!driver) return;
 187               		.loc 1 84 5 view .LVU37
 188               		.loc 1 84 9 is_stmt 0 view .LVU38
 189 0000 E091 0000 		lds r30,driver
 190 0004 F091 0000 		lds r31,driver+1
 191               		.loc 1 84 8 view .LVU39
 192 0008 3097      		sbiw r30,0
 193 000a 01F0      		breq .L11
  85:tmk_core/common/host.c **** #ifdef MOUSE_SHARED_EP
  86:tmk_core/common/host.c ****     report->report_id = REPORT_ID_MOUSE;
  87:tmk_core/common/host.c **** #endif
  88:tmk_core/common/host.c ****     (*driver->send_mouse)(report);
 194               		.loc 1 88 5 is_stmt 1 view .LVU40
 195               		.loc 1 88 6 is_stmt 0 view .LVU41
 196 000c 0480      		ldd __tmp_reg__,Z+4
 197 000e F581      		ldd r31,Z+5
 198 0010 E02D      		mov r30,__tmp_reg__
 199 0012 0994      		ijmp
 200               	.LVL8:
 201               	.L11:
 202               	/* epilogue start */
  89:tmk_core/common/host.c **** }
 203               		.loc 1 89 1 view .LVU42
 204 0014 0895      		ret
 205               		.cfi_endproc
 206               	.LFE32:
 208               		.section	.text.host_system_send,"ax",@progbits
 209               	.global	host_system_send
 211               	host_system_send:
 212               	.LVL9:
 213               	.LFB33:
  90:tmk_core/common/host.c **** 
  91:tmk_core/common/host.c **** void host_system_send(uint16_t report) {
 214               		.loc 1 91 40 is_stmt 1 view -0
 215               		.cfi_startproc
 216               	/* prologue: function */
 217               	/* frame size = 0 */
 218               	/* stack size = 0 */
 219               	.L__stack_usage = 0
  92:tmk_core/common/host.c ****     if (report == last_system_report) return;
 220               		.loc 1 92 5 view .LVU44
 221               		.loc 1 92 8 is_stmt 0 view .LVU45
 222 0000 2091 0000 		lds r18,last_system_report
 223 0004 3091 0000 		lds r19,last_system_report+1
 224 0008 2817      		cp r18,r24
 225 000a 3907      		cpc r19,r25
 226 000c 01F0      		breq .L13
  93:tmk_core/common/host.c ****     last_system_report = report;
 227               		.loc 1 93 5 is_stmt 1 view .LVU46
 228               		.loc 1 93 24 is_stmt 0 view .LVU47
 229 000e 9093 0000 		sts last_system_report+1,r25
 230 0012 8093 0000 		sts last_system_report,r24
  94:tmk_core/common/host.c **** 
  95:tmk_core/common/host.c ****     if (!driver) return;
 231               		.loc 1 95 5 is_stmt 1 view .LVU48
 232               		.loc 1 95 9 is_stmt 0 view .LVU49
 233 0016 E091 0000 		lds r30,driver
 234 001a F091 0000 		lds r31,driver+1
 235               		.loc 1 95 8 view .LVU50
 236 001e 3097      		sbiw r30,0
 237 0020 01F0      		breq .L13
  96:tmk_core/common/host.c ****     (*driver->send_system)(report);
 238               		.loc 1 96 5 is_stmt 1 view .LVU51
 239               		.loc 1 96 6 is_stmt 0 view .LVU52
 240 0022 0680      		ldd __tmp_reg__,Z+6
 241 0024 F781      		ldd r31,Z+7
 242 0026 E02D      		mov r30,__tmp_reg__
 243 0028 0994      		ijmp
 244               	.LVL10:
 245               	.L13:
 246               	/* epilogue start */
  97:tmk_core/common/host.c **** }
 247               		.loc 1 97 1 view .LVU53
 248 002a 0895      		ret
 249               		.cfi_endproc
 250               	.LFE33:
 252               		.section	.text.host_consumer_send,"ax",@progbits
 253               	.global	host_consumer_send
 255               	host_consumer_send:
 256               	.LVL11:
 257               	.LFB34:
  98:tmk_core/common/host.c **** 
  99:tmk_core/common/host.c **** void host_consumer_send(uint16_t report) {
 258               		.loc 1 99 42 is_stmt 1 view -0
 259               		.cfi_startproc
 260               	/* prologue: function */
 261               	/* frame size = 0 */
 262               	/* stack size = 0 */
 263               	.L__stack_usage = 0
 100:tmk_core/common/host.c ****     if (report == last_consumer_report) return;
 264               		.loc 1 100 5 view .LVU55
 265               		.loc 1 100 8 is_stmt 0 view .LVU56
 266 0000 2091 0000 		lds r18,last_consumer_report
 267 0004 3091 0000 		lds r19,last_consumer_report+1
 268 0008 2817      		cp r18,r24
 269 000a 3907      		cpc r19,r25
 270 000c 01F0      		breq .L20
 101:tmk_core/common/host.c ****     last_consumer_report = report;
 271               		.loc 1 101 5 is_stmt 1 view .LVU57
 272               		.loc 1 101 26 is_stmt 0 view .LVU58
 273 000e 9093 0000 		sts last_consumer_report+1,r25
 274 0012 8093 0000 		sts last_consumer_report,r24
 102:tmk_core/common/host.c **** 
 103:tmk_core/common/host.c ****     if (!driver) return;
 275               		.loc 1 103 5 is_stmt 1 view .LVU59
 276               		.loc 1 103 9 is_stmt 0 view .LVU60
 277 0016 E091 0000 		lds r30,driver
 278 001a F091 0000 		lds r31,driver+1
 279               		.loc 1 103 8 view .LVU61
 280 001e 3097      		sbiw r30,0
 281 0020 01F0      		breq .L20
 104:tmk_core/common/host.c ****     (*driver->send_consumer)(report);
 282               		.loc 1 104 5 is_stmt 1 view .LVU62
 283               		.loc 1 104 6 is_stmt 0 view .LVU63
 284 0022 0084      		ldd __tmp_reg__,Z+8
 285 0024 F185      		ldd r31,Z+9
 286 0026 E02D      		mov r30,__tmp_reg__
 287 0028 0994      		ijmp
 288               	.LVL12:
 289               	.L20:
 290               	/* epilogue start */
 105:tmk_core/common/host.c **** }
 291               		.loc 1 105 1 view .LVU64
 292 002a 0895      		ret
 293               		.cfi_endproc
 294               	.LFE34:
 296               		.section	.text.send_digitizer,"ax",@progbits
 297               		.weak	send_digitizer
 299               	send_digitizer:
 300               	.LVL13:
 301               	.LFB36:
 106:tmk_core/common/host.c **** 
 107:tmk_core/common/host.c **** void host_digitizer_send(digitizer_t *digitizer) {
 108:tmk_core/common/host.c ****     if (!driver) return;
 109:tmk_core/common/host.c **** 
 110:tmk_core/common/host.c ****     report_digitizer_t report = {
 111:tmk_core/common/host.c **** #ifdef DIGITIZER_SHARED_EP
 112:tmk_core/common/host.c ****         .report_id = REPORT_ID_DIGITIZER,
 113:tmk_core/common/host.c **** #endif
 114:tmk_core/common/host.c ****         .tip     = digitizer->tipswitch & 0x1,
 115:tmk_core/common/host.c ****         .inrange = digitizer->inrange & 0x1,
 116:tmk_core/common/host.c ****         .x       = (uint16_t)(digitizer->x * 0x7FFF),
 117:tmk_core/common/host.c ****         .y       = (uint16_t)(digitizer->y * 0x7FFF),
 118:tmk_core/common/host.c ****     };
 119:tmk_core/common/host.c **** 
 120:tmk_core/common/host.c ****     send_digitizer(&report);
 121:tmk_core/common/host.c **** }
 122:tmk_core/common/host.c **** 
 123:tmk_core/common/host.c **** __attribute__((weak)) void send_digitizer(report_digitizer_t *report) {}
 302               		.loc 1 123 71 is_stmt 1 view -0
 303               		.cfi_startproc
 304               	/* prologue: function */
 305               	/* frame size = 0 */
 306               	/* stack size = 0 */
 307               	.L__stack_usage = 0
 308               		.loc 1 123 72 view .LVU66
 309               	/* epilogue start */
 310               		.loc 1 123 1 is_stmt 0 view .LVU67
 311 0000 0895      		ret
 312               		.cfi_endproc
 313               	.LFE36:
 315               	.global	__mulsf3
 316               	.global	__fixunssfsi
 317               		.section	.text.host_digitizer_send,"ax",@progbits
 318               	.global	host_digitizer_send
 320               	host_digitizer_send:
 321               	.LVL14:
 322               	.LFB35:
 107:tmk_core/common/host.c ****     if (!driver) return;
 323               		.loc 1 107 50 is_stmt 1 view -0
 324               		.cfi_startproc
 107:tmk_core/common/host.c ****     if (!driver) return;
 325               		.loc 1 107 50 is_stmt 0 view .LVU69
 326 0000 0F93      		push r16
 327               	.LCFI0:
 328               		.cfi_def_cfa_offset 3
 329               		.cfi_offset 16, -2
 330 0002 1F93      		push r17
 331               	.LCFI1:
 332               		.cfi_def_cfa_offset 4
 333               		.cfi_offset 17, -3
 334 0004 CF93      		push r28
 335               	.LCFI2:
 336               		.cfi_def_cfa_offset 5
 337               		.cfi_offset 28, -4
 338 0006 DF93      		push r29
 339               	.LCFI3:
 340               		.cfi_def_cfa_offset 6
 341               		.cfi_offset 29, -5
 342 0008 00D0      		rcall .
 343 000a 00D0      		rcall .
 344 000c 0F92      		push __tmp_reg__
 345               	.LCFI4:
 346               		.cfi_def_cfa_offset 11
 347 000e CDB7      		in r28,__SP_L__
 348 0010 DEB7      		in r29,__SP_H__
 349               	.LCFI5:
 350               		.cfi_def_cfa_register 28
 351               	/* prologue: function */
 352               	/* frame size = 5 */
 353               	/* stack size = 9 */
 354               	.L__stack_usage = 9
 355 0012 8C01      		movw r16,r24
 108:tmk_core/common/host.c **** 
 356               		.loc 1 108 5 is_stmt 1 view .LVU70
 108:tmk_core/common/host.c **** 
 357               		.loc 1 108 8 is_stmt 0 view .LVU71
 358 0014 8091 0000 		lds r24,driver
 359 0018 9091 0000 		lds r25,driver+1
 360               	.LVL15:
 108:tmk_core/common/host.c **** 
 361               		.loc 1 108 8 view .LVU72
 362 001c 892B      		or r24,r25
 363 001e 01F0      		breq .L28
 110:tmk_core/common/host.c **** #ifdef DIGITIZER_SHARED_EP
 364               		.loc 1 110 5 is_stmt 1 view .LVU73
 110:tmk_core/common/host.c **** #ifdef DIGITIZER_SHARED_EP
 365               		.loc 1 110 24 is_stmt 0 view .LVU74
 366 0020 F801      		movw r30,r16
 367 0022 8081      		ld r24,Z
 368 0024 8170      		andi r24,lo8(1)
 369 0026 9181      		ldd r25,Z+1
 370 0028 90FB      		bst r25,0
 371 002a 81F9      		bld r24,1
 372 002c 8983      		std Y+1,r24
 116:tmk_core/common/host.c ****         .y       = (uint16_t)(digitizer->y * 0x7FFF),
 373               		.loc 1 116 44 view .LVU75
 374 002e 20E0      		ldi r18,0
 375 0030 3EEF      		ldi r19,lo8(-2)
 376 0032 4FEF      		ldi r20,lo8(-1)
 377 0034 56E4      		ldi r21,lo8(70)
 378 0036 6381      		ldd r22,Z+3
 379 0038 7481      		ldd r23,Z+4
 380 003a 8581      		ldd r24,Z+5
 381 003c 9681      		ldd r25,Z+6
 382 003e 0E94 0000 		call __mulsf3
 383               	.LVL16:
 116:tmk_core/common/host.c ****         .y       = (uint16_t)(digitizer->y * 0x7FFF),
 384               		.loc 1 116 20 view .LVU76
 385 0042 0E94 0000 		call __fixunssfsi
 386               	.LVL17:
 387 0046 7B83      		std Y+3,r23
 388 0048 6A83      		std Y+2,r22
 117:tmk_core/common/host.c ****     };
 389               		.loc 1 117 44 view .LVU77
 390 004a 20E0      		ldi r18,0
 391 004c 3EEF      		ldi r19,lo8(-2)
 392 004e 4FEF      		ldi r20,lo8(-1)
 393 0050 56E4      		ldi r21,lo8(70)
 394 0052 F801      		movw r30,r16
 395 0054 6781      		ldd r22,Z+7
 396 0056 7085      		ldd r23,Z+8
 397 0058 8185      		ldd r24,Z+9
 398 005a 9285      		ldd r25,Z+10
 399 005c 0E94 0000 		call __mulsf3
 400               	.LVL18:
 117:tmk_core/common/host.c ****     };
 401               		.loc 1 117 20 view .LVU78
 402 0060 0E94 0000 		call __fixunssfsi
 403               	.LVL19:
 404 0064 7D83      		std Y+5,r23
 405 0066 6C83      		std Y+4,r22
 120:tmk_core/common/host.c **** }
 406               		.loc 1 120 5 is_stmt 1 view .LVU79
 407 0068 CE01      		movw r24,r28
 408 006a 0196      		adiw r24,1
 409 006c 0E94 0000 		call send_digitizer
 410               	.LVL20:
 411               	.L28:
 412               	/* epilogue start */
 121:tmk_core/common/host.c **** 
 413               		.loc 1 121 1 is_stmt 0 view .LVU80
 414 0070 0F90      		pop __tmp_reg__
 415 0072 0F90      		pop __tmp_reg__
 416 0074 0F90      		pop __tmp_reg__
 417 0076 0F90      		pop __tmp_reg__
 418 0078 0F90      		pop __tmp_reg__
 419 007a DF91      		pop r29
 420 007c CF91      		pop r28
 421 007e 1F91      		pop r17
 422 0080 0F91      		pop r16
 423               	.LVL21:
 121:tmk_core/common/host.c **** 
 424               		.loc 1 121 1 view .LVU81
 425 0082 0895      		ret
 426               		.cfi_endproc
 427               	.LFE35:
 429               		.section	.text.host_last_system_report,"ax",@progbits
 430               	.global	host_last_system_report
 432               	host_last_system_report:
 433               	.LFB37:
 124:tmk_core/common/host.c **** 
 125:tmk_core/common/host.c **** uint16_t host_last_system_report(void) { return last_system_report; }
 434               		.loc 1 125 40 is_stmt 1 view -0
 435               		.cfi_startproc
 436               	/* prologue: function */
 437               	/* frame size = 0 */
 438               	/* stack size = 0 */
 439               	.L__stack_usage = 0
 440               		.loc 1 125 42 view .LVU83
 441               		.loc 1 125 1 is_stmt 0 view .LVU84
 442 0000 8091 0000 		lds r24,last_system_report
 443 0004 9091 0000 		lds r25,last_system_report+1
 444               	/* epilogue start */
 445 0008 0895      		ret
 446               		.cfi_endproc
 447               	.LFE37:
 449               		.section	.text.host_last_consumer_report,"ax",@progbits
 450               	.global	host_last_consumer_report
 452               	host_last_consumer_report:
 453               	.LFB38:
 126:tmk_core/common/host.c **** 
 127:tmk_core/common/host.c **** uint16_t host_last_consumer_report(void) { return last_consumer_report; }
 454               		.loc 1 127 42 is_stmt 1 view -0
 455               		.cfi_startproc
 456               	/* prologue: function */
 457               	/* frame size = 0 */
 458               	/* stack size = 0 */
 459               	.L__stack_usage = 0
 460               		.loc 1 127 44 view .LVU86
 461               		.loc 1 127 1 is_stmt 0 view .LVU87
 462 0000 8091 0000 		lds r24,last_consumer_report
 463 0004 9091 0000 		lds r25,last_consumer_report+1
 464               	/* epilogue start */
 465 0008 0895      		ret
 466               		.cfi_endproc
 467               	.LFE38:
 469               	.global	split_led_state
 470               		.section	.bss.split_led_state,"aw",@nobits
 473               	split_led_state:
 474 0000 00        		.zero	1
 475               		.section	.bss.last_consumer_report,"aw",@nobits
 478               	last_consumer_report:
 479 0000 0000      		.zero	2
 480               		.section	.bss.last_system_report,"aw",@nobits
 483               	last_system_report:
 484 0000 0000      		.zero	2
 485               		.section	.bss.driver,"aw",@nobits
 488               	driver:
 489 0000 0000      		.zero	2
 490               		.text
 491               	.Letext0:
 492               		.file 2 "/usr/avr/include/stdint.h"
 493               		.file 3 "quantum/keyboard.h"
 494               		.file 4 "tmk_core/common/report.h"
 495               		.file 5 "tmk_core/common/host_driver.h"
 496               		.file 6 "quantum/led.h"
 497               		.file 7 "tmk_core/common/host.h"
 498               		.file 8 "/usr/lib/gcc/avr/8.3.0/include/stddef.h"
 499               		.file 9 "quantum/logging/debug.h"
 500               		.file 10 "quantum/action.h"
 501               		.file 11 "quantum/keycode_config.h"
 502               		.file 12 "tmk_core/common/timer.h"
 503               		.file 13 "quantum/sequencer/sequencer.h"
 504               		.file 14 "quantum/keymap.h"
 505               		.file 15 "quantum/action_layer.h"
 506               		.file 16 "quantum/action_util.h"
 507               		.file 17 "quantum/send_string.h"
 508               		.file 18 "/usr/avr/include/stdlib.h"
 509               		.file 19 "quantum/digitizer.h"