   1              		.cpu cortex-m4
   2              		.arch armv7e-m
   3              		.fpu fpv4-sp-d16
   4              		.eabi_attribute 27, 1
   5              		.eabi_attribute 28, 1
   6              		.eabi_attribute 20, 1
   7              		.eabi_attribute 21, 1
   8              		.eabi_attribute 23, 3
   9              		.eabi_attribute 24, 1
  10              		.eabi_attribute 25, 1
  11              		.eabi_attribute 26, 1
  12              		.eabi_attribute 30, 4
  13              		.eabi_attribute 34, 1
  14              		.eabi_attribute 18, 2
  15              		.file	"encoder.c"
  16              		.text
  17              	.Ltext0:
  18              		.cfi_sections	.debug_frame
  19              		.file 1 "quantum/encoder.c"
  20              		.section	.text.encoder_update_user,"ax",%progbits
  21              		.align	1
  22              		.weak	encoder_update_user
  23              		.syntax unified
  24              		.thumb
  25              		.thumb_func
  27              	encoder_update_user:
  28              	.LVL0:
  29              	.LFB341:
   1:quantum/encoder.c **** /*
   2:quantum/encoder.c ****  * Copyright 2018 Jack Humbert <jack.humb@gmail.com>
   3:quantum/encoder.c ****  *
   4:quantum/encoder.c ****  * This program is free software: you can redistribute it and/or modify
   5:quantum/encoder.c ****  * it under the terms of the GNU General Public License as published by
   6:quantum/encoder.c ****  * the Free Software Foundation, either version 2 of the License, or
   7:quantum/encoder.c ****  * (at your option) any later version.
   8:quantum/encoder.c ****  *
   9:quantum/encoder.c ****  * This program is distributed in the hope that it will be useful,
  10:quantum/encoder.c ****  * but WITHOUT ANY WARRANTY; without even the implied warranty of
  11:quantum/encoder.c ****  * MERCHANTABILITY or FITNESS FOR A PARTICULAR PURPOSE.  See the
  12:quantum/encoder.c ****  * GNU General Public License for more details.
  13:quantum/encoder.c ****  *
  14:quantum/encoder.c ****  * You should have received a copy of the GNU General Public License
  15:quantum/encoder.c ****  * along with this program.  If not, see <http://www.gnu.org/licenses/>.
  16:quantum/encoder.c ****  */
  17:quantum/encoder.c **** 
  18:quantum/encoder.c **** #include "encoder.h"
  19:quantum/encoder.c **** #ifdef SPLIT_KEYBOARD
  20:quantum/encoder.c **** #    include "split_util.h"
  21:quantum/encoder.c **** #endif
  22:quantum/encoder.c **** 
  23:quantum/encoder.c **** // for memcpy
  24:quantum/encoder.c **** #include <string.h>
  25:quantum/encoder.c **** 
  26:quantum/encoder.c **** #if !defined(ENCODER_RESOLUTIONS) && !defined(ENCODER_RESOLUTION)
  27:quantum/encoder.c **** #    define ENCODER_RESOLUTION 4
  28:quantum/encoder.c **** #endif
  29:quantum/encoder.c **** 
  30:quantum/encoder.c **** #if !defined(ENCODERS_PAD_A) || !defined(ENCODERS_PAD_B)
  31:quantum/encoder.c **** #    error "No encoder pads defined by ENCODERS_PAD_A and ENCODERS_PAD_B"
  32:quantum/encoder.c **** #endif
  33:quantum/encoder.c **** 
  34:quantum/encoder.c **** #define NUMBER_OF_ENCODERS (sizeof(encoders_pad_a) / sizeof(pin_t))
  35:quantum/encoder.c **** static pin_t encoders_pad_a[] = ENCODERS_PAD_A;
  36:quantum/encoder.c **** static pin_t encoders_pad_b[] = ENCODERS_PAD_B;
  37:quantum/encoder.c **** #ifdef ENCODER_RESOLUTIONS
  38:quantum/encoder.c **** static uint8_t encoder_resolutions[] = ENCODER_RESOLUTIONS;
  39:quantum/encoder.c **** #endif
  40:quantum/encoder.c **** 
  41:quantum/encoder.c **** #ifndef ENCODER_DIRECTION_FLIP
  42:quantum/encoder.c **** #    define ENCODER_CLOCKWISE true
  43:quantum/encoder.c **** #    define ENCODER_COUNTER_CLOCKWISE false
  44:quantum/encoder.c **** #else
  45:quantum/encoder.c **** #    define ENCODER_CLOCKWISE false
  46:quantum/encoder.c **** #    define ENCODER_COUNTER_CLOCKWISE true
  47:quantum/encoder.c **** #endif
  48:quantum/encoder.c **** static int8_t encoder_LUT[] = {0, -1, 1, 0, 1, 0, 0, -1, -1, 0, 0, 1, 0, 1, -1, 0};
  49:quantum/encoder.c **** 
  50:quantum/encoder.c **** static uint8_t encoder_state[NUMBER_OF_ENCODERS]  = {0};
  51:quantum/encoder.c **** static int8_t  encoder_pulses[NUMBER_OF_ENCODERS] = {0};
  52:quantum/encoder.c **** 
  53:quantum/encoder.c **** #ifdef SPLIT_KEYBOARD
  54:quantum/encoder.c **** // right half encoders come over as second set of encoders
  55:quantum/encoder.c **** static uint8_t encoder_value[NUMBER_OF_ENCODERS * 2] = {0};
  56:quantum/encoder.c **** // row offsets for each hand
  57:quantum/encoder.c **** static uint8_t thisHand, thatHand;
  58:quantum/encoder.c **** #else
  59:quantum/encoder.c **** static uint8_t encoder_value[NUMBER_OF_ENCODERS] = {0};
  60:quantum/encoder.c **** #endif
  61:quantum/encoder.c **** 
  62:quantum/encoder.c **** __attribute__((weak)) bool encoder_update_user(uint8_t index, bool clockwise) { return true; }
  30              		.loc 1 62 79 view -0
  31              		.cfi_startproc
  32              		@ args = 0, pretend = 0, frame = 0
  33              		@ frame_needed = 0, uses_anonymous_args = 0
  34              		@ link register save eliminated.
  35              		.loc 1 62 81 view .LVU1
  36              		.loc 1 62 94 is_stmt 0 view .LVU2
  37 0000 0120     		movs	r0, #1
  38              	.LVL1:
  39              		.loc 1 62 94 view .LVU3
  40 0002 7047     		bx	lr
  41              		.cfi_endproc
  42              	.LFE341:
  44              		.section	.text.encoder_update_kb,"ax",%progbits
  45              		.align	1
  46              		.weak	encoder_update_kb
  47              		.syntax unified
  48              		.thumb
  49              		.thumb_func
  51              	encoder_update_kb:
  52              	.LVL2:
  53              	.LFB342:
  63:quantum/encoder.c **** 
  64:quantum/encoder.c **** __attribute__((weak)) bool encoder_update_kb(uint8_t index, bool clockwise) { return encoder_update
  54              		.loc 1 64 77 is_stmt 1 view -0
  55              		.cfi_startproc
  56              		@ args = 0, pretend = 0, frame = 0
  57              		@ frame_needed = 0, uses_anonymous_args = 0
  58              		.loc 1 64 79 view .LVU5
  59              		.loc 1 64 77 is_stmt 0 view .LVU6
  60 0000 08B5     		push	{r3, lr}
  61              		.cfi_def_cfa_offset 8
  62              		.cfi_offset 3, -8
  63              		.cfi_offset 14, -4
  64              		.loc 1 64 86 view .LVU7
  65 0002 FFF7FEFF 		bl	encoder_update_user
  66              	.LVL3:
  67              		.loc 1 64 125 view .LVU8
  68 0006 08BD     		pop	{r3, pc}
  69              		.cfi_endproc
  70              	.LFE342:
  72              		.section	.text.encoder_init,"ax",%progbits
  73              		.align	1
  74              		.global	encoder_init
  75              		.syntax unified
  76              		.thumb
  77              		.thumb_func
  79              	encoder_init:
  80              	.LFB343:
  65:quantum/encoder.c **** 
  66:quantum/encoder.c **** void encoder_init(void) {
  81              		.loc 1 66 25 is_stmt 1 view -0
  82              		.cfi_startproc
  83              		@ args = 0, pretend = 0, frame = 0
  84              		@ frame_needed = 0, uses_anonymous_args = 0
  67:quantum/encoder.c **** #if defined(SPLIT_KEYBOARD) && defined(ENCODERS_PAD_A_RIGHT) && defined(ENCODERS_PAD_B_RIGHT)
  68:quantum/encoder.c ****     if (!isLeftHand) {
  69:quantum/encoder.c ****         const pin_t encoders_pad_a_right[] = ENCODERS_PAD_A_RIGHT;
  70:quantum/encoder.c ****         const pin_t encoders_pad_b_right[] = ENCODERS_PAD_B_RIGHT;
  71:quantum/encoder.c **** #    if defined(ENCODER_RESOLUTIONS_RIGHT)
  72:quantum/encoder.c ****         const uint8_t encoder_resolutions_right[] = ENCODER_RESOLUTIONS_RIGHT;
  73:quantum/encoder.c **** #    endif
  74:quantum/encoder.c ****         for (uint8_t i = 0; i < NUMBER_OF_ENCODERS; i++) {
  75:quantum/encoder.c ****             encoders_pad_a[i] = encoders_pad_a_right[i];
  76:quantum/encoder.c ****             encoders_pad_b[i] = encoders_pad_b_right[i];
  77:quantum/encoder.c **** #    if defined(ENCODER_RESOLUTIONS_RIGHT)
  78:quantum/encoder.c ****             encoder_resolutions[i] = encoder_resolutions_right[i];
  79:quantum/encoder.c **** #    endif
  80:quantum/encoder.c ****         }
  81:quantum/encoder.c ****     }
  82:quantum/encoder.c **** #endif
  83:quantum/encoder.c **** 
  84:quantum/encoder.c ****     for (int i = 0; i < NUMBER_OF_ENCODERS; i++) {
  85              		.loc 1 84 5 view .LVU10
  86              	.LBB2:
  87              		.loc 1 84 10 view .LVU11
  88              	.LVL4:
  89              		.loc 1 84 23 view .LVU12
  85:quantum/encoder.c ****         setPinInputHigh(encoders_pad_a[i]);
  90              		.loc 1 85 9 view .LVU13
  91              	.LBE2:
  66:quantum/encoder.c **** #if defined(SPLIT_KEYBOARD) && defined(ENCODERS_PAD_A_RIGHT) && defined(ENCODERS_PAD_B_RIGHT)
  92              		.loc 1 66 25 is_stmt 0 view .LVU14
  93 0000 10B5     		push	{r4, lr}
  94              		.cfi_def_cfa_offset 8
  95              		.cfi_offset 4, -8
  96              		.cfi_offset 14, -4
  97              	.LBB3:
  98              		.loc 1 85 9 view .LVU15
  99 0002 0C4C     		ldr	r4, .L4
 100 0004 2022     		movs	r2, #32
 101 0006 4FF48051 		mov	r1, #4096
 102 000a 2046     		mov	r0, r4
 103 000c FFF7FEFF 		bl	_pal_lld_setgroupmode
 104              	.LVL5:
  86:quantum/encoder.c ****         setPinInputHigh(encoders_pad_b[i]);
 105              		.loc 1 86 9 is_stmt 1 view .LVU16
 106 0010 2022     		movs	r2, #32
 107 0012 4FF40051 		mov	r1, #8192
 108 0016 2046     		mov	r0, r4
 109 0018 FFF7FEFF 		bl	_pal_lld_setgroupmode
 110              	.LVL6:
  87:quantum/encoder.c **** 
  88:quantum/encoder.c ****         encoder_state[i] = (readPin(encoders_pad_a[i]) << 0) | (readPin(encoders_pad_b[i]) << 1);
 111              		.loc 1 88 9 view .LVU17
 112              		.loc 1 88 29 is_stmt 0 view .LVU18
 113 001c 2269     		ldr	r2, [r4, #16]
 114              		.loc 1 88 65 view .LVU19
 115 001e 2369     		ldr	r3, [r4, #16]
 116              		.loc 1 88 92 view .LVU20
 117 0020 1B0B     		lsrs	r3, r3, #12
 118              		.loc 1 88 56 view .LVU21
 119 0022 C2F30032 		ubfx	r2, r2, #12, #1
 120              		.loc 1 88 92 view .LVU22
 121 0026 03F00203 		and	r3, r3, #2
 122              		.loc 1 88 62 view .LVU23
 123 002a 1343     		orrs	r3, r3, r2
 124              		.loc 1 88 26 view .LVU24
 125 002c 024A     		ldr	r2, .L4+4
 126 002e 1370     		strb	r3, [r2]
  84:quantum/encoder.c ****         setPinInputHigh(encoders_pad_a[i]);
 127              		.loc 1 84 46 is_stmt 1 view .LVU25
 128              	.LVL7:
  84:quantum/encoder.c ****         setPinInputHigh(encoders_pad_a[i]);
 129              		.loc 1 84 23 view .LVU26
 130              	.LBE3:
  89:quantum/encoder.c ****     }
  90:quantum/encoder.c **** 
  91:quantum/encoder.c **** #ifdef SPLIT_KEYBOARD
  92:quantum/encoder.c ****     thisHand = isLeftHand ? 0 : NUMBER_OF_ENCODERS;
  93:quantum/encoder.c ****     thatHand = NUMBER_OF_ENCODERS - thisHand;
  94:quantum/encoder.c **** #endif
  95:quantum/encoder.c **** }
 131              		.loc 1 95 1 is_stmt 0 view .LVU27
 132 0030 10BD     		pop	{r4, pc}
 133              	.L5:
 134 0032 00BF     		.align	2
 135              	.L4:
 136 0034 00040048 		.word	1207960576
 137 0038 00000000 		.word	encoder_state
 138              		.cfi_endproc
 139              	.LFE343:
 141              		.section	.text.encoder_read,"ax",%progbits
 142              		.align	1
 143              		.global	encoder_read
 144              		.syntax unified
 145              		.thumb
 146              		.thumb_func
 148              	encoder_read:
 149              	.LFB345:
  96:quantum/encoder.c **** 
  97:quantum/encoder.c **** static bool encoder_update(uint8_t index, uint8_t state) {
  98:quantum/encoder.c ****     bool    changed = false;
  99:quantum/encoder.c ****     uint8_t i       = index;
 100:quantum/encoder.c **** 
 101:quantum/encoder.c **** #ifdef ENCODER_RESOLUTIONS
 102:quantum/encoder.c ****     uint8_t resolution = encoder_resolutions[i];
 103:quantum/encoder.c **** #else
 104:quantum/encoder.c ****     uint8_t resolution = ENCODER_RESOLUTION;
 105:quantum/encoder.c **** #endif
 106:quantum/encoder.c **** 
 107:quantum/encoder.c **** #ifdef SPLIT_KEYBOARD
 108:quantum/encoder.c ****     index += thisHand;
 109:quantum/encoder.c **** #endif
 110:quantum/encoder.c ****     encoder_pulses[i] += encoder_LUT[state & 0xF];
 111:quantum/encoder.c ****     if (encoder_pulses[i] >= resolution) {
 112:quantum/encoder.c ****         encoder_value[index]++;
 113:quantum/encoder.c ****         changed = true;
 114:quantum/encoder.c ****         encoder_update_kb(index, ENCODER_COUNTER_CLOCKWISE);
 115:quantum/encoder.c ****     }
 116:quantum/encoder.c ****     if (encoder_pulses[i] <= -resolution) {  // direction is arbitrary here, but this clockwise
 117:quantum/encoder.c ****         encoder_value[index]--;
 118:quantum/encoder.c ****         changed = true;
 119:quantum/encoder.c ****         encoder_update_kb(index, ENCODER_CLOCKWISE);
 120:quantum/encoder.c ****     }
 121:quantum/encoder.c ****     encoder_pulses[i] %= resolution;
 122:quantum/encoder.c **** #ifdef ENCODER_DEFAULT_POS
 123:quantum/encoder.c ****     if ((state & 0x3) == ENCODER_DEFAULT_POS) {
 124:quantum/encoder.c ****         encoder_pulses[i] = 0;
 125:quantum/encoder.c ****     }
 126:quantum/encoder.c **** #endif
 127:quantum/encoder.c ****     return changed;
 128:quantum/encoder.c **** }
 129:quantum/encoder.c **** 
 130:quantum/encoder.c **** bool encoder_read(void) {
 150              		.loc 1 130 25 is_stmt 1 view -0
 151              		.cfi_startproc
 152              		@ args = 0, pretend = 0, frame = 0
 153              		@ frame_needed = 0, uses_anonymous_args = 0
 131:quantum/encoder.c ****     bool changed = false;
 154              		.loc 1 131 5 view .LVU29
 155              	.LVL8:
 132:quantum/encoder.c ****     for (uint8_t i = 0; i < NUMBER_OF_ENCODERS; i++) {
 156              		.loc 1 132 5 view .LVU30
 157              	.LBB7:
 158              		.loc 1 132 10 view .LVU31
 159              		.loc 1 132 27 view .LVU32
 133:quantum/encoder.c ****         encoder_state[i] <<= 2;
 160              		.loc 1 133 9 view .LVU33
 134:quantum/encoder.c ****         encoder_state[i] |= (readPin(encoders_pad_a[i]) << 0) | (readPin(encoders_pad_b[i]) << 1);
 161              		.loc 1 134 9 view .LVU34
 162              		.loc 1 134 30 is_stmt 0 view .LVU35
 163 0000 1E4B     		ldr	r3, .L10
 164 0002 1A69     		ldr	r2, [r3, #16]
 165              		.loc 1 134 66 view .LVU36
 166 0004 1B69     		ldr	r3, [r3, #16]
 167              	.LBE7:
 130:quantum/encoder.c ****     bool changed = false;
 168              		.loc 1 130 25 view .LVU37
 169 0006 10B5     		push	{r4, lr}
 170              		.cfi_def_cfa_offset 8
 171              		.cfi_offset 4, -8
 172              		.cfi_offset 14, -4
 173              	.LBB14:
 174              		.loc 1 134 93 view .LVU38
 175 0008 1B0B     		lsrs	r3, r3, #12
 176              		.loc 1 134 57 view .LVU39
 177 000a C2F30032 		ubfx	r2, r2, #12, #1
 178              		.loc 1 134 93 view .LVU40
 179 000e 03F00203 		and	r3, r3, #2
 180              		.loc 1 134 63 view .LVU41
 181 0012 1343     		orrs	r3, r3, r2
 133:quantum/encoder.c ****         encoder_state[i] <<= 2;
 182              		.loc 1 133 22 view .LVU42
 183 0014 1A4A     		ldr	r2, .L10+4
 184              	.LBB8:
 185              	.LBB9:
 110:quantum/encoder.c ****     if (encoder_pulses[i] >= resolution) {
 186              		.loc 1 110 19 view .LVU43
 187 0016 1B4C     		ldr	r4, .L10+8
 188              	.LBE9:
 189              	.LBE8:
 133:quantum/encoder.c ****         encoder_state[i] |= (readPin(encoders_pad_a[i]) << 0) | (readPin(encoders_pad_b[i]) << 1);
 190              		.loc 1 133 26 view .LVU44
 191 0018 1178     		ldrb	r1, [r2]	@ zero_extendqisi2
 192              		.loc 1 134 26 view .LVU45
 193 001a 43EA8103 		orr	r3, r3, r1, lsl #2
 194 001e DBB2     		uxtb	r3, r3
 195 0020 1370     		strb	r3, [r2]
 135:quantum/encoder.c ****         changed |= encoder_update(i, encoder_state[i]);
 196              		.loc 1 135 9 is_stmt 1 view .LVU46
 197              	.LVL9:
 198              	.LBB12:
 199              	.LBI8:
  97:quantum/encoder.c ****     bool    changed = false;
 200              		.loc 1 97 13 view .LVU47
 201              	.LBB10:
  98:quantum/encoder.c ****     uint8_t i       = index;
 202              		.loc 1 98 5 view .LVU48
  99:quantum/encoder.c **** 
 203              		.loc 1 99 5 view .LVU49
 104:quantum/encoder.c **** #endif
 204              		.loc 1 104 5 view .LVU50
 110:quantum/encoder.c ****     if (encoder_pulses[i] >= resolution) {
 205              		.loc 1 110 5 view .LVU51
 110:quantum/encoder.c ****     if (encoder_pulses[i] >= resolution) {
 206              		.loc 1 110 23 is_stmt 0 view .LVU52
 207 0022 194A     		ldr	r2, .L10+12
 110:quantum/encoder.c ****     if (encoder_pulses[i] >= resolution) {
 208              		.loc 1 110 44 view .LVU53
 209 0024 03F00F03 		and	r3, r3, #15
 210              	.LVL10:
 110:quantum/encoder.c ****     if (encoder_pulses[i] >= resolution) {
 211              		.loc 1 110 23 view .LVU54
 212 0028 D35C     		ldrb	r3, [r2, r3]	@ zero_extendqisi2
 213 002a 2278     		ldrb	r2, [r4]	@ zero_extendqisi2
 214 002c 1344     		add	r3, r3, r2
 215 002e 5BB2     		sxtb	r3, r3
 111:quantum/encoder.c ****         encoder_value[index]++;
 216              		.loc 1 111 8 view .LVU55
 217 0030 032B     		cmp	r3, #3
 110:quantum/encoder.c ****     if (encoder_pulses[i] >= resolution) {
 218              		.loc 1 110 23 view .LVU56
 219 0032 2370     		strb	r3, [r4]
 111:quantum/encoder.c ****         encoder_value[index]++;
 220              		.loc 1 111 5 is_stmt 1 view .LVU57
 111:quantum/encoder.c ****         encoder_value[index]++;
 221              		.loc 1 111 8 is_stmt 0 view .LVU58
 222 0034 20DD     		ble	.L9
 112:quantum/encoder.c ****         changed = true;
 223              		.loc 1 112 9 is_stmt 1 view .LVU59
 112:quantum/encoder.c ****         changed = true;
 224              		.loc 1 112 29 is_stmt 0 view .LVU60
 225 0036 154A     		ldr	r2, .L10+16
 226 0038 1378     		ldrb	r3, [r2]	@ zero_extendqisi2
 114:quantum/encoder.c ****     }
 227              		.loc 1 114 9 view .LVU61
 228 003a 0021     		movs	r1, #0
 112:quantum/encoder.c ****         changed = true;
 229              		.loc 1 112 29 view .LVU62
 230 003c 0133     		adds	r3, r3, #1
 114:quantum/encoder.c ****     }
 231              		.loc 1 114 9 view .LVU63
 232 003e 0846     		mov	r0, r1
 112:quantum/encoder.c ****         changed = true;
 233              		.loc 1 112 29 view .LVU64
 234 0040 1370     		strb	r3, [r2]
 113:quantum/encoder.c ****         encoder_update_kb(index, ENCODER_COUNTER_CLOCKWISE);
 235              		.loc 1 113 9 is_stmt 1 view .LVU65
 236              	.LVL11:
 114:quantum/encoder.c ****     }
 237              		.loc 1 114 9 view .LVU66
 238 0042 FFF7FEFF 		bl	encoder_update_kb
 239              	.LVL12:
 113:quantum/encoder.c ****         encoder_update_kb(index, ENCODER_COUNTER_CLOCKWISE);
 240              		.loc 1 113 17 is_stmt 0 view .LVU67
 241 0046 0120     		movs	r0, #1
 242              	.LVL13:
 243              	.L7:
 116:quantum/encoder.c ****         encoder_value[index]--;
 244              		.loc 1 116 5 is_stmt 1 view .LVU68
 116:quantum/encoder.c ****         encoder_value[index]--;
 245              		.loc 1 116 8 is_stmt 0 view .LVU69
 246 0048 94F90030 		ldrsb	r3, [r4]
 247 004c 0333     		adds	r3, r3, #3
 248 004e 08DA     		bge	.L8
 117:quantum/encoder.c ****         changed = true;
 249              		.loc 1 117 9 is_stmt 1 view .LVU70
 117:quantum/encoder.c ****         changed = true;
 250              		.loc 1 117 29 is_stmt 0 view .LVU71
 251 0050 0E4A     		ldr	r2, .L10+16
 252 0052 1378     		ldrb	r3, [r2]	@ zero_extendqisi2
 119:quantum/encoder.c ****     }
 253              		.loc 1 119 9 view .LVU72
 254 0054 0121     		movs	r1, #1
 117:quantum/encoder.c ****         changed = true;
 255              		.loc 1 117 29 view .LVU73
 256 0056 013B     		subs	r3, r3, #1
 119:quantum/encoder.c ****     }
 257              		.loc 1 119 9 view .LVU74
 258 0058 0020     		movs	r0, #0
 259              	.LVL14:
 117:quantum/encoder.c ****         changed = true;
 260              		.loc 1 117 29 view .LVU75
 261 005a 1370     		strb	r3, [r2]
 118:quantum/encoder.c ****         encoder_update_kb(index, ENCODER_CLOCKWISE);
 262              		.loc 1 118 9 is_stmt 1 view .LVU76
 263              	.LVL15:
 119:quantum/encoder.c ****     }
 264              		.loc 1 119 9 view .LVU77
 265 005c FFF7FEFF 		bl	encoder_update_kb
 266              	.LVL16:
 118:quantum/encoder.c ****         encoder_update_kb(index, ENCODER_CLOCKWISE);
 267              		.loc 1 118 17 is_stmt 0 view .LVU78
 268 0060 0120     		movs	r0, #1
 269              	.LVL17:
 270              	.L8:
 121:quantum/encoder.c **** #ifdef ENCODER_DEFAULT_POS
 271              		.loc 1 121 5 is_stmt 1 view .LVU79
 121:quantum/encoder.c **** #ifdef ENCODER_DEFAULT_POS
 272              		.loc 1 121 19 is_stmt 0 view .LVU80
 273 0062 94F90030 		ldrsb	r3, [r4]
 121:quantum/encoder.c **** #ifdef ENCODER_DEFAULT_POS
 274              		.loc 1 121 23 view .LVU81
 275 0066 5A42     		rsbs	r2, r3, #0
 276 0068 02F00302 		and	r2, r2, #3
 277 006c 03F00303 		and	r3, r3, #3
 278 0070 58BF     		it	pl
 279 0072 5342     		rsbpl	r3, r2, #0
 280 0074 2370     		strb	r3, [r4]
 127:quantum/encoder.c **** }
 281              		.loc 1 127 5 is_stmt 1 view .LVU82
 282              	.LVL18:
 127:quantum/encoder.c **** }
 283              		.loc 1 127 5 is_stmt 0 view .LVU83
 284              	.LBE10:
 285              	.LBE12:
 132:quantum/encoder.c ****         encoder_state[i] <<= 2;
 286              		.loc 1 132 50 is_stmt 1 view .LVU84
 132:quantum/encoder.c ****         encoder_state[i] <<= 2;
 287              		.loc 1 132 27 view .LVU85
 288              	.LBE14:
 136:quantum/encoder.c ****     }
 137:quantum/encoder.c ****     return changed;
 289              		.loc 1 137 5 view .LVU86
 138:quantum/encoder.c **** }
 290              		.loc 1 138 1 is_stmt 0 view .LVU87
 291 0076 10BD     		pop	{r4, pc}
 292              	.LVL19:
 293              	.L9:
 294              	.LBB15:
 295              	.LBB13:
 296              	.LBB11:
  98:quantum/encoder.c ****     uint8_t i       = index;
 297              		.loc 1 98 13 view .LVU88
 298 0078 0020     		movs	r0, #0
 299 007a E5E7     		b	.L7
 300              	.L11:
 301              		.align	2
 302              	.L10:
 303 007c 00040048 		.word	1207960576
 304 0080 00000000 		.word	encoder_state
 305 0084 00000000 		.word	encoder_pulses
 306 0088 00000000 		.word	encoder_LUT
 307 008c 00000000 		.word	encoder_value
 308              	.LBE11:
 309              	.LBE13:
 310              	.LBE15:
 311              		.cfi_endproc
 312              	.LFE345:
 314              		.section	.bss.encoder_value,"aw",%nobits
 317              	encoder_value:
 318 0000 00       		.space	1
 319              		.section	.bss.encoder_pulses,"aw",%nobits
 322              	encoder_pulses:
 323 0000 00       		.space	1
 324              		.section	.bss.encoder_state,"aw",%nobits
 327              	encoder_state:
 328 0000 00       		.space	1
 329              		.section	.rodata.encoder_LUT,"a"
 332              	encoder_LUT:
 333 0000 00FF0100 		.ascii	"\000\377\001\000\001\000\000\377\377\000\000\001\000"
 333      010000FF 
 333      FF000001 
 333      00
 334 000d 01FF00   		.ascii	"\001\377\000"
 335              		.text
 336              	.Letext0:
 337              		.file 2 "/usr/lib/gcc/arm-none-eabi/12.2.0/include/stddef.h"
 338              		.file 3 "/usr/arm-none-eabi/include/machine/_default_types.h"
 339              		.file 4 "/usr/arm-none-eabi/include/sys/_stdint.h"
 340              		.file 5 "./lib/chibios/os/hal/ports/STM32/LLD/GPIOv2/stm32_gpio.h"
 341              		.file 6 "./lib/chibios/os/hal/ports/STM32/LLD/GPIOv2/hal_pal_lld.h"
 342              		.file 7 "tmk_core/common/chibios/gpio.h"
 343              		.file 8 "quantum/sequencer/sequencer.h"