   1              		.cpu cortex-m4
   2              		.arch armv7e-m
   3              		.fpu fpv4-sp-d16
   4              		.eabi_attribute 27, 1
   5              		.eabi_attribute 28, 1
   6              		.eabi_attribute 20, 1
   7              		.eabi_attribute 21, 1
   8              		.eabi_attribute 23, 3
   9              		.eabi_attribute 24, 1
  10              		.eabi_attribute 25, 1
  11              		.eabi_attribute 26, 1
  12              		.eabi_attribute 30, 4
  13              		.eabi_attribute 34, 1
  14              		.eabi_attribute 18, 2
  15              		.file	"process_magic.c"
  16              		.text
  17              	.Ltext0:
  18              		.cfi_sections	.debug_frame
  19              		.file 1 "quantum/process_keycode/process_magic.c"
  20              		.section	.text.process_magic,"ax",%progbits
  21              		.align	1
  22              		.global	process_magic
  23              		.syntax unified
  24              		.thumb
  25              		.thumb_func
  27              	process_magic:
  28              	.LVL0:
  29              	.LFB341:
   1:quantum/process_keycode/process_magic.c **** /* Copyright 2019 Jack Humbert
   2:quantum/process_keycode/process_magic.c ****  *
   3:quantum/process_keycode/process_magic.c ****  * This program is free software: you can redistribute it and/or modify
   4:quantum/process_keycode/process_magic.c ****  * it under the terms of the GNU General Public License as published by
   5:quantum/process_keycode/process_magic.c ****  * the Free Software Foundation, either version 2 of the License, or
   6:quantum/process_keycode/process_magic.c ****  * (at your option) any later version.
   7:quantum/process_keycode/process_magic.c ****  *
   8:quantum/process_keycode/process_magic.c ****  * This program is distributed in the hope that it will be useful,
   9:quantum/process_keycode/process_magic.c ****  * but WITHOUT ANY WARRANTY; without even the implied warranty of
  10:quantum/process_keycode/process_magic.c ****  * MERCHANTABILITY or FITNESS FOR A PARTICULAR PURPOSE.  See the
  11:quantum/process_keycode/process_magic.c ****  * GNU General Public License for more details.
  12:quantum/process_keycode/process_magic.c ****  *
  13:quantum/process_keycode/process_magic.c ****  * You should have received a copy of the GNU General Public License
  14:quantum/process_keycode/process_magic.c ****  * along with this program.  If not, see <http://www.gnu.org/licenses/>.
  15:quantum/process_keycode/process_magic.c ****  */
  16:quantum/process_keycode/process_magic.c **** #include "process_magic.h"
  17:quantum/process_keycode/process_magic.c **** 
  18:quantum/process_keycode/process_magic.c **** #ifdef AUDIO_ENABLE
  19:quantum/process_keycode/process_magic.c **** #    ifndef AG_NORM_SONG
  20:quantum/process_keycode/process_magic.c **** #        define AG_NORM_SONG SONG(AG_NORM_SOUND)
  21:quantum/process_keycode/process_magic.c **** #    endif
  22:quantum/process_keycode/process_magic.c **** #    ifndef AG_SWAP_SONG
  23:quantum/process_keycode/process_magic.c **** #        define AG_SWAP_SONG SONG(AG_SWAP_SOUND)
  24:quantum/process_keycode/process_magic.c **** #    endif
  25:quantum/process_keycode/process_magic.c **** #    ifndef CG_NORM_SONG
  26:quantum/process_keycode/process_magic.c **** #        define CG_NORM_SONG SONG(AG_NORM_SOUND)
  27:quantum/process_keycode/process_magic.c **** #    endif
  28:quantum/process_keycode/process_magic.c **** #    ifndef CG_SWAP_SONG
  29:quantum/process_keycode/process_magic.c **** #        define CG_SWAP_SONG SONG(AG_SWAP_SOUND)
  30:quantum/process_keycode/process_magic.c **** #    endif
  31:quantum/process_keycode/process_magic.c **** float ag_norm_song[][2] = AG_NORM_SONG;
  32:quantum/process_keycode/process_magic.c **** float ag_swap_song[][2] = AG_SWAP_SONG;
  33:quantum/process_keycode/process_magic.c **** float cg_norm_song[][2] = CG_NORM_SONG;
  34:quantum/process_keycode/process_magic.c **** float cg_swap_song[][2] = CG_SWAP_SONG;
  35:quantum/process_keycode/process_magic.c **** #endif
  36:quantum/process_keycode/process_magic.c **** 
  37:quantum/process_keycode/process_magic.c **** /**
  38:quantum/process_keycode/process_magic.c ****  * MAGIC actions (BOOTMAGIC without the boot)
  39:quantum/process_keycode/process_magic.c ****  */
  40:quantum/process_keycode/process_magic.c **** bool process_magic(uint16_t keycode, keyrecord_t *record) {
  30              		.loc 1 40 59 view -0
  31              		.cfi_startproc
  32              		@ args = 0, pretend = 0, frame = 0
  33              		@ frame_needed = 0, uses_anonymous_args = 0
  41:quantum/process_keycode/process_magic.c ****     // skip anything that isn't a keyup
  42:quantum/process_keycode/process_magic.c ****     if (record->event.pressed) {
  34              		.loc 1 42 5 view .LVU1
  40:quantum/process_keycode/process_magic.c ****     // skip anything that isn't a keyup
  35              		.loc 1 40 59 is_stmt 0 view .LVU2
  36 0000 38B5     		push	{r3, r4, r5, lr}
  37              		.cfi_def_cfa_offset 16
  38              		.cfi_offset 3, -16
  39              		.cfi_offset 4, -12
  40              		.cfi_offset 5, -8
  41              		.cfi_offset 14, -4
  40:quantum/process_keycode/process_magic.c ****     // skip anything that isn't a keyup
  42              		.loc 1 40 59 view .LVU3
  43 0002 0446     		mov	r4, r0
  44              		.loc 1 42 22 view .LVU4
  45 0004 8878     		ldrb	r0, [r1, #2]	@ zero_extendqisi2
  46              	.LVL1:
  47              		.loc 1 42 8 view .LVU5
  48 0006 0028     		cmp	r0, #0
  49 0008 00F0F380 		beq	.L40
  43:quantum/process_keycode/process_magic.c ****         switch (keycode) {
  50              		.loc 1 43 9 is_stmt 1 view .LVU6
  51 000c 45F60353 		movw	r3, #23811
  52 0010 9C42     		cmp	r4, r3
  53 0012 2FD8     		bhi	.L3
  54 0014 45F6FA43 		movw	r3, #23802
  55 0018 9C42     		cmp	r4, r3
  56 001a 12D9     		bls	.L4
  44:quantum/process_keycode/process_magic.c ****             case MAGIC_SWAP_CONTROL_CAPSLOCK ... MAGIC_TOGGLE_ALT_GUI:
  45:quantum/process_keycode/process_magic.c ****             case MAGIC_SWAP_LCTL_LGUI ... MAGIC_EE_HANDS_RIGHT:
  46:quantum/process_keycode/process_magic.c ****             case MAGIC_TOGGLE_GUI:
  47:quantum/process_keycode/process_magic.c ****                 /* keymap config */
  48:quantum/process_keycode/process_magic.c ****                 keymap_config.raw = eeconfig_read_keymap();
  57              		.loc 1 48 17 view .LVU7
  58              		.loc 1 48 37 is_stmt 0 view .LVU8
  59 001c FFF7FEFF 		bl	eeconfig_read_keymap
  60              	.LVL2:
  61              		.loc 1 48 37 view .LVU9
  62 0020 A4F5B944 		sub	r4, r4, #23680
  63              		.loc 1 48 35 view .LVU10
  64 0024 744B     		ldr	r3, .L49
  65 0026 7C3C     		subs	r4, r4, #124
  66 0028 1880     		strh	r0, [r3]	@ movhi
  49:quantum/process_keycode/process_magic.c ****                 switch (keycode) {
  67              		.loc 1 49 17 is_stmt 1 view .LVU11
  68 002a 072C     		cmp	r4, #7
  69 002c 4AD8     		bhi	.L5
  70 002e DFE814F0 		tbh	[pc, r4, lsl #1]
  71              	.L7:
  72 0032 4E00     		.2byte	(.L14-.L7)/2
  73 0034 8A00     		.2byte	(.L13-.L7)/2
  74 0036 8E00     		.2byte	(.L12-.L7)/2
  75 0038 7000     		.2byte	(.L11-.L7)/2
  76 003a AC00     		.2byte	(.L10-.L7)/2
  77 003c C300     		.2byte	(.L9-.L7)/2
  78 003e DA00     		.2byte	(.L8-.L7)/2
  79 0040 DE00     		.2byte	(.L6-.L7)/2
  80              	.LVL3:
  81              		.p2align 1
  82              	.L4:
  43:quantum/process_keycode/process_magic.c ****         switch (keycode) {
  83              		.loc 1 43 9 is_stmt 0 view .LVU12
  84 0042 A4F5B845 		sub	r5, r4, #23552
  85 0046 AB1E     		subs	r3, r5, #2
  86 0048 9BB2     		uxth	r3, r3
  87 004a 132B     		cmp	r3, #19
  88 004c 28D8     		bhi	.L2
  48:quantum/process_keycode/process_magic.c ****                 switch (keycode) {
  89              		.loc 1 48 17 is_stmt 1 view .LVU13
  48:quantum/process_keycode/process_magic.c ****                 switch (keycode) {
  90              		.loc 1 48 37 is_stmt 0 view .LVU14
  91 004e FFF7FEFF 		bl	eeconfig_read_keymap
  92              	.LVL4:
  48:quantum/process_keycode/process_magic.c ****                 switch (keycode) {
  93              		.loc 1 48 35 view .LVU15
  94 0052 694C     		ldr	r4, .L49
  95 0054 033D     		subs	r5, r5, #3
  96 0056 2080     		strh	r0, [r4]	@ movhi
  97              		.loc 1 49 17 is_stmt 1 view .LVU16
  98 0058 122D     		cmp	r5, #18
  99 005a 22D8     		bhi	.L17
 100 005c DFE805F0 		tbb	[pc, r5]
 101              	.L19:
 102 0060 26       		.byte	(.L37-.L19)/2
 103 0061 2A       		.byte	(.L36-.L19)/2
 104 0062 2E       		.byte	(.L35-.L19)/2
 105 0063 3B       		.byte	(.L34-.L19)/2
 106 0064 3F       		.byte	(.L33-.L19)/2
 107 0065 43       		.byte	(.L32-.L19)/2
 108 0066 47       		.byte	(.L31-.L19)/2
 109 0067 4D       		.byte	(.L30-.L19)/2
 110 0068 63       		.byte	(.L29-.L19)/2
 111 0069 67       		.byte	(.L28-.L19)/2
 112 006a 6B       		.byte	(.L27-.L19)/2
 113 006b 6F       		.byte	(.L26-.L19)/2
 114 006c 7B       		.byte	(.L25-.L19)/2
 115 006d 7F       		.byte	(.L24-.L19)/2
 116 006e 83       		.byte	(.L23-.L19)/2
 117 006f 87       		.byte	(.L22-.L19)/2
 118 0070 8D       		.byte	(.L21-.L19)/2
 119 0071 B9       		.byte	(.L20-.L19)/2
 120 0072 9D       		.byte	(.L18-.L19)/2
 121              	.LVL5:
 122 0073 00       		.p2align 1
 123              	.L3:
  43:quantum/process_keycode/process_magic.c ****             case MAGIC_SWAP_CONTROL_CAPSLOCK ... MAGIC_TOGGLE_ALT_GUI:
 124              		.loc 1 43 9 is_stmt 0 view .LVU17
 125 0074 45F66253 		movw	r3, #23906
 126 0078 9C42     		cmp	r4, r3
 127 007a 11D1     		bne	.L2
  48:quantum/process_keycode/process_magic.c ****                 switch (keycode) {
 128              		.loc 1 48 17 is_stmt 1 view .LVU18
  48:quantum/process_keycode/process_magic.c ****                 switch (keycode) {
 129              		.loc 1 48 37 is_stmt 0 view .LVU19
 130 007c FFF7FEFF 		bl	eeconfig_read_keymap
 131              	.LVL6:
  48:quantum/process_keycode/process_magic.c ****                 switch (keycode) {
 132              		.loc 1 48 35 view .LVU20
 133 0080 5D4A     		ldr	r2, .L49
  50:quantum/process_keycode/process_magic.c ****                     case MAGIC_SWAP_CONTROL_CAPSLOCK:
  51:quantum/process_keycode/process_magic.c ****                         keymap_config.swap_control_capslock = true;
  52:quantum/process_keycode/process_magic.c ****                         break;
  53:quantum/process_keycode/process_magic.c ****                     case MAGIC_CAPSLOCK_TO_CONTROL:
  54:quantum/process_keycode/process_magic.c ****                         keymap_config.capslock_to_control = true;
  55:quantum/process_keycode/process_magic.c ****                         break;
  56:quantum/process_keycode/process_magic.c ****                     case MAGIC_SWAP_LALT_LGUI:
  57:quantum/process_keycode/process_magic.c ****                         keymap_config.swap_lalt_lgui = true;
  58:quantum/process_keycode/process_magic.c ****                         break;
  59:quantum/process_keycode/process_magic.c ****                     case MAGIC_SWAP_RALT_RGUI:
  60:quantum/process_keycode/process_magic.c ****                         keymap_config.swap_ralt_rgui = true;
  61:quantum/process_keycode/process_magic.c ****                         break;
  62:quantum/process_keycode/process_magic.c ****                     case MAGIC_SWAP_LCTL_LGUI:
  63:quantum/process_keycode/process_magic.c ****                         keymap_config.swap_lctl_lgui = true;
  64:quantum/process_keycode/process_magic.c ****                         break;
  65:quantum/process_keycode/process_magic.c ****                     case MAGIC_SWAP_RCTL_RGUI:
  66:quantum/process_keycode/process_magic.c ****                         keymap_config.swap_rctl_rgui = true;
  67:quantum/process_keycode/process_magic.c ****                         break;
  68:quantum/process_keycode/process_magic.c ****                     case MAGIC_NO_GUI:
  69:quantum/process_keycode/process_magic.c ****                         keymap_config.no_gui = true;
  70:quantum/process_keycode/process_magic.c ****                         break;
  71:quantum/process_keycode/process_magic.c ****                     case MAGIC_SWAP_GRAVE_ESC:
  72:quantum/process_keycode/process_magic.c ****                         keymap_config.swap_grave_esc = true;
  73:quantum/process_keycode/process_magic.c ****                         break;
  74:quantum/process_keycode/process_magic.c ****                     case MAGIC_SWAP_BACKSLASH_BACKSPACE:
  75:quantum/process_keycode/process_magic.c ****                         keymap_config.swap_backslash_backspace = true;
  76:quantum/process_keycode/process_magic.c ****                         break;
  77:quantum/process_keycode/process_magic.c ****                     case MAGIC_HOST_NKRO:
  78:quantum/process_keycode/process_magic.c ****                         clear_keyboard();  // clear first buffer to prevent stuck keys
  79:quantum/process_keycode/process_magic.c ****                         keymap_config.nkro = true;
  80:quantum/process_keycode/process_magic.c ****                         break;
  81:quantum/process_keycode/process_magic.c ****                     case MAGIC_SWAP_ALT_GUI:
  82:quantum/process_keycode/process_magic.c ****                         keymap_config.swap_lalt_lgui = keymap_config.swap_ralt_rgui = true;
  83:quantum/process_keycode/process_magic.c **** #ifdef AUDIO_ENABLE
  84:quantum/process_keycode/process_magic.c ****                         PLAY_SONG(ag_swap_song);
  85:quantum/process_keycode/process_magic.c **** #endif
  86:quantum/process_keycode/process_magic.c ****                         break;
  87:quantum/process_keycode/process_magic.c ****                     case MAGIC_SWAP_CTL_GUI:
  88:quantum/process_keycode/process_magic.c ****                         keymap_config.swap_lctl_lgui = keymap_config.swap_rctl_rgui = true;
  89:quantum/process_keycode/process_magic.c **** #ifdef AUDIO_ENABLE
  90:quantum/process_keycode/process_magic.c ****                         PLAY_SONG(cg_swap_song);
  91:quantum/process_keycode/process_magic.c **** #endif
  92:quantum/process_keycode/process_magic.c ****                         break;
  93:quantum/process_keycode/process_magic.c ****                     case MAGIC_UNSWAP_CONTROL_CAPSLOCK:
  94:quantum/process_keycode/process_magic.c ****                         keymap_config.swap_control_capslock = false;
  95:quantum/process_keycode/process_magic.c ****                         break;
  96:quantum/process_keycode/process_magic.c ****                     case MAGIC_UNCAPSLOCK_TO_CONTROL:
  97:quantum/process_keycode/process_magic.c ****                         keymap_config.capslock_to_control = false;
  98:quantum/process_keycode/process_magic.c ****                         break;
  99:quantum/process_keycode/process_magic.c ****                     case MAGIC_UNSWAP_LALT_LGUI:
 100:quantum/process_keycode/process_magic.c ****                         keymap_config.swap_lalt_lgui = false;
 101:quantum/process_keycode/process_magic.c ****                         break;
 102:quantum/process_keycode/process_magic.c ****                     case MAGIC_UNSWAP_RALT_RGUI:
 103:quantum/process_keycode/process_magic.c ****                         keymap_config.swap_ralt_rgui = false;
 104:quantum/process_keycode/process_magic.c ****                         break;
 105:quantum/process_keycode/process_magic.c ****                     case MAGIC_UNSWAP_LCTL_LGUI:
 106:quantum/process_keycode/process_magic.c ****                         keymap_config.swap_lctl_lgui = false;
 107:quantum/process_keycode/process_magic.c ****                         break;
 108:quantum/process_keycode/process_magic.c ****                     case MAGIC_UNSWAP_RCTL_RGUI:
 109:quantum/process_keycode/process_magic.c ****                         keymap_config.swap_rctl_rgui = false;
 110:quantum/process_keycode/process_magic.c ****                         break;
 111:quantum/process_keycode/process_magic.c ****                     case MAGIC_UNNO_GUI:
 112:quantum/process_keycode/process_magic.c ****                         keymap_config.no_gui = false;
 113:quantum/process_keycode/process_magic.c ****                         break;
 114:quantum/process_keycode/process_magic.c ****                     case MAGIC_UNSWAP_GRAVE_ESC:
 115:quantum/process_keycode/process_magic.c ****                         keymap_config.swap_grave_esc = false;
 116:quantum/process_keycode/process_magic.c ****                         break;
 117:quantum/process_keycode/process_magic.c ****                     case MAGIC_UNSWAP_BACKSLASH_BACKSPACE:
 118:quantum/process_keycode/process_magic.c ****                         keymap_config.swap_backslash_backspace = false;
 119:quantum/process_keycode/process_magic.c ****                         break;
 120:quantum/process_keycode/process_magic.c ****                     case MAGIC_UNHOST_NKRO:
 121:quantum/process_keycode/process_magic.c ****                         clear_keyboard();  // clear first buffer to prevent stuck keys
 122:quantum/process_keycode/process_magic.c ****                         keymap_config.nkro = false;
 123:quantum/process_keycode/process_magic.c ****                         break;
 124:quantum/process_keycode/process_magic.c ****                     case MAGIC_UNSWAP_ALT_GUI:
 125:quantum/process_keycode/process_magic.c ****                         keymap_config.swap_lalt_lgui = keymap_config.swap_ralt_rgui = false;
 126:quantum/process_keycode/process_magic.c **** #ifdef AUDIO_ENABLE
 127:quantum/process_keycode/process_magic.c ****                         PLAY_SONG(ag_norm_song);
 128:quantum/process_keycode/process_magic.c **** #endif
 129:quantum/process_keycode/process_magic.c ****                         break;
 130:quantum/process_keycode/process_magic.c ****                     case MAGIC_UNSWAP_CTL_GUI:
 131:quantum/process_keycode/process_magic.c ****                         keymap_config.swap_lctl_lgui = keymap_config.swap_rctl_rgui = false;
 132:quantum/process_keycode/process_magic.c **** #ifdef AUDIO_ENABLE
 133:quantum/process_keycode/process_magic.c ****                         PLAY_SONG(cg_norm_song);
 134:quantum/process_keycode/process_magic.c **** #endif
 135:quantum/process_keycode/process_magic.c ****                         break;
 136:quantum/process_keycode/process_magic.c ****                     case MAGIC_TOGGLE_ALT_GUI:
 137:quantum/process_keycode/process_magic.c ****                         keymap_config.swap_lalt_lgui = !keymap_config.swap_lalt_lgui;
 138:quantum/process_keycode/process_magic.c ****                         keymap_config.swap_ralt_rgui = keymap_config.swap_lalt_lgui;
 139:quantum/process_keycode/process_magic.c **** #ifdef AUDIO_ENABLE
 140:quantum/process_keycode/process_magic.c ****                         if (keymap_config.swap_ralt_rgui) {
 141:quantum/process_keycode/process_magic.c ****                             PLAY_SONG(ag_swap_song);
 142:quantum/process_keycode/process_magic.c ****                         } else {
 143:quantum/process_keycode/process_magic.c ****                             PLAY_SONG(ag_norm_song);
 144:quantum/process_keycode/process_magic.c ****                         }
 145:quantum/process_keycode/process_magic.c **** #endif
 146:quantum/process_keycode/process_magic.c ****                         break;
 147:quantum/process_keycode/process_magic.c ****                     case MAGIC_TOGGLE_CTL_GUI:
 148:quantum/process_keycode/process_magic.c ****                         keymap_config.swap_lctl_lgui = !keymap_config.swap_lctl_lgui;
 149:quantum/process_keycode/process_magic.c ****                         keymap_config.swap_rctl_rgui = keymap_config.swap_lctl_lgui;
 150:quantum/process_keycode/process_magic.c **** #ifdef AUDIO_ENABLE
 151:quantum/process_keycode/process_magic.c ****                         if (keymap_config.swap_rctl_rgui) {
 152:quantum/process_keycode/process_magic.c ****                             PLAY_SONG(cg_swap_song);
 153:quantum/process_keycode/process_magic.c ****                         } else {
 154:quantum/process_keycode/process_magic.c ****                             PLAY_SONG(cg_norm_song);
 155:quantum/process_keycode/process_magic.c ****                         }
 156:quantum/process_keycode/process_magic.c **** #endif
 157:quantum/process_keycode/process_magic.c ****                         break;
 158:quantum/process_keycode/process_magic.c ****                     case MAGIC_TOGGLE_NKRO:
 159:quantum/process_keycode/process_magic.c ****                         clear_keyboard();  // clear first buffer to prevent stuck keys
 160:quantum/process_keycode/process_magic.c ****                         keymap_config.nkro = !keymap_config.nkro;
 161:quantum/process_keycode/process_magic.c ****                         break;
 162:quantum/process_keycode/process_magic.c ****                     case MAGIC_EE_HANDS_LEFT:
 163:quantum/process_keycode/process_magic.c ****                         eeconfig_update_handedness(true);
 164:quantum/process_keycode/process_magic.c ****                         break;
 165:quantum/process_keycode/process_magic.c ****                     case MAGIC_EE_HANDS_RIGHT:
 166:quantum/process_keycode/process_magic.c ****                         eeconfig_update_handedness(false);
 167:quantum/process_keycode/process_magic.c ****                         break;
 168:quantum/process_keycode/process_magic.c ****                     case MAGIC_TOGGLE_GUI:
 169:quantum/process_keycode/process_magic.c ****                         keymap_config.no_gui = !keymap_config.no_gui;
 134              		.loc 1 169 62 view .LVU21
 135 0082 C0F30013 		ubfx	r3, r0, #4, #1
 136              		.loc 1 169 25 view .LVU22
 137 0086 83F00103 		eor	r3, r3, #1
  48:quantum/process_keycode/process_magic.c ****                 switch (keycode) {
 138              		.loc 1 48 35 view .LVU23
 139 008a 1080     		strh	r0, [r2]	@ movhi
  49:quantum/process_keycode/process_magic.c ****                     case MAGIC_SWAP_CONTROL_CAPSLOCK:
 140              		.loc 1 49 17 is_stmt 1 view .LVU24
 141              		.loc 1 169 25 view .LVU25
 142              		.loc 1 169 46 is_stmt 0 view .LVU26
 143 008c 63F30410 		bfi	r0, r3, #4, #1
 144 0090 1070     		strb	r0, [r2]
 170:quantum/process_keycode/process_magic.c ****                         break;
 145              		.loc 1 170 25 is_stmt 1 view .LVU27
 146              	.L16:
 171:quantum/process_keycode/process_magic.c ****                 }
 172:quantum/process_keycode/process_magic.c **** 
 173:quantum/process_keycode/process_magic.c ****                 eeconfig_update_keymap(keymap_config.raw);
 147              		.loc 1 173 17 view .LVU28
 148 0092 594B     		ldr	r3, .L49
 149 0094 1888     		ldrh	r0, [r3]
 150 0096 FFF7FEFF 		bl	eeconfig_update_keymap
 151              	.LVL7:
 174:quantum/process_keycode/process_magic.c ****                 clear_keyboard();  // clear to prevent stuck keys
 152              		.loc 1 174 17 view .LVU29
 153 009a FFF7FEFF 		bl	clear_keyboard
 154              	.LVL8:
 175:quantum/process_keycode/process_magic.c **** 
 176:quantum/process_keycode/process_magic.c ****                 return false;
 155              		.loc 1 176 17 view .LVU30
 156              		.loc 1 176 24 is_stmt 0 view .LVU31
 157 009e 0020     		movs	r0, #0
 158              	.L2:
 177:quantum/process_keycode/process_magic.c ****         }
 178:quantum/process_keycode/process_magic.c ****     }
 179:quantum/process_keycode/process_magic.c **** 
 180:quantum/process_keycode/process_magic.c ****     // Not a magic keycode so continue processing
 181:quantum/process_keycode/process_magic.c ****     return true;
 182:quantum/process_keycode/process_magic.c **** }
 159              		.loc 1 182 1 view .LVU32
 160 00a0 38BD     		pop	{r3, r4, r5, pc}
 161              	.L17:
  51:quantum/process_keycode/process_magic.c ****                         break;
 162              		.loc 1 51 25 is_stmt 1 view .LVU33
  51:quantum/process_keycode/process_magic.c ****                         break;
 163              		.loc 1 51 61 is_stmt 0 view .LVU34
 164 00a2 2378     		ldrb	r3, [r4]	@ zero_extendqisi2
 165 00a4 43F00103 		orr	r3, r3, #1
 166              	.L45:
  54:quantum/process_keycode/process_magic.c ****                         break;
 167              		.loc 1 54 59 view .LVU35
 168 00a8 2370     		strb	r3, [r4]
  55:quantum/process_keycode/process_magic.c ****                     case MAGIC_SWAP_LALT_LGUI:
 169              		.loc 1 55 25 is_stmt 1 view .LVU36
 170 00aa F2E7     		b	.L16
 171              	.L37:
  54:quantum/process_keycode/process_magic.c ****                         break;
 172              		.loc 1 54 25 view .LVU37
  54:quantum/process_keycode/process_magic.c ****                         break;
 173              		.loc 1 54 59 is_stmt 0 view .LVU38
 174 00ac 2378     		ldrb	r3, [r4]	@ zero_extendqisi2
 175 00ae 43F00203 		orr	r3, r3, #2
 176 00b2 F9E7     		b	.L45
 177              	.L36:
  57:quantum/process_keycode/process_magic.c ****                         break;
 178              		.loc 1 57 25 is_stmt 1 view .LVU39
  57:quantum/process_keycode/process_magic.c ****                         break;
 179              		.loc 1 57 54 is_stmt 0 view .LVU40
 180 00b4 2378     		ldrb	r3, [r4]	@ zero_extendqisi2
 181 00b6 43F00403 		orr	r3, r3, #4
 182 00ba F5E7     		b	.L45
 183              	.L35:
  60:quantum/process_keycode/process_magic.c ****                         break;
 184              		.loc 1 60 25 is_stmt 1 view .LVU41
  60:quantum/process_keycode/process_magic.c ****                         break;
 185              		.loc 1 60 54 is_stmt 0 view .LVU42
 186 00bc 2378     		ldrb	r3, [r4]	@ zero_extendqisi2
 187 00be 43F00803 		orr	r3, r3, #8
 188 00c2 F1E7     		b	.L45
 189              	.L5:
  63:quantum/process_keycode/process_magic.c ****                         break;
 190              		.loc 1 63 25 is_stmt 1 view .LVU43
  63:quantum/process_keycode/process_magic.c ****                         break;
 191              		.loc 1 63 54 is_stmt 0 view .LVU44
 192 00c4 5A78     		ldrb	r2, [r3, #1]	@ zero_extendqisi2
 193 00c6 42F00102 		orr	r2, r2, #1
 194              	.L46:
 109:quantum/process_keycode/process_magic.c ****                         break;
 195              		.loc 1 109 54 view .LVU45
 196 00ca 5A70     		strb	r2, [r3, #1]
 110:quantum/process_keycode/process_magic.c ****                     case MAGIC_UNNO_GUI:
 197              		.loc 1 110 25 is_stmt 1 view .LVU46
 198 00cc E1E7     		b	.L16
 199              	.L14:
  66:quantum/process_keycode/process_magic.c ****                         break;
 200              		.loc 1 66 25 view .LVU47
  66:quantum/process_keycode/process_magic.c ****                         break;
 201              		.loc 1 66 54 is_stmt 0 view .LVU48
 202 00ce 5A78     		ldrb	r2, [r3, #1]	@ zero_extendqisi2
 203 00d0 42F00202 		orr	r2, r2, #2
 204 00d4 F9E7     		b	.L46
 205              	.L34:
  69:quantum/process_keycode/process_magic.c ****                         break;
 206              		.loc 1 69 25 is_stmt 1 view .LVU49
  69:quantum/process_keycode/process_magic.c ****                         break;
 207              		.loc 1 69 46 is_stmt 0 view .LVU50
 208 00d6 2378     		ldrb	r3, [r4]	@ zero_extendqisi2
 209 00d8 43F01003 		orr	r3, r3, #16
 210 00dc E4E7     		b	.L45
 211              	.L33:
  72:quantum/process_keycode/process_magic.c ****                         break;
 212              		.loc 1 72 25 is_stmt 1 view .LVU51
  72:quantum/process_keycode/process_magic.c ****                         break;
 213              		.loc 1 72 54 is_stmt 0 view .LVU52
 214 00de 2378     		ldrb	r3, [r4]	@ zero_extendqisi2
 215 00e0 43F02003 		orr	r3, r3, #32
 216 00e4 E0E7     		b	.L45
 217              	.L32:
  75:quantum/process_keycode/process_magic.c ****                         break;
 218              		.loc 1 75 25 is_stmt 1 view .LVU53
  75:quantum/process_keycode/process_magic.c ****                         break;
 219              		.loc 1 75 64 is_stmt 0 view .LVU54
 220 00e6 2378     		ldrb	r3, [r4]	@ zero_extendqisi2
 221 00e8 43F04003 		orr	r3, r3, #64
 222 00ec DCE7     		b	.L45
 223              	.L31:
  78:quantum/process_keycode/process_magic.c ****                         keymap_config.nkro = true;
 224              		.loc 1 78 25 is_stmt 1 view .LVU55
 225 00ee FFF7FEFF 		bl	clear_keyboard
 226              	.LVL9:
  79:quantum/process_keycode/process_magic.c ****                         break;
 227              		.loc 1 79 25 view .LVU56
  79:quantum/process_keycode/process_magic.c ****                         break;
 228              		.loc 1 79 44 is_stmt 0 view .LVU57
 229 00f2 2378     		ldrb	r3, [r4]	@ zero_extendqisi2
 230 00f4 43F08003 		orr	r3, r3, #128
 231 00f8 D6E7     		b	.L45
 232              	.L30:
  82:quantum/process_keycode/process_magic.c **** #ifdef AUDIO_ENABLE
 233              		.loc 1 82 25 is_stmt 1 view .LVU58
  82:quantum/process_keycode/process_magic.c **** #ifdef AUDIO_ENABLE
 234              		.loc 1 82 54 is_stmt 0 view .LVU59
 235 00fa 2378     		ldrb	r3, [r4]	@ zero_extendqisi2
 236 00fc 23F00C03 		bic	r3, r3, #12
 237 0100 43F00C03 		orr	r3, r3, #12
 238 0104 2370     		strb	r3, [r4]
  84:quantum/process_keycode/process_magic.c **** #endif
 239              		.loc 1 84 25 is_stmt 1 view .LVU60
 240              	.L47:
 141:quantum/process_keycode/process_magic.c ****                         } else {
 241              		.loc 1 141 29 view .LVU61
 242 0106 3D48     		ldr	r0, .L49+4
 243 0108 0022     		movs	r2, #0
 244 010a 0421     		movs	r1, #4
 245              	.L44:
 246 010c FFF7FEFF 		bl	audio_play_melody
 247              	.LVL10:
 248 0110 BFE7     		b	.L16
 249              	.L11:
  88:quantum/process_keycode/process_magic.c **** #ifdef AUDIO_ENABLE
 250              		.loc 1 88 25 view .LVU62
  88:quantum/process_keycode/process_magic.c **** #ifdef AUDIO_ENABLE
 251              		.loc 1 88 54 is_stmt 0 view .LVU63
 252 0112 5A78     		ldrb	r2, [r3, #1]	@ zero_extendqisi2
 253 0114 22F00302 		bic	r2, r2, #3
 254 0118 42F00302 		orr	r2, r2, #3
 255 011c 5A70     		strb	r2, [r3, #1]
  90:quantum/process_keycode/process_magic.c **** #endif
 256              		.loc 1 90 25 is_stmt 1 view .LVU64
 257              	.L48:
 152:quantum/process_keycode/process_magic.c ****                         } else {
 258              		.loc 1 152 29 view .LVU65
 259 011e 3848     		ldr	r0, .L49+8
 260 0120 0022     		movs	r2, #0
 261 0122 0421     		movs	r1, #4
 262 0124 F2E7     		b	.L44
 263              	.L29:
  94:quantum/process_keycode/process_magic.c ****                         break;
 264              		.loc 1 94 25 view .LVU66
  94:quantum/process_keycode/process_magic.c ****                         break;
 265              		.loc 1 94 61 is_stmt 0 view .LVU67
 266 0126 2378     		ldrb	r3, [r4]	@ zero_extendqisi2
 267 0128 6FF30003 		bfc	r3, #0, #1
 268 012c BCE7     		b	.L45
 269              	.L28:
  97:quantum/process_keycode/process_magic.c ****                         break;
 270              		.loc 1 97 25 is_stmt 1 view .LVU68
  97:quantum/process_keycode/process_magic.c ****                         break;
 271              		.loc 1 97 59 is_stmt 0 view .LVU69
 272 012e 2378     		ldrb	r3, [r4]	@ zero_extendqisi2
 273 0130 6FF34103 		bfc	r3, #1, #1
 274 0134 B8E7     		b	.L45
 275              	.L27:
 100:quantum/process_keycode/process_magic.c ****                         break;
 276              		.loc 1 100 25 is_stmt 1 view .LVU70
 100:quantum/process_keycode/process_magic.c ****                         break;
 277              		.loc 1 100 54 is_stmt 0 view .LVU71
 278 0136 2378     		ldrb	r3, [r4]	@ zero_extendqisi2
 279 0138 6FF38203 		bfc	r3, #2, #1
 280 013c B4E7     		b	.L45
 281              	.L26:
 103:quantum/process_keycode/process_magic.c ****                         break;
 282              		.loc 1 103 25 is_stmt 1 view .LVU72
 103:quantum/process_keycode/process_magic.c ****                         break;
 283              		.loc 1 103 54 is_stmt 0 view .LVU73
 284 013e 2378     		ldrb	r3, [r4]	@ zero_extendqisi2
 285 0140 6FF3C303 		bfc	r3, #3, #1
 286 0144 B0E7     		b	.L45
 287              	.L13:
 106:quantum/process_keycode/process_magic.c ****                         break;
 288              		.loc 1 106 25 is_stmt 1 view .LVU74
 106:quantum/process_keycode/process_magic.c ****                         break;
 289              		.loc 1 106 54 is_stmt 0 view .LVU75
 290 0146 5A78     		ldrb	r2, [r3, #1]	@ zero_extendqisi2
 291 0148 6FF30002 		bfc	r2, #0, #1
 292 014c BDE7     		b	.L46
 293              	.L12:
 109:quantum/process_keycode/process_magic.c ****                         break;
 294              		.loc 1 109 25 is_stmt 1 view .LVU76
 109:quantum/process_keycode/process_magic.c ****                         break;
 295              		.loc 1 109 54 is_stmt 0 view .LVU77
 296 014e 5A78     		ldrb	r2, [r3, #1]	@ zero_extendqisi2
 297 0150 6FF34102 		bfc	r2, #1, #1
 298 0154 B9E7     		b	.L46
 299              	.L25:
 112:quantum/process_keycode/process_magic.c ****                         break;
 300              		.loc 1 112 25 is_stmt 1 view .LVU78
 112:quantum/process_keycode/process_magic.c ****                         break;
 301              		.loc 1 112 46 is_stmt 0 view .LVU79
 302 0156 2378     		ldrb	r3, [r4]	@ zero_extendqisi2
 303 0158 6FF30413 		bfc	r3, #4, #1
 304 015c A4E7     		b	.L45
 305              	.L24:
 115:quantum/process_keycode/process_magic.c ****                         break;
 306              		.loc 1 115 25 is_stmt 1 view .LVU80
 115:quantum/process_keycode/process_magic.c ****                         break;
 307              		.loc 1 115 54 is_stmt 0 view .LVU81
 308 015e 2378     		ldrb	r3, [r4]	@ zero_extendqisi2
 309 0160 6FF34513 		bfc	r3, #5, #1
 310 0164 A0E7     		b	.L45
 311              	.L23:
 118:quantum/process_keycode/process_magic.c ****                         break;
 312              		.loc 1 118 25 is_stmt 1 view .LVU82
 118:quantum/process_keycode/process_magic.c ****                         break;
 313              		.loc 1 118 64 is_stmt 0 view .LVU83
 314 0166 2378     		ldrb	r3, [r4]	@ zero_extendqisi2
 315 0168 6FF38613 		bfc	r3, #6, #1
 316 016c 9CE7     		b	.L45
 317              	.L22:
 121:quantum/process_keycode/process_magic.c ****                         keymap_config.nkro = false;
 318              		.loc 1 121 25 is_stmt 1 view .LVU84
 319 016e FFF7FEFF 		bl	clear_keyboard
 320              	.LVL11:
 122:quantum/process_keycode/process_magic.c ****                         break;
 321              		.loc 1 122 25 view .LVU85
 122:quantum/process_keycode/process_magic.c ****                         break;
 322              		.loc 1 122 44 is_stmt 0 view .LVU86
 323 0172 2378     		ldrb	r3, [r4]	@ zero_extendqisi2
 324 0174 6FF3C713 		bfc	r3, #7, #1
 325 0178 96E7     		b	.L45
 326              	.L21:
 125:quantum/process_keycode/process_magic.c **** #ifdef AUDIO_ENABLE
 327              		.loc 1 125 25 is_stmt 1 view .LVU87
 125:quantum/process_keycode/process_magic.c **** #ifdef AUDIO_ENABLE
 328              		.loc 1 125 54 is_stmt 0 view .LVU88
 329 017a 2378     		ldrb	r3, [r4]	@ zero_extendqisi2
 330 017c 23F00C03 		bic	r3, r3, #12
 331 0180 2370     		strb	r3, [r4]
 127:quantum/process_keycode/process_magic.c **** #endif
 332              		.loc 1 127 25 is_stmt 1 view .LVU89
 333 0182 0022     		movs	r2, #0
 334              	.L38:
 143:quantum/process_keycode/process_magic.c ****                         }
 335              		.loc 1 143 29 view .LVU90
 336 0184 1F48     		ldr	r0, .L49+12
 337 0186 0221     		movs	r1, #2
 338 0188 C0E7     		b	.L44
 339              	.L10:
 131:quantum/process_keycode/process_magic.c **** #ifdef AUDIO_ENABLE
 340              		.loc 1 131 25 view .LVU91
 131:quantum/process_keycode/process_magic.c **** #ifdef AUDIO_ENABLE
 341              		.loc 1 131 54 is_stmt 0 view .LVU92
 342 018a 5A78     		ldrb	r2, [r3, #1]	@ zero_extendqisi2
 343 018c 22F00302 		bic	r2, r2, #3
 344 0190 5A70     		strb	r2, [r3, #1]
 133:quantum/process_keycode/process_magic.c **** #endif
 345              		.loc 1 133 25 is_stmt 1 view .LVU93
 346 0192 0022     		movs	r2, #0
 347              	.L39:
 154:quantum/process_keycode/process_magic.c ****                         }
 348              		.loc 1 154 29 view .LVU94
 349 0194 1C48     		ldr	r0, .L49+16
 350 0196 0221     		movs	r1, #2
 351 0198 B8E7     		b	.L44
 352              	.L18:
 137:quantum/process_keycode/process_magic.c ****                         keymap_config.swap_ralt_rgui = keymap_config.swap_lalt_lgui;
 353              		.loc 1 137 25 view .LVU95
 138:quantum/process_keycode/process_magic.c **** #ifdef AUDIO_ENABLE
 354              		.loc 1 138 25 view .LVU96
 137:quantum/process_keycode/process_magic.c ****                         keymap_config.swap_ralt_rgui = keymap_config.swap_lalt_lgui;
 355              		.loc 1 137 70 is_stmt 0 view .LVU97
 356 019a 2278     		ldrb	r2, [r4]	@ zero_extendqisi2
 357 019c C2F38003 		ubfx	r3, r2, #2, #1
 137:quantum/process_keycode/process_magic.c ****                         keymap_config.swap_ralt_rgui = keymap_config.swap_lalt_lgui;
 358              		.loc 1 137 25 view .LVU98
 359 01a0 83F00103 		eor	r3, r3, #1
 360 01a4 DBB2     		uxtb	r3, r3
 137:quantum/process_keycode/process_magic.c ****                         keymap_config.swap_ralt_rgui = keymap_config.swap_lalt_lgui;
 361              		.loc 1 137 54 view .LVU99
 362 01a6 63F38202 		bfi	r2, r3, #2, #1
 138:quantum/process_keycode/process_magic.c **** #ifdef AUDIO_ENABLE
 363              		.loc 1 138 54 view .LVU100
 364 01aa 63F3C302 		bfi	r2, r3, #3, #1
 365 01ae 2270     		strb	r2, [r4]
 140:quantum/process_keycode/process_magic.c ****                             PLAY_SONG(ag_swap_song);
 366              		.loc 1 140 25 is_stmt 1 view .LVU101
 140:quantum/process_keycode/process_magic.c ****                             PLAY_SONG(ag_swap_song);
 367              		.loc 1 140 28 is_stmt 0 view .LVU102
 368 01b0 12F00802 		ands	r2, r2, #8
 369 01b4 E6D0     		beq	.L38
 370 01b6 A6E7     		b	.L47
 371              	.L9:
 148:quantum/process_keycode/process_magic.c ****                         keymap_config.swap_rctl_rgui = keymap_config.swap_lctl_lgui;
 372              		.loc 1 148 25 is_stmt 1 view .LVU103
 149:quantum/process_keycode/process_magic.c **** #ifdef AUDIO_ENABLE
 373              		.loc 1 149 25 view .LVU104
 148:quantum/process_keycode/process_magic.c ****                         keymap_config.swap_rctl_rgui = keymap_config.swap_lctl_lgui;
 374              		.loc 1 148 70 is_stmt 0 view .LVU105
 375 01b8 5A78     		ldrb	r2, [r3, #1]	@ zero_extendqisi2
 148:quantum/process_keycode/process_magic.c ****                         keymap_config.swap_rctl_rgui = keymap_config.swap_lctl_lgui;
 376              		.loc 1 148 25 view .LVU106
 377 01ba D143     		mvns	r1, r2
 378 01bc 01F00101 		and	r1, r1, #1
 148:quantum/process_keycode/process_magic.c ****                         keymap_config.swap_rctl_rgui = keymap_config.swap_lctl_lgui;
 379              		.loc 1 148 54 view .LVU107
 380 01c0 61F30002 		bfi	r2, r1, #0, #1
 149:quantum/process_keycode/process_magic.c **** #ifdef AUDIO_ENABLE
 381              		.loc 1 149 54 view .LVU108
 382 01c4 61F34102 		bfi	r2, r1, #1, #1
 383 01c8 5A70     		strb	r2, [r3, #1]
 151:quantum/process_keycode/process_magic.c ****                             PLAY_SONG(cg_swap_song);
 384              		.loc 1 151 25 is_stmt 1 view .LVU109
 151:quantum/process_keycode/process_magic.c ****                             PLAY_SONG(cg_swap_song);
 385              		.loc 1 151 28 is_stmt 0 view .LVU110
 386 01ca 12F00202 		ands	r2, r2, #2
 387 01ce E1D0     		beq	.L39
 388 01d0 A5E7     		b	.L48
 389              	.L20:
 159:quantum/process_keycode/process_magic.c ****                         keymap_config.nkro = !keymap_config.nkro;
 390              		.loc 1 159 25 is_stmt 1 view .LVU111
 391 01d2 FFF7FEFF 		bl	clear_keyboard
 392              	.LVL12:
 160:quantum/process_keycode/process_magic.c ****                         break;
 393              		.loc 1 160 25 view .LVU112
 160:quantum/process_keycode/process_magic.c ****                         break;
 394              		.loc 1 160 60 is_stmt 0 view .LVU113
 395 01d6 2378     		ldrb	r3, [r4]	@ zero_extendqisi2
 396 01d8 C3F3C012 		ubfx	r2, r3, #7, #1
 160:quantum/process_keycode/process_magic.c ****                         break;
 397              		.loc 1 160 25 view .LVU114
 398 01dc 82F00102 		eor	r2, r2, #1
 160:quantum/process_keycode/process_magic.c ****                         break;
 399              		.loc 1 160 44 view .LVU115
 400 01e0 62F3C713 		bfi	r3, r2, #7, #1
 401 01e4 60E7     		b	.L45
 402              	.L8:
 163:quantum/process_keycode/process_magic.c ****                         break;
 403              		.loc 1 163 25 is_stmt 1 view .LVU116
 404 01e6 0120     		movs	r0, #1
 405              	.L43:
 166:quantum/process_keycode/process_magic.c ****                         break;
 406              		.loc 1 166 25 is_stmt 0 view .LVU117
 407 01e8 FFF7FEFF 		bl	eeconfig_update_handedness
 408              	.LVL13:
 167:quantum/process_keycode/process_magic.c ****                     case MAGIC_TOGGLE_GUI:
 409              		.loc 1 167 25 is_stmt 1 view .LVU118
 410 01ec 51E7     		b	.L16
 411              	.L6:
 166:quantum/process_keycode/process_magic.c ****                         break;
 412              		.loc 1 166 25 view .LVU119
 413 01ee 0020     		movs	r0, #0
 414 01f0 FAE7     		b	.L43
 415              	.LVL14:
 416              	.L40:
 181:quantum/process_keycode/process_magic.c **** }
 417              		.loc 1 181 12 is_stmt 0 view .LVU120
 418 01f2 0120     		movs	r0, #1
 419 01f4 54E7     		b	.L2
 420              	.L50:
 421 01f6 00BF     		.align	2
 422              	.L49:
 423 01f8 00000000 		.word	keymap_config
 424 01fc 00000000 		.word	ag_swap_song
 425 0200 00000000 		.word	cg_swap_song
 426 0204 00000000 		.word	ag_norm_song
 427 0208 00000000 		.word	cg_norm_song
 428              		.cfi_endproc
 429              	.LFE341:
 431              		.global	cg_swap_song
 432              		.section	.data.cg_swap_song,"aw"
 433              		.align	2
 436              	cg_swap_song:
 437 0000 48F17644 		.word	1148645704
 438 0004 0000C040 		.word	1086324736
 439 0008 00005C44 		.word	1146880000
 440 000c 0000C040 		.word	1086324736
 441 0010 48F17644 		.word	1148645704
 442 0014 0000C040 		.word	1086324736
 443 0018 00005C44 		.word	1146880000
 444 001c 0000C040 		.word	1086324736
 445              		.global	cg_norm_song
 446              		.section	.data.cg_norm_song,"aw"
 447              		.align	2
 450              	cg_norm_song:
 451 0000 00005C44 		.word	1146880000
 452 0004 00000041 		.word	1090519040
 453 0008 00005C44 		.word	1146880000
 454 000c 00000041 		.word	1090519040
 455              		.global	ag_swap_song
 456              		.section	.data.ag_swap_song,"aw"
 457              		.align	2
 460              	ag_swap_song:
 461 0000 48F17644 		.word	1148645704
 462 0004 0000C040 		.word	1086324736
 463 0008 00005C44 		.word	1146880000
 464 000c 0000C040 		.word	1086324736
 465 0010 48F17644 		.word	1148645704
 466 0014 0000C040 		.word	1086324736
 467 0018 00005C44 		.word	1146880000
 468 001c 0000C040 		.word	1086324736
 469              		.global	ag_norm_song
 470              		.section	.data.ag_norm_song,"aw"
 471              		.align	2
 474              	ag_norm_song:
 475 0000 00005C44 		.word	1146880000
 476 0004 00000041 		.word	1090519040
 477 0008 00005C44 		.word	1146880000
 478 000c 00000041 		.word	1090519040
 479              		.text
 480              	.Letext0:
 481              		.file 2 "/usr/lib/gcc/arm-none-eabi/12.2.0/include/stddef.h"
 482              		.file 3 "/usr/arm-none-eabi/include/machine/_default_types.h"
 483              		.file 4 "/usr/arm-none-eabi/include/sys/_stdint.h"
 484              		.file 5 "quantum/keyboard.h"
 485              		.file 6 "quantum/action.h"
 486              		.file 7 "quantum/keycode_config.h"
 487              		.file 8 "quantum/eeconfig.h"
 488              		.file 9 "quantum/audio/audio.h"
 489              		.file 10 "quantum/sequencer/sequencer.h"
 490              		.file 11 "quantum/quantum_keycodes.h"