   1               		.file	"keymap.c"
   2               	__SP_H__ = 0x3e
   3               	__SP_L__ = 0x3d
   4               	__SREG__ = 0x3f
   5               	__tmp_reg__ = 0
   6               	__zero_reg__ = 1
   7               		.text
   8               	.Ltext0:
   9               		.cfi_sections	.debug_frame
  10               		.section	.text.action_get_macro,"ax",@progbits
  11               	.global	action_get_macro
  13               	action_get_macro:
  14               	.LVL0:
  15               	.LFB119:
  16               		.file 1 "keyboards/3key/keymaps/LohseBoi/keymap.c"
   1:keyboards/3key/keymaps/LohseBoi/keymap.c **** #include "3key.h"
   2:keyboards/3key/keymaps/LohseBoi/keymap.c **** 
   3:keyboards/3key/keymaps/LohseBoi/keymap.c **** #define NORMAL 18  //Orange (StackOverflow)
   4:keyboards/3key/keymaps/LohseBoi/keymap.c **** #define RED 0
   5:keyboards/3key/keymaps/LohseBoi/keymap.c **** #define GREEN 85
   6:keyboards/3key/keymaps/LohseBoi/keymap.c **** #define BLUE 169
   7:keyboards/3key/keymaps/LohseBoi/keymap.c **** 
   8:keyboards/3key/keymaps/LohseBoi/keymap.c **** #define ASCII_WRITER
   9:keyboards/3key/keymaps/LohseBoi/keymap.c **** #ifdef ASCII_WRITER
  10:keyboards/3key/keymaps/LohseBoi/keymap.c **** uint8_t asciiChar = 0;
  11:keyboards/3key/keymaps/LohseBoi/keymap.c **** uint8_t asciiCounter = 0;
  12:keyboards/3key/keymaps/LohseBoi/keymap.c **** 
  13:keyboards/3key/keymaps/LohseBoi/keymap.c **** uint16_t asciiTimer = 0;
  14:keyboards/3key/keymaps/LohseBoi/keymap.c **** uint16_t asciiLimit = 200;
  15:keyboards/3key/keymaps/LohseBoi/keymap.c **** 
  16:keyboards/3key/keymaps/LohseBoi/keymap.c **** uint8_t asciiClick = 0;
  17:keyboards/3key/keymaps/LohseBoi/keymap.c **** bool asciiHolding = false;
  18:keyboards/3key/keymaps/LohseBoi/keymap.c **** #endif
  19:keyboards/3key/keymaps/LohseBoi/keymap.c **** 
  20:keyboards/3key/keymaps/LohseBoi/keymap.c **** const uint16_t PROGMEM keymaps[][MATRIX_ROWS][MATRIX_COLS] = {
  21:keyboards/3key/keymaps/LohseBoi/keymap.c **** 	LAYOUT(KC_1, KC_2, KC_3)
  22:keyboards/3key/keymaps/LohseBoi/keymap.c **** };
  23:keyboards/3key/keymaps/LohseBoi/keymap.c **** 
  24:keyboards/3key/keymaps/LohseBoi/keymap.c **** const macro_t *action_get_macro(keyrecord_t *record, uint8_t id, uint8_t opt) {
  17               		.loc 1 24 79 view -0
  18               		.cfi_startproc
  19               	/* prologue: function */
  20               	/* frame size = 0 */
  21               	/* stack size = 0 */
  22               	.L__stack_usage = 0
  25:keyboards/3key/keymaps/LohseBoi/keymap.c **** 	keyevent_t event = record->event;
  23               		.loc 1 25 2 view .LVU1
  26:keyboards/3key/keymaps/LohseBoi/keymap.c **** 
  27:keyboards/3key/keymaps/LohseBoi/keymap.c **** 	switch (event.pressed) {
  24               		.loc 1 27 2 view .LVU2
  28:keyboards/3key/keymaps/LohseBoi/keymap.c **** 
  29:keyboards/3key/keymaps/LohseBoi/keymap.c **** 	}
  25               		.loc 1 29 2 view .LVU3
  30:keyboards/3key/keymaps/LohseBoi/keymap.c **** 	return MACRO_NONE;
  26               		.loc 1 30 2 view .LVU4
  31:keyboards/3key/keymaps/LohseBoi/keymap.c **** }
  27               		.loc 1 31 1 is_stmt 0 view .LVU5
  28 0000 90E0      		ldi r25,0
  29 0002 80E0      		ldi r24,0
  30               	.LVL1:
  31               	/* epilogue start */
  32               		.loc 1 31 1 view .LVU6
  33 0004 0895      		ret
  34               		.cfi_endproc
  35               	.LFE119:
  37               		.section	.text.matrix_init_user,"ax",@progbits
  38               	.global	matrix_init_user
  40               	matrix_init_user:
  41               	.LFB120:
  32:keyboards/3key/keymaps/LohseBoi/keymap.c **** 
  33:keyboards/3key/keymaps/LohseBoi/keymap.c **** void matrix_init_user(void) {
  42               		.loc 1 33 29 is_stmt 1 view -0
  43               		.cfi_startproc
  44               	/* prologue: function */
  45               	/* frame size = 0 */
  46               	/* stack size = 0 */
  47               	.L__stack_usage = 0
  34:keyboards/3key/keymaps/LohseBoi/keymap.c **** }
  48               		.loc 1 34 1 view .LVU8
  49               	/* epilogue start */
  50 0000 0895      		ret
  51               		.cfi_endproc
  52               	.LFE120:
  54               		.section	.rodata.matrix_scan_user.str1.1,"aMS",@progbits,1
  55               	.LC0:
  56 0000 2563 00   		.string	"%c"
  57               		.section	.text.matrix_scan_user,"ax",@progbits
  58               	.global	matrix_scan_user
  60               	matrix_scan_user:
  61               	.LFB121:
  35:keyboards/3key/keymaps/LohseBoi/keymap.c **** 
  36:keyboards/3key/keymaps/LohseBoi/keymap.c **** void matrix_scan_user(void) {
  62               		.loc 1 36 29 view -0
  63               		.cfi_startproc
  64 0000 0F93      		push r16
  65               	.LCFI0:
  66               		.cfi_def_cfa_offset 3
  67               		.cfi_offset 16, -2
  68 0002 1F93      		push r17
  69               	.LCFI1:
  70               		.cfi_def_cfa_offset 4
  71               		.cfi_offset 17, -3
  72 0004 CF93      		push r28
  73               	.LCFI2:
  74               		.cfi_def_cfa_offset 5
  75               		.cfi_offset 28, -4
  76 0006 DF93      		push r29
  77               	.LCFI3:
  78               		.cfi_def_cfa_offset 6
  79               		.cfi_offset 29, -5
  80 0008 00D0      		rcall .
  81               	.LCFI4:
  82               		.cfi_def_cfa_offset 8
  83 000a CDB7      		in r28,__SP_L__
  84 000c DEB7      		in r29,__SP_H__
  85               	.LCFI5:
  86               		.cfi_def_cfa_register 28
  87               	/* prologue: function */
  88               	/* frame size = 2 */
  89               	/* stack size = 6 */
  90               	.L__stack_usage = 6
  37:keyboards/3key/keymaps/LohseBoi/keymap.c **** #ifdef ASCII_WRITER
  38:keyboards/3key/keymaps/LohseBoi/keymap.c ****     if (asciiClick > 0) {
  91               		.loc 1 38 5 view .LVU10
  92               		.loc 1 38 8 is_stmt 0 view .LVU11
  93 000e 8091 0000 		lds r24,asciiClick
  94 0012 8823      		tst r24
  95 0014 01F4      		brne .+2
  96 0016 00C0      		rjmp .L4
  39:keyboards/3key/keymaps/LohseBoi/keymap.c ****         if (timer_elapsed(asciiTimer) >= asciiLimit) {
  97               		.loc 1 39 9 is_stmt 1 view .LVU12
  98               		.loc 1 39 13 is_stmt 0 view .LVU13
  99 0018 8091 0000 		lds r24,asciiTimer
 100 001c 9091 0000 		lds r25,asciiTimer+1
 101 0020 0E94 0000 		call timer_elapsed
 102               	.LVL2:
 103               		.loc 1 39 12 view .LVU14
 104 0024 2091 0000 		lds r18,asciiLimit
 105 0028 3091 0000 		lds r19,asciiLimit+1
 106 002c 8217      		cp r24,r18
 107 002e 9307      		cpc r25,r19
 108 0030 00F0      		brlo .L3
  40:keyboards/3key/keymaps/LohseBoi/keymap.c ****             if (asciiClick == 1) { //Single-tap to send, Double-click to empty buffer only
 109               		.loc 1 40 13 is_stmt 1 view .LVU15
 110               		.loc 1 40 16 is_stmt 0 view .LVU16
 111 0032 8091 0000 		lds r24,asciiClick
 112 0036 8130      		cpi r24,lo8(1)
 113 0038 01F4      		brne .L7
 114               	.LBB2:
  41:keyboards/3key/keymaps/LohseBoi/keymap.c ****                 char str[2] = {' ', 0};
 115               		.loc 1 41 17 is_stmt 1 view .LVU17
 116               		.loc 1 41 22 is_stmt 0 view .LVU18
 117 003a 80E2      		ldi r24,lo8(32)
 118 003c 90E0      		ldi r25,0
 119 003e 9A83      		std Y+2,r25
 120 0040 8983      		std Y+1,r24
  42:keyboards/3key/keymaps/LohseBoi/keymap.c ****                 sprintf(str, "%c", asciiChar);
 121               		.loc 1 42 17 is_stmt 1 view .LVU19
 122 0042 8091 0000 		lds r24,asciiChar
 123 0046 1F92      		push __zero_reg__
 124 0048 8F93      		push r24
 125 004a 80E0      		ldi r24,lo8(.LC0)
 126 004c 90E0      		ldi r25,hi8(.LC0)
 127 004e 9F93      		push r25
 128 0050 8F93      		push r24
 129 0052 8E01      		movw r16,r28
 130 0054 0F5F      		subi r16,-1
 131 0056 1F4F      		sbci r17,-1
 132 0058 1F93      		push r17
 133 005a 0F93      		push r16
 134 005c 0E94 0000 		call sprintf
 135               	.LVL3:
  43:keyboards/3key/keymaps/LohseBoi/keymap.c ****                 send_string(str);
 136               		.loc 1 43 17 view .LVU20
 137 0060 C801      		movw r24,r16
 138 0062 0E94 0000 		call send_string
 139               	.LVL4:
 140 0066 0F90      		pop __tmp_reg__
 141 0068 0F90      		pop __tmp_reg__
 142 006a 0F90      		pop __tmp_reg__
 143 006c 0F90      		pop __tmp_reg__
 144 006e 0F90      		pop __tmp_reg__
 145 0070 0F90      		pop __tmp_reg__
 146               	.L7:
 147               	.LBE2:
  44:keyboards/3key/keymaps/LohseBoi/keymap.c ****             }
  45:keyboards/3key/keymaps/LohseBoi/keymap.c ****             asciiChar = 0;
 148               		.loc 1 45 13 view .LVU21
 149               		.loc 1 45 23 is_stmt 0 view .LVU22
 150 0072 1092 0000 		sts asciiChar,__zero_reg__
  46:keyboards/3key/keymaps/LohseBoi/keymap.c ****             asciiCounter = 0;
 151               		.loc 1 46 13 is_stmt 1 view .LVU23
 152               		.loc 1 46 26 is_stmt 0 view .LVU24
 153 0076 1092 0000 		sts asciiCounter,__zero_reg__
  47:keyboards/3key/keymaps/LohseBoi/keymap.c ****             asciiClick = 0;
 154               		.loc 1 47 13 is_stmt 1 view .LVU25
 155               		.loc 1 47 24 is_stmt 0 view .LVU26
 156 007a 1092 0000 		sts asciiClick,__zero_reg__
  48:keyboards/3key/keymaps/LohseBoi/keymap.c ****             asciiTimer = timer_read();
 157               		.loc 1 48 13 is_stmt 1 view .LVU27
 158               		.loc 1 48 26 is_stmt 0 view .LVU28
 159 007e 0E94 0000 		call timer_read
 160               	.LVL5:
 161               		.loc 1 48 24 view .LVU29
 162 0082 9093 0000 		sts asciiTimer+1,r25
 163 0086 8093 0000 		sts asciiTimer,r24
 164               	.L3:
 165               	/* epilogue start */
  49:keyboards/3key/keymaps/LohseBoi/keymap.c ****         }
  50:keyboards/3key/keymaps/LohseBoi/keymap.c ****     } else if (asciiHolding) {
  51:keyboards/3key/keymaps/LohseBoi/keymap.c ****         if (timer_elapsed(asciiTimer) >= asciiLimit/4) {
  52:keyboards/3key/keymaps/LohseBoi/keymap.c ****             register_code(KC_BSPC);
  53:keyboards/3key/keymaps/LohseBoi/keymap.c ****             asciiHolding = false;
  54:keyboards/3key/keymaps/LohseBoi/keymap.c ****         }
  55:keyboards/3key/keymaps/LohseBoi/keymap.c ****     }
  56:keyboards/3key/keymaps/LohseBoi/keymap.c ****    // if (asciiHolding) {
  57:keyboards/3key/keymaps/LohseBoi/keymap.c ****    //     if (timer_elapsed(asciiTimer) >= asciiLimit) {
  58:keyboards/3key/keymaps/LohseBoi/keymap.c ****    //         register_code(KC_BSPC);
  59:keyboards/3key/keymaps/LohseBoi/keymap.c ****    //         asciiHolding = false;
  60:keyboards/3key/keymaps/LohseBoi/keymap.c ****    //     }
  61:keyboards/3key/keymaps/LohseBoi/keymap.c ****    // }
  62:keyboards/3key/keymaps/LohseBoi/keymap.c ****     /*
  63:keyboards/3key/keymaps/LohseBoi/keymap.c ****     if (asciiClick > 0) {
  64:keyboards/3key/keymaps/LohseBoi/keymap.c ****         if (timer_elapsed(asciiTimer) >= asciiLimit) {
  65:keyboards/3key/keymaps/LohseBoi/keymap.c ****             if (asciiClick > 1) {
  66:keyboards/3key/keymaps/LohseBoi/keymap.c ****                 if (asciiCounter != 0) { //If the buffer is not-empty, empty it
  67:keyboards/3key/keymaps/LohseBoi/keymap.c ****                     asciiCounter = 0;
  68:keyboards/3key/keymaps/LohseBoi/keymap.c ****                     asciiChar = 0;
  69:keyboards/3key/keymaps/LohseBoi/keymap.c ****                     asciiTimer = timer_read();
  70:keyboards/3key/keymaps/LohseBoi/keymap.c ****                     asciiClick = 0;
  71:keyboards/3key/keymaps/LohseBoi/keymap.c ****                 } else {
  72:keyboards/3key/keymaps/LohseBoi/keymap.c ****                     register_code(KC_BSPC);
  73:keyboards/3key/keymaps/LohseBoi/keymap.c ****                     asciiClick = 0;
  74:keyboards/3key/keymaps/LohseBoi/keymap.c ****                 }
  75:keyboards/3key/keymaps/LohseBoi/keymap.c ****             } else {
  76:keyboards/3key/keymaps/LohseBoi/keymap.c ****                 char str[2] = {' ', 0};
  77:keyboards/3key/keymaps/LohseBoi/keymap.c ****                 sprintf(str, "%c", asciiChar);
  78:keyboards/3key/keymaps/LohseBoi/keymap.c ****                 send_string(str);
  79:keyboards/3key/keymaps/LohseBoi/keymap.c ****                 asciiChar = 0;
  80:keyboards/3key/keymaps/LohseBoi/keymap.c ****                 asciiCounter = 0;
  81:keyboards/3key/keymaps/LohseBoi/keymap.c ****                 asciiClick = 0;
  82:keyboards/3key/keymaps/LohseBoi/keymap.c ****             }
  83:keyboards/3key/keymaps/LohseBoi/keymap.c ****         }
  84:keyboards/3key/keymaps/LohseBoi/keymap.c ****     } else if (asciiHolding) {
  85:keyboards/3key/keymaps/LohseBoi/keymap.c ****         if (timer_elapsed(asciiTimer) >= asciiLimit) {
  86:keyboards/3key/keymaps/LohseBoi/keymap.c ****             register_code(KC_BSPC);
  87:keyboards/3key/keymaps/LohseBoi/keymap.c ****             asciiHolding = false;
  88:keyboards/3key/keymaps/LohseBoi/keymap.c ****         }
  89:keyboards/3key/keymaps/LohseBoi/keymap.c ****     } else
  90:keyboards/3key/keymaps/LohseBoi/keymap.c ****         asciiTimer = timer_read();
  91:keyboards/3key/keymaps/LohseBoi/keymap.c ****         */
  92:keyboards/3key/keymaps/LohseBoi/keymap.c **** #endif
  93:keyboards/3key/keymaps/LohseBoi/keymap.c **** }
 166               		.loc 1 93 1 view .LVU30
 167 008a 0F90      		pop __tmp_reg__
 168 008c 0F90      		pop __tmp_reg__
 169 008e DF91      		pop r29
 170 0090 CF91      		pop r28
 171 0092 1F91      		pop r17
 172 0094 0F91      		pop r16
 173 0096 0895      		ret
 174               	.L4:
  50:keyboards/3key/keymaps/LohseBoi/keymap.c ****         if (timer_elapsed(asciiTimer) >= asciiLimit/4) {
 175               		.loc 1 50 12 is_stmt 1 view .LVU31
  50:keyboards/3key/keymaps/LohseBoi/keymap.c ****         if (timer_elapsed(asciiTimer) >= asciiLimit/4) {
 176               		.loc 1 50 15 is_stmt 0 view .LVU32
 177 0098 8091 0000 		lds r24,asciiHolding
 178 009c 8823      		tst r24
 179 009e 01F0      		breq .L3
  51:keyboards/3key/keymaps/LohseBoi/keymap.c ****             register_code(KC_BSPC);
 180               		.loc 1 51 9 is_stmt 1 view .LVU33
  51:keyboards/3key/keymaps/LohseBoi/keymap.c ****             register_code(KC_BSPC);
 181               		.loc 1 51 13 is_stmt 0 view .LVU34
 182 00a0 8091 0000 		lds r24,asciiTimer
 183 00a4 9091 0000 		lds r25,asciiTimer+1
 184 00a8 0E94 0000 		call timer_elapsed
 185               	.LVL6:
  51:keyboards/3key/keymaps/LohseBoi/keymap.c ****             register_code(KC_BSPC);
 186               		.loc 1 51 52 view .LVU35
 187 00ac 2091 0000 		lds r18,asciiLimit
 188 00b0 3091 0000 		lds r19,asciiLimit+1
 189 00b4 3695      		lsr r19
 190 00b6 2795      		ror r18
 191 00b8 3695      		lsr r19
 192 00ba 2795      		ror r18
  51:keyboards/3key/keymaps/LohseBoi/keymap.c ****             register_code(KC_BSPC);
 193               		.loc 1 51 12 view .LVU36
 194 00bc 8217      		cp r24,r18
 195 00be 9307      		cpc r25,r19
 196 00c0 00F0      		brlo .L3
  52:keyboards/3key/keymaps/LohseBoi/keymap.c ****             asciiHolding = false;
 197               		.loc 1 52 13 is_stmt 1 view .LVU37
 198 00c2 8AE2      		ldi r24,lo8(42)
 199 00c4 0E94 0000 		call register_code
 200               	.LVL7:
  53:keyboards/3key/keymaps/LohseBoi/keymap.c ****         }
 201               		.loc 1 53 13 view .LVU38
  53:keyboards/3key/keymaps/LohseBoi/keymap.c ****         }
 202               		.loc 1 53 26 is_stmt 0 view .LVU39
 203 00c8 1092 0000 		sts asciiHolding,__zero_reg__
 204               		.loc 1 93 1 view .LVU40
 205 00cc 00C0      		rjmp .L3
 206               		.cfi_endproc
 207               	.LFE121:
 209               		.section	.text.process_record_user,"ax",@progbits
 210               	.global	process_record_user
 212               	process_record_user:
 213               	.LVL8:
 214               	.LFB122:
  94:keyboards/3key/keymaps/LohseBoi/keymap.c **** 
  95:keyboards/3key/keymaps/LohseBoi/keymap.c **** bool process_record_user(uint16_t keycode, keyrecord_t *record) {
 215               		.loc 1 95 65 is_stmt 1 view -0
 216               		.cfi_startproc
 217               		.loc 1 95 65 is_stmt 0 view .LVU42
 218 0000 0F93      		push r16
 219               	.LCFI6:
 220               		.cfi_def_cfa_offset 3
 221               		.cfi_offset 16, -2
 222 0002 1F93      		push r17
 223               	.LCFI7:
 224               		.cfi_def_cfa_offset 4
 225               		.cfi_offset 17, -3
 226 0004 CF93      		push r28
 227               	.LCFI8:
 228               		.cfi_def_cfa_offset 5
 229               		.cfi_offset 28, -4
 230 0006 DF93      		push r29
 231               	.LCFI9:
 232               		.cfi_def_cfa_offset 6
 233               		.cfi_offset 29, -5
 234 0008 00D0      		rcall .
 235               	.LCFI10:
 236               		.cfi_def_cfa_offset 8
 237 000a CDB7      		in r28,__SP_L__
 238 000c DEB7      		in r29,__SP_H__
 239               	.LCFI11:
 240               		.cfi_def_cfa_register 28
 241               	/* prologue: function */
 242               	/* frame size = 2 */
 243               	/* stack size = 6 */
 244               	.L__stack_usage = 6
 245 000e 8B01      		movw r16,r22
  96:keyboards/3key/keymaps/LohseBoi/keymap.c ****     switch (record->event.key.col) {
 246               		.loc 1 96 5 is_stmt 1 view .LVU43
 247               		.loc 1 96 30 is_stmt 0 view .LVU44
 248 0010 FB01      		movw r30,r22
 249 0012 8081      		ld r24,Z
 250               	.LVL9:
 251               		.loc 1 96 5 view .LVU45
 252 0014 8130      		cpi r24,lo8(1)
 253 0016 01F0      		breq .L13
 254 0018 8230      		cpi r24,lo8(2)
 255 001a 01F0      		breq .L14
 256 001c 8111      		cpse r24,__zero_reg__
 257 001e 00C0      		rjmp .L15
  97:keyboards/3key/keymaps/LohseBoi/keymap.c ****         case 0:  // Left
  98:keyboards/3key/keymaps/LohseBoi/keymap.c ****             if (record->event.pressed) {
 258               		.loc 1 98 13 is_stmt 1 view .LVU46
 259               		.loc 1 98 16 is_stmt 0 view .LVU47
 260 0020 8281      		ldd r24,Z+2
 261 0022 8823      		tst r24
 262 0024 01F0      		breq .L16
  99:keyboards/3key/keymaps/LohseBoi/keymap.c ****                 rgblight_sethsv(BLUE, 255, 255);
 263               		.loc 1 99 17 is_stmt 1 view .LVU48
 264 0026 4FEF      		ldi r20,lo8(-1)
 265 0028 6FEF      		ldi r22,lo8(-1)
 266               	.LVL10:
 267               		.loc 1 99 17 is_stmt 0 view .LVU49
 268 002a 89EA      		ldi r24,lo8(-87)
 269               	.L31:
 100:keyboards/3key/keymaps/LohseBoi/keymap.c ****             } else {
 101:keyboards/3key/keymaps/LohseBoi/keymap.c ****                 rgblight_sethsv(NORMAL, 255, 255);
 102:keyboards/3key/keymaps/LohseBoi/keymap.c ****             }
 103:keyboards/3key/keymaps/LohseBoi/keymap.c ****             break;
 104:keyboards/3key/keymaps/LohseBoi/keymap.c ****         case 1:  // Center
 105:keyboards/3key/keymaps/LohseBoi/keymap.c ****             if (record->event.pressed) {
 106:keyboards/3key/keymaps/LohseBoi/keymap.c ****                 rgblight_sethsv(GREEN, 255, 255);
 107:keyboards/3key/keymaps/LohseBoi/keymap.c ****             } else {
 108:keyboards/3key/keymaps/LohseBoi/keymap.c ****                 rgblight_sethsv(NORMAL, 255, 255);
 109:keyboards/3key/keymaps/LohseBoi/keymap.c ****             }
 110:keyboards/3key/keymaps/LohseBoi/keymap.c ****             break;
 111:keyboards/3key/keymaps/LohseBoi/keymap.c ****         case 2: // Right
 112:keyboards/3key/keymaps/LohseBoi/keymap.c ****             if (record->event.pressed) {
 113:keyboards/3key/keymaps/LohseBoi/keymap.c ****                 rgblight_sethsv(RED, 255, 255);
 270               		.loc 1 113 17 view .LVU50
 271 002c 0E94 0000 		call rgblight_sethsv
 272               	.LVL11:
 273               	.L15:
 114:keyboards/3key/keymaps/LohseBoi/keymap.c ****             } else {
 115:keyboards/3key/keymaps/LohseBoi/keymap.c ****                 rgblight_sethsv(NORMAL, 255, 255);
 116:keyboards/3key/keymaps/LohseBoi/keymap.c ****             }
 117:keyboards/3key/keymaps/LohseBoi/keymap.c ****             break;
 118:keyboards/3key/keymaps/LohseBoi/keymap.c ****     }
 119:keyboards/3key/keymaps/LohseBoi/keymap.c **** 
 120:keyboards/3key/keymaps/LohseBoi/keymap.c **** #ifdef ASCII_WRITER
 121:keyboards/3key/keymaps/LohseBoi/keymap.c ****     switch (record->event.key.col) {
 274               		.loc 1 121 5 is_stmt 1 view .LVU51
 275               		.loc 1 121 30 is_stmt 0 view .LVU52
 276 0030 F801      		movw r30,r16
 277 0032 9081      		ld r25,Z
 278               		.loc 1 121 5 view .LVU53
 279 0034 9130      		cpi r25,lo8(1)
 280 0036 01F0      		breq .L17
 281               		.loc 1 121 5 view .LVU54
 282 0038 8091 0000 		lds r24,asciiCounter
 283 003c 9230      		cpi r25,lo8(2)
 284 003e 01F4      		brne .+2
 285 0040 00C0      		rjmp .L18
 286 0042 9111      		cpse r25,__zero_reg__
 287 0044 00C0      		rjmp .L19
 122:keyboards/3key/keymaps/LohseBoi/keymap.c ****         case 0:  // Left
 123:keyboards/3key/keymaps/LohseBoi/keymap.c ****             if (!record->event.pressed) {
 288               		.loc 1 123 13 is_stmt 1 view .LVU55
 289               		.loc 1 123 16 is_stmt 0 view .LVU56
 290 0046 9281      		ldd r25,Z+2
 291 0048 9111      		cpse r25,__zero_reg__
 292 004a 00C0      		rjmp .L19
 124:keyboards/3key/keymaps/LohseBoi/keymap.c ****                 asciiChar <<= 1;
 293               		.loc 1 124 17 is_stmt 1 view .LVU57
 125:keyboards/3key/keymaps/LohseBoi/keymap.c ****                 asciiChar += 1;
 294               		.loc 1 125 17 view .LVU58
 124:keyboards/3key/keymaps/LohseBoi/keymap.c ****                 asciiChar <<= 1;
 295               		.loc 1 124 27 is_stmt 0 view .LVU59
 296 004c 9091 0000 		lds r25,asciiChar
 297 0050 990F      		lsl r25
 298               		.loc 1 125 27 view .LVU60
 299 0052 9F5F      		subi r25,lo8(-(1))
 300               	.L32:
 126:keyboards/3key/keymaps/LohseBoi/keymap.c ****                 asciiCounter++;
 127:keyboards/3key/keymaps/LohseBoi/keymap.c ****             } 
 128:keyboards/3key/keymaps/LohseBoi/keymap.c ****             break;
 129:keyboards/3key/keymaps/LohseBoi/keymap.c ****         case 1:  // Center
 130:keyboards/3key/keymaps/LohseBoi/keymap.c ****             if (record->event.pressed) { //Press
 131:keyboards/3key/keymaps/LohseBoi/keymap.c ****                 asciiClick++;
 132:keyboards/3key/keymaps/LohseBoi/keymap.c ****                 asciiHolding = true;
 133:keyboards/3key/keymaps/LohseBoi/keymap.c ****                 asciiTimer = timer_read();
 134:keyboards/3key/keymaps/LohseBoi/keymap.c ****             } else { //Release
 135:keyboards/3key/keymaps/LohseBoi/keymap.c ****                 unregister_code(KC_BSPC);
 136:keyboards/3key/keymaps/LohseBoi/keymap.c ****                 asciiHolding = false;
 137:keyboards/3key/keymaps/LohseBoi/keymap.c ****             } 
 138:keyboards/3key/keymaps/LohseBoi/keymap.c ****             break;
 139:keyboards/3key/keymaps/LohseBoi/keymap.c ****         case 2: // Right
 140:keyboards/3key/keymaps/LohseBoi/keymap.c ****             if (!record->event.pressed) {
 141:keyboards/3key/keymaps/LohseBoi/keymap.c ****                 asciiChar <<= 1;
 301               		.loc 1 141 27 view .LVU61
 302 0054 9093 0000 		sts asciiChar,r25
 142:keyboards/3key/keymaps/LohseBoi/keymap.c ****                 asciiCounter++;
 303               		.loc 1 142 17 is_stmt 1 view .LVU62
 304               		.loc 1 142 29 is_stmt 0 view .LVU63
 305 0058 8F5F      		subi r24,lo8(-(1))
 306 005a 8093 0000 		sts asciiCounter,r24
 307 005e 00C0      		rjmp .L19
 308               	.L16:
 101:keyboards/3key/keymaps/LohseBoi/keymap.c ****             }
 309               		.loc 1 101 17 is_stmt 1 view .LVU64
 310 0060 4FEF      		ldi r20,lo8(-1)
 311 0062 6FEF      		ldi r22,lo8(-1)
 312 0064 82E1      		ldi r24,lo8(18)
 313 0066 00C0      		rjmp .L31
 314               	.L13:
 105:keyboards/3key/keymaps/LohseBoi/keymap.c ****                 rgblight_sethsv(GREEN, 255, 255);
 315               		.loc 1 105 13 view .LVU65
 105:keyboards/3key/keymaps/LohseBoi/keymap.c ****                 rgblight_sethsv(GREEN, 255, 255);
 316               		.loc 1 105 16 is_stmt 0 view .LVU66
 317 0068 8281      		ldd r24,Z+2
 318 006a 8823      		tst r24
 319 006c 01F0      		breq .L16
 106:keyboards/3key/keymaps/LohseBoi/keymap.c ****             } else {
 320               		.loc 1 106 17 is_stmt 1 view .LVU67
 321 006e 4FEF      		ldi r20,lo8(-1)
 322 0070 6FEF      		ldi r22,lo8(-1)
 323 0072 85E5      		ldi r24,lo8(85)
 324 0074 00C0      		rjmp .L31
 325               	.L14:
 112:keyboards/3key/keymaps/LohseBoi/keymap.c ****                 rgblight_sethsv(RED, 255, 255);
 326               		.loc 1 112 13 view .LVU68
 112:keyboards/3key/keymaps/LohseBoi/keymap.c ****                 rgblight_sethsv(RED, 255, 255);
 327               		.loc 1 112 16 is_stmt 0 view .LVU69
 328 0076 8281      		ldd r24,Z+2
 329 0078 8823      		tst r24
 330 007a 01F0      		breq .L16
 113:keyboards/3key/keymaps/LohseBoi/keymap.c ****             } else {
 331               		.loc 1 113 17 is_stmt 1 view .LVU70
 332 007c 4FEF      		ldi r20,lo8(-1)
 333 007e 6FEF      		ldi r22,lo8(-1)
 334 0080 80E0      		ldi r24,0
 335 0082 00C0      		rjmp .L31
 336               	.L17:
 130:keyboards/3key/keymaps/LohseBoi/keymap.c ****                 asciiClick++;
 337               		.loc 1 130 13 view .LVU71
 130:keyboards/3key/keymaps/LohseBoi/keymap.c ****                 asciiClick++;
 338               		.loc 1 130 16 is_stmt 0 view .LVU72
 339 0084 8281      		ldd r24,Z+2
 340 0086 8823      		tst r24
 341 0088 01F0      		breq .L20
 131:keyboards/3key/keymaps/LohseBoi/keymap.c ****                 asciiHolding = true;
 342               		.loc 1 131 17 is_stmt 1 view .LVU73
 131:keyboards/3key/keymaps/LohseBoi/keymap.c ****                 asciiHolding = true;
 343               		.loc 1 131 27 is_stmt 0 view .LVU74
 344 008a 8091 0000 		lds r24,asciiClick
 345 008e 8F5F      		subi r24,lo8(-(1))
 346 0090 8093 0000 		sts asciiClick,r24
 132:keyboards/3key/keymaps/LohseBoi/keymap.c ****                 asciiTimer = timer_read();
 347               		.loc 1 132 17 is_stmt 1 view .LVU75
 132:keyboards/3key/keymaps/LohseBoi/keymap.c ****                 asciiTimer = timer_read();
 348               		.loc 1 132 30 is_stmt 0 view .LVU76
 349 0094 9093 0000 		sts asciiHolding,r25
 133:keyboards/3key/keymaps/LohseBoi/keymap.c ****             } else { //Release
 350               		.loc 1 133 17 is_stmt 1 view .LVU77
 133:keyboards/3key/keymaps/LohseBoi/keymap.c ****             } else { //Release
 351               		.loc 1 133 30 is_stmt 0 view .LVU78
 352 0098 0E94 0000 		call timer_read
 353               	.LVL12:
 133:keyboards/3key/keymaps/LohseBoi/keymap.c ****             } else { //Release
 354               		.loc 1 133 28 view .LVU79
 355 009c 9093 0000 		sts asciiTimer+1,r25
 356 00a0 8093 0000 		sts asciiTimer,r24
 357               	.L19:
 143:keyboards/3key/keymaps/LohseBoi/keymap.c ****             } 
 144:keyboards/3key/keymaps/LohseBoi/keymap.c ****             break;
 145:keyboards/3key/keymaps/LohseBoi/keymap.c ****     }
 146:keyboards/3key/keymaps/LohseBoi/keymap.c ****     if (asciiCounter >= 8) {
 358               		.loc 1 146 5 is_stmt 1 view .LVU80
 359               		.loc 1 146 8 is_stmt 0 view .LVU81
 360 00a4 8091 0000 		lds r24,asciiCounter
 361 00a8 8830      		cpi r24,lo8(8)
 362 00aa 00F0      		brlo .L21
 363               	.LBB3:
 147:keyboards/3key/keymaps/LohseBoi/keymap.c ****         char str[2] = {' ', 0};
 364               		.loc 1 147 9 is_stmt 1 view .LVU82
 365               		.loc 1 147 14 is_stmt 0 view .LVU83
 366 00ac 80E2      		ldi r24,lo8(32)
 367 00ae 90E0      		ldi r25,0
 368 00b0 9A83      		std Y+2,r25
 369 00b2 8983      		std Y+1,r24
 148:keyboards/3key/keymaps/LohseBoi/keymap.c ****         sprintf(str, "%c", asciiChar);
 370               		.loc 1 148 9 is_stmt 1 view .LVU84
 371 00b4 8091 0000 		lds r24,asciiChar
 372 00b8 1F92      		push __zero_reg__
 373 00ba 8F93      		push r24
 374 00bc 80E0      		ldi r24,lo8(.LC0)
 375 00be 90E0      		ldi r25,hi8(.LC0)
 376 00c0 9F93      		push r25
 377 00c2 8F93      		push r24
 378 00c4 8E01      		movw r16,r28
 379               	.LVL13:
 380               		.loc 1 148 9 is_stmt 0 view .LVU85
 381 00c6 0F5F      		subi r16,-1
 382 00c8 1F4F      		sbci r17,-1
 383 00ca 1F93      		push r17
 384 00cc 0F93      		push r16
 385 00ce 0E94 0000 		call sprintf
 386               	.LVL14:
 149:keyboards/3key/keymaps/LohseBoi/keymap.c ****         send_string(str);
 387               		.loc 1 149 9 is_stmt 1 view .LVU86
 388 00d2 C801      		movw r24,r16
 389 00d4 0E94 0000 		call send_string
 390               	.LVL15:
 150:keyboards/3key/keymaps/LohseBoi/keymap.c ****         asciiChar = 0;
 391               		.loc 1 150 9 view .LVU87
 392               		.loc 1 150 19 is_stmt 0 view .LVU88
 393 00d8 1092 0000 		sts asciiChar,__zero_reg__
 151:keyboards/3key/keymaps/LohseBoi/keymap.c ****         asciiCounter = 0;
 394               		.loc 1 151 9 is_stmt 1 view .LVU89
 395               		.loc 1 151 22 is_stmt 0 view .LVU90
 396 00dc 1092 0000 		sts asciiCounter,__zero_reg__
 397 00e0 0F90      		pop __tmp_reg__
 398 00e2 0F90      		pop __tmp_reg__
 399 00e4 0F90      		pop __tmp_reg__
 400 00e6 0F90      		pop __tmp_reg__
 401 00e8 0F90      		pop __tmp_reg__
 402 00ea 0F90      		pop __tmp_reg__
 403               	.L21:
 404               	.LBE3:
 152:keyboards/3key/keymaps/LohseBoi/keymap.c ****     }
 153:keyboards/3key/keymaps/LohseBoi/keymap.c **** 
 154:keyboards/3key/keymaps/LohseBoi/keymap.c ****     return false;
 405               		.loc 1 154 5 is_stmt 1 view .LVU91
 155:keyboards/3key/keymaps/LohseBoi/keymap.c **** #endif
 156:keyboards/3key/keymaps/LohseBoi/keymap.c **** 
 157:keyboards/3key/keymaps/LohseBoi/keymap.c **** 	return true;
 158:keyboards/3key/keymaps/LohseBoi/keymap.c **** }
 406               		.loc 1 158 1 is_stmt 0 view .LVU92
 407 00ec 80E0      		ldi r24,0
 408               	/* epilogue start */
 409 00ee 0F90      		pop __tmp_reg__
 410 00f0 0F90      		pop __tmp_reg__
 411 00f2 DF91      		pop r29
 412 00f4 CF91      		pop r28
 413 00f6 1F91      		pop r17
 414 00f8 0F91      		pop r16
 415 00fa 0895      		ret
 416               	.LVL16:
 417               	.L20:
 135:keyboards/3key/keymaps/LohseBoi/keymap.c ****                 asciiHolding = false;
 418               		.loc 1 135 17 is_stmt 1 view .LVU93
 419 00fc 8AE2      		ldi r24,lo8(42)
 420 00fe 0E94 0000 		call unregister_code
 421               	.LVL17:
 136:keyboards/3key/keymaps/LohseBoi/keymap.c ****             } 
 422               		.loc 1 136 17 view .LVU94
 136:keyboards/3key/keymaps/LohseBoi/keymap.c ****             } 
 423               		.loc 1 136 30 is_stmt 0 view .LVU95
 424 0102 1092 0000 		sts asciiHolding,__zero_reg__
 425 0106 00C0      		rjmp .L19
 426               	.L18:
 140:keyboards/3key/keymaps/LohseBoi/keymap.c ****                 asciiChar <<= 1;
 427               		.loc 1 140 13 is_stmt 1 view .LVU96
 140:keyboards/3key/keymaps/LohseBoi/keymap.c ****                 asciiChar <<= 1;
 428               		.loc 1 140 16 is_stmt 0 view .LVU97
 429 0108 9281      		ldd r25,Z+2
 430 010a 9111      		cpse r25,__zero_reg__
 431 010c 00C0      		rjmp .L19
 141:keyboards/3key/keymaps/LohseBoi/keymap.c ****                 asciiCounter++;
 432               		.loc 1 141 17 is_stmt 1 view .LVU98
 141:keyboards/3key/keymaps/LohseBoi/keymap.c ****                 asciiCounter++;
 433               		.loc 1 141 27 is_stmt 0 view .LVU99
 434 010e 9091 0000 		lds r25,asciiChar
 435 0112 990F      		lsl r25
 436 0114 00C0      		rjmp .L32
 437               		.cfi_endproc
 438               	.LFE122:
 440               	.global	keymaps
 441               		.section	.progmem.data.keymaps,"a"
 444               	keymaps:
 445 0000 1E00      		.word	30
 446 0002 1F00      		.word	31
 447 0004 2000      		.word	32
 448               	.global	asciiHolding
 449               		.section	.bss.asciiHolding,"aw",@nobits
 452               	asciiHolding:
 453 0000 00        		.zero	1
 454               	.global	asciiClick
 455               		.section	.bss.asciiClick,"aw",@nobits
 458               	asciiClick:
 459 0000 00        		.zero	1
 460               	.global	asciiLimit
 461               		.section	.data.asciiLimit,"aw"
 464               	asciiLimit:
 465 0000 C800      		.word	200
 466               	.global	asciiTimer
 467               		.section	.bss.asciiTimer,"aw",@nobits
 470               	asciiTimer:
 471 0000 0000      		.zero	2
 472               	.global	asciiCounter
 473               		.section	.bss.asciiCounter,"aw",@nobits
 476               	asciiCounter:
 477 0000 00        		.zero	1
 478               	.global	asciiChar
 479               		.section	.bss.asciiChar,"aw",@nobits
 482               	asciiChar:
 483 0000 00        		.zero	1
 484               		.text
 485               	.Letext0:
 486               		.file 2 "/usr/avr/include/stdint.h"
 487               		.file 3 "quantum/keyboard.h"
 488               		.file 4 "quantum/action_macro.h"
 489               		.file 5 "quantum/action.h"
 490               		.file 6 "quantum/keymap.h"
 491               		.file 7 "quantum/rgblight/rgblight.h"
 492               		.file 8 "quantum/send_string.h"
 493               		.file 9 "/usr/avr/include/stdio.h"
 494               		.file 10 "tmk_core/common/timer.h"
 495               		.file 11 "quantum/keycode.h"
 496               		.file 12 "quantum/sequencer/sequencer.h"
DEFINED SYMBOLS
                            *ABS*:0000000000000000 keymap.c
     /tmp/ccijemkK.s:2      *ABS*:000000000000003e __SP_H__
     /tmp/ccijemkK.s:3      *ABS*:000000000000003d __SP_L__
     /tmp/ccijemkK.s:4      *ABS*:000000000000003f __SREG__
     /tmp/ccijemkK.s:5      *ABS*:0000000000000000 __tmp_reg__
     /tmp/ccijemkK.s:6      *ABS*:0000000000000001 __zero_reg__
     /tmp/ccijemkK.s:13     .text.action_get_macro:0000000000000000 action_get_macro
     /tmp/ccijemkK.s:40     .text.matrix_init_user:0000000000000000 matrix_init_user
     /tmp/ccijemkK.s:60     .text.matrix_scan_user:0000000000000000 matrix_scan_user
     /tmp/ccijemkK.s:458    .bss.asciiClick:0000000000000000 asciiClick
     /tmp/ccijemkK.s:470    .bss.asciiTimer:0000000000000000 asciiTimer
     /tmp/ccijemkK.s:464    .data.asciiLimit:0000000000000000 asciiLimit
     /tmp/ccijemkK.s:482    .bss.asciiChar:0000000000000000 asciiChar
     /tmp/ccijemkK.s:476    .bss.asciiCounter:0000000000000000 asciiCounter
     /tmp/ccijemkK.s:452    .bss.asciiHolding:0000000000000000 asciiHolding
     /tmp/ccijemkK.s:212    .text.process_record_user:0000000000000000 process_record_user
     /tmp/ccijemkK.s:444    .progmem.data.keymaps:0000000000000000 keymaps

UNDEFINED SYMBOLS
timer_elapsed
sprintf
send_string
timer_read
register_code
rgblight_sethsv
unregister_code
__do_copy_data
__do_clear_bss
