   1               		.file	"rgblight.c"
   2               	__SP_H__ = 0x3e
   3               	__SP_L__ = 0x3d
   4               	__SREG__ = 0x3f
   5               	__tmp_reg__ = 0
   6               	__zero_reg__ = 1
   7               		.text
   8               	.Ltext0:
   9               		.cfi_sections	.debug_frame
  10               		.section	.text.rgblight_effect_dummy,"ax",@progbits
  12               	rgblight_effect_dummy:
  13               	.LVL0:
  14               	.LFB174:
  15               		.file 1 "quantum/rgblight/rgblight.c"
   1:quantum/rgblight/rgblight.c **** /* Copyright 2016-2017 Yang Liu
   2:quantum/rgblight/rgblight.c ****  *
   3:quantum/rgblight/rgblight.c ****  * This program is free software: you can redistribute it and/or modify
   4:quantum/rgblight/rgblight.c ****  * it under the terms of the GNU General Public License as published by
   5:quantum/rgblight/rgblight.c ****  * the Free Software Foundation, either version 2 of the License, or
   6:quantum/rgblight/rgblight.c ****  * (at your option) any later version.
   7:quantum/rgblight/rgblight.c ****  *
   8:quantum/rgblight/rgblight.c ****  * This program is distributed in the hope that it will be useful,
   9:quantum/rgblight/rgblight.c ****  * but WITHOUT ANY WARRANTY; without even the implied warranty of
  10:quantum/rgblight/rgblight.c ****  * MERCHANTABILITY or FITNESS FOR A PARTICULAR PURPOSE.  See the
  11:quantum/rgblight/rgblight.c ****  * GNU General Public License for more details.
  12:quantum/rgblight/rgblight.c ****  *
  13:quantum/rgblight/rgblight.c ****  * You should have received a copy of the GNU General Public License
  14:quantum/rgblight/rgblight.c ****  * along with this program.  If not, see <http://www.gnu.org/licenses/>.
  15:quantum/rgblight/rgblight.c ****  */
  16:quantum/rgblight/rgblight.c **** #include <math.h>
  17:quantum/rgblight/rgblight.c **** #include <string.h>
  18:quantum/rgblight/rgblight.c **** #include <stdlib.h>
  19:quantum/rgblight/rgblight.c **** #include "wait.h"
  20:quantum/rgblight/rgblight.c **** #include "progmem.h"
  21:quantum/rgblight/rgblight.c **** #include "sync_timer.h"
  22:quantum/rgblight/rgblight.c **** #include "rgblight.h"
  23:quantum/rgblight/rgblight.c **** #include "color.h"
  24:quantum/rgblight/rgblight.c **** #include "debug.h"
  25:quantum/rgblight/rgblight.c **** #include "led_tables.h"
  26:quantum/rgblight/rgblight.c **** #include <lib/lib8tion/lib8tion.h>
  27:quantum/rgblight/rgblight.c **** #ifdef EEPROM_ENABLE
  28:quantum/rgblight/rgblight.c **** #    include "eeprom.h"
  29:quantum/rgblight/rgblight.c **** #endif
  30:quantum/rgblight/rgblight.c **** #ifdef VELOCIKEY_ENABLE
  31:quantum/rgblight/rgblight.c **** #    include "velocikey.h"
  32:quantum/rgblight/rgblight.c **** #endif
  33:quantum/rgblight/rgblight.c **** 
  34:quantum/rgblight/rgblight.c **** #ifndef MIN
  35:quantum/rgblight/rgblight.c **** #    define MIN(a, b) (((a) < (b)) ? (a) : (b))
  36:quantum/rgblight/rgblight.c **** #endif
  37:quantum/rgblight/rgblight.c **** #ifndef MAX
  38:quantum/rgblight/rgblight.c **** #    define MAX(a, b) (((a) > (b)) ? (a) : (b))
  39:quantum/rgblight/rgblight.c **** #endif
  40:quantum/rgblight/rgblight.c **** 
  41:quantum/rgblight/rgblight.c **** #ifdef RGBLIGHT_SPLIT
  42:quantum/rgblight/rgblight.c **** /* for split keyboard */
  43:quantum/rgblight/rgblight.c **** #    define RGBLIGHT_SPLIT_SET_CHANGE_MODE rgblight_status.change_flags |= RGBLIGHT_STATUS_CHANGE_M
  44:quantum/rgblight/rgblight.c **** #    define RGBLIGHT_SPLIT_SET_CHANGE_HSVS rgblight_status.change_flags |= RGBLIGHT_STATUS_CHANGE_H
  45:quantum/rgblight/rgblight.c **** #    define RGBLIGHT_SPLIT_SET_CHANGE_MODEHSVS rgblight_status.change_flags |= (RGBLIGHT_STATUS_CHA
  46:quantum/rgblight/rgblight.c **** #    define RGBLIGHT_SPLIT_SET_CHANGE_LAYERS rgblight_status.change_flags |= RGBLIGHT_STATUS_CHANGE
  47:quantum/rgblight/rgblight.c **** #    define RGBLIGHT_SPLIT_SET_CHANGE_TIMER_ENABLE rgblight_status.change_flags |= RGBLIGHT_STATUS_
  48:quantum/rgblight/rgblight.c **** #    define RGBLIGHT_SPLIT_ANIMATION_TICK rgblight_status.change_flags |= RGBLIGHT_STATUS_ANIMATION
  49:quantum/rgblight/rgblight.c **** #else
  50:quantum/rgblight/rgblight.c **** #    define RGBLIGHT_SPLIT_SET_CHANGE_MODE
  51:quantum/rgblight/rgblight.c **** #    define RGBLIGHT_SPLIT_SET_CHANGE_HSVS
  52:quantum/rgblight/rgblight.c **** #    define RGBLIGHT_SPLIT_SET_CHANGE_MODEHSVS
  53:quantum/rgblight/rgblight.c **** #    define RGBLIGHT_SPLIT_SET_CHANGE_LAYERS
  54:quantum/rgblight/rgblight.c **** #    define RGBLIGHT_SPLIT_SET_CHANGE_TIMER_ENABLE
  55:quantum/rgblight/rgblight.c **** #    define RGBLIGHT_SPLIT_ANIMATION_TICK
  56:quantum/rgblight/rgblight.c **** #endif
  57:quantum/rgblight/rgblight.c **** 
  58:quantum/rgblight/rgblight.c **** #define _RGBM_SINGLE_STATIC(sym) RGBLIGHT_MODE_##sym,
  59:quantum/rgblight/rgblight.c **** #define _RGBM_SINGLE_DYNAMIC(sym)
  60:quantum/rgblight/rgblight.c **** #define _RGBM_MULTI_STATIC(sym) RGBLIGHT_MODE_##sym,
  61:quantum/rgblight/rgblight.c **** #define _RGBM_MULTI_DYNAMIC(sym)
  62:quantum/rgblight/rgblight.c **** #define _RGBM_TMP_STATIC(sym, msym) RGBLIGHT_MODE_##sym,
  63:quantum/rgblight/rgblight.c **** #define _RGBM_TMP_DYNAMIC(sym, msym)
  64:quantum/rgblight/rgblight.c **** static uint8_t static_effect_table[] = {
  65:quantum/rgblight/rgblight.c **** #include "rgblight_modes.h"
  66:quantum/rgblight/rgblight.c **** };
  67:quantum/rgblight/rgblight.c **** 
  68:quantum/rgblight/rgblight.c **** #define _RGBM_SINGLE_STATIC(sym) RGBLIGHT_MODE_##sym,
  69:quantum/rgblight/rgblight.c **** #define _RGBM_SINGLE_DYNAMIC(sym) RGBLIGHT_MODE_##sym,
  70:quantum/rgblight/rgblight.c **** #define _RGBM_MULTI_STATIC(sym) RGBLIGHT_MODE_##sym,
  71:quantum/rgblight/rgblight.c **** #define _RGBM_MULTI_DYNAMIC(sym) RGBLIGHT_MODE_##sym,
  72:quantum/rgblight/rgblight.c **** #define _RGBM_TMP_STATIC(sym, msym) RGBLIGHT_MODE_##msym,
  73:quantum/rgblight/rgblight.c **** #define _RGBM_TMP_DYNAMIC(sym, msym) RGBLIGHT_MODE_##msym,
  74:quantum/rgblight/rgblight.c **** static uint8_t mode_base_table[] = {
  75:quantum/rgblight/rgblight.c ****     0,  // RGBLIGHT_MODE_zero
  76:quantum/rgblight/rgblight.c **** #include "rgblight_modes.h"
  77:quantum/rgblight/rgblight.c **** };
  78:quantum/rgblight/rgblight.c **** 
  79:quantum/rgblight/rgblight.c **** #if !defined(RGBLIGHT_DEFAULT_MODE)
  80:quantum/rgblight/rgblight.c **** #    define RGBLIGHT_DEFAULT_MODE RGBLIGHT_MODE_STATIC_LIGHT
  81:quantum/rgblight/rgblight.c **** #endif
  82:quantum/rgblight/rgblight.c **** 
  83:quantum/rgblight/rgblight.c **** #if !defined(RGBLIGHT_DEFAULT_HUE)
  84:quantum/rgblight/rgblight.c **** #    define RGBLIGHT_DEFAULT_HUE 0
  85:quantum/rgblight/rgblight.c **** #endif
  86:quantum/rgblight/rgblight.c **** 
  87:quantum/rgblight/rgblight.c **** #if !defined(RGBLIGHT_DEFAULT_SAT)
  88:quantum/rgblight/rgblight.c **** #    define RGBLIGHT_DEFAULT_SAT UINT8_MAX
  89:quantum/rgblight/rgblight.c **** #endif
  90:quantum/rgblight/rgblight.c **** 
  91:quantum/rgblight/rgblight.c **** #if !defined(RGBLIGHT_DEFAULT_VAL)
  92:quantum/rgblight/rgblight.c **** #    define RGBLIGHT_DEFAULT_VAL RGBLIGHT_LIMIT_VAL
  93:quantum/rgblight/rgblight.c **** #endif
  94:quantum/rgblight/rgblight.c **** 
  95:quantum/rgblight/rgblight.c **** #if !defined(RGBLIGHT_DEFAULT_SPD)
  96:quantum/rgblight/rgblight.c **** #    define RGBLIGHT_DEFAULT_SPD 0
  97:quantum/rgblight/rgblight.c **** #endif
  98:quantum/rgblight/rgblight.c **** 
  99:quantum/rgblight/rgblight.c **** static inline int is_static_effect(uint8_t mode) { return memchr(static_effect_table, mode, sizeof(
 100:quantum/rgblight/rgblight.c **** 
 101:quantum/rgblight/rgblight.c **** #ifdef RGBLIGHT_LED_MAP
 102:quantum/rgblight/rgblight.c **** const uint8_t led_map[] PROGMEM = RGBLIGHT_LED_MAP;
 103:quantum/rgblight/rgblight.c **** #endif
 104:quantum/rgblight/rgblight.c **** 
 105:quantum/rgblight/rgblight.c **** #ifdef RGBLIGHT_EFFECT_STATIC_GRADIENT
 106:quantum/rgblight/rgblight.c **** __attribute__((weak)) const uint8_t RGBLED_GRADIENT_RANGES[] PROGMEM = {255, 170, 127, 85, 64};
 107:quantum/rgblight/rgblight.c **** #endif
 108:quantum/rgblight/rgblight.c **** 
 109:quantum/rgblight/rgblight.c **** rgblight_config_t rgblight_config;
 110:quantum/rgblight/rgblight.c **** rgblight_status_t rgblight_status         = {.timer_enabled = false};
 111:quantum/rgblight/rgblight.c **** bool              is_rgblight_initialized = false;
 112:quantum/rgblight/rgblight.c **** 
 113:quantum/rgblight/rgblight.c **** #ifdef RGBLIGHT_SLEEP
 114:quantum/rgblight/rgblight.c **** static bool is_suspended;
 115:quantum/rgblight/rgblight.c **** static bool pre_suspend_enabled;
 116:quantum/rgblight/rgblight.c **** #endif
 117:quantum/rgblight/rgblight.c **** 
 118:quantum/rgblight/rgblight.c **** #ifdef RGBLIGHT_USE_TIMER
 119:quantum/rgblight/rgblight.c **** animation_status_t animation_status = {};
 120:quantum/rgblight/rgblight.c **** #endif
 121:quantum/rgblight/rgblight.c **** 
 122:quantum/rgblight/rgblight.c **** #ifndef LED_ARRAY
 123:quantum/rgblight/rgblight.c **** LED_TYPE led[RGBLED_NUM];
 124:quantum/rgblight/rgblight.c **** #    define LED_ARRAY led
 125:quantum/rgblight/rgblight.c **** #endif
 126:quantum/rgblight/rgblight.c **** 
 127:quantum/rgblight/rgblight.c **** #ifdef RGBLIGHT_LAYERS
 128:quantum/rgblight/rgblight.c **** rgblight_segment_t const *const *rgblight_layers = NULL;
 129:quantum/rgblight/rgblight.c **** #endif
 130:quantum/rgblight/rgblight.c **** 
 131:quantum/rgblight/rgblight.c **** rgblight_ranges_t rgblight_ranges = {0, RGBLED_NUM, 0, RGBLED_NUM, RGBLED_NUM};
 132:quantum/rgblight/rgblight.c **** 
 133:quantum/rgblight/rgblight.c **** void rgblight_set_clipping_range(uint8_t start_pos, uint8_t num_leds) {
 134:quantum/rgblight/rgblight.c ****     rgblight_ranges.clipping_start_pos = start_pos;
 135:quantum/rgblight/rgblight.c ****     rgblight_ranges.clipping_num_leds  = num_leds;
 136:quantum/rgblight/rgblight.c **** }
 137:quantum/rgblight/rgblight.c **** 
 138:quantum/rgblight/rgblight.c **** void rgblight_set_effect_range(uint8_t start_pos, uint8_t num_leds) {
 139:quantum/rgblight/rgblight.c ****     if (start_pos >= RGBLED_NUM) return;
 140:quantum/rgblight/rgblight.c ****     if (start_pos + num_leds > RGBLED_NUM) return;
 141:quantum/rgblight/rgblight.c ****     rgblight_ranges.effect_start_pos = start_pos;
 142:quantum/rgblight/rgblight.c ****     rgblight_ranges.effect_end_pos   = start_pos + num_leds;
 143:quantum/rgblight/rgblight.c ****     rgblight_ranges.effect_num_leds  = num_leds;
 144:quantum/rgblight/rgblight.c **** }
 145:quantum/rgblight/rgblight.c **** 
 146:quantum/rgblight/rgblight.c **** __attribute__((weak)) RGB rgblight_hsv_to_rgb(HSV hsv) { return hsv_to_rgb(hsv); }
 147:quantum/rgblight/rgblight.c **** 
 148:quantum/rgblight/rgblight.c **** void sethsv_raw(uint8_t hue, uint8_t sat, uint8_t val, LED_TYPE *led1) {
 149:quantum/rgblight/rgblight.c ****     HSV hsv = {hue, sat, val};
 150:quantum/rgblight/rgblight.c ****     RGB rgb = rgblight_hsv_to_rgb(hsv);
 151:quantum/rgblight/rgblight.c ****     setrgb(rgb.r, rgb.g, rgb.b, led1);
 152:quantum/rgblight/rgblight.c **** }
 153:quantum/rgblight/rgblight.c **** 
 154:quantum/rgblight/rgblight.c **** void sethsv(uint8_t hue, uint8_t sat, uint8_t val, LED_TYPE *led1) { sethsv_raw(hue, sat, val > RGB
 155:quantum/rgblight/rgblight.c **** 
 156:quantum/rgblight/rgblight.c **** void setrgb(uint8_t r, uint8_t g, uint8_t b, LED_TYPE *led1) {
 157:quantum/rgblight/rgblight.c ****     led1->r = r;
 158:quantum/rgblight/rgblight.c ****     led1->g = g;
 159:quantum/rgblight/rgblight.c ****     led1->b = b;
 160:quantum/rgblight/rgblight.c **** #ifdef RGBW
 161:quantum/rgblight/rgblight.c ****     led1->w = 0;
 162:quantum/rgblight/rgblight.c **** #endif
 163:quantum/rgblight/rgblight.c **** }
 164:quantum/rgblight/rgblight.c **** 
 165:quantum/rgblight/rgblight.c **** void rgblight_check_config(void) {
 166:quantum/rgblight/rgblight.c ****     /* Add some out of bound checks for RGB light config */
 167:quantum/rgblight/rgblight.c **** 
 168:quantum/rgblight/rgblight.c ****     if (rgblight_config.mode < RGBLIGHT_MODE_STATIC_LIGHT) {
 169:quantum/rgblight/rgblight.c ****         rgblight_config.mode = RGBLIGHT_MODE_STATIC_LIGHT;
 170:quantum/rgblight/rgblight.c ****     } else if (rgblight_config.mode > RGBLIGHT_MODES) {
 171:quantum/rgblight/rgblight.c ****         rgblight_config.mode = RGBLIGHT_MODES;
 172:quantum/rgblight/rgblight.c ****     }
 173:quantum/rgblight/rgblight.c **** 
 174:quantum/rgblight/rgblight.c ****     if (rgblight_config.val > RGBLIGHT_LIMIT_VAL) {
 175:quantum/rgblight/rgblight.c ****         rgblight_config.val = RGBLIGHT_LIMIT_VAL;
 176:quantum/rgblight/rgblight.c ****     }
 177:quantum/rgblight/rgblight.c **** }
 178:quantum/rgblight/rgblight.c **** 
 179:quantum/rgblight/rgblight.c **** uint32_t eeconfig_read_rgblight(void) {
 180:quantum/rgblight/rgblight.c **** #ifdef EEPROM_ENABLE
 181:quantum/rgblight/rgblight.c ****     return eeprom_read_dword(EECONFIG_RGBLIGHT);
 182:quantum/rgblight/rgblight.c **** #else
 183:quantum/rgblight/rgblight.c ****     return 0;
 184:quantum/rgblight/rgblight.c **** #endif
 185:quantum/rgblight/rgblight.c **** }
 186:quantum/rgblight/rgblight.c **** 
 187:quantum/rgblight/rgblight.c **** void eeconfig_update_rgblight(uint32_t val) {
 188:quantum/rgblight/rgblight.c **** #ifdef EEPROM_ENABLE
 189:quantum/rgblight/rgblight.c ****     rgblight_check_config();
 190:quantum/rgblight/rgblight.c ****     eeprom_update_dword(EECONFIG_RGBLIGHT, val);
 191:quantum/rgblight/rgblight.c **** #endif
 192:quantum/rgblight/rgblight.c **** }
 193:quantum/rgblight/rgblight.c **** 
 194:quantum/rgblight/rgblight.c **** void eeconfig_update_rgblight_current(void) { eeconfig_update_rgblight(rgblight_config.raw); }
 195:quantum/rgblight/rgblight.c **** 
 196:quantum/rgblight/rgblight.c **** void eeconfig_update_rgblight_default(void) {
 197:quantum/rgblight/rgblight.c ****     rgblight_config.enable = 1;
 198:quantum/rgblight/rgblight.c ****     rgblight_config.mode   = RGBLIGHT_DEFAULT_MODE;
 199:quantum/rgblight/rgblight.c ****     rgblight_config.hue    = RGBLIGHT_DEFAULT_HUE;
 200:quantum/rgblight/rgblight.c ****     rgblight_config.sat    = RGBLIGHT_DEFAULT_SAT;
 201:quantum/rgblight/rgblight.c ****     rgblight_config.val    = RGBLIGHT_DEFAULT_VAL;
 202:quantum/rgblight/rgblight.c ****     rgblight_config.speed  = RGBLIGHT_DEFAULT_SPD;
 203:quantum/rgblight/rgblight.c ****     RGBLIGHT_SPLIT_SET_CHANGE_MODEHSVS;
 204:quantum/rgblight/rgblight.c ****     eeconfig_update_rgblight(rgblight_config.raw);
 205:quantum/rgblight/rgblight.c **** }
 206:quantum/rgblight/rgblight.c **** 
 207:quantum/rgblight/rgblight.c **** void eeconfig_debug_rgblight(void) {
 208:quantum/rgblight/rgblight.c ****     dprintf("rgblight_config EEPROM:\n");
 209:quantum/rgblight/rgblight.c ****     dprintf("rgblight_config.enable = %d\n", rgblight_config.enable);
 210:quantum/rgblight/rgblight.c ****     dprintf("rghlight_config.mode = %d\n", rgblight_config.mode);
 211:quantum/rgblight/rgblight.c ****     dprintf("rgblight_config.hue = %d\n", rgblight_config.hue);
 212:quantum/rgblight/rgblight.c ****     dprintf("rgblight_config.sat = %d\n", rgblight_config.sat);
 213:quantum/rgblight/rgblight.c ****     dprintf("rgblight_config.val = %d\n", rgblight_config.val);
 214:quantum/rgblight/rgblight.c ****     dprintf("rgblight_config.speed = %d\n", rgblight_config.speed);
 215:quantum/rgblight/rgblight.c **** }
 216:quantum/rgblight/rgblight.c **** 
 217:quantum/rgblight/rgblight.c **** void rgblight_init(void) {
 218:quantum/rgblight/rgblight.c ****     /* if already initialized, don't do it again.
 219:quantum/rgblight/rgblight.c ****        If you must do it again, extern this and set to false, first.
 220:quantum/rgblight/rgblight.c ****        This is a dirty, dirty hack until proper hooks can be added for keyboard startup. */
 221:quantum/rgblight/rgblight.c ****     if (is_rgblight_initialized) {
 222:quantum/rgblight/rgblight.c ****         return;
 223:quantum/rgblight/rgblight.c ****     }
 224:quantum/rgblight/rgblight.c **** 
 225:quantum/rgblight/rgblight.c ****     dprintf("rgblight_init called.\n");
 226:quantum/rgblight/rgblight.c ****     dprintf("rgblight_init start!\n");
 227:quantum/rgblight/rgblight.c ****     if (!eeconfig_is_enabled()) {
 228:quantum/rgblight/rgblight.c ****         dprintf("rgblight_init eeconfig is not enabled.\n");
 229:quantum/rgblight/rgblight.c ****         eeconfig_init();
 230:quantum/rgblight/rgblight.c ****         eeconfig_update_rgblight_default();
 231:quantum/rgblight/rgblight.c ****     }
 232:quantum/rgblight/rgblight.c ****     rgblight_config.raw = eeconfig_read_rgblight();
 233:quantum/rgblight/rgblight.c ****     RGBLIGHT_SPLIT_SET_CHANGE_MODEHSVS;
 234:quantum/rgblight/rgblight.c ****     if (!rgblight_config.mode) {
 235:quantum/rgblight/rgblight.c ****         dprintf("rgblight_init rgblight_config.mode = 0. Write default values to EEPROM.\n");
 236:quantum/rgblight/rgblight.c ****         eeconfig_update_rgblight_default();
 237:quantum/rgblight/rgblight.c ****         rgblight_config.raw = eeconfig_read_rgblight();
 238:quantum/rgblight/rgblight.c ****     }
 239:quantum/rgblight/rgblight.c ****     rgblight_check_config();
 240:quantum/rgblight/rgblight.c **** 
 241:quantum/rgblight/rgblight.c ****     eeconfig_debug_rgblight();  // display current eeprom values
 242:quantum/rgblight/rgblight.c **** 
 243:quantum/rgblight/rgblight.c ****     rgblight_timer_init();  // setup the timer
 244:quantum/rgblight/rgblight.c **** 
 245:quantum/rgblight/rgblight.c ****     if (rgblight_config.enable) {
 246:quantum/rgblight/rgblight.c ****         rgblight_mode_noeeprom(rgblight_config.mode);
 247:quantum/rgblight/rgblight.c ****     }
 248:quantum/rgblight/rgblight.c **** 
 249:quantum/rgblight/rgblight.c ****     is_rgblight_initialized = true;
 250:quantum/rgblight/rgblight.c **** }
 251:quantum/rgblight/rgblight.c **** 
 252:quantum/rgblight/rgblight.c **** void rgblight_reload_from_eeprom(void) {
 253:quantum/rgblight/rgblight.c ****     /* Reset back to what we have in eeprom */
 254:quantum/rgblight/rgblight.c ****     rgblight_config.raw = eeconfig_read_rgblight();
 255:quantum/rgblight/rgblight.c ****     RGBLIGHT_SPLIT_SET_CHANGE_MODEHSVS;
 256:quantum/rgblight/rgblight.c ****     rgblight_check_config();
 257:quantum/rgblight/rgblight.c ****     eeconfig_debug_rgblight();  // display current eeprom values
 258:quantum/rgblight/rgblight.c ****     if (rgblight_config.enable) {
 259:quantum/rgblight/rgblight.c ****         rgblight_mode_noeeprom(rgblight_config.mode);
 260:quantum/rgblight/rgblight.c ****     }
 261:quantum/rgblight/rgblight.c **** }
 262:quantum/rgblight/rgblight.c **** 
 263:quantum/rgblight/rgblight.c **** uint32_t rgblight_read_dword(void) { return rgblight_config.raw; }
 264:quantum/rgblight/rgblight.c **** 
 265:quantum/rgblight/rgblight.c **** void rgblight_update_dword(uint32_t dword) {
 266:quantum/rgblight/rgblight.c ****     RGBLIGHT_SPLIT_SET_CHANGE_MODEHSVS;
 267:quantum/rgblight/rgblight.c ****     rgblight_config.raw = dword;
 268:quantum/rgblight/rgblight.c ****     if (rgblight_config.enable)
 269:quantum/rgblight/rgblight.c ****         rgblight_mode_noeeprom(rgblight_config.mode);
 270:quantum/rgblight/rgblight.c ****     else {
 271:quantum/rgblight/rgblight.c ****         rgblight_timer_disable();
 272:quantum/rgblight/rgblight.c ****         rgblight_set();
 273:quantum/rgblight/rgblight.c ****     }
 274:quantum/rgblight/rgblight.c **** }
 275:quantum/rgblight/rgblight.c **** 
 276:quantum/rgblight/rgblight.c **** void rgblight_increase(void) {
 277:quantum/rgblight/rgblight.c ****     uint8_t mode = 0;
 278:quantum/rgblight/rgblight.c ****     if (rgblight_config.mode < RGBLIGHT_MODES) {
 279:quantum/rgblight/rgblight.c ****         mode = rgblight_config.mode + 1;
 280:quantum/rgblight/rgblight.c ****     }
 281:quantum/rgblight/rgblight.c ****     rgblight_mode(mode);
 282:quantum/rgblight/rgblight.c **** }
 283:quantum/rgblight/rgblight.c **** void rgblight_decrease(void) {
 284:quantum/rgblight/rgblight.c ****     uint8_t mode = 0;
 285:quantum/rgblight/rgblight.c ****     // Mode will never be < 1. If it ever is, eeprom needs to be initialized.
 286:quantum/rgblight/rgblight.c ****     if (rgblight_config.mode > RGBLIGHT_MODE_STATIC_LIGHT) {
 287:quantum/rgblight/rgblight.c ****         mode = rgblight_config.mode - 1;
 288:quantum/rgblight/rgblight.c ****     }
 289:quantum/rgblight/rgblight.c ****     rgblight_mode(mode);
 290:quantum/rgblight/rgblight.c **** }
 291:quantum/rgblight/rgblight.c **** void rgblight_step_helper(bool write_to_eeprom) {
 292:quantum/rgblight/rgblight.c ****     uint8_t mode = 0;
 293:quantum/rgblight/rgblight.c ****     mode         = rgblight_config.mode + 1;
 294:quantum/rgblight/rgblight.c ****     if (mode > RGBLIGHT_MODES) {
 295:quantum/rgblight/rgblight.c ****         mode = 1;
 296:quantum/rgblight/rgblight.c ****     }
 297:quantum/rgblight/rgblight.c ****     rgblight_mode_eeprom_helper(mode, write_to_eeprom);
 298:quantum/rgblight/rgblight.c **** }
 299:quantum/rgblight/rgblight.c **** void rgblight_step_noeeprom(void) { rgblight_step_helper(false); }
 300:quantum/rgblight/rgblight.c **** void rgblight_step(void) { rgblight_step_helper(true); }
 301:quantum/rgblight/rgblight.c **** void rgblight_step_reverse_helper(bool write_to_eeprom) {
 302:quantum/rgblight/rgblight.c ****     uint8_t mode = 0;
 303:quantum/rgblight/rgblight.c ****     mode         = rgblight_config.mode - 1;
 304:quantum/rgblight/rgblight.c ****     if (mode < 1) {
 305:quantum/rgblight/rgblight.c ****         mode = RGBLIGHT_MODES;
 306:quantum/rgblight/rgblight.c ****     }
 307:quantum/rgblight/rgblight.c ****     rgblight_mode_eeprom_helper(mode, write_to_eeprom);
 308:quantum/rgblight/rgblight.c **** }
 309:quantum/rgblight/rgblight.c **** void rgblight_step_reverse_noeeprom(void) { rgblight_step_reverse_helper(false); }
 310:quantum/rgblight/rgblight.c **** void rgblight_step_reverse(void) { rgblight_step_reverse_helper(true); }
 311:quantum/rgblight/rgblight.c **** 
 312:quantum/rgblight/rgblight.c **** uint8_t rgblight_get_mode(void) {
 313:quantum/rgblight/rgblight.c ****     if (!rgblight_config.enable) {
 314:quantum/rgblight/rgblight.c ****         return false;
 315:quantum/rgblight/rgblight.c ****     }
 316:quantum/rgblight/rgblight.c **** 
 317:quantum/rgblight/rgblight.c ****     return rgblight_config.mode;
 318:quantum/rgblight/rgblight.c **** }
 319:quantum/rgblight/rgblight.c **** 
 320:quantum/rgblight/rgblight.c **** void rgblight_mode_eeprom_helper(uint8_t mode, bool write_to_eeprom) {
 321:quantum/rgblight/rgblight.c ****     if (!rgblight_config.enable) {
 322:quantum/rgblight/rgblight.c ****         return;
 323:quantum/rgblight/rgblight.c ****     }
 324:quantum/rgblight/rgblight.c ****     if (mode < RGBLIGHT_MODE_STATIC_LIGHT) {
 325:quantum/rgblight/rgblight.c ****         rgblight_config.mode = RGBLIGHT_MODE_STATIC_LIGHT;
 326:quantum/rgblight/rgblight.c ****     } else if (mode > RGBLIGHT_MODES) {
 327:quantum/rgblight/rgblight.c ****         rgblight_config.mode = RGBLIGHT_MODES;
 328:quantum/rgblight/rgblight.c ****     } else {
 329:quantum/rgblight/rgblight.c ****         rgblight_config.mode = mode;
 330:quantum/rgblight/rgblight.c ****     }
 331:quantum/rgblight/rgblight.c ****     RGBLIGHT_SPLIT_SET_CHANGE_MODE;
 332:quantum/rgblight/rgblight.c ****     if (write_to_eeprom) {
 333:quantum/rgblight/rgblight.c ****         eeconfig_update_rgblight(rgblight_config.raw);
 334:quantum/rgblight/rgblight.c ****         dprintf("rgblight mode [EEPROM]: %u\n", rgblight_config.mode);
 335:quantum/rgblight/rgblight.c ****     } else {
 336:quantum/rgblight/rgblight.c ****         dprintf("rgblight mode [NOEEPROM]: %u\n", rgblight_config.mode);
 337:quantum/rgblight/rgblight.c ****     }
 338:quantum/rgblight/rgblight.c ****     if (is_static_effect(rgblight_config.mode)) {
 339:quantum/rgblight/rgblight.c ****         rgblight_timer_disable();
 340:quantum/rgblight/rgblight.c ****     } else {
 341:quantum/rgblight/rgblight.c ****         rgblight_timer_enable();
 342:quantum/rgblight/rgblight.c ****     }
 343:quantum/rgblight/rgblight.c **** #ifdef RGBLIGHT_USE_TIMER
 344:quantum/rgblight/rgblight.c ****     animation_status.restart = true;
 345:quantum/rgblight/rgblight.c **** #endif
 346:quantum/rgblight/rgblight.c ****     rgblight_sethsv_noeeprom(rgblight_config.hue, rgblight_config.sat, rgblight_config.val);
 347:quantum/rgblight/rgblight.c **** }
 348:quantum/rgblight/rgblight.c **** 
 349:quantum/rgblight/rgblight.c **** void rgblight_mode(uint8_t mode) { rgblight_mode_eeprom_helper(mode, true); }
 350:quantum/rgblight/rgblight.c **** 
 351:quantum/rgblight/rgblight.c **** void rgblight_mode_noeeprom(uint8_t mode) { rgblight_mode_eeprom_helper(mode, false); }
 352:quantum/rgblight/rgblight.c **** 
 353:quantum/rgblight/rgblight.c **** void rgblight_toggle(void) {
 354:quantum/rgblight/rgblight.c ****     dprintf("rgblight toggle [EEPROM]: rgblight_config.enable = %u\n", !rgblight_config.enable);
 355:quantum/rgblight/rgblight.c ****     if (rgblight_config.enable) {
 356:quantum/rgblight/rgblight.c ****         rgblight_disable();
 357:quantum/rgblight/rgblight.c ****     } else {
 358:quantum/rgblight/rgblight.c ****         rgblight_enable();
 359:quantum/rgblight/rgblight.c ****     }
 360:quantum/rgblight/rgblight.c **** }
 361:quantum/rgblight/rgblight.c **** 
 362:quantum/rgblight/rgblight.c **** void rgblight_toggle_noeeprom(void) {
 363:quantum/rgblight/rgblight.c ****     dprintf("rgblight toggle [NOEEPROM]: rgblight_config.enable = %u\n", !rgblight_config.enable);
 364:quantum/rgblight/rgblight.c ****     if (rgblight_config.enable) {
 365:quantum/rgblight/rgblight.c ****         rgblight_disable_noeeprom();
 366:quantum/rgblight/rgblight.c ****     } else {
 367:quantum/rgblight/rgblight.c ****         rgblight_enable_noeeprom();
 368:quantum/rgblight/rgblight.c ****     }
 369:quantum/rgblight/rgblight.c **** }
 370:quantum/rgblight/rgblight.c **** 
 371:quantum/rgblight/rgblight.c **** void rgblight_enable(void) {
 372:quantum/rgblight/rgblight.c ****     rgblight_config.enable = 1;
 373:quantum/rgblight/rgblight.c ****     // No need to update EEPROM here. rgblight_mode() will do that, actually
 374:quantum/rgblight/rgblight.c ****     // eeconfig_update_rgblight(rgblight_config.raw);
 375:quantum/rgblight/rgblight.c ****     dprintf("rgblight enable [EEPROM]: rgblight_config.enable = %u\n", rgblight_config.enable);
 376:quantum/rgblight/rgblight.c ****     rgblight_mode(rgblight_config.mode);
 377:quantum/rgblight/rgblight.c **** }
 378:quantum/rgblight/rgblight.c **** 
 379:quantum/rgblight/rgblight.c **** void rgblight_enable_noeeprom(void) {
 380:quantum/rgblight/rgblight.c ****     rgblight_config.enable = 1;
 381:quantum/rgblight/rgblight.c ****     dprintf("rgblight enable [NOEEPROM]: rgblight_config.enable = %u\n", rgblight_config.enable);
 382:quantum/rgblight/rgblight.c ****     rgblight_mode_noeeprom(rgblight_config.mode);
 383:quantum/rgblight/rgblight.c **** }
 384:quantum/rgblight/rgblight.c **** 
 385:quantum/rgblight/rgblight.c **** void rgblight_disable(void) {
 386:quantum/rgblight/rgblight.c ****     rgblight_config.enable = 0;
 387:quantum/rgblight/rgblight.c ****     eeconfig_update_rgblight(rgblight_config.raw);
 388:quantum/rgblight/rgblight.c ****     dprintf("rgblight disable [EEPROM]: rgblight_config.enable = %u\n", rgblight_config.enable);
 389:quantum/rgblight/rgblight.c ****     rgblight_timer_disable();
 390:quantum/rgblight/rgblight.c ****     RGBLIGHT_SPLIT_SET_CHANGE_MODE;
 391:quantum/rgblight/rgblight.c ****     wait_ms(50);
 392:quantum/rgblight/rgblight.c ****     rgblight_set();
 393:quantum/rgblight/rgblight.c **** }
 394:quantum/rgblight/rgblight.c **** 
 395:quantum/rgblight/rgblight.c **** void rgblight_disable_noeeprom(void) {
 396:quantum/rgblight/rgblight.c ****     rgblight_config.enable = 0;
 397:quantum/rgblight/rgblight.c ****     dprintf("rgblight disable [NOEEPROM]: rgblight_config.enable = %u\n", rgblight_config.enable);
 398:quantum/rgblight/rgblight.c ****     rgblight_timer_disable();
 399:quantum/rgblight/rgblight.c ****     RGBLIGHT_SPLIT_SET_CHANGE_MODE;
 400:quantum/rgblight/rgblight.c ****     wait_ms(50);
 401:quantum/rgblight/rgblight.c ****     rgblight_set();
 402:quantum/rgblight/rgblight.c **** }
 403:quantum/rgblight/rgblight.c **** 
 404:quantum/rgblight/rgblight.c **** bool rgblight_is_enabled(void) { return rgblight_config.enable; }
 405:quantum/rgblight/rgblight.c **** 
 406:quantum/rgblight/rgblight.c **** void rgblight_increase_hue_helper(bool write_to_eeprom) {
 407:quantum/rgblight/rgblight.c ****     uint8_t hue = rgblight_config.hue + RGBLIGHT_HUE_STEP;
 408:quantum/rgblight/rgblight.c ****     rgblight_sethsv_eeprom_helper(hue, rgblight_config.sat, rgblight_config.val, write_to_eeprom);
 409:quantum/rgblight/rgblight.c **** }
 410:quantum/rgblight/rgblight.c **** void rgblight_increase_hue_noeeprom(void) { rgblight_increase_hue_helper(false); }
 411:quantum/rgblight/rgblight.c **** void rgblight_increase_hue(void) { rgblight_increase_hue_helper(true); }
 412:quantum/rgblight/rgblight.c **** void rgblight_decrease_hue_helper(bool write_to_eeprom) {
 413:quantum/rgblight/rgblight.c ****     uint8_t hue = rgblight_config.hue - RGBLIGHT_HUE_STEP;
 414:quantum/rgblight/rgblight.c ****     rgblight_sethsv_eeprom_helper(hue, rgblight_config.sat, rgblight_config.val, write_to_eeprom);
 415:quantum/rgblight/rgblight.c **** }
 416:quantum/rgblight/rgblight.c **** void rgblight_decrease_hue_noeeprom(void) { rgblight_decrease_hue_helper(false); }
 417:quantum/rgblight/rgblight.c **** void rgblight_decrease_hue(void) { rgblight_decrease_hue_helper(true); }
 418:quantum/rgblight/rgblight.c **** void rgblight_increase_sat_helper(bool write_to_eeprom) {
 419:quantum/rgblight/rgblight.c ****     uint8_t sat = qadd8(rgblight_config.sat, RGBLIGHT_SAT_STEP);
 420:quantum/rgblight/rgblight.c ****     rgblight_sethsv_eeprom_helper(rgblight_config.hue, sat, rgblight_config.val, write_to_eeprom);
 421:quantum/rgblight/rgblight.c **** }
 422:quantum/rgblight/rgblight.c **** void rgblight_increase_sat_noeeprom(void) { rgblight_increase_sat_helper(false); }
 423:quantum/rgblight/rgblight.c **** void rgblight_increase_sat(void) { rgblight_increase_sat_helper(true); }
 424:quantum/rgblight/rgblight.c **** void rgblight_decrease_sat_helper(bool write_to_eeprom) {
 425:quantum/rgblight/rgblight.c ****     uint8_t sat = qsub8(rgblight_config.sat, RGBLIGHT_SAT_STEP);
 426:quantum/rgblight/rgblight.c ****     rgblight_sethsv_eeprom_helper(rgblight_config.hue, sat, rgblight_config.val, write_to_eeprom);
 427:quantum/rgblight/rgblight.c **** }
 428:quantum/rgblight/rgblight.c **** void rgblight_decrease_sat_noeeprom(void) { rgblight_decrease_sat_helper(false); }
 429:quantum/rgblight/rgblight.c **** void rgblight_decrease_sat(void) { rgblight_decrease_sat_helper(true); }
 430:quantum/rgblight/rgblight.c **** void rgblight_increase_val_helper(bool write_to_eeprom) {
 431:quantum/rgblight/rgblight.c ****     uint8_t val = qadd8(rgblight_config.val, RGBLIGHT_VAL_STEP);
 432:quantum/rgblight/rgblight.c ****     rgblight_sethsv_eeprom_helper(rgblight_config.hue, rgblight_config.sat, val, write_to_eeprom);
 433:quantum/rgblight/rgblight.c **** }
 434:quantum/rgblight/rgblight.c **** void rgblight_increase_val_noeeprom(void) { rgblight_increase_val_helper(false); }
 435:quantum/rgblight/rgblight.c **** void rgblight_increase_val(void) { rgblight_increase_val_helper(true); }
 436:quantum/rgblight/rgblight.c **** void rgblight_decrease_val_helper(bool write_to_eeprom) {
 437:quantum/rgblight/rgblight.c ****     uint8_t val = qsub8(rgblight_config.val, RGBLIGHT_VAL_STEP);
 438:quantum/rgblight/rgblight.c ****     rgblight_sethsv_eeprom_helper(rgblight_config.hue, rgblight_config.sat, val, write_to_eeprom);
 439:quantum/rgblight/rgblight.c **** }
 440:quantum/rgblight/rgblight.c **** void rgblight_decrease_val_noeeprom(void) { rgblight_decrease_val_helper(false); }
 441:quantum/rgblight/rgblight.c **** void rgblight_decrease_val(void) { rgblight_decrease_val_helper(true); }
 442:quantum/rgblight/rgblight.c **** 
 443:quantum/rgblight/rgblight.c **** void rgblight_increase_speed_helper(bool write_to_eeprom) {
 444:quantum/rgblight/rgblight.c ****     if (rgblight_config.speed < 3) rgblight_config.speed++;
 445:quantum/rgblight/rgblight.c ****     // RGBLIGHT_SPLIT_SET_CHANGE_HSVS; // NEED?
 446:quantum/rgblight/rgblight.c ****     if (write_to_eeprom) {
 447:quantum/rgblight/rgblight.c ****         eeconfig_update_rgblight(rgblight_config.raw);  // EECONFIG needs to be increased to suppor
 448:quantum/rgblight/rgblight.c ****     }
 449:quantum/rgblight/rgblight.c **** }
 450:quantum/rgblight/rgblight.c **** void rgblight_increase_speed(void) { rgblight_increase_speed_helper(true); }
 451:quantum/rgblight/rgblight.c **** void rgblight_increase_speed_noeeprom(void) { rgblight_increase_speed_helper(false); }
 452:quantum/rgblight/rgblight.c **** 
 453:quantum/rgblight/rgblight.c **** void rgblight_decrease_speed_helper(bool write_to_eeprom) {
 454:quantum/rgblight/rgblight.c ****     if (rgblight_config.speed > 0) rgblight_config.speed--;
 455:quantum/rgblight/rgblight.c ****     // RGBLIGHT_SPLIT_SET_CHANGE_HSVS; // NEED??
 456:quantum/rgblight/rgblight.c ****     if (write_to_eeprom) {
 457:quantum/rgblight/rgblight.c ****         eeconfig_update_rgblight(rgblight_config.raw);  // EECONFIG needs to be increased to suppor
 458:quantum/rgblight/rgblight.c ****     }
 459:quantum/rgblight/rgblight.c **** }
 460:quantum/rgblight/rgblight.c **** void rgblight_decrease_speed(void) { rgblight_decrease_speed_helper(true); }
 461:quantum/rgblight/rgblight.c **** void rgblight_decrease_speed_noeeprom(void) { rgblight_decrease_speed_helper(false); }
 462:quantum/rgblight/rgblight.c **** 
 463:quantum/rgblight/rgblight.c **** void rgblight_sethsv_noeeprom_old(uint8_t hue, uint8_t sat, uint8_t val) {
 464:quantum/rgblight/rgblight.c ****     if (rgblight_config.enable) {
 465:quantum/rgblight/rgblight.c ****         LED_TYPE tmp_led;
 466:quantum/rgblight/rgblight.c ****         sethsv(hue, sat, val, &tmp_led);
 467:quantum/rgblight/rgblight.c ****         rgblight_setrgb(tmp_led.r, tmp_led.g, tmp_led.b);
 468:quantum/rgblight/rgblight.c ****     }
 469:quantum/rgblight/rgblight.c **** }
 470:quantum/rgblight/rgblight.c **** 
 471:quantum/rgblight/rgblight.c **** void rgblight_sethsv_eeprom_helper(uint8_t hue, uint8_t sat, uint8_t val, bool write_to_eeprom) {
 472:quantum/rgblight/rgblight.c ****     if (rgblight_config.enable) {
 473:quantum/rgblight/rgblight.c ****         rgblight_status.base_mode = mode_base_table[rgblight_config.mode];
 474:quantum/rgblight/rgblight.c ****         if (rgblight_config.mode == RGBLIGHT_MODE_STATIC_LIGHT) {
 475:quantum/rgblight/rgblight.c ****             // same static color
 476:quantum/rgblight/rgblight.c ****             LED_TYPE tmp_led;
 477:quantum/rgblight/rgblight.c ****             sethsv(hue, sat, val, &tmp_led);
 478:quantum/rgblight/rgblight.c ****             rgblight_setrgb(tmp_led.r, tmp_led.g, tmp_led.b);
 479:quantum/rgblight/rgblight.c ****         } else {
 480:quantum/rgblight/rgblight.c ****             // all LEDs in same color
 481:quantum/rgblight/rgblight.c ****             if (1 == 0) {  // dummy
 482:quantum/rgblight/rgblight.c ****             }
 483:quantum/rgblight/rgblight.c **** #ifdef RGBLIGHT_EFFECT_BREATHING
 484:quantum/rgblight/rgblight.c ****             else if (rgblight_status.base_mode == RGBLIGHT_MODE_BREATHING) {
 485:quantum/rgblight/rgblight.c ****                 // breathing mode, ignore the change of val, use in memory value instead
 486:quantum/rgblight/rgblight.c ****                 val = rgblight_config.val;
 487:quantum/rgblight/rgblight.c ****             }
 488:quantum/rgblight/rgblight.c **** #endif
 489:quantum/rgblight/rgblight.c **** #ifdef RGBLIGHT_EFFECT_RAINBOW_MOOD
 490:quantum/rgblight/rgblight.c ****             else if (rgblight_status.base_mode == RGBLIGHT_MODE_RAINBOW_MOOD) {
 491:quantum/rgblight/rgblight.c ****                 // rainbow mood, ignore the change of hue
 492:quantum/rgblight/rgblight.c ****                 hue = rgblight_config.hue;
 493:quantum/rgblight/rgblight.c ****             }
 494:quantum/rgblight/rgblight.c **** #endif
 495:quantum/rgblight/rgblight.c **** #ifdef RGBLIGHT_EFFECT_RAINBOW_SWIRL
 496:quantum/rgblight/rgblight.c ****             else if (rgblight_status.base_mode == RGBLIGHT_MODE_RAINBOW_SWIRL) {
 497:quantum/rgblight/rgblight.c ****                 // rainbow swirl, ignore the change of hue
 498:quantum/rgblight/rgblight.c ****                 hue = rgblight_config.hue;
 499:quantum/rgblight/rgblight.c ****             }
 500:quantum/rgblight/rgblight.c **** #endif
 501:quantum/rgblight/rgblight.c **** #ifdef RGBLIGHT_EFFECT_STATIC_GRADIENT
 502:quantum/rgblight/rgblight.c ****             else if (rgblight_status.base_mode == RGBLIGHT_MODE_STATIC_GRADIENT) {
 503:quantum/rgblight/rgblight.c ****                 // static gradient
 504:quantum/rgblight/rgblight.c ****                 uint8_t delta     = rgblight_config.mode - rgblight_status.base_mode;
 505:quantum/rgblight/rgblight.c ****                 bool    direction = (delta % 2) == 0;
 506:quantum/rgblight/rgblight.c **** #    ifdef __AVR__
 507:quantum/rgblight/rgblight.c ****                 // probably due to how pgm_read_word is defined for ARM, but the ARM compiler reall
 508:quantum/rgblight/rgblight.c ****                 uint8_t range = pgm_read_word(&RGBLED_GRADIENT_RANGES[delta / 2]);
 509:quantum/rgblight/rgblight.c **** #    else
 510:quantum/rgblight/rgblight.c ****                 uint8_t range = RGBLED_GRADIENT_RANGES[delta / 2];
 511:quantum/rgblight/rgblight.c **** #    endif
 512:quantum/rgblight/rgblight.c ****                 for (uint8_t i = 0; i < rgblight_ranges.effect_num_leds; i++) {
 513:quantum/rgblight/rgblight.c ****                     uint8_t _hue = ((uint16_t)i * (uint16_t)range) / rgblight_ranges.effect_num_led
 514:quantum/rgblight/rgblight.c ****                     if (direction) {
 515:quantum/rgblight/rgblight.c ****                         _hue = hue + _hue;
 516:quantum/rgblight/rgblight.c ****                     } else {
 517:quantum/rgblight/rgblight.c ****                         _hue = hue - _hue;
 518:quantum/rgblight/rgblight.c ****                     }
 519:quantum/rgblight/rgblight.c ****                     dprintf("rgblight rainbow set hsv: %d,%d,%d,%u\n", i, _hue, direction, range);
 520:quantum/rgblight/rgblight.c ****                     sethsv(_hue, sat, val, (LED_TYPE *)&led[i + rgblight_ranges.effect_start_pos]);
 521:quantum/rgblight/rgblight.c ****                 }
 522:quantum/rgblight/rgblight.c ****                 rgblight_set();
 523:quantum/rgblight/rgblight.c ****             }
 524:quantum/rgblight/rgblight.c **** #endif
 525:quantum/rgblight/rgblight.c ****         }
 526:quantum/rgblight/rgblight.c **** #ifdef RGBLIGHT_SPLIT
 527:quantum/rgblight/rgblight.c ****         if (rgblight_config.hue != hue || rgblight_config.sat != sat || rgblight_config.val != val)
 528:quantum/rgblight/rgblight.c ****             RGBLIGHT_SPLIT_SET_CHANGE_HSVS;
 529:quantum/rgblight/rgblight.c ****         }
 530:quantum/rgblight/rgblight.c **** #endif
 531:quantum/rgblight/rgblight.c ****         rgblight_config.hue = hue;
 532:quantum/rgblight/rgblight.c ****         rgblight_config.sat = sat;
 533:quantum/rgblight/rgblight.c ****         rgblight_config.val = val;
 534:quantum/rgblight/rgblight.c ****         if (write_to_eeprom) {
 535:quantum/rgblight/rgblight.c ****             eeconfig_update_rgblight(rgblight_config.raw);
 536:quantum/rgblight/rgblight.c ****             dprintf("rgblight set hsv [EEPROM]: %u,%u,%u\n", rgblight_config.hue, rgblight_config.s
 537:quantum/rgblight/rgblight.c ****         } else {
 538:quantum/rgblight/rgblight.c ****             dprintf("rgblight set hsv [NOEEPROM]: %u,%u,%u\n", rgblight_config.hue, rgblight_config
 539:quantum/rgblight/rgblight.c ****         }
 540:quantum/rgblight/rgblight.c ****     }
 541:quantum/rgblight/rgblight.c **** }
 542:quantum/rgblight/rgblight.c **** 
 543:quantum/rgblight/rgblight.c **** void rgblight_sethsv(uint8_t hue, uint8_t sat, uint8_t val) { rgblight_sethsv_eeprom_helper(hue, sa
 544:quantum/rgblight/rgblight.c **** 
 545:quantum/rgblight/rgblight.c **** void rgblight_sethsv_noeeprom(uint8_t hue, uint8_t sat, uint8_t val) { rgblight_sethsv_eeprom_helpe
 546:quantum/rgblight/rgblight.c **** 
 547:quantum/rgblight/rgblight.c **** uint8_t rgblight_get_speed(void) { return rgblight_config.speed; }
 548:quantum/rgblight/rgblight.c **** 
 549:quantum/rgblight/rgblight.c **** void rgblight_set_speed_eeprom_helper(uint8_t speed, bool write_to_eeprom) {
 550:quantum/rgblight/rgblight.c ****     rgblight_config.speed = speed;
 551:quantum/rgblight/rgblight.c ****     if (write_to_eeprom) {
 552:quantum/rgblight/rgblight.c ****         eeconfig_update_rgblight(rgblight_config.raw);  // EECONFIG needs to be increased to suppor
 553:quantum/rgblight/rgblight.c ****         dprintf("rgblight set speed [EEPROM]: %u\n", rgblight_config.speed);
 554:quantum/rgblight/rgblight.c ****     } else {
 555:quantum/rgblight/rgblight.c ****         dprintf("rgblight set speed [NOEEPROM]: %u\n", rgblight_config.speed);
 556:quantum/rgblight/rgblight.c ****     }
 557:quantum/rgblight/rgblight.c **** }
 558:quantum/rgblight/rgblight.c **** 
 559:quantum/rgblight/rgblight.c **** void rgblight_set_speed(uint8_t speed) { rgblight_set_speed_eeprom_helper(speed, true); }
 560:quantum/rgblight/rgblight.c **** 
 561:quantum/rgblight/rgblight.c **** void rgblight_set_speed_noeeprom(uint8_t speed) { rgblight_set_speed_eeprom_helper(speed, false); }
 562:quantum/rgblight/rgblight.c **** 
 563:quantum/rgblight/rgblight.c **** uint8_t rgblight_get_hue(void) { return rgblight_config.hue; }
 564:quantum/rgblight/rgblight.c **** 
 565:quantum/rgblight/rgblight.c **** uint8_t rgblight_get_sat(void) { return rgblight_config.sat; }
 566:quantum/rgblight/rgblight.c **** 
 567:quantum/rgblight/rgblight.c **** uint8_t rgblight_get_val(void) { return rgblight_config.val; }
 568:quantum/rgblight/rgblight.c **** 
 569:quantum/rgblight/rgblight.c **** HSV rgblight_get_hsv(void) { return (HSV){rgblight_config.hue, rgblight_config.sat, rgblight_config
 570:quantum/rgblight/rgblight.c **** 
 571:quantum/rgblight/rgblight.c **** void rgblight_setrgb(uint8_t r, uint8_t g, uint8_t b) {
 572:quantum/rgblight/rgblight.c ****     if (!rgblight_config.enable) {
 573:quantum/rgblight/rgblight.c ****         return;
 574:quantum/rgblight/rgblight.c ****     }
 575:quantum/rgblight/rgblight.c **** 
 576:quantum/rgblight/rgblight.c ****     for (uint8_t i = rgblight_ranges.effect_start_pos; i < rgblight_ranges.effect_end_pos; i++) {
 577:quantum/rgblight/rgblight.c ****         led[i].r = r;
 578:quantum/rgblight/rgblight.c ****         led[i].g = g;
 579:quantum/rgblight/rgblight.c ****         led[i].b = b;
 580:quantum/rgblight/rgblight.c **** #ifdef RGBW
 581:quantum/rgblight/rgblight.c ****         led[i].w = 0;
 582:quantum/rgblight/rgblight.c **** #endif
 583:quantum/rgblight/rgblight.c ****     }
 584:quantum/rgblight/rgblight.c ****     rgblight_set();
 585:quantum/rgblight/rgblight.c **** }
 586:quantum/rgblight/rgblight.c **** 
 587:quantum/rgblight/rgblight.c **** void rgblight_setrgb_at(uint8_t r, uint8_t g, uint8_t b, uint8_t index) {
 588:quantum/rgblight/rgblight.c ****     if (!rgblight_config.enable || index >= RGBLED_NUM) {
 589:quantum/rgblight/rgblight.c ****         return;
 590:quantum/rgblight/rgblight.c ****     }
 591:quantum/rgblight/rgblight.c **** 
 592:quantum/rgblight/rgblight.c ****     led[index].r = r;
 593:quantum/rgblight/rgblight.c ****     led[index].g = g;
 594:quantum/rgblight/rgblight.c ****     led[index].b = b;
 595:quantum/rgblight/rgblight.c **** #ifdef RGBW
 596:quantum/rgblight/rgblight.c ****     led[index].w = 0;
 597:quantum/rgblight/rgblight.c **** #endif
 598:quantum/rgblight/rgblight.c ****     rgblight_set();
 599:quantum/rgblight/rgblight.c **** }
 600:quantum/rgblight/rgblight.c **** 
 601:quantum/rgblight/rgblight.c **** void rgblight_sethsv_at(uint8_t hue, uint8_t sat, uint8_t val, uint8_t index) {
 602:quantum/rgblight/rgblight.c ****     if (!rgblight_config.enable) {
 603:quantum/rgblight/rgblight.c ****         return;
 604:quantum/rgblight/rgblight.c ****     }
 605:quantum/rgblight/rgblight.c **** 
 606:quantum/rgblight/rgblight.c ****     LED_TYPE tmp_led;
 607:quantum/rgblight/rgblight.c ****     sethsv(hue, sat, val, &tmp_led);
 608:quantum/rgblight/rgblight.c ****     rgblight_setrgb_at(tmp_led.r, tmp_led.g, tmp_led.b, index);
 609:quantum/rgblight/rgblight.c **** }
 610:quantum/rgblight/rgblight.c **** 
 611:quantum/rgblight/rgblight.c **** #if defined(RGBLIGHT_EFFECT_BREATHING) || defined(RGBLIGHT_EFFECT_RAINBOW_MOOD) || defined(RGBLIGHT
 612:quantum/rgblight/rgblight.c **** 
 613:quantum/rgblight/rgblight.c **** static uint8_t get_interval_time(const uint8_t *default_interval_address, uint8_t velocikey_min, ui
 614:quantum/rgblight/rgblight.c ****     return
 615:quantum/rgblight/rgblight.c **** #    ifdef VELOCIKEY_ENABLE
 616:quantum/rgblight/rgblight.c ****         velocikey_enabled() ? velocikey_match_speed(velocikey_min, velocikey_max) :
 617:quantum/rgblight/rgblight.c **** #    endif
 618:quantum/rgblight/rgblight.c ****                             pgm_read_byte(default_interval_address);
 619:quantum/rgblight/rgblight.c **** }
 620:quantum/rgblight/rgblight.c **** 
 621:quantum/rgblight/rgblight.c **** #endif
 622:quantum/rgblight/rgblight.c **** 
 623:quantum/rgblight/rgblight.c **** void rgblight_setrgb_range(uint8_t r, uint8_t g, uint8_t b, uint8_t start, uint8_t end) {
 624:quantum/rgblight/rgblight.c ****     if (!rgblight_config.enable || start < 0 || start >= end || end > RGBLED_NUM) {
 625:quantum/rgblight/rgblight.c ****         return;
 626:quantum/rgblight/rgblight.c ****     }
 627:quantum/rgblight/rgblight.c **** 
 628:quantum/rgblight/rgblight.c ****     for (uint8_t i = start; i < end; i++) {
 629:quantum/rgblight/rgblight.c ****         led[i].r = r;
 630:quantum/rgblight/rgblight.c ****         led[i].g = g;
 631:quantum/rgblight/rgblight.c ****         led[i].b = b;
 632:quantum/rgblight/rgblight.c **** #ifdef RGBW
 633:quantum/rgblight/rgblight.c ****         led[i].w = 0;
 634:quantum/rgblight/rgblight.c **** #endif
 635:quantum/rgblight/rgblight.c ****     }
 636:quantum/rgblight/rgblight.c ****     rgblight_set();
 637:quantum/rgblight/rgblight.c ****     wait_ms(1);
 638:quantum/rgblight/rgblight.c **** }
 639:quantum/rgblight/rgblight.c **** 
 640:quantum/rgblight/rgblight.c **** void rgblight_sethsv_range(uint8_t hue, uint8_t sat, uint8_t val, uint8_t start, uint8_t end) {
 641:quantum/rgblight/rgblight.c ****     if (!rgblight_config.enable) {
 642:quantum/rgblight/rgblight.c ****         return;
 643:quantum/rgblight/rgblight.c ****     }
 644:quantum/rgblight/rgblight.c **** 
 645:quantum/rgblight/rgblight.c ****     LED_TYPE tmp_led;
 646:quantum/rgblight/rgblight.c ****     sethsv(hue, sat, val, &tmp_led);
 647:quantum/rgblight/rgblight.c ****     rgblight_setrgb_range(tmp_led.r, tmp_led.g, tmp_led.b, start, end);
 648:quantum/rgblight/rgblight.c **** }
 649:quantum/rgblight/rgblight.c **** 
 650:quantum/rgblight/rgblight.c **** #ifndef RGBLIGHT_SPLIT
 651:quantum/rgblight/rgblight.c **** void rgblight_setrgb_master(uint8_t r, uint8_t g, uint8_t b) { rgblight_setrgb_range(r, g, b, 0, (u
 652:quantum/rgblight/rgblight.c **** 
 653:quantum/rgblight/rgblight.c **** void rgblight_setrgb_slave(uint8_t r, uint8_t g, uint8_t b) { rgblight_setrgb_range(r, g, b, (uint8
 654:quantum/rgblight/rgblight.c **** 
 655:quantum/rgblight/rgblight.c **** void rgblight_sethsv_master(uint8_t hue, uint8_t sat, uint8_t val) { rgblight_sethsv_range(hue, sat
 656:quantum/rgblight/rgblight.c **** 
 657:quantum/rgblight/rgblight.c **** void rgblight_sethsv_slave(uint8_t hue, uint8_t sat, uint8_t val) { rgblight_sethsv_range(hue, sat,
 658:quantum/rgblight/rgblight.c **** #endif  // ifndef RGBLIGHT_SPLIT
 659:quantum/rgblight/rgblight.c **** 
 660:quantum/rgblight/rgblight.c **** #ifdef RGBLIGHT_LAYERS
 661:quantum/rgblight/rgblight.c **** void rgblight_set_layer_state(uint8_t layer, bool enabled) {
 662:quantum/rgblight/rgblight.c ****     rgblight_layer_mask_t mask = (rgblight_layer_mask_t)1 << layer;
 663:quantum/rgblight/rgblight.c ****     if (enabled) {
 664:quantum/rgblight/rgblight.c ****         rgblight_status.enabled_layer_mask |= mask;
 665:quantum/rgblight/rgblight.c ****     } else {
 666:quantum/rgblight/rgblight.c ****         rgblight_status.enabled_layer_mask &= ~mask;
 667:quantum/rgblight/rgblight.c ****     }
 668:quantum/rgblight/rgblight.c ****     RGBLIGHT_SPLIT_SET_CHANGE_LAYERS;
 669:quantum/rgblight/rgblight.c ****     // Static modes don't have a ticker running to update the LEDs
 670:quantum/rgblight/rgblight.c ****     if (rgblight_status.timer_enabled == false) {
 671:quantum/rgblight/rgblight.c ****         rgblight_mode_noeeprom(rgblight_config.mode);
 672:quantum/rgblight/rgblight.c ****     }
 673:quantum/rgblight/rgblight.c **** 
 674:quantum/rgblight/rgblight.c **** #    ifdef RGBLIGHT_LAYERS_OVERRIDE_RGB_OFF
 675:quantum/rgblight/rgblight.c ****     // If not enabled, then nothing else will actually set the LEDs...
 676:quantum/rgblight/rgblight.c ****     if (!rgblight_config.enable) {
 677:quantum/rgblight/rgblight.c ****         rgblight_set();
 678:quantum/rgblight/rgblight.c ****     }
 679:quantum/rgblight/rgblight.c **** #    endif
 680:quantum/rgblight/rgblight.c **** }
 681:quantum/rgblight/rgblight.c **** 
 682:quantum/rgblight/rgblight.c **** bool rgblight_get_layer_state(uint8_t layer) {
 683:quantum/rgblight/rgblight.c ****     rgblight_layer_mask_t mask = (rgblight_layer_mask_t)1 << layer;
 684:quantum/rgblight/rgblight.c ****     return (rgblight_status.enabled_layer_mask & mask) != 0;
 685:quantum/rgblight/rgblight.c **** }
 686:quantum/rgblight/rgblight.c **** 
 687:quantum/rgblight/rgblight.c **** // Write any enabled LED layers into the buffer
 688:quantum/rgblight/rgblight.c **** static void rgblight_layers_write(void) {
 689:quantum/rgblight/rgblight.c **** #    ifdef RGBLIGHT_LAYERS_RETAIN_VAL
 690:quantum/rgblight/rgblight.c ****     uint8_t current_val = rgblight_get_val();
 691:quantum/rgblight/rgblight.c **** #    endif
 692:quantum/rgblight/rgblight.c ****     uint8_t i = 0;
 693:quantum/rgblight/rgblight.c ****     // For each layer
 694:quantum/rgblight/rgblight.c ****     for (const rgblight_segment_t *const *layer_ptr = rgblight_layers; i < RGBLIGHT_MAX_LAYERS; lay
 695:quantum/rgblight/rgblight.c ****         if (!rgblight_get_layer_state(i)) {
 696:quantum/rgblight/rgblight.c ****             continue;  // Layer is disabled
 697:quantum/rgblight/rgblight.c ****         }
 698:quantum/rgblight/rgblight.c ****         const rgblight_segment_t *segment_ptr = pgm_read_ptr(layer_ptr);
 699:quantum/rgblight/rgblight.c ****         if (segment_ptr == NULL) {
 700:quantum/rgblight/rgblight.c ****             break;  // No more layers
 701:quantum/rgblight/rgblight.c ****         }
 702:quantum/rgblight/rgblight.c ****         // For each segment
 703:quantum/rgblight/rgblight.c ****         while (1) {
 704:quantum/rgblight/rgblight.c ****             rgblight_segment_t segment;
 705:quantum/rgblight/rgblight.c ****             memcpy_P(&segment, segment_ptr, sizeof(rgblight_segment_t));
 706:quantum/rgblight/rgblight.c ****             if (segment.index == RGBLIGHT_END_SEGMENT_INDEX) {
 707:quantum/rgblight/rgblight.c ****                 break;  // No more segments
 708:quantum/rgblight/rgblight.c ****             }
 709:quantum/rgblight/rgblight.c ****             // Write segment.count LEDs
 710:quantum/rgblight/rgblight.c ****             LED_TYPE *const limit = &led[MIN(segment.index + segment.count, RGBLED_NUM)];
 711:quantum/rgblight/rgblight.c ****             for (LED_TYPE *led_ptr = &led[segment.index]; led_ptr < limit; led_ptr++) {
 712:quantum/rgblight/rgblight.c **** #    ifdef RGBLIGHT_LAYERS_RETAIN_VAL
 713:quantum/rgblight/rgblight.c ****                 sethsv(segment.hue, segment.sat, current_val, led_ptr);
 714:quantum/rgblight/rgblight.c **** #    else
 715:quantum/rgblight/rgblight.c ****                 sethsv(segment.hue, segment.sat, segment.val, led_ptr);
 716:quantum/rgblight/rgblight.c **** #    endif
 717:quantum/rgblight/rgblight.c ****             }
 718:quantum/rgblight/rgblight.c ****             segment_ptr++;
 719:quantum/rgblight/rgblight.c ****         }
 720:quantum/rgblight/rgblight.c ****     }
 721:quantum/rgblight/rgblight.c **** }
 722:quantum/rgblight/rgblight.c **** 
 723:quantum/rgblight/rgblight.c **** #    ifdef RGBLIGHT_LAYER_BLINK
 724:quantum/rgblight/rgblight.c **** rgblight_layer_mask_t _blinking_layer_mask = 0;
 725:quantum/rgblight/rgblight.c **** static uint16_t       _repeat_timer;
 726:quantum/rgblight/rgblight.c **** static uint8_t        _times_remaining;
 727:quantum/rgblight/rgblight.c **** static uint16_t       _dur;
 728:quantum/rgblight/rgblight.c **** 
 729:quantum/rgblight/rgblight.c **** void rgblight_blink_layer(uint8_t layer, uint16_t duration_ms) { rgblight_blink_layer_repeat(layer,
 730:quantum/rgblight/rgblight.c **** 
 731:quantum/rgblight/rgblight.c **** void rgblight_blink_layer_repeat(uint8_t layer, uint16_t duration_ms, uint8_t times) {
 732:quantum/rgblight/rgblight.c ****     _times_remaining = times * 2;
 733:quantum/rgblight/rgblight.c ****     _dur             = duration_ms;
 734:quantum/rgblight/rgblight.c **** 
 735:quantum/rgblight/rgblight.c ****     rgblight_set_layer_state(layer, true);
 736:quantum/rgblight/rgblight.c ****     _times_remaining--;
 737:quantum/rgblight/rgblight.c ****     _blinking_layer_mask |= (rgblight_layer_mask_t)1 << layer;
 738:quantum/rgblight/rgblight.c ****     _repeat_timer = sync_timer_read() + duration_ms;
 739:quantum/rgblight/rgblight.c **** }
 740:quantum/rgblight/rgblight.c **** 
 741:quantum/rgblight/rgblight.c **** void rgblight_blink_layer_repeat_helper(void) {
 742:quantum/rgblight/rgblight.c ****     if (_blinking_layer_mask != 0 && timer_expired(sync_timer_read(), _repeat_timer)) {
 743:quantum/rgblight/rgblight.c ****         for (uint8_t layer = 0; layer < RGBLIGHT_MAX_LAYERS; layer++) {
 744:quantum/rgblight/rgblight.c ****             if ((_blinking_layer_mask & (rgblight_layer_mask_t)1 << layer) != 0 && _times_remaining
 745:quantum/rgblight/rgblight.c ****                 if (_times_remaining % 2 == 1) {
 746:quantum/rgblight/rgblight.c ****                     rgblight_set_layer_state(layer, false);
 747:quantum/rgblight/rgblight.c ****                 } else {
 748:quantum/rgblight/rgblight.c ****                     rgblight_set_layer_state(layer, true);
 749:quantum/rgblight/rgblight.c ****                 }
 750:quantum/rgblight/rgblight.c ****                 _times_remaining--;
 751:quantum/rgblight/rgblight.c ****                 _repeat_timer = sync_timer_read() + _dur;
 752:quantum/rgblight/rgblight.c ****             }
 753:quantum/rgblight/rgblight.c ****         }
 754:quantum/rgblight/rgblight.c ****         if (_times_remaining <= 0) {
 755:quantum/rgblight/rgblight.c ****             _blinking_layer_mask = 0;
 756:quantum/rgblight/rgblight.c ****         }
 757:quantum/rgblight/rgblight.c ****     }
 758:quantum/rgblight/rgblight.c **** }
 759:quantum/rgblight/rgblight.c **** #    endif
 760:quantum/rgblight/rgblight.c **** 
 761:quantum/rgblight/rgblight.c **** #endif
 762:quantum/rgblight/rgblight.c **** 
 763:quantum/rgblight/rgblight.c **** #ifdef RGBLIGHT_SLEEP
 764:quantum/rgblight/rgblight.c **** 
 765:quantum/rgblight/rgblight.c **** void rgblight_suspend(void) {
 766:quantum/rgblight/rgblight.c ****     rgblight_timer_disable();
 767:quantum/rgblight/rgblight.c ****     if (!is_suspended) {
 768:quantum/rgblight/rgblight.c ****         is_suspended        = true;
 769:quantum/rgblight/rgblight.c ****         pre_suspend_enabled = rgblight_config.enable;
 770:quantum/rgblight/rgblight.c **** 
 771:quantum/rgblight/rgblight.c **** #    ifdef RGBLIGHT_LAYER_BLINK
 772:quantum/rgblight/rgblight.c ****         // make sure any layer blinks don't come back after suspend
 773:quantum/rgblight/rgblight.c ****         rgblight_status.enabled_layer_mask &= ~_blinking_layer_mask;
 774:quantum/rgblight/rgblight.c ****         _blinking_layer_mask = 0;
 775:quantum/rgblight/rgblight.c **** #    endif
 776:quantum/rgblight/rgblight.c **** 
 777:quantum/rgblight/rgblight.c ****         rgblight_disable_noeeprom();
 778:quantum/rgblight/rgblight.c ****     }
 779:quantum/rgblight/rgblight.c **** }
 780:quantum/rgblight/rgblight.c **** 
 781:quantum/rgblight/rgblight.c **** void rgblight_wakeup(void) {
 782:quantum/rgblight/rgblight.c ****     is_suspended = false;
 783:quantum/rgblight/rgblight.c **** 
 784:quantum/rgblight/rgblight.c ****     if (pre_suspend_enabled) {
 785:quantum/rgblight/rgblight.c ****         rgblight_enable_noeeprom();
 786:quantum/rgblight/rgblight.c ****     }
 787:quantum/rgblight/rgblight.c **** #    ifdef RGBLIGHT_LAYERS_OVERRIDE_RGB_OFF
 788:quantum/rgblight/rgblight.c ****     // Need this or else the LEDs won't be set
 789:quantum/rgblight/rgblight.c ****     else if (rgblight_status.enabled_layer_mask != 0) {
 790:quantum/rgblight/rgblight.c ****         rgblight_set();
 791:quantum/rgblight/rgblight.c ****     }
 792:quantum/rgblight/rgblight.c **** #    endif
 793:quantum/rgblight/rgblight.c **** 
 794:quantum/rgblight/rgblight.c ****     rgblight_timer_enable();
 795:quantum/rgblight/rgblight.c **** }
 796:quantum/rgblight/rgblight.c **** 
 797:quantum/rgblight/rgblight.c **** #endif
 798:quantum/rgblight/rgblight.c **** 
 799:quantum/rgblight/rgblight.c **** __attribute__((weak)) void rgblight_call_driver(LED_TYPE *start_led, uint8_t num_leds) { ws2812_set
 800:quantum/rgblight/rgblight.c **** 
 801:quantum/rgblight/rgblight.c **** #ifndef RGBLIGHT_CUSTOM_DRIVER
 802:quantum/rgblight/rgblight.c **** 
 803:quantum/rgblight/rgblight.c **** void rgblight_set(void) {
 804:quantum/rgblight/rgblight.c ****     LED_TYPE *start_led;
 805:quantum/rgblight/rgblight.c ****     uint8_t   num_leds = rgblight_ranges.clipping_num_leds;
 806:quantum/rgblight/rgblight.c **** 
 807:quantum/rgblight/rgblight.c ****     if (!rgblight_config.enable) {
 808:quantum/rgblight/rgblight.c ****         for (uint8_t i = rgblight_ranges.effect_start_pos; i < rgblight_ranges.effect_end_pos; i++)
 809:quantum/rgblight/rgblight.c ****             led[i].r = 0;
 810:quantum/rgblight/rgblight.c ****             led[i].g = 0;
 811:quantum/rgblight/rgblight.c ****             led[i].b = 0;
 812:quantum/rgblight/rgblight.c **** #    ifdef RGBW
 813:quantum/rgblight/rgblight.c ****             led[i].w = 0;
 814:quantum/rgblight/rgblight.c **** #    endif
 815:quantum/rgblight/rgblight.c ****         }
 816:quantum/rgblight/rgblight.c ****     }
 817:quantum/rgblight/rgblight.c **** 
 818:quantum/rgblight/rgblight.c **** #    ifdef RGBLIGHT_LAYERS
 819:quantum/rgblight/rgblight.c ****     if (rgblight_layers != NULL
 820:quantum/rgblight/rgblight.c **** #        if !defined(RGBLIGHT_LAYERS_OVERRIDE_RGB_OFF)
 821:quantum/rgblight/rgblight.c ****         && rgblight_config.enable
 822:quantum/rgblight/rgblight.c **** #        elif defined(RGBLIGHT_SLEEP)
 823:quantum/rgblight/rgblight.c ****         && !is_suspended
 824:quantum/rgblight/rgblight.c **** #        endif
 825:quantum/rgblight/rgblight.c ****     ) {
 826:quantum/rgblight/rgblight.c ****         rgblight_layers_write();
 827:quantum/rgblight/rgblight.c ****     }
 828:quantum/rgblight/rgblight.c **** #    endif
 829:quantum/rgblight/rgblight.c **** 
 830:quantum/rgblight/rgblight.c **** #    ifdef RGBLIGHT_LED_MAP
 831:quantum/rgblight/rgblight.c ****     LED_TYPE led0[RGBLED_NUM];
 832:quantum/rgblight/rgblight.c ****     for (uint8_t i = 0; i < RGBLED_NUM; i++) {
 833:quantum/rgblight/rgblight.c ****         led0[i] = led[pgm_read_byte(&led_map[i])];
 834:quantum/rgblight/rgblight.c ****     }
 835:quantum/rgblight/rgblight.c ****     start_led = led0 + rgblight_ranges.clipping_start_pos;
 836:quantum/rgblight/rgblight.c **** #    else
 837:quantum/rgblight/rgblight.c ****     start_led = led + rgblight_ranges.clipping_start_pos;
 838:quantum/rgblight/rgblight.c **** #    endif
 839:quantum/rgblight/rgblight.c **** 
 840:quantum/rgblight/rgblight.c **** #    ifdef RGBW
 841:quantum/rgblight/rgblight.c ****     for (uint8_t i = 0; i < num_leds; i++) {
 842:quantum/rgblight/rgblight.c ****         convert_rgb_to_rgbw(&start_led[i]);
 843:quantum/rgblight/rgblight.c ****     }
 844:quantum/rgblight/rgblight.c **** #    endif
 845:quantum/rgblight/rgblight.c ****     rgblight_call_driver(start_led, num_leds);
 846:quantum/rgblight/rgblight.c **** }
 847:quantum/rgblight/rgblight.c **** #endif
 848:quantum/rgblight/rgblight.c **** 
 849:quantum/rgblight/rgblight.c **** #ifdef RGBLIGHT_SPLIT
 850:quantum/rgblight/rgblight.c **** /* for split keyboard master side */
 851:quantum/rgblight/rgblight.c **** uint8_t rgblight_get_change_flags(void) { return rgblight_status.change_flags; }
 852:quantum/rgblight/rgblight.c **** 
 853:quantum/rgblight/rgblight.c **** void rgblight_clear_change_flags(void) { rgblight_status.change_flags = 0; }
 854:quantum/rgblight/rgblight.c **** 
 855:quantum/rgblight/rgblight.c **** void rgblight_get_syncinfo(rgblight_syncinfo_t *syncinfo) {
 856:quantum/rgblight/rgblight.c ****     syncinfo->config = rgblight_config;
 857:quantum/rgblight/rgblight.c ****     syncinfo->status = rgblight_status;
 858:quantum/rgblight/rgblight.c **** }
 859:quantum/rgblight/rgblight.c **** 
 860:quantum/rgblight/rgblight.c **** /* for split keyboard slave side */
 861:quantum/rgblight/rgblight.c **** void rgblight_update_sync(rgblight_syncinfo_t *syncinfo, bool write_to_eeprom) {
 862:quantum/rgblight/rgblight.c **** #    ifdef RGBLIGHT_LAYERS
 863:quantum/rgblight/rgblight.c ****     if (syncinfo->status.change_flags & RGBLIGHT_STATUS_CHANGE_LAYERS) {
 864:quantum/rgblight/rgblight.c ****         rgblight_status.enabled_layer_mask = syncinfo->status.enabled_layer_mask;
 865:quantum/rgblight/rgblight.c ****     }
 866:quantum/rgblight/rgblight.c **** #    endif
 867:quantum/rgblight/rgblight.c ****     if (syncinfo->status.change_flags & RGBLIGHT_STATUS_CHANGE_MODE) {
 868:quantum/rgblight/rgblight.c ****         if (syncinfo->config.enable) {
 869:quantum/rgblight/rgblight.c ****             rgblight_config.enable = 1;  // == rgblight_enable_noeeprom();
 870:quantum/rgblight/rgblight.c ****             rgblight_mode_eeprom_helper(syncinfo->config.mode, write_to_eeprom);
 871:quantum/rgblight/rgblight.c ****         } else {
 872:quantum/rgblight/rgblight.c ****             rgblight_disable_noeeprom();
 873:quantum/rgblight/rgblight.c ****         }
 874:quantum/rgblight/rgblight.c ****     }
 875:quantum/rgblight/rgblight.c ****     if (syncinfo->status.change_flags & RGBLIGHT_STATUS_CHANGE_HSVS) {
 876:quantum/rgblight/rgblight.c ****         rgblight_sethsv_eeprom_helper(syncinfo->config.hue, syncinfo->config.sat, syncinfo->config.
 877:quantum/rgblight/rgblight.c ****         // rgblight_config.speed = config->speed; // NEED???
 878:quantum/rgblight/rgblight.c ****     }
 879:quantum/rgblight/rgblight.c **** #    ifdef RGBLIGHT_USE_TIMER
 880:quantum/rgblight/rgblight.c ****     if (syncinfo->status.change_flags & RGBLIGHT_STATUS_CHANGE_TIMER) {
 881:quantum/rgblight/rgblight.c ****         if (syncinfo->status.timer_enabled) {
 882:quantum/rgblight/rgblight.c ****             rgblight_timer_enable();
 883:quantum/rgblight/rgblight.c ****         } else {
 884:quantum/rgblight/rgblight.c ****             rgblight_timer_disable();
 885:quantum/rgblight/rgblight.c ****         }
 886:quantum/rgblight/rgblight.c ****     }
 887:quantum/rgblight/rgblight.c **** #        ifndef RGBLIGHT_SPLIT_NO_ANIMATION_SYNC
 888:quantum/rgblight/rgblight.c ****     if (syncinfo->status.change_flags & RGBLIGHT_STATUS_ANIMATION_TICK) {
 889:quantum/rgblight/rgblight.c ****         animation_status.restart = true;
 890:quantum/rgblight/rgblight.c ****     }
 891:quantum/rgblight/rgblight.c **** #        endif /* RGBLIGHT_SPLIT_NO_ANIMATION_SYNC */
 892:quantum/rgblight/rgblight.c **** #    endif     /* RGBLIGHT_USE_TIMER */
 893:quantum/rgblight/rgblight.c **** }
 894:quantum/rgblight/rgblight.c **** #endif /* RGBLIGHT_SPLIT */
 895:quantum/rgblight/rgblight.c **** 
 896:quantum/rgblight/rgblight.c **** #ifdef RGBLIGHT_USE_TIMER
 897:quantum/rgblight/rgblight.c **** 
 898:quantum/rgblight/rgblight.c **** typedef void (*effect_func_t)(animation_status_t *anim);
 899:quantum/rgblight/rgblight.c **** 
 900:quantum/rgblight/rgblight.c **** // Animation timer -- use system timer (AVR Timer0)
 901:quantum/rgblight/rgblight.c **** void rgblight_timer_init(void) {
 902:quantum/rgblight/rgblight.c ****     rgblight_status.timer_enabled = false;
 903:quantum/rgblight/rgblight.c ****     RGBLIGHT_SPLIT_SET_CHANGE_TIMER_ENABLE;
 904:quantum/rgblight/rgblight.c **** }
 905:quantum/rgblight/rgblight.c **** void rgblight_timer_enable(void) {
 906:quantum/rgblight/rgblight.c ****     if (!is_static_effect(rgblight_config.mode)) {
 907:quantum/rgblight/rgblight.c ****         rgblight_status.timer_enabled = true;
 908:quantum/rgblight/rgblight.c ****     }
 909:quantum/rgblight/rgblight.c ****     animation_status.last_timer = sync_timer_read();
 910:quantum/rgblight/rgblight.c ****     RGBLIGHT_SPLIT_SET_CHANGE_TIMER_ENABLE;
 911:quantum/rgblight/rgblight.c ****     dprintf("rgblight timer enabled.\n");
 912:quantum/rgblight/rgblight.c **** }
 913:quantum/rgblight/rgblight.c **** void rgblight_timer_disable(void) {
 914:quantum/rgblight/rgblight.c ****     rgblight_status.timer_enabled = false;
 915:quantum/rgblight/rgblight.c ****     RGBLIGHT_SPLIT_SET_CHANGE_TIMER_ENABLE;
 916:quantum/rgblight/rgblight.c ****     dprintf("rgblight timer disable.\n");
 917:quantum/rgblight/rgblight.c **** }
 918:quantum/rgblight/rgblight.c **** void rgblight_timer_toggle(void) {
 919:quantum/rgblight/rgblight.c ****     dprintf("rgblight timer toggle.\n");
 920:quantum/rgblight/rgblight.c ****     if (rgblight_status.timer_enabled) {
 921:quantum/rgblight/rgblight.c ****         rgblight_timer_disable();
 922:quantum/rgblight/rgblight.c ****     } else {
 923:quantum/rgblight/rgblight.c ****         rgblight_timer_enable();
 924:quantum/rgblight/rgblight.c ****     }
 925:quantum/rgblight/rgblight.c **** }
 926:quantum/rgblight/rgblight.c **** 
 927:quantum/rgblight/rgblight.c **** void rgblight_show_solid_color(uint8_t r, uint8_t g, uint8_t b) {
 928:quantum/rgblight/rgblight.c ****     rgblight_enable();
 929:quantum/rgblight/rgblight.c ****     rgblight_mode(RGBLIGHT_MODE_STATIC_LIGHT);
 930:quantum/rgblight/rgblight.c ****     rgblight_setrgb(r, g, b);
 931:quantum/rgblight/rgblight.c **** }
 932:quantum/rgblight/rgblight.c **** 
 933:quantum/rgblight/rgblight.c **** static void rgblight_effect_dummy(animation_status_t *anim) {
  16               		.loc 1 933 61 view -0
  17               		.cfi_startproc
  18               	/* prologue: function */
  19               	/* frame size = 0 */
  20               	/* stack size = 0 */
  21               	.L__stack_usage = 0
 934:quantum/rgblight/rgblight.c ****     // do nothing
 935:quantum/rgblight/rgblight.c ****     /********
 936:quantum/rgblight/rgblight.c ****     dprintf("rgblight_task() what happened?\n");
 937:quantum/rgblight/rgblight.c ****     dprintf("is_static_effect %d\n", is_static_effect(rgblight_config.mode));
 938:quantum/rgblight/rgblight.c ****     dprintf("mode = %d, base_mode = %d, timer_enabled %d, ",
 939:quantum/rgblight/rgblight.c ****             rgblight_config.mode, rgblight_status.base_mode,
 940:quantum/rgblight/rgblight.c ****             rgblight_status.timer_enabled);
 941:quantum/rgblight/rgblight.c ****     dprintf("last_timer = %d\n",anim->last_timer);
 942:quantum/rgblight/rgblight.c ****     **/
 943:quantum/rgblight/rgblight.c **** }
  22               		.loc 1 943 1 view .LVU1
  23               	/* epilogue start */
  24 0000 0895      		ret
  25               		.cfi_endproc
  26               	.LFE174:
  28               		.section	.text.rgblight_set_clipping_range,"ax",@progbits
  29               	.global	rgblight_set_clipping_range
  31               	rgblight_set_clipping_range:
  32               	.LVL1:
  33               	.LFB86:
 133:quantum/rgblight/rgblight.c ****     rgblight_ranges.clipping_start_pos = start_pos;
  34               		.loc 1 133 71 view -0
  35               		.cfi_startproc
  36               	/* prologue: function */
  37               	/* frame size = 0 */
  38               	/* stack size = 0 */
  39               	.L__stack_usage = 0
 134:quantum/rgblight/rgblight.c ****     rgblight_ranges.clipping_num_leds  = num_leds;
  40               		.loc 1 134 5 view .LVU3
 134:quantum/rgblight/rgblight.c ****     rgblight_ranges.clipping_num_leds  = num_leds;
  41               		.loc 1 134 40 is_stmt 0 view .LVU4
  42 0000 E0E0      		ldi r30,lo8(rgblight_ranges)
  43 0002 F0E0      		ldi r31,hi8(rgblight_ranges)
  44 0004 8083      		st Z,r24
 135:quantum/rgblight/rgblight.c **** }
  45               		.loc 1 135 5 is_stmt 1 view .LVU5
 135:quantum/rgblight/rgblight.c **** }
  46               		.loc 1 135 40 is_stmt 0 view .LVU6
  47 0006 6183      		std Z+1,r22
  48               	/* epilogue start */
 136:quantum/rgblight/rgblight.c **** 
  49               		.loc 1 136 1 view .LVU7
  50 0008 0895      		ret
  51               		.cfi_endproc
  52               	.LFE86:
  54               		.section	.text.rgblight_set_effect_range,"ax",@progbits
  55               	.global	rgblight_set_effect_range
  57               	rgblight_set_effect_range:
  58               	.LVL2:
  59               	.LFB87:
 138:quantum/rgblight/rgblight.c ****     if (start_pos >= RGBLED_NUM) return;
  60               		.loc 1 138 69 is_stmt 1 view -0
  61               		.cfi_startproc
  62               	/* prologue: function */
  63               	/* frame size = 0 */
  64               	/* stack size = 0 */
  65               	.L__stack_usage = 0
 139:quantum/rgblight/rgblight.c ****     if (start_pos + num_leds > RGBLED_NUM) return;
  66               		.loc 1 139 5 view .LVU9
 139:quantum/rgblight/rgblight.c ****     if (start_pos + num_leds > RGBLED_NUM) return;
  67               		.loc 1 139 8 is_stmt 0 view .LVU10
  68 0000 8230      		cpi r24,lo8(2)
  69 0002 00F4      		brsh .L3
 140:quantum/rgblight/rgblight.c ****     rgblight_ranges.effect_start_pos = start_pos;
  70               		.loc 1 140 5 is_stmt 1 view .LVU11
 140:quantum/rgblight/rgblight.c ****     rgblight_ranges.effect_start_pos = start_pos;
  71               		.loc 1 140 19 is_stmt 0 view .LVU12
  72 0004 482F      		mov r20,r24
  73 0006 460F      		add r20,r22
  74 0008 5527      		clr r21
  75 000a 551F      		rol r21
 140:quantum/rgblight/rgblight.c ****     rgblight_ranges.effect_start_pos = start_pos;
  76               		.loc 1 140 8 view .LVU13
  77 000c 4330      		cpi r20,3
  78 000e 5105      		cpc r21,__zero_reg__
  79 0010 04F4      		brge .L3
 141:quantum/rgblight/rgblight.c ****     rgblight_ranges.effect_end_pos   = start_pos + num_leds;
  80               		.loc 1 141 5 is_stmt 1 view .LVU14
 141:quantum/rgblight/rgblight.c ****     rgblight_ranges.effect_end_pos   = start_pos + num_leds;
  81               		.loc 1 141 38 is_stmt 0 view .LVU15
  82 0012 8093 0000 		sts rgblight_ranges+2,r24
 142:quantum/rgblight/rgblight.c ****     rgblight_ranges.effect_num_leds  = num_leds;
  83               		.loc 1 142 5 is_stmt 1 view .LVU16
 142:quantum/rgblight/rgblight.c ****     rgblight_ranges.effect_num_leds  = num_leds;
  84               		.loc 1 142 50 is_stmt 0 view .LVU17
  85 0016 860F      		add r24,r22
  86               	.LVL3:
 142:quantum/rgblight/rgblight.c ****     rgblight_ranges.effect_num_leds  = num_leds;
  87               		.loc 1 142 38 view .LVU18
  88 0018 8093 0000 		sts rgblight_ranges+3,r24
 143:quantum/rgblight/rgblight.c **** }
  89               		.loc 1 143 5 is_stmt 1 view .LVU19
 143:quantum/rgblight/rgblight.c **** }
  90               		.loc 1 143 38 is_stmt 0 view .LVU20
  91 001c 6093 0000 		sts rgblight_ranges+4,r22
  92               	.LVL4:
  93               	.L3:
  94               	/* epilogue start */
 144:quantum/rgblight/rgblight.c **** 
  95               		.loc 1 144 1 view .LVU21
  96 0020 0895      		ret
  97               		.cfi_endproc
  98               	.LFE87:
 100               		.section	.text.rgblight_hsv_to_rgb,"ax",@progbits
 101               		.weak	rgblight_hsv_to_rgb
 103               	rgblight_hsv_to_rgb:
 104               	.LVL5:
 105               	.LFB88:
 146:quantum/rgblight/rgblight.c **** 
 106               		.loc 1 146 56 is_stmt 1 view -0
 107               		.cfi_startproc
 108               	/* prologue: function */
 109               	/* frame size = 0 */
 110               	/* stack size = 0 */
 111               	.L__stack_usage = 0
 146:quantum/rgblight/rgblight.c **** 
 112               		.loc 1 146 58 view .LVU23
 146:quantum/rgblight/rgblight.c **** 
 113               		.loc 1 146 65 is_stmt 0 view .LVU24
 114 0000 0C94 0000 		jmp hsv_to_rgb
 115               	.LVL6:
 146:quantum/rgblight/rgblight.c **** 
 116               		.loc 1 146 65 view .LVU25
 117               		.cfi_endproc
 118               	.LFE88:
 120               		.section	.text.sethsv_raw,"ax",@progbits
 121               	.global	sethsv_raw
 123               	sethsv_raw:
 124               	.LVL7:
 125               	.LFB89:
 148:quantum/rgblight/rgblight.c ****     HSV hsv = {hue, sat, val};
 126               		.loc 1 148 72 is_stmt 1 view -0
 127               		.cfi_startproc
 148:quantum/rgblight/rgblight.c ****     HSV hsv = {hue, sat, val};
 128               		.loc 1 148 72 is_stmt 0 view .LVU27
 129 0000 CF93      		push r28
 130               	.LCFI0:
 131               		.cfi_def_cfa_offset 3
 132               		.cfi_offset 28, -2
 133 0002 DF93      		push r29
 134               	.LCFI1:
 135               		.cfi_def_cfa_offset 4
 136               		.cfi_offset 29, -3
 137               	/* prologue: function */
 138               	/* frame size = 0 */
 139               	/* stack size = 2 */
 140               	.L__stack_usage = 2
 141 0004 982F      		mov r25,r24
 142 0006 762F      		mov r23,r22
 143 0008 842F      		mov r24,r20
 144               	.LVL8:
 148:quantum/rgblight/rgblight.c ****     HSV hsv = {hue, sat, val};
 145               		.loc 1 148 72 view .LVU28
 146 000a E901      		movw r28,r18
 149:quantum/rgblight/rgblight.c ****     RGB rgb = rgblight_hsv_to_rgb(hsv);
 147               		.loc 1 149 5 is_stmt 1 view .LVU29
 150:quantum/rgblight/rgblight.c ****     setrgb(rgb.r, rgb.g, rgb.b, led1);
 148               		.loc 1 150 5 view .LVU30
 150:quantum/rgblight/rgblight.c ****     setrgb(rgb.r, rgb.g, rgb.b, led1);
 149               		.loc 1 150 15 is_stmt 0 view .LVU31
 150 000c 692F      		mov r22,r25
 151               	.LVL9:
 150:quantum/rgblight/rgblight.c ****     setrgb(rgb.r, rgb.g, rgb.b, led1);
 152               		.loc 1 150 15 view .LVU32
 153 000e 0E94 0000 		call rgblight_hsv_to_rgb
 154               	.LVL10:
 151:quantum/rgblight/rgblight.c **** }
 155               		.loc 1 151 5 is_stmt 1 view .LVU33
 156               	.LBB19:
 157               	.LBI19:
 156:quantum/rgblight/rgblight.c ****     led1->r = r;
 158               		.loc 1 156 6 view .LVU34
 159               	.LBB20:
 157:quantum/rgblight/rgblight.c ****     led1->g = g;
 160               		.loc 1 157 5 view .LVU35
 157:quantum/rgblight/rgblight.c ****     led1->g = g;
 161               		.loc 1 157 13 is_stmt 0 view .LVU36
 162 0012 7983      		std Y+1,r23
 158:quantum/rgblight/rgblight.c ****     led1->b = b;
 163               		.loc 1 158 5 is_stmt 1 view .LVU37
 158:quantum/rgblight/rgblight.c ****     led1->b = b;
 164               		.loc 1 158 13 is_stmt 0 view .LVU38
 165 0014 6883      		st Y,r22
 159:quantum/rgblight/rgblight.c **** #ifdef RGBW
 166               		.loc 1 159 5 is_stmt 1 view .LVU39
 159:quantum/rgblight/rgblight.c **** #ifdef RGBW
 167               		.loc 1 159 13 is_stmt 0 view .LVU40
 168 0016 8A83      		std Y+2,r24
 169               	.LVL11:
 170               	/* epilogue start */
 159:quantum/rgblight/rgblight.c **** #ifdef RGBW
 171               		.loc 1 159 13 view .LVU41
 172               	.LBE20:
 173               	.LBE19:
 152:quantum/rgblight/rgblight.c **** 
 174               		.loc 1 152 1 view .LVU42
 175 0018 DF91      		pop r29
 176 001a CF91      		pop r28
 177               	.LVL12:
 152:quantum/rgblight/rgblight.c **** 
 178               		.loc 1 152 1 view .LVU43
 179 001c 0895      		ret
 180               		.cfi_endproc
 181               	.LFE89:
 183               		.section	.text.sethsv,"ax",@progbits
 184               	.global	sethsv
 186               	sethsv:
 187               	.LVL13:
 188               	.LFB90:
 154:quantum/rgblight/rgblight.c **** 
 189               		.loc 1 154 68 is_stmt 1 view -0
 190               		.cfi_startproc
 191               	/* prologue: function */
 192               	/* frame size = 0 */
 193               	/* stack size = 0 */
 194               	.L__stack_usage = 0
 154:quantum/rgblight/rgblight.c **** 
 195               		.loc 1 154 70 view .LVU45
 196 0000 0C94 0000 		jmp sethsv_raw
 197               	.LVL14:
 154:quantum/rgblight/rgblight.c **** 
 198               		.loc 1 154 70 is_stmt 0 view .LVU46
 199               		.cfi_endproc
 200               	.LFE90:
 202               		.section	.text.setrgb,"ax",@progbits
 203               	.global	setrgb
 205               	setrgb:
 206               	.LVL15:
 207               	.LFB91:
 156:quantum/rgblight/rgblight.c ****     led1->r = r;
 208               		.loc 1 156 62 is_stmt 1 view -0
 209               		.cfi_startproc
 210               	/* prologue: function */
 211               	/* frame size = 0 */
 212               	/* stack size = 0 */
 213               	.L__stack_usage = 0
 156:quantum/rgblight/rgblight.c ****     led1->r = r;
 214               		.loc 1 156 62 is_stmt 0 view .LVU48
 215 0000 F901      		movw r30,r18
 157:quantum/rgblight/rgblight.c ****     led1->g = g;
 216               		.loc 1 157 5 is_stmt 1 view .LVU49
 157:quantum/rgblight/rgblight.c ****     led1->g = g;
 217               		.loc 1 157 13 is_stmt 0 view .LVU50
 218 0002 8183      		std Z+1,r24
 158:quantum/rgblight/rgblight.c ****     led1->b = b;
 219               		.loc 1 158 5 is_stmt 1 view .LVU51
 158:quantum/rgblight/rgblight.c ****     led1->b = b;
 220               		.loc 1 158 13 is_stmt 0 view .LVU52
 221 0004 6083      		st Z,r22
 159:quantum/rgblight/rgblight.c **** #ifdef RGBW
 222               		.loc 1 159 5 is_stmt 1 view .LVU53
 159:quantum/rgblight/rgblight.c **** #ifdef RGBW
 223               		.loc 1 159 13 is_stmt 0 view .LVU54
 224 0006 4283      		std Z+2,r20
 225               	/* epilogue start */
 163:quantum/rgblight/rgblight.c **** 
 226               		.loc 1 163 1 view .LVU55
 227 0008 0895      		ret
 228               		.cfi_endproc
 229               	.LFE91:
 231               		.section	.text.rgblight_check_config,"ax",@progbits
 232               	.global	rgblight_check_config
 234               	rgblight_check_config:
 235               	.LFB92:
 165:quantum/rgblight/rgblight.c ****     /* Add some out of bound checks for RGB light config */
 236               		.loc 1 165 34 is_stmt 1 view -0
 237               		.cfi_startproc
 238               	/* prologue: function */
 239               	/* frame size = 0 */
 240               	/* stack size = 0 */
 241               	.L__stack_usage = 0
 168:quantum/rgblight/rgblight.c ****         rgblight_config.mode = RGBLIGHT_MODE_STATIC_LIGHT;
 242               		.loc 1 168 5 view .LVU57
 168:quantum/rgblight/rgblight.c ****         rgblight_config.mode = RGBLIGHT_MODE_STATIC_LIGHT;
 243               		.loc 1 168 30 is_stmt 0 view .LVU58
 244 0000 8091 0000 		lds r24,rgblight_config
 245 0004 982F      		mov r25,r24
 246 0006 9E7F      		andi r25,lo8(-2)
 168:quantum/rgblight/rgblight.c ****         rgblight_config.mode = RGBLIGHT_MODE_STATIC_LIGHT;
 247               		.loc 1 168 8 view .LVU59
 248 0008 01F4      		brne .L10
 169:quantum/rgblight/rgblight.c ****     } else if (rgblight_config.mode > RGBLIGHT_MODES) {
 249               		.loc 1 169 9 is_stmt 1 view .LVU60
 169:quantum/rgblight/rgblight.c ****     } else if (rgblight_config.mode > RGBLIGHT_MODES) {
 250               		.loc 1 169 30 is_stmt 0 view .LVU61
 251 000a 8170      		andi r24,lo8(1)
 252 000c 8260      		ori r24,lo8(2)
 253               	.L12:
 171:quantum/rgblight/rgblight.c ****     }
 254               		.loc 1 171 30 view .LVU62
 255 000e 8093 0000 		sts rgblight_config,r24
 174:quantum/rgblight/rgblight.c ****         rgblight_config.val = RGBLIGHT_LIMIT_VAL;
 256               		.loc 1 174 5 is_stmt 1 view .LVU63
 257               	.L9:
 258               	/* epilogue start */
 177:quantum/rgblight/rgblight.c **** 
 259               		.loc 1 177 1 is_stmt 0 view .LVU64
 260 0012 0895      		ret
 261               	.L10:
 170:quantum/rgblight/rgblight.c ****         rgblight_config.mode = RGBLIGHT_MODES;
 262               		.loc 1 170 12 is_stmt 1 view .LVU65
 170:quantum/rgblight/rgblight.c ****         rgblight_config.mode = RGBLIGHT_MODES;
 263               		.loc 1 170 15 is_stmt 0 view .LVU66
 264 0014 8A34      		cpi r24,lo8(74)
 265 0016 00F0      		brlo .L9
 171:quantum/rgblight/rgblight.c ****     }
 266               		.loc 1 171 9 is_stmt 1 view .LVU67
 171:quantum/rgblight/rgblight.c ****     }
 267               		.loc 1 171 30 is_stmt 0 view .LVU68
 268 0018 8170      		andi r24,lo8(1)
 269 001a 8864      		ori r24,lo8(72)
 270 001c 00C0      		rjmp .L12
 271               		.cfi_endproc
 272               	.LFE92:
 274               		.section	.text.eeconfig_read_rgblight,"ax",@progbits
 275               	.global	eeconfig_read_rgblight
 277               	eeconfig_read_rgblight:
 278               	.LFB93:
 179:quantum/rgblight/rgblight.c **** #ifdef EEPROM_ENABLE
 279               		.loc 1 179 39 is_stmt 1 view -0
 280               		.cfi_startproc
 281               	/* prologue: function */
 282               	/* frame size = 0 */
 283               	/* stack size = 0 */
 284               	.L__stack_usage = 0
 181:quantum/rgblight/rgblight.c **** #else
 285               		.loc 1 181 5 view .LVU70
 181:quantum/rgblight/rgblight.c **** #else
 286               		.loc 1 181 12 is_stmt 0 view .LVU71
 287 0000 88E0      		ldi r24,lo8(8)
 288 0002 90E0      		ldi r25,0
 289 0004 0C94 0000 		jmp eeprom_read_dword
 290               	.LVL16:
 291               		.cfi_endproc
 292               	.LFE93:
 294               		.section	.text.eeconfig_update_rgblight,"ax",@progbits
 295               	.global	eeconfig_update_rgblight
 297               	eeconfig_update_rgblight:
 298               	.LVL17:
 299               	.LFB94:
 187:quantum/rgblight/rgblight.c **** #ifdef EEPROM_ENABLE
 300               		.loc 1 187 45 is_stmt 1 view -0
 301               		.cfi_startproc
 187:quantum/rgblight/rgblight.c **** #ifdef EEPROM_ENABLE
 302               		.loc 1 187 45 is_stmt 0 view .LVU73
 303 0000 0F93      		push r16
 304               	.LCFI2:
 305               		.cfi_def_cfa_offset 3
 306               		.cfi_offset 16, -2
 307 0002 1F93      		push r17
 308               	.LCFI3:
 309               		.cfi_def_cfa_offset 4
 310               		.cfi_offset 17, -3
 311 0004 CF93      		push r28
 312               	.LCFI4:
 313               		.cfi_def_cfa_offset 5
 314               		.cfi_offset 28, -4
 315 0006 DF93      		push r29
 316               	.LCFI5:
 317               		.cfi_def_cfa_offset 6
 318               		.cfi_offset 29, -5
 319               	/* prologue: function */
 320               	/* frame size = 0 */
 321               	/* stack size = 4 */
 322               	.L__stack_usage = 4
 323 0008 8B01      		movw r16,r22
 324 000a D82F      		mov r29,r24
 325 000c C92F      		mov r28,r25
 189:quantum/rgblight/rgblight.c ****     eeprom_update_dword(EECONFIG_RGBLIGHT, val);
 326               		.loc 1 189 5 is_stmt 1 view .LVU74
 327 000e 0E94 0000 		call rgblight_check_config
 328               	.LVL18:
 190:quantum/rgblight/rgblight.c **** #endif
 329               		.loc 1 190 5 view .LVU75
 330 0012 A801      		movw r20,r16
 331 0014 6D2F      		mov r22,r29
 332 0016 7C2F      		mov r23,r28
 333 0018 88E0      		ldi r24,lo8(8)
 334 001a 90E0      		ldi r25,0
 335               	/* epilogue start */
 192:quantum/rgblight/rgblight.c **** 
 336               		.loc 1 192 1 is_stmt 0 view .LVU76
 337 001c DF91      		pop r29
 338 001e CF91      		pop r28
 339 0020 1F91      		pop r17
 340 0022 0F91      		pop r16
 190:quantum/rgblight/rgblight.c **** #endif
 341               		.loc 1 190 5 view .LVU77
 342 0024 0C94 0000 		jmp eeprom_update_dword
 343               	.LVL19:
 344               		.cfi_endproc
 345               	.LFE94:
 347               		.section	.text.eeconfig_update_rgblight_current,"ax",@progbits
 348               	.global	eeconfig_update_rgblight_current
 350               	eeconfig_update_rgblight_current:
 351               	.LFB95:
 194:quantum/rgblight/rgblight.c **** 
 352               		.loc 1 194 45 is_stmt 1 view -0
 353               		.cfi_startproc
 354 0000 CF93      		push r28
 355               	.LCFI6:
 356               		.cfi_def_cfa_offset 3
 357               		.cfi_offset 28, -2
 358 0002 DF93      		push r29
 359               	.LCFI7:
 360               		.cfi_def_cfa_offset 4
 361               		.cfi_offset 29, -3
 362 0004 00D0      		rcall .
 363 0006 00D0      		rcall .
 364               	.LCFI8:
 365               		.cfi_def_cfa_offset 8
 366 0008 CDB7      		in r28,__SP_L__
 367 000a DEB7      		in r29,__SP_H__
 368               	.LCFI9:
 369               		.cfi_def_cfa_register 28
 370               	/* prologue: function */
 371               	/* frame size = 4 */
 372               	/* stack size = 6 */
 373               	.L__stack_usage = 6
 194:quantum/rgblight/rgblight.c **** 
 374               		.loc 1 194 47 view .LVU79
 375 000c 8091 0000 		lds r24,rgblight_config
 376 0010 9091 0000 		lds r25,rgblight_config+1
 377 0014 A091 0000 		lds r26,rgblight_config+2
 378 0018 B091 0000 		lds r27,rgblight_config+3
 379 001c 8983      		std Y+1,r24
 380 001e 9A83      		std Y+2,r25
 381 0020 AB83      		std Y+3,r26
 382 0022 BC83      		std Y+4,r27
 383 0024 BC01      		movw r22,r24
 384 0026 CD01      		movw r24,r26
 385               	/* epilogue start */
 194:quantum/rgblight/rgblight.c **** 
 386               		.loc 1 194 94 is_stmt 0 view .LVU80
 387 0028 0F90      		pop __tmp_reg__
 388 002a 0F90      		pop __tmp_reg__
 389 002c 0F90      		pop __tmp_reg__
 390 002e 0F90      		pop __tmp_reg__
 391 0030 DF91      		pop r29
 392 0032 CF91      		pop r28
 194:quantum/rgblight/rgblight.c **** 
 393               		.loc 1 194 47 view .LVU81
 394 0034 0C94 0000 		jmp eeconfig_update_rgblight
 395               	.LVL20:
 396               		.cfi_endproc
 397               	.LFE95:
 399               		.section	.text.eeconfig_update_rgblight_default,"ax",@progbits
 400               	.global	eeconfig_update_rgblight_default
 402               	eeconfig_update_rgblight_default:
 403               	.LFB96:
 196:quantum/rgblight/rgblight.c ****     rgblight_config.enable = 1;
 404               		.loc 1 196 45 is_stmt 1 view -0
 405               		.cfi_startproc
 406               	/* prologue: function */
 407               	/* frame size = 0 */
 408               	/* stack size = 0 */
 409               	.L__stack_usage = 0
 197:quantum/rgblight/rgblight.c ****     rgblight_config.mode   = RGBLIGHT_DEFAULT_MODE;
 410               		.loc 1 197 5 view .LVU83
 198:quantum/rgblight/rgblight.c ****     rgblight_config.hue    = RGBLIGHT_DEFAULT_HUE;
 411               		.loc 1 198 5 view .LVU84
 199:quantum/rgblight/rgblight.c ****     rgblight_config.sat    = RGBLIGHT_DEFAULT_SAT;
 412               		.loc 1 199 5 view .LVU85
 200:quantum/rgblight/rgblight.c ****     rgblight_config.val    = RGBLIGHT_DEFAULT_VAL;
 413               		.loc 1 200 5 view .LVU86
 201:quantum/rgblight/rgblight.c ****     rgblight_config.speed  = RGBLIGHT_DEFAULT_SPD;
 414               		.loc 1 201 5 view .LVU87
 202:quantum/rgblight/rgblight.c ****     RGBLIGHT_SPLIT_SET_CHANGE_MODEHSVS;
 415               		.loc 1 202 5 view .LVU88
 197:quantum/rgblight/rgblight.c ****     rgblight_config.mode   = RGBLIGHT_DEFAULT_MODE;
 416               		.loc 1 197 28 is_stmt 0 view .LVU89
 417 0000 E0E0      		ldi r30,lo8(rgblight_config)
 418 0002 F0E0      		ldi r31,hi8(rgblight_config)
 419 0004 83E0      		ldi r24,lo8(3)
 420 0006 8083      		st Z,r24
 199:quantum/rgblight/rgblight.c ****     rgblight_config.sat    = RGBLIGHT_DEFAULT_SAT;
 421               		.loc 1 199 28 view .LVU90
 422 0008 1182      		std Z+1,__zero_reg__
 200:quantum/rgblight/rgblight.c ****     rgblight_config.val    = RGBLIGHT_DEFAULT_VAL;
 423               		.loc 1 200 28 view .LVU91
 424 000a 8FEF      		ldi r24,lo8(-1)
 425 000c 8283      		std Z+2,r24
 201:quantum/rgblight/rgblight.c ****     rgblight_config.speed  = RGBLIGHT_DEFAULT_SPD;
 426               		.loc 1 201 28 view .LVU92
 427 000e 8383      		std Z+3,r24
 202:quantum/rgblight/rgblight.c ****     RGBLIGHT_SPLIT_SET_CHANGE_MODEHSVS;
 428               		.loc 1 202 28 view .LVU93
 429 0010 1482      		std Z+4,__zero_reg__
 203:quantum/rgblight/rgblight.c ****     eeconfig_update_rgblight(rgblight_config.raw);
 430               		.loc 1 203 39 is_stmt 1 view .LVU94
 204:quantum/rgblight/rgblight.c **** }
 431               		.loc 1 204 5 view .LVU95
 432 0012 63E0      		ldi r22,lo8(3)
 433 0014 70E0      		ldi r23,0
 434 0016 8FEF      		ldi r24,lo8(-1)
 435 0018 9FEF      		ldi r25,lo8(-1)
 436 001a 0C94 0000 		jmp eeconfig_update_rgblight
 437               	.LVL21:
 438               		.cfi_endproc
 439               	.LFE96:
 441               		.section	.text.eeconfig_debug_rgblight,"ax",@progbits
 442               	.global	eeconfig_debug_rgblight
 444               	eeconfig_debug_rgblight:
 445               	.LFB97:
 207:quantum/rgblight/rgblight.c ****     dprintf("rgblight_config EEPROM:\n");
 446               		.loc 1 207 36 view -0
 447               		.cfi_startproc
 448               	/* prologue: function */
 449               	/* frame size = 0 */
 450               	/* stack size = 0 */
 451               	.L__stack_usage = 0
 208:quantum/rgblight/rgblight.c ****     dprintf("rgblight_config.enable = %d\n", rgblight_config.enable);
 452               		.loc 1 208 41 view .LVU97
 209:quantum/rgblight/rgblight.c ****     dprintf("rghlight_config.mode = %d\n", rgblight_config.mode);
 453               		.loc 1 209 69 view .LVU98
 210:quantum/rgblight/rgblight.c ****     dprintf("rgblight_config.hue = %d\n", rgblight_config.hue);
 454               		.loc 1 210 65 view .LVU99
 211:quantum/rgblight/rgblight.c ****     dprintf("rgblight_config.sat = %d\n", rgblight_config.sat);
 455               		.loc 1 211 63 view .LVU100
 212:quantum/rgblight/rgblight.c ****     dprintf("rgblight_config.val = %d\n", rgblight_config.val);
 456               		.loc 1 212 63 view .LVU101
 213:quantum/rgblight/rgblight.c ****     dprintf("rgblight_config.speed = %d\n", rgblight_config.speed);
 457               		.loc 1 213 63 view .LVU102
 214:quantum/rgblight/rgblight.c **** }
 458               		.loc 1 214 67 view .LVU103
 459               	/* epilogue start */
 215:quantum/rgblight/rgblight.c **** 
 460               		.loc 1 215 1 is_stmt 0 view .LVU104
 461 0000 0895      		ret
 462               		.cfi_endproc
 463               	.LFE97:
 465               		.section	.text.rgblight_read_dword,"ax",@progbits
 466               	.global	rgblight_read_dword
 468               	rgblight_read_dword:
 469               	.LFB100:
 263:quantum/rgblight/rgblight.c **** 
 470               		.loc 1 263 36 is_stmt 1 view -0
 471               		.cfi_startproc
 472 0000 CF93      		push r28
 473               	.LCFI10:
 474               		.cfi_def_cfa_offset 3
 475               		.cfi_offset 28, -2
 476 0002 DF93      		push r29
 477               	.LCFI11:
 478               		.cfi_def_cfa_offset 4
 479               		.cfi_offset 29, -3
 480 0004 00D0      		rcall .
 481 0006 00D0      		rcall .
 482               	.LCFI12:
 483               		.cfi_def_cfa_offset 8
 484 0008 CDB7      		in r28,__SP_L__
 485 000a DEB7      		in r29,__SP_H__
 486               	.LCFI13:
 487               		.cfi_def_cfa_register 28
 488               	/* prologue: function */
 489               	/* frame size = 4 */
 490               	/* stack size = 6 */
 491               	.L__stack_usage = 6
 263:quantum/rgblight/rgblight.c **** 
 492               		.loc 1 263 38 view .LVU106
 263:quantum/rgblight/rgblight.c **** 
 493               		.loc 1 263 60 is_stmt 0 view .LVU107
 494 000c 8091 0000 		lds r24,rgblight_config
 495 0010 9091 0000 		lds r25,rgblight_config+1
 496 0014 A091 0000 		lds r26,rgblight_config+2
 497 0018 B091 0000 		lds r27,rgblight_config+3
 263:quantum/rgblight/rgblight.c **** 
 498               		.loc 1 263 66 view .LVU108
 499 001c BC01      		movw r22,r24
 500 001e CD01      		movw r24,r26
 501               	/* epilogue start */
 502 0020 0F90      		pop __tmp_reg__
 503 0022 0F90      		pop __tmp_reg__
 504 0024 0F90      		pop __tmp_reg__
 505 0026 0F90      		pop __tmp_reg__
 506 0028 DF91      		pop r29
 507 002a CF91      		pop r28
 508 002c 0895      		ret
 509               		.cfi_endproc
 510               	.LFE100:
 512               		.section	.text.rgblight_get_mode,"ax",@progbits
 513               	.global	rgblight_get_mode
 515               	rgblight_get_mode:
 516               	.LFB110:
 312:quantum/rgblight/rgblight.c ****     if (!rgblight_config.enable) {
 517               		.loc 1 312 33 is_stmt 1 view -0
 518               		.cfi_startproc
 519               	/* prologue: function */
 520               	/* frame size = 0 */
 521               	/* stack size = 0 */
 522               	.L__stack_usage = 0
 313:quantum/rgblight/rgblight.c ****         return false;
 523               		.loc 1 313 5 view .LVU110
 313:quantum/rgblight/rgblight.c ****         return false;
 524               		.loc 1 313 25 is_stmt 0 view .LVU111
 525 0000 8091 0000 		lds r24,rgblight_config
 313:quantum/rgblight/rgblight.c ****         return false;
 526               		.loc 1 313 8 view .LVU112
 527 0004 80FF      		sbrs r24,0
 528 0006 00C0      		rjmp .L21
 317:quantum/rgblight/rgblight.c **** }
 529               		.loc 1 317 5 is_stmt 1 view .LVU113
 317:quantum/rgblight/rgblight.c **** }
 530               		.loc 1 317 27 is_stmt 0 view .LVU114
 531 0008 8695      		lsr r24
 532 000a 0895      		ret
 533               	.L21:
 314:quantum/rgblight/rgblight.c ****     }
 534               		.loc 1 314 16 view .LVU115
 535 000c 80E0      		ldi r24,0
 536               	/* epilogue start */
 318:quantum/rgblight/rgblight.c **** 
 537               		.loc 1 318 1 view .LVU116
 538 000e 0895      		ret
 539               		.cfi_endproc
 540               	.LFE110:
 542               		.section	.text.rgblight_is_enabled,"ax",@progbits
 543               	.global	rgblight_is_enabled
 545               	rgblight_is_enabled:
 546               	.LFB120:
 404:quantum/rgblight/rgblight.c **** 
 547               		.loc 1 404 32 is_stmt 1 view -0
 548               		.cfi_startproc
 549               	/* prologue: function */
 550               	/* frame size = 0 */
 551               	/* stack size = 0 */
 552               	.L__stack_usage = 0
 404:quantum/rgblight/rgblight.c **** 
 553               		.loc 1 404 34 view .LVU118
 404:quantum/rgblight/rgblight.c **** 
 554               		.loc 1 404 56 is_stmt 0 view .LVU119
 555 0000 8091 0000 		lds r24,rgblight_config
 404:quantum/rgblight/rgblight.c **** 
 556               		.loc 1 404 65 view .LVU120
 557 0004 8170      		andi r24,lo8(1)
 558               	/* epilogue start */
 559 0006 0895      		ret
 560               		.cfi_endproc
 561               	.LFE120:
 563               		.section	.text.rgblight_increase_speed_helper,"ax",@progbits
 564               	.global	rgblight_increase_speed_helper
 566               	rgblight_increase_speed_helper:
 567               	.LVL22:
 568               	.LFB139:
 443:quantum/rgblight/rgblight.c ****     if (rgblight_config.speed < 3) rgblight_config.speed++;
 569               		.loc 1 443 59 is_stmt 1 view -0
 570               		.cfi_startproc
 443:quantum/rgblight/rgblight.c ****     if (rgblight_config.speed < 3) rgblight_config.speed++;
 571               		.loc 1 443 59 is_stmt 0 view .LVU122
 572 0000 CF93      		push r28
 573               	.LCFI14:
 574               		.cfi_def_cfa_offset 3
 575               		.cfi_offset 28, -2
 576 0002 DF93      		push r29
 577               	.LCFI15:
 578               		.cfi_def_cfa_offset 4
 579               		.cfi_offset 29, -3
 580 0004 00D0      		rcall .
 581 0006 00D0      		rcall .
 582               	.LCFI16:
 583               		.cfi_def_cfa_offset 8
 584 0008 CDB7      		in r28,__SP_L__
 585 000a DEB7      		in r29,__SP_H__
 586               	.LCFI17:
 587               		.cfi_def_cfa_register 28
 588               	/* prologue: function */
 589               	/* frame size = 4 */
 590               	/* stack size = 6 */
 591               	.L__stack_usage = 6
 444:quantum/rgblight/rgblight.c ****     // RGBLIGHT_SPLIT_SET_CHANGE_HSVS; // NEED?
 592               		.loc 1 444 5 is_stmt 1 view .LVU123
 444:quantum/rgblight/rgblight.c ****     // RGBLIGHT_SPLIT_SET_CHANGE_HSVS; // NEED?
 593               		.loc 1 444 24 is_stmt 0 view .LVU124
 594 000c 9091 0000 		lds r25,rgblight_config+4
 444:quantum/rgblight/rgblight.c ****     // RGBLIGHT_SPLIT_SET_CHANGE_HSVS; // NEED?
 595               		.loc 1 444 8 view .LVU125
 596 0010 9330      		cpi r25,lo8(3)
 597 0012 00F4      		brsh .L24
 444:quantum/rgblight/rgblight.c ****     // RGBLIGHT_SPLIT_SET_CHANGE_HSVS; // NEED?
 598               		.loc 1 444 36 is_stmt 1 discriminator 1 view .LVU126
 444:quantum/rgblight/rgblight.c ****     // RGBLIGHT_SPLIT_SET_CHANGE_HSVS; // NEED?
 599               		.loc 1 444 57 is_stmt 0 discriminator 1 view .LVU127
 600 0014 9F5F      		subi r25,lo8(-(1))
 601 0016 9093 0000 		sts rgblight_config+4,r25
 602               	.L24:
 446:quantum/rgblight/rgblight.c ****         eeconfig_update_rgblight(rgblight_config.raw);  // EECONFIG needs to be increased to suppor
 603               		.loc 1 446 5 is_stmt 1 view .LVU128
 446:quantum/rgblight/rgblight.c ****         eeconfig_update_rgblight(rgblight_config.raw);  // EECONFIG needs to be increased to suppor
 604               		.loc 1 446 8 is_stmt 0 view .LVU129
 605 001a 8823      		tst r24
 606 001c 01F0      		breq .L23
 447:quantum/rgblight/rgblight.c ****     }
 607               		.loc 1 447 9 is_stmt 1 view .LVU130
 608 001e 8091 0000 		lds r24,rgblight_config
 609 0022 9091 0000 		lds r25,rgblight_config+1
 610 0026 A091 0000 		lds r26,rgblight_config+2
 611 002a B091 0000 		lds r27,rgblight_config+3
 612               	.LVL23:
 447:quantum/rgblight/rgblight.c ****     }
 613               		.loc 1 447 9 is_stmt 0 view .LVU131
 614 002e 8983      		std Y+1,r24
 615 0030 9A83      		std Y+2,r25
 616 0032 AB83      		std Y+3,r26
 617 0034 BC83      		std Y+4,r27
 618 0036 BC01      		movw r22,r24
 619 0038 CD01      		movw r24,r26
 620               	/* epilogue start */
 449:quantum/rgblight/rgblight.c **** void rgblight_increase_speed(void) { rgblight_increase_speed_helper(true); }
 621               		.loc 1 449 1 view .LVU132
 622 003a 0F90      		pop __tmp_reg__
 623 003c 0F90      		pop __tmp_reg__
 624 003e 0F90      		pop __tmp_reg__
 625 0040 0F90      		pop __tmp_reg__
 626 0042 DF91      		pop r29
 627 0044 CF91      		pop r28
 447:quantum/rgblight/rgblight.c ****     }
 628               		.loc 1 447 9 view .LVU133
 629 0046 0C94 0000 		jmp eeconfig_update_rgblight
 630               	.LVL24:
 631               	.L23:
 632               	/* epilogue start */
 449:quantum/rgblight/rgblight.c **** void rgblight_increase_speed(void) { rgblight_increase_speed_helper(true); }
 633               		.loc 1 449 1 view .LVU134
 634 004a 0F90      		pop __tmp_reg__
 635 004c 0F90      		pop __tmp_reg__
 636 004e 0F90      		pop __tmp_reg__
 637 0050 0F90      		pop __tmp_reg__
 638 0052 DF91      		pop r29
 639 0054 CF91      		pop r28
 640 0056 0895      		ret
 641               		.cfi_endproc
 642               	.LFE139:
 644               		.section	.text.rgblight_increase_speed,"ax",@progbits
 645               	.global	rgblight_increase_speed
 647               	rgblight_increase_speed:
 648               	.LFB140:
 450:quantum/rgblight/rgblight.c **** void rgblight_increase_speed_noeeprom(void) { rgblight_increase_speed_helper(false); }
 649               		.loc 1 450 36 is_stmt 1 view -0
 650               		.cfi_startproc
 651               	/* prologue: function */
 652               	/* frame size = 0 */
 653               	/* stack size = 0 */
 654               	.L__stack_usage = 0
 450:quantum/rgblight/rgblight.c **** void rgblight_increase_speed_noeeprom(void) { rgblight_increase_speed_helper(false); }
 655               		.loc 1 450 38 view .LVU136
 656 0000 81E0      		ldi r24,lo8(1)
 657 0002 0C94 0000 		jmp rgblight_increase_speed_helper
 658               	.LVL25:
 659               		.cfi_endproc
 660               	.LFE140:
 662               		.section	.text.rgblight_increase_speed_noeeprom,"ax",@progbits
 663               	.global	rgblight_increase_speed_noeeprom
 665               	rgblight_increase_speed_noeeprom:
 666               	.LFB141:
 451:quantum/rgblight/rgblight.c **** 
 667               		.loc 1 451 45 view -0
 668               		.cfi_startproc
 669               	/* prologue: function */
 670               	/* frame size = 0 */
 671               	/* stack size = 0 */
 672               	.L__stack_usage = 0
 451:quantum/rgblight/rgblight.c **** 
 673               		.loc 1 451 47 view .LVU138
 674 0000 80E0      		ldi r24,0
 675 0002 0C94 0000 		jmp rgblight_increase_speed_helper
 676               	.LVL26:
 677               		.cfi_endproc
 678               	.LFE141:
 680               		.section	.text.rgblight_decrease_speed_helper,"ax",@progbits
 681               	.global	rgblight_decrease_speed_helper
 683               	rgblight_decrease_speed_helper:
 684               	.LVL27:
 685               	.LFB142:
 453:quantum/rgblight/rgblight.c ****     if (rgblight_config.speed > 0) rgblight_config.speed--;
 686               		.loc 1 453 59 view -0
 687               		.cfi_startproc
 453:quantum/rgblight/rgblight.c ****     if (rgblight_config.speed > 0) rgblight_config.speed--;
 688               		.loc 1 453 59 is_stmt 0 view .LVU140
 689 0000 CF93      		push r28
 690               	.LCFI18:
 691               		.cfi_def_cfa_offset 3
 692               		.cfi_offset 28, -2
 693 0002 DF93      		push r29
 694               	.LCFI19:
 695               		.cfi_def_cfa_offset 4
 696               		.cfi_offset 29, -3
 697 0004 00D0      		rcall .
 698 0006 00D0      		rcall .
 699               	.LCFI20:
 700               		.cfi_def_cfa_offset 8
 701 0008 CDB7      		in r28,__SP_L__
 702 000a DEB7      		in r29,__SP_H__
 703               	.LCFI21:
 704               		.cfi_def_cfa_register 28
 705               	/* prologue: function */
 706               	/* frame size = 4 */
 707               	/* stack size = 6 */
 708               	.L__stack_usage = 6
 454:quantum/rgblight/rgblight.c ****     // RGBLIGHT_SPLIT_SET_CHANGE_HSVS; // NEED??
 709               		.loc 1 454 5 is_stmt 1 view .LVU141
 454:quantum/rgblight/rgblight.c ****     // RGBLIGHT_SPLIT_SET_CHANGE_HSVS; // NEED??
 710               		.loc 1 454 24 is_stmt 0 view .LVU142
 711 000c 9091 0000 		lds r25,rgblight_config+4
 454:quantum/rgblight/rgblight.c ****     // RGBLIGHT_SPLIT_SET_CHANGE_HSVS; // NEED??
 712               		.loc 1 454 8 view .LVU143
 713 0010 9923      		tst r25
 714 0012 01F0      		breq .L29
 454:quantum/rgblight/rgblight.c ****     // RGBLIGHT_SPLIT_SET_CHANGE_HSVS; // NEED??
 715               		.loc 1 454 36 is_stmt 1 discriminator 1 view .LVU144
 454:quantum/rgblight/rgblight.c ****     // RGBLIGHT_SPLIT_SET_CHANGE_HSVS; // NEED??
 716               		.loc 1 454 57 is_stmt 0 discriminator 1 view .LVU145
 717 0014 9150      		subi r25,lo8(-(-1))
 718 0016 9093 0000 		sts rgblight_config+4,r25
 719               	.L29:
 456:quantum/rgblight/rgblight.c ****         eeconfig_update_rgblight(rgblight_config.raw);  // EECONFIG needs to be increased to suppor
 720               		.loc 1 456 5 is_stmt 1 view .LVU146
 456:quantum/rgblight/rgblight.c ****         eeconfig_update_rgblight(rgblight_config.raw);  // EECONFIG needs to be increased to suppor
 721               		.loc 1 456 8 is_stmt 0 view .LVU147
 722 001a 8823      		tst r24
 723 001c 01F0      		breq .L28
 457:quantum/rgblight/rgblight.c ****     }
 724               		.loc 1 457 9 is_stmt 1 view .LVU148
 725 001e 8091 0000 		lds r24,rgblight_config
 726 0022 9091 0000 		lds r25,rgblight_config+1
 727 0026 A091 0000 		lds r26,rgblight_config+2
 728 002a B091 0000 		lds r27,rgblight_config+3
 729               	.LVL28:
 457:quantum/rgblight/rgblight.c ****     }
 730               		.loc 1 457 9 is_stmt 0 view .LVU149
 731 002e 8983      		std Y+1,r24
 732 0030 9A83      		std Y+2,r25
 733 0032 AB83      		std Y+3,r26
 734 0034 BC83      		std Y+4,r27
 735 0036 BC01      		movw r22,r24
 736 0038 CD01      		movw r24,r26
 737               	/* epilogue start */
 459:quantum/rgblight/rgblight.c **** void rgblight_decrease_speed(void) { rgblight_decrease_speed_helper(true); }
 738               		.loc 1 459 1 view .LVU150
 739 003a 0F90      		pop __tmp_reg__
 740 003c 0F90      		pop __tmp_reg__
 741 003e 0F90      		pop __tmp_reg__
 742 0040 0F90      		pop __tmp_reg__
 743 0042 DF91      		pop r29
 744 0044 CF91      		pop r28
 457:quantum/rgblight/rgblight.c ****     }
 745               		.loc 1 457 9 view .LVU151
 746 0046 0C94 0000 		jmp eeconfig_update_rgblight
 747               	.LVL29:
 748               	.L28:
 749               	/* epilogue start */
 459:quantum/rgblight/rgblight.c **** void rgblight_decrease_speed(void) { rgblight_decrease_speed_helper(true); }
 750               		.loc 1 459 1 view .LVU152
 751 004a 0F90      		pop __tmp_reg__
 752 004c 0F90      		pop __tmp_reg__
 753 004e 0F90      		pop __tmp_reg__
 754 0050 0F90      		pop __tmp_reg__
 755 0052 DF91      		pop r29
 756 0054 CF91      		pop r28
 757 0056 0895      		ret
 758               		.cfi_endproc
 759               	.LFE142:
 761               		.section	.text.rgblight_decrease_speed,"ax",@progbits
 762               	.global	rgblight_decrease_speed
 764               	rgblight_decrease_speed:
 765               	.LFB143:
 460:quantum/rgblight/rgblight.c **** void rgblight_decrease_speed_noeeprom(void) { rgblight_decrease_speed_helper(false); }
 766               		.loc 1 460 36 is_stmt 1 view -0
 767               		.cfi_startproc
 768               	/* prologue: function */
 769               	/* frame size = 0 */
 770               	/* stack size = 0 */
 771               	.L__stack_usage = 0
 460:quantum/rgblight/rgblight.c **** void rgblight_decrease_speed_noeeprom(void) { rgblight_decrease_speed_helper(false); }
 772               		.loc 1 460 38 view .LVU154
 773 0000 81E0      		ldi r24,lo8(1)
 774 0002 0C94 0000 		jmp rgblight_decrease_speed_helper
 775               	.LVL30:
 776               		.cfi_endproc
 777               	.LFE143:
 779               		.section	.text.rgblight_decrease_speed_noeeprom,"ax",@progbits
 780               	.global	rgblight_decrease_speed_noeeprom
 782               	rgblight_decrease_speed_noeeprom:
 783               	.LFB144:
 461:quantum/rgblight/rgblight.c **** 
 784               		.loc 1 461 45 view -0
 785               		.cfi_startproc
 786               	/* prologue: function */
 787               	/* frame size = 0 */
 788               	/* stack size = 0 */
 789               	.L__stack_usage = 0
 461:quantum/rgblight/rgblight.c **** 
 790               		.loc 1 461 47 view .LVU156
 791 0000 80E0      		ldi r24,0
 792 0002 0C94 0000 		jmp rgblight_decrease_speed_helper
 793               	.LVL31:
 794               		.cfi_endproc
 795               	.LFE144:
 797               		.section	.text.rgblight_get_speed,"ax",@progbits
 798               	.global	rgblight_get_speed
 800               	rgblight_get_speed:
 801               	.LFB149:
 547:quantum/rgblight/rgblight.c **** 
 802               		.loc 1 547 34 view -0
 803               		.cfi_startproc
 804               	/* prologue: function */
 805               	/* frame size = 0 */
 806               	/* stack size = 0 */
 807               	.L__stack_usage = 0
 547:quantum/rgblight/rgblight.c **** 
 808               		.loc 1 547 36 view .LVU158
 547:quantum/rgblight/rgblight.c **** 
 809               		.loc 1 547 66 is_stmt 0 view .LVU159
 810 0000 8091 0000 		lds r24,rgblight_config+4
 811               	/* epilogue start */
 812 0004 0895      		ret
 813               		.cfi_endproc
 814               	.LFE149:
 816               		.section	.text.rgblight_set_speed_eeprom_helper,"ax",@progbits
 817               	.global	rgblight_set_speed_eeprom_helper
 819               	rgblight_set_speed_eeprom_helper:
 820               	.LVL32:
 821               	.LFB150:
 549:quantum/rgblight/rgblight.c ****     rgblight_config.speed = speed;
 822               		.loc 1 549 76 is_stmt 1 view -0
 823               		.cfi_startproc
 549:quantum/rgblight/rgblight.c ****     rgblight_config.speed = speed;
 824               		.loc 1 549 76 is_stmt 0 view .LVU161
 825 0000 CF93      		push r28
 826               	.LCFI22:
 827               		.cfi_def_cfa_offset 3
 828               		.cfi_offset 28, -2
 829 0002 DF93      		push r29
 830               	.LCFI23:
 831               		.cfi_def_cfa_offset 4
 832               		.cfi_offset 29, -3
 833 0004 00D0      		rcall .
 834 0006 00D0      		rcall .
 835               	.LCFI24:
 836               		.cfi_def_cfa_offset 8
 837 0008 CDB7      		in r28,__SP_L__
 838 000a DEB7      		in r29,__SP_H__
 839               	.LCFI25:
 840               		.cfi_def_cfa_register 28
 841               	/* prologue: function */
 842               	/* frame size = 4 */
 843               	/* stack size = 6 */
 844               	.L__stack_usage = 6
 550:quantum/rgblight/rgblight.c ****     if (write_to_eeprom) {
 845               		.loc 1 550 5 is_stmt 1 view .LVU162
 550:quantum/rgblight/rgblight.c ****     if (write_to_eeprom) {
 846               		.loc 1 550 27 is_stmt 0 view .LVU163
 847 000c 8093 0000 		sts rgblight_config+4,r24
 551:quantum/rgblight/rgblight.c ****         eeconfig_update_rgblight(rgblight_config.raw);  // EECONFIG needs to be increased to suppor
 848               		.loc 1 551 5 is_stmt 1 view .LVU164
 551:quantum/rgblight/rgblight.c ****         eeconfig_update_rgblight(rgblight_config.raw);  // EECONFIG needs to be increased to suppor
 849               		.loc 1 551 8 is_stmt 0 view .LVU165
 850 0010 6623      		tst r22
 851 0012 01F0      		breq .L37
 552:quantum/rgblight/rgblight.c ****         dprintf("rgblight set speed [EEPROM]: %u\n", rgblight_config.speed);
 852               		.loc 1 552 9 is_stmt 1 view .LVU166
 853 0014 8091 0000 		lds r24,rgblight_config
 854 0018 9091 0000 		lds r25,rgblight_config+1
 855 001c A091 0000 		lds r26,rgblight_config+2
 856 0020 B091 0000 		lds r27,rgblight_config+3
 857               	.LVL33:
 552:quantum/rgblight/rgblight.c ****         dprintf("rgblight set speed [EEPROM]: %u\n", rgblight_config.speed);
 858               		.loc 1 552 9 is_stmt 0 view .LVU167
 859 0024 8983      		std Y+1,r24
 860 0026 9A83      		std Y+2,r25
 861 0028 AB83      		std Y+3,r26
 862 002a BC83      		std Y+4,r27
 863 002c BC01      		movw r22,r24
 864               	.LVL34:
 552:quantum/rgblight/rgblight.c ****         dprintf("rgblight set speed [EEPROM]: %u\n", rgblight_config.speed);
 865               		.loc 1 552 9 view .LVU168
 866 002e CD01      		movw r24,r26
 867               	/* epilogue start */
 557:quantum/rgblight/rgblight.c **** 
 868               		.loc 1 557 1 view .LVU169
 869 0030 0F90      		pop __tmp_reg__
 870 0032 0F90      		pop __tmp_reg__
 871 0034 0F90      		pop __tmp_reg__
 872 0036 0F90      		pop __tmp_reg__
 873 0038 DF91      		pop r29
 874 003a CF91      		pop r28
 552:quantum/rgblight/rgblight.c ****         dprintf("rgblight set speed [EEPROM]: %u\n", rgblight_config.speed);
 875               		.loc 1 552 9 view .LVU170
 876 003c 0C94 0000 		jmp eeconfig_update_rgblight
 877               	.LVL35:
 878               	.L37:
 879               	/* epilogue start */
 557:quantum/rgblight/rgblight.c **** 
 880               		.loc 1 557 1 view .LVU171
 881 0040 0F90      		pop __tmp_reg__
 882 0042 0F90      		pop __tmp_reg__
 883 0044 0F90      		pop __tmp_reg__
 884 0046 0F90      		pop __tmp_reg__
 885 0048 DF91      		pop r29
 886 004a CF91      		pop r28
 887 004c 0895      		ret
 888               		.cfi_endproc
 889               	.LFE150:
 891               		.section	.text.rgblight_set_speed,"ax",@progbits
 892               	.global	rgblight_set_speed
 894               	rgblight_set_speed:
 895               	.LVL36:
 896               	.LFB151:
 559:quantum/rgblight/rgblight.c **** 
 897               		.loc 1 559 40 is_stmt 1 view -0
 898               		.cfi_startproc
 899               	/* prologue: function */
 900               	/* frame size = 0 */
 901               	/* stack size = 0 */
 902               	.L__stack_usage = 0
 559:quantum/rgblight/rgblight.c **** 
 903               		.loc 1 559 42 view .LVU173
 904 0000 61E0      		ldi r22,lo8(1)
 905 0002 0C94 0000 		jmp rgblight_set_speed_eeprom_helper
 906               	.LVL37:
 559:quantum/rgblight/rgblight.c **** 
 907               		.loc 1 559 42 is_stmt 0 view .LVU174
 908               		.cfi_endproc
 909               	.LFE151:
 911               		.section	.text.rgblight_set_speed_noeeprom,"ax",@progbits
 912               	.global	rgblight_set_speed_noeeprom
 914               	rgblight_set_speed_noeeprom:
 915               	.LVL38:
 916               	.LFB152:
 561:quantum/rgblight/rgblight.c **** 
 917               		.loc 1 561 49 is_stmt 1 view -0
 918               		.cfi_startproc
 919               	/* prologue: function */
 920               	/* frame size = 0 */
 921               	/* stack size = 0 */
 922               	.L__stack_usage = 0
 561:quantum/rgblight/rgblight.c **** 
 923               		.loc 1 561 51 view .LVU176
 924 0000 60E0      		ldi r22,0
 925 0002 0C94 0000 		jmp rgblight_set_speed_eeprom_helper
 926               	.LVL39:
 561:quantum/rgblight/rgblight.c **** 
 927               		.loc 1 561 51 is_stmt 0 view .LVU177
 928               		.cfi_endproc
 929               	.LFE152:
 931               		.section	.text.rgblight_get_hue,"ax",@progbits
 932               	.global	rgblight_get_hue
 934               	rgblight_get_hue:
 935               	.LFB153:
 563:quantum/rgblight/rgblight.c **** 
 936               		.loc 1 563 32 is_stmt 1 view -0
 937               		.cfi_startproc
 938               	/* prologue: function */
 939               	/* frame size = 0 */
 940               	/* stack size = 0 */
 941               	.L__stack_usage = 0
 563:quantum/rgblight/rgblight.c **** 
 942               		.loc 1 563 34 view .LVU179
 563:quantum/rgblight/rgblight.c **** 
 943               		.loc 1 563 62 is_stmt 0 view .LVU180
 944 0000 8091 0000 		lds r24,rgblight_config+1
 945               	/* epilogue start */
 946 0004 0895      		ret
 947               		.cfi_endproc
 948               	.LFE153:
 950               		.section	.text.rgblight_get_sat,"ax",@progbits
 951               	.global	rgblight_get_sat
 953               	rgblight_get_sat:
 954               	.LFB154:
 565:quantum/rgblight/rgblight.c **** 
 955               		.loc 1 565 32 is_stmt 1 view -0
 956               		.cfi_startproc
 957               	/* prologue: function */
 958               	/* frame size = 0 */
 959               	/* stack size = 0 */
 960               	.L__stack_usage = 0
 565:quantum/rgblight/rgblight.c **** 
 961               		.loc 1 565 34 view .LVU182
 565:quantum/rgblight/rgblight.c **** 
 962               		.loc 1 565 62 is_stmt 0 view .LVU183
 963 0000 8091 0000 		lds r24,rgblight_config+2
 964               	/* epilogue start */
 965 0004 0895      		ret
 966               		.cfi_endproc
 967               	.LFE154:
 969               		.section	.text.rgblight_get_val,"ax",@progbits
 970               	.global	rgblight_get_val
 972               	rgblight_get_val:
 973               	.LFB155:
 567:quantum/rgblight/rgblight.c **** 
 974               		.loc 1 567 32 is_stmt 1 view -0
 975               		.cfi_startproc
 976               	/* prologue: function */
 977               	/* frame size = 0 */
 978               	/* stack size = 0 */
 979               	.L__stack_usage = 0
 567:quantum/rgblight/rgblight.c **** 
 980               		.loc 1 567 34 view .LVU185
 567:quantum/rgblight/rgblight.c **** 
 981               		.loc 1 567 62 is_stmt 0 view .LVU186
 982 0000 8091 0000 		lds r24,rgblight_config+3
 983               	/* epilogue start */
 984 0004 0895      		ret
 985               		.cfi_endproc
 986               	.LFE155:
 988               		.section	.text.rgblight_get_hsv,"ax",@progbits
 989               	.global	rgblight_get_hsv
 991               	rgblight_get_hsv:
 992               	.LFB156:
 569:quantum/rgblight/rgblight.c **** 
 993               		.loc 1 569 28 is_stmt 1 view -0
 994               		.cfi_startproc
 995               	/* prologue: function */
 996               	/* frame size = 0 */
 997               	/* stack size = 0 */
 998               	.L__stack_usage = 0
 569:quantum/rgblight/rgblight.c **** 
 999               		.loc 1 569 30 view .LVU188
 569:quantum/rgblight/rgblight.c **** 
 1000               		.loc 1 569 79 is_stmt 0 view .LVU189
 1001 0000 E0E0      		ldi r30,lo8(rgblight_config)
 1002 0002 F0E0      		ldi r31,hi8(rgblight_config)
 1003 0004 7281      		ldd r23,Z+2
 569:quantum/rgblight/rgblight.c **** 
 1004               		.loc 1 569 37 view .LVU190
 1005 0006 6181      		ldd r22,Z+1
 569:quantum/rgblight/rgblight.c **** 
 1006               		.loc 1 569 107 view .LVU191
 1007 0008 8381      		ldd r24,Z+3
 1008               	/* epilogue start */
 1009 000a 0895      		ret
 1010               		.cfi_endproc
 1011               	.LFE156:
 1013               		.section	.text.rgblight_call_driver,"ax",@progbits
 1014               		.weak	rgblight_call_driver
 1016               	rgblight_call_driver:
 1017               	.LVL40:
 1018               	.LFB167:
 799:quantum/rgblight/rgblight.c **** 
 1019               		.loc 1 799 88 is_stmt 1 view -0
 1020               		.cfi_startproc
 1021               	/* prologue: function */
 1022               	/* frame size = 0 */
 1023               	/* stack size = 0 */
 1024               	.L__stack_usage = 0
 799:quantum/rgblight/rgblight.c **** 
 1025               		.loc 1 799 90 view .LVU193
 1026 0000 70E0      		ldi r23,0
 1027 0002 0C94 0000 		jmp ws2812_setleds
 1028               	.LVL41:
 799:quantum/rgblight/rgblight.c **** 
 1029               		.loc 1 799 90 is_stmt 0 view .LVU194
 1030               		.cfi_endproc
 1031               	.LFE167:
 1033               		.section	.text.rgblight_set,"ax",@progbits
 1034               	.global	rgblight_set
 1036               	rgblight_set:
 1037               	.LFB168:
 803:quantum/rgblight/rgblight.c ****     LED_TYPE *start_led;
 1038               		.loc 1 803 25 is_stmt 1 view -0
 1039               		.cfi_startproc
 1040               	/* prologue: function */
 1041               	/* frame size = 0 */
 1042               	/* stack size = 0 */
 1043               	.L__stack_usage = 0
 804:quantum/rgblight/rgblight.c ****     uint8_t   num_leds = rgblight_ranges.clipping_num_leds;
 1044               		.loc 1 804 5 view .LVU196
 805:quantum/rgblight/rgblight.c **** 
 1045               		.loc 1 805 5 view .LVU197
 805:quantum/rgblight/rgblight.c **** 
 1046               		.loc 1 805 15 is_stmt 0 view .LVU198
 1047 0000 6091 0000 		lds r22,rgblight_ranges+1
 1048               	.LVL42:
 807:quantum/rgblight/rgblight.c ****         for (uint8_t i = rgblight_ranges.effect_start_pos; i < rgblight_ranges.effect_end_pos; i++)
 1049               		.loc 1 807 5 is_stmt 1 view .LVU199
 807:quantum/rgblight/rgblight.c ****         for (uint8_t i = rgblight_ranges.effect_start_pos; i < rgblight_ranges.effect_end_pos; i++)
 1050               		.loc 1 807 25 is_stmt 0 view .LVU200
 1051 0004 8091 0000 		lds r24,rgblight_config
 807:quantum/rgblight/rgblight.c ****         for (uint8_t i = rgblight_ranges.effect_start_pos; i < rgblight_ranges.effect_end_pos; i++)
 1052               		.loc 1 807 8 view .LVU201
 1053 0008 80FF      		sbrs r24,0
 1054 000a 00C0      		rjmp .L47
 1055               	.L50:
 837:quantum/rgblight/rgblight.c **** #    endif
 1056               		.loc 1 837 5 is_stmt 1 view .LVU202
 1057               	.LVL43:
 845:quantum/rgblight/rgblight.c **** }
 1058               		.loc 1 845 5 view .LVU203
 837:quantum/rgblight/rgblight.c **** #    endif
 1059               		.loc 1 837 21 is_stmt 0 view .LVU204
 1060 000c 8091 0000 		lds r24,rgblight_ranges
 1061 0010 23E0      		ldi r18,lo8(3)
 1062 0012 829F      		mul r24,r18
 1063 0014 C001      		movw r24,r0
 1064 0016 1124      		clr __zero_reg__
 845:quantum/rgblight/rgblight.c **** }
 1065               		.loc 1 845 5 view .LVU205
 1066 0018 8050      		subi r24,lo8(-(led))
 1067 001a 9040      		sbci r25,hi8(-(led))
 1068 001c 0C94 0000 		jmp rgblight_call_driver
 1069               	.LVL44:
 1070               	.L47:
 808:quantum/rgblight/rgblight.c ****             led[i].r = 0;
 1071               		.loc 1 808 9 is_stmt 1 view .LVU206
 1072               	.LBB21:
 808:quantum/rgblight/rgblight.c ****             led[i].r = 0;
 1073               		.loc 1 808 14 view .LVU207
 808:quantum/rgblight/rgblight.c ****             led[i].r = 0;
 1074               		.loc 1 808 22 is_stmt 0 view .LVU208
 1075 0020 8091 0000 		lds r24,rgblight_ranges+2
 1076               	.LVL45:
 808:quantum/rgblight/rgblight.c ****             led[i].r = 0;
 1077               		.loc 1 808 79 view .LVU209
 1078 0024 9091 0000 		lds r25,rgblight_ranges+3
 1079 0028 23E0      		ldi r18,lo8(3)
 1080 002a 829F      		mul r24,r18
 1081 002c F001      		movw r30,r0
 1082 002e 1124      		clr __zero_reg__
 1083 0030 E050      		subi r30,lo8(-(led))
 1084 0032 F040      		sbci r31,hi8(-(led))
 1085               	.L48:
 808:quantum/rgblight/rgblight.c ****             led[i].r = 0;
 1086               		.loc 1 808 62 is_stmt 1 discriminator 1 view .LVU210
 1087 0034 8917      		cp r24,r25
 1088 0036 00F4      		brsh .L50
 809:quantum/rgblight/rgblight.c ****             led[i].g = 0;
 1089               		.loc 1 809 13 discriminator 3 view .LVU211
 809:quantum/rgblight/rgblight.c ****             led[i].g = 0;
 1090               		.loc 1 809 22 is_stmt 0 discriminator 3 view .LVU212
 1091 0038 1182      		std Z+1,__zero_reg__
 810:quantum/rgblight/rgblight.c ****             led[i].b = 0;
 1092               		.loc 1 810 13 is_stmt 1 discriminator 3 view .LVU213
 810:quantum/rgblight/rgblight.c ****             led[i].b = 0;
 1093               		.loc 1 810 22 is_stmt 0 discriminator 3 view .LVU214
 1094 003a 1082      		st Z,__zero_reg__
 811:quantum/rgblight/rgblight.c **** #    ifdef RGBW
 1095               		.loc 1 811 13 is_stmt 1 discriminator 3 view .LVU215
 811:quantum/rgblight/rgblight.c **** #    ifdef RGBW
 1096               		.loc 1 811 22 is_stmt 0 discriminator 3 view .LVU216
 1097 003c 1282      		std Z+2,__zero_reg__
 808:quantum/rgblight/rgblight.c ****             led[i].r = 0;
 1098               		.loc 1 808 97 is_stmt 1 discriminator 3 view .LVU217
 1099 003e 8F5F      		subi r24,lo8(-(1))
 1100               	.LVL46:
 808:quantum/rgblight/rgblight.c ****             led[i].r = 0;
 1101               		.loc 1 808 97 is_stmt 0 discriminator 3 view .LVU218
 1102 0040 3396      		adiw r30,3
 1103 0042 00C0      		rjmp .L48
 1104               	.LBE21:
 1105               		.cfi_endproc
 1106               	.LFE168:
 1108               		.section	.text.rgblight_setrgb,"ax",@progbits
 1109               	.global	rgblight_setrgb
 1111               	rgblight_setrgb:
 1112               	.LVL47:
 1113               	.LFB157:
 571:quantum/rgblight/rgblight.c ****     if (!rgblight_config.enable) {
 1114               		.loc 1 571 55 is_stmt 1 view -0
 1115               		.cfi_startproc
 1116               	/* prologue: function */
 1117               	/* frame size = 0 */
 1118               	/* stack size = 0 */
 1119               	.L__stack_usage = 0
 572:quantum/rgblight/rgblight.c ****         return;
 1120               		.loc 1 572 5 view .LVU220
 572:quantum/rgblight/rgblight.c ****         return;
 1121               		.loc 1 572 25 is_stmt 0 view .LVU221
 1122 0000 9091 0000 		lds r25,rgblight_config
 572:quantum/rgblight/rgblight.c ****         return;
 1123               		.loc 1 572 8 view .LVU222
 1124 0004 90FF      		sbrs r25,0
 1125 0006 00C0      		rjmp .L51
 576:quantum/rgblight/rgblight.c ****         led[i].r = r;
 1126               		.loc 1 576 5 is_stmt 1 view .LVU223
 1127               	.LBB22:
 576:quantum/rgblight/rgblight.c ****         led[i].r = r;
 1128               		.loc 1 576 10 view .LVU224
 576:quantum/rgblight/rgblight.c ****         led[i].r = r;
 1129               		.loc 1 576 18 is_stmt 0 view .LVU225
 1130 0008 9091 0000 		lds r25,rgblight_ranges+2
 1131               	.LVL48:
 576:quantum/rgblight/rgblight.c ****         led[i].r = r;
 1132               		.loc 1 576 75 view .LVU226
 1133 000c 2091 0000 		lds r18,rgblight_ranges+3
 1134 0010 33E0      		ldi r19,lo8(3)
 1135 0012 939F      		mul r25,r19
 1136 0014 F001      		movw r30,r0
 1137 0016 1124      		clr __zero_reg__
 1138 0018 E050      		subi r30,lo8(-(led))
 1139 001a F040      		sbci r31,hi8(-(led))
 1140               	.L53:
 576:quantum/rgblight/rgblight.c ****         led[i].r = r;
 1141               		.loc 1 576 58 is_stmt 1 discriminator 1 view .LVU227
 1142 001c 9217      		cp r25,r18
 1143 001e 00F0      		brlo .L54
 576:quantum/rgblight/rgblight.c ****         led[i].r = r;
 1144               		.loc 1 576 58 is_stmt 0 discriminator 1 view .LVU228
 1145               	.LBE22:
 584:quantum/rgblight/rgblight.c **** }
 1146               		.loc 1 584 5 is_stmt 1 view .LVU229
 1147 0020 0C94 0000 		jmp rgblight_set
 1148               	.LVL49:
 1149               	.L54:
 1150               	.LBB23:
 577:quantum/rgblight/rgblight.c ****         led[i].g = g;
 1151               		.loc 1 577 9 discriminator 3 view .LVU230
 577:quantum/rgblight/rgblight.c ****         led[i].g = g;
 1152               		.loc 1 577 18 is_stmt 0 discriminator 3 view .LVU231
 1153 0024 8183      		std Z+1,r24
 578:quantum/rgblight/rgblight.c ****         led[i].b = b;
 1154               		.loc 1 578 9 is_stmt 1 discriminator 3 view .LVU232
 578:quantum/rgblight/rgblight.c ****         led[i].b = b;
 1155               		.loc 1 578 18 is_stmt 0 discriminator 3 view .LVU233
 1156 0026 6083      		st Z,r22
 579:quantum/rgblight/rgblight.c **** #ifdef RGBW
 1157               		.loc 1 579 9 is_stmt 1 discriminator 3 view .LVU234
 579:quantum/rgblight/rgblight.c **** #ifdef RGBW
 1158               		.loc 1 579 18 is_stmt 0 discriminator 3 view .LVU235
 1159 0028 4283      		std Z+2,r20
 576:quantum/rgblight/rgblight.c ****         led[i].r = r;
 1160               		.loc 1 576 93 is_stmt 1 discriminator 3 view .LVU236
 1161 002a 9F5F      		subi r25,lo8(-(1))
 1162               	.LVL50:
 576:quantum/rgblight/rgblight.c ****         led[i].r = r;
 1163               		.loc 1 576 93 is_stmt 0 discriminator 3 view .LVU237
 1164 002c 3396      		adiw r30,3
 1165 002e 00C0      		rjmp .L53
 1166               	.LVL51:
 1167               	.L51:
 1168               	/* epilogue start */
 576:quantum/rgblight/rgblight.c ****         led[i].r = r;
 1169               		.loc 1 576 93 discriminator 3 view .LVU238
 1170               	.LBE23:
 585:quantum/rgblight/rgblight.c **** 
 1171               		.loc 1 585 1 view .LVU239
 1172 0030 0895      		ret
 1173               		.cfi_endproc
 1174               	.LFE157:
 1176               		.section	.text.rgblight_sethsv_noeeprom_old,"ax",@progbits
 1177               	.global	rgblight_sethsv_noeeprom_old
 1179               	rgblight_sethsv_noeeprom_old:
 1180               	.LVL52:
 1181               	.LFB145:
 463:quantum/rgblight/rgblight.c ****     if (rgblight_config.enable) {
 1182               		.loc 1 463 74 is_stmt 1 view -0
 1183               		.cfi_startproc
 463:quantum/rgblight/rgblight.c ****     if (rgblight_config.enable) {
 1184               		.loc 1 463 74 is_stmt 0 view .LVU241
 1185 0000 CF93      		push r28
 1186               	.LCFI26:
 1187               		.cfi_def_cfa_offset 3
 1188               		.cfi_offset 28, -2
 1189 0002 DF93      		push r29
 1190               	.LCFI27:
 1191               		.cfi_def_cfa_offset 4
 1192               		.cfi_offset 29, -3
 1193 0004 00D0      		rcall .
 1194 0006 0F92      		push __tmp_reg__
 1195               	.LCFI28:
 1196               		.cfi_def_cfa_offset 7
 1197 0008 CDB7      		in r28,__SP_L__
 1198 000a DEB7      		in r29,__SP_H__
 1199               	.LCFI29:
 1200               		.cfi_def_cfa_register 28
 1201               	/* prologue: function */
 1202               	/* frame size = 3 */
 1203               	/* stack size = 5 */
 1204               	.L__stack_usage = 5
 464:quantum/rgblight/rgblight.c ****         LED_TYPE tmp_led;
 1205               		.loc 1 464 5 is_stmt 1 view .LVU242
 464:quantum/rgblight/rgblight.c ****         LED_TYPE tmp_led;
 1206               		.loc 1 464 9 is_stmt 0 view .LVU243
 1207 000c 9091 0000 		lds r25,rgblight_config
 464:quantum/rgblight/rgblight.c ****         LED_TYPE tmp_led;
 1208               		.loc 1 464 8 view .LVU244
 1209 0010 90FF      		sbrs r25,0
 1210 0012 00C0      		rjmp .L55
 1211               	.LBB27:
 465:quantum/rgblight/rgblight.c ****         sethsv(hue, sat, val, &tmp_led);
 1212               		.loc 1 465 9 is_stmt 1 view .LVU245
 466:quantum/rgblight/rgblight.c ****         rgblight_setrgb(tmp_led.r, tmp_led.g, tmp_led.b);
 1213               		.loc 1 466 9 view .LVU246
 1214               	.LVL53:
 1215               	.LBB28:
 1216               	.LBI28:
 154:quantum/rgblight/rgblight.c **** 
 1217               		.loc 1 154 6 view .LVU247
 1218               	.LBB29:
 154:quantum/rgblight/rgblight.c **** 
 1219               		.loc 1 154 70 view .LVU248
 1220 0014 9E01      		movw r18,r28
 1221 0016 2F5F      		subi r18,-1
 1222 0018 3F4F      		sbci r19,-1
 1223               	.LVL54:
 154:quantum/rgblight/rgblight.c **** 
 1224               		.loc 1 154 70 is_stmt 0 view .LVU249
 1225 001a 0E94 0000 		call sethsv_raw
 1226               	.LVL55:
 154:quantum/rgblight/rgblight.c **** 
 1227               		.loc 1 154 70 view .LVU250
 1228               	.LBE29:
 1229               	.LBE28:
 467:quantum/rgblight/rgblight.c ****     }
 1230               		.loc 1 467 9 is_stmt 1 view .LVU251
 1231 001e 4B81      		ldd r20,Y+3
 1232 0020 6981      		ldd r22,Y+1
 1233 0022 8A81      		ldd r24,Y+2
 1234               	/* epilogue start */
 1235               	.LBE27:
 469:quantum/rgblight/rgblight.c **** 
 1236               		.loc 1 469 1 is_stmt 0 view .LVU252
 1237 0024 0F90      		pop __tmp_reg__
 1238 0026 0F90      		pop __tmp_reg__
 1239 0028 0F90      		pop __tmp_reg__
 1240 002a DF91      		pop r29
 1241 002c CF91      		pop r28
 1242               	.LBB30:
 467:quantum/rgblight/rgblight.c ****     }
 1243               		.loc 1 467 9 view .LVU253
 1244 002e 0C94 0000 		jmp rgblight_setrgb
 1245               	.LVL56:
 1246               	.L55:
 1247               	/* epilogue start */
 467:quantum/rgblight/rgblight.c ****     }
 1248               		.loc 1 467 9 view .LVU254
 1249               	.LBE30:
 469:quantum/rgblight/rgblight.c **** 
 1250               		.loc 1 469 1 view .LVU255
 1251 0032 0F90      		pop __tmp_reg__
 1252 0034 0F90      		pop __tmp_reg__
 1253 0036 0F90      		pop __tmp_reg__
 1254 0038 DF91      		pop r29
 1255 003a CF91      		pop r28
 1256 003c 0895      		ret
 1257               		.cfi_endproc
 1258               	.LFE145:
 1260               		.section	.text.rgblight_effect_breathing,"ax",@progbits
 1261               	.global	rgblight_effect_breathing
 1263               	rgblight_effect_breathing:
 1264               	.LVL57:
 1265               	.LFB177:
 944:quantum/rgblight/rgblight.c **** 
 945:quantum/rgblight/rgblight.c **** void rgblight_task(void) {
 946:quantum/rgblight/rgblight.c ****     if (rgblight_status.timer_enabled) {
 947:quantum/rgblight/rgblight.c ****         effect_func_t effect_func   = rgblight_effect_dummy;
 948:quantum/rgblight/rgblight.c ****         uint16_t      interval_time = 2000;  // dummy interval
 949:quantum/rgblight/rgblight.c ****         uint8_t       delta         = rgblight_config.mode - rgblight_status.base_mode;
 950:quantum/rgblight/rgblight.c ****         animation_status.delta      = delta;
 951:quantum/rgblight/rgblight.c **** 
 952:quantum/rgblight/rgblight.c ****         // static light mode, do nothing here
 953:quantum/rgblight/rgblight.c ****         if (1 == 0) {  // dummy
 954:quantum/rgblight/rgblight.c ****         }
 955:quantum/rgblight/rgblight.c **** #    ifdef RGBLIGHT_EFFECT_BREATHING
 956:quantum/rgblight/rgblight.c ****         else if (rgblight_status.base_mode == RGBLIGHT_MODE_BREATHING) {
 957:quantum/rgblight/rgblight.c ****             // breathing mode
 958:quantum/rgblight/rgblight.c ****             interval_time = get_interval_time(&RGBLED_BREATHING_INTERVALS[delta], 1, 100);
 959:quantum/rgblight/rgblight.c ****             effect_func   = rgblight_effect_breathing;
 960:quantum/rgblight/rgblight.c ****         }
 961:quantum/rgblight/rgblight.c **** #    endif
 962:quantum/rgblight/rgblight.c **** #    ifdef RGBLIGHT_EFFECT_RAINBOW_MOOD
 963:quantum/rgblight/rgblight.c ****         else if (rgblight_status.base_mode == RGBLIGHT_MODE_RAINBOW_MOOD) {
 964:quantum/rgblight/rgblight.c ****             // rainbow mood mode
 965:quantum/rgblight/rgblight.c ****             interval_time = get_interval_time(&RGBLED_RAINBOW_MOOD_INTERVALS[delta], 5, 100);
 966:quantum/rgblight/rgblight.c ****             effect_func   = rgblight_effect_rainbow_mood;
 967:quantum/rgblight/rgblight.c ****         }
 968:quantum/rgblight/rgblight.c **** #    endif
 969:quantum/rgblight/rgblight.c **** #    ifdef RGBLIGHT_EFFECT_RAINBOW_SWIRL
 970:quantum/rgblight/rgblight.c ****         else if (rgblight_status.base_mode == RGBLIGHT_MODE_RAINBOW_SWIRL) {
 971:quantum/rgblight/rgblight.c ****             // rainbow swirl mode
 972:quantum/rgblight/rgblight.c ****             interval_time = get_interval_time(&RGBLED_RAINBOW_SWIRL_INTERVALS[delta / 2], 1, 100);
 973:quantum/rgblight/rgblight.c ****             effect_func   = rgblight_effect_rainbow_swirl;
 974:quantum/rgblight/rgblight.c ****         }
 975:quantum/rgblight/rgblight.c **** #    endif
 976:quantum/rgblight/rgblight.c **** #    ifdef RGBLIGHT_EFFECT_SNAKE
 977:quantum/rgblight/rgblight.c ****         else if (rgblight_status.base_mode == RGBLIGHT_MODE_SNAKE) {
 978:quantum/rgblight/rgblight.c ****             // snake mode
 979:quantum/rgblight/rgblight.c ****             interval_time = get_interval_time(&RGBLED_SNAKE_INTERVALS[delta / 2], 1, 200);
 980:quantum/rgblight/rgblight.c ****             effect_func   = rgblight_effect_snake;
 981:quantum/rgblight/rgblight.c ****         }
 982:quantum/rgblight/rgblight.c **** #    endif
 983:quantum/rgblight/rgblight.c **** #    ifdef RGBLIGHT_EFFECT_KNIGHT
 984:quantum/rgblight/rgblight.c ****         else if (rgblight_status.base_mode == RGBLIGHT_MODE_KNIGHT) {
 985:quantum/rgblight/rgblight.c ****             // knight mode
 986:quantum/rgblight/rgblight.c ****             interval_time = get_interval_time(&RGBLED_KNIGHT_INTERVALS[delta], 5, 100);
 987:quantum/rgblight/rgblight.c ****             effect_func   = rgblight_effect_knight;
 988:quantum/rgblight/rgblight.c ****         }
 989:quantum/rgblight/rgblight.c **** #    endif
 990:quantum/rgblight/rgblight.c **** #    ifdef RGBLIGHT_EFFECT_CHRISTMAS
 991:quantum/rgblight/rgblight.c ****         else if (rgblight_status.base_mode == RGBLIGHT_MODE_CHRISTMAS) {
 992:quantum/rgblight/rgblight.c ****             // christmas mode
 993:quantum/rgblight/rgblight.c ****             interval_time = RGBLIGHT_EFFECT_CHRISTMAS_INTERVAL;
 994:quantum/rgblight/rgblight.c ****             effect_func   = (effect_func_t)rgblight_effect_christmas;
 995:quantum/rgblight/rgblight.c ****         }
 996:quantum/rgblight/rgblight.c **** #    endif
 997:quantum/rgblight/rgblight.c **** #    ifdef RGBLIGHT_EFFECT_RGB_TEST
 998:quantum/rgblight/rgblight.c ****         else if (rgblight_status.base_mode == RGBLIGHT_MODE_RGB_TEST) {
 999:quantum/rgblight/rgblight.c ****             // RGB test mode
1000:quantum/rgblight/rgblight.c ****             interval_time = pgm_read_word(&RGBLED_RGBTEST_INTERVALS[0]);
1001:quantum/rgblight/rgblight.c ****             effect_func   = (effect_func_t)rgblight_effect_rgbtest;
1002:quantum/rgblight/rgblight.c ****         }
1003:quantum/rgblight/rgblight.c **** #    endif
1004:quantum/rgblight/rgblight.c **** #    ifdef RGBLIGHT_EFFECT_ALTERNATING
1005:quantum/rgblight/rgblight.c ****         else if (rgblight_status.base_mode == RGBLIGHT_MODE_ALTERNATING) {
1006:quantum/rgblight/rgblight.c ****             interval_time = 500;
1007:quantum/rgblight/rgblight.c ****             effect_func   = (effect_func_t)rgblight_effect_alternating;
1008:quantum/rgblight/rgblight.c ****         }
1009:quantum/rgblight/rgblight.c **** #    endif
1010:quantum/rgblight/rgblight.c **** #    ifdef RGBLIGHT_EFFECT_TWINKLE
1011:quantum/rgblight/rgblight.c ****         else if (rgblight_status.base_mode == RGBLIGHT_MODE_TWINKLE) {
1012:quantum/rgblight/rgblight.c ****             interval_time = get_interval_time(&RGBLED_TWINKLE_INTERVALS[delta % 3], 5, 30);
1013:quantum/rgblight/rgblight.c ****             effect_func   = (effect_func_t)rgblight_effect_twinkle;
1014:quantum/rgblight/rgblight.c ****         }
1015:quantum/rgblight/rgblight.c **** #    endif
1016:quantum/rgblight/rgblight.c ****         if (animation_status.restart) {
1017:quantum/rgblight/rgblight.c ****             animation_status.restart    = false;
1018:quantum/rgblight/rgblight.c ****             animation_status.last_timer = sync_timer_read();
1019:quantum/rgblight/rgblight.c ****             animation_status.pos16      = 0;  // restart signal to local each effect
1020:quantum/rgblight/rgblight.c ****         }
1021:quantum/rgblight/rgblight.c ****         uint16_t now = sync_timer_read();
1022:quantum/rgblight/rgblight.c ****         if (timer_expired(now, animation_status.last_timer)) {
1023:quantum/rgblight/rgblight.c **** #    if defined(RGBLIGHT_SPLIT) && !defined(RGBLIGHT_SPLIT_NO_ANIMATION_SYNC)
1024:quantum/rgblight/rgblight.c ****             static uint16_t report_last_timer = 0;
1025:quantum/rgblight/rgblight.c ****             static bool     tick_flag         = false;
1026:quantum/rgblight/rgblight.c ****             uint16_t        oldpos16;
1027:quantum/rgblight/rgblight.c ****             if (tick_flag) {
1028:quantum/rgblight/rgblight.c ****                 tick_flag = false;
1029:quantum/rgblight/rgblight.c ****                 if (timer_expired(now, report_last_timer)) {
1030:quantum/rgblight/rgblight.c ****                     report_last_timer += 30000;
1031:quantum/rgblight/rgblight.c ****                     dprintf("rgblight animation tick report to slave\n");
1032:quantum/rgblight/rgblight.c ****                     RGBLIGHT_SPLIT_ANIMATION_TICK;
1033:quantum/rgblight/rgblight.c ****                 }
1034:quantum/rgblight/rgblight.c ****             }
1035:quantum/rgblight/rgblight.c ****             oldpos16 = animation_status.pos16;
1036:quantum/rgblight/rgblight.c **** #    endif
1037:quantum/rgblight/rgblight.c ****             animation_status.last_timer += interval_time;
1038:quantum/rgblight/rgblight.c ****             effect_func(&animation_status);
1039:quantum/rgblight/rgblight.c **** #    if defined(RGBLIGHT_SPLIT) && !defined(RGBLIGHT_SPLIT_NO_ANIMATION_SYNC)
1040:quantum/rgblight/rgblight.c ****             if (animation_status.pos16 == 0 && oldpos16 != 0) {
1041:quantum/rgblight/rgblight.c ****                 tick_flag = true;
1042:quantum/rgblight/rgblight.c ****             }
1043:quantum/rgblight/rgblight.c **** #    endif
1044:quantum/rgblight/rgblight.c ****         }
1045:quantum/rgblight/rgblight.c ****     }
1046:quantum/rgblight/rgblight.c **** 
1047:quantum/rgblight/rgblight.c **** #    ifdef RGBLIGHT_LAYER_BLINK
1048:quantum/rgblight/rgblight.c ****     rgblight_blink_layer_repeat_helper();
1049:quantum/rgblight/rgblight.c **** #    endif
1050:quantum/rgblight/rgblight.c **** }
1051:quantum/rgblight/rgblight.c **** 
1052:quantum/rgblight/rgblight.c **** #endif /* RGBLIGHT_USE_TIMER */
1053:quantum/rgblight/rgblight.c **** 
1054:quantum/rgblight/rgblight.c **** #if defined(RGBLIGHT_EFFECT_BREATHING) || defined(RGBLIGHT_EFFECT_TWINKLE)
1055:quantum/rgblight/rgblight.c **** 
1056:quantum/rgblight/rgblight.c **** #    ifndef RGBLIGHT_EFFECT_BREATHE_CENTER
1057:quantum/rgblight/rgblight.c **** #        ifndef RGBLIGHT_BREATHE_TABLE_SIZE
1058:quantum/rgblight/rgblight.c **** #            define RGBLIGHT_BREATHE_TABLE_SIZE 256  // 256 or 128 or 64
1059:quantum/rgblight/rgblight.c **** #        endif
1060:quantum/rgblight/rgblight.c **** #        include <rgblight_breathe_table.h>
1061:quantum/rgblight/rgblight.c **** #    endif
1062:quantum/rgblight/rgblight.c **** 
1063:quantum/rgblight/rgblight.c **** static uint8_t breathe_calc(uint8_t pos) {
1064:quantum/rgblight/rgblight.c ****     // http://sean.voisen.org/blog/2011/10/breathing-led-with-arduino/
1065:quantum/rgblight/rgblight.c **** #    ifdef RGBLIGHT_EFFECT_BREATHE_TABLE
1066:quantum/rgblight/rgblight.c ****     return pgm_read_byte(&rgblight_effect_breathe_table[pos / table_scale]);
1067:quantum/rgblight/rgblight.c **** #    else
1068:quantum/rgblight/rgblight.c ****     return (exp(sin((pos / 255.0) * M_PI)) - RGBLIGHT_EFFECT_BREATHE_CENTER / M_E) * (RGBLIGHT_EFFE
1069:quantum/rgblight/rgblight.c **** #    endif
1070:quantum/rgblight/rgblight.c **** }
1071:quantum/rgblight/rgblight.c **** 
1072:quantum/rgblight/rgblight.c **** #endif
1073:quantum/rgblight/rgblight.c **** 
1074:quantum/rgblight/rgblight.c **** // Effects
1075:quantum/rgblight/rgblight.c **** #ifdef RGBLIGHT_EFFECT_BREATHING
1076:quantum/rgblight/rgblight.c **** 
1077:quantum/rgblight/rgblight.c **** __attribute__((weak)) const uint8_t RGBLED_BREATHING_INTERVALS[] PROGMEM = {30, 20, 10, 5};
1078:quantum/rgblight/rgblight.c **** 
1079:quantum/rgblight/rgblight.c **** void rgblight_effect_breathing(animation_status_t *anim) {
 1266               		.loc 1 1079 58 is_stmt 1 view -0
 1267               		.cfi_startproc
 1268               		.loc 1 1079 58 is_stmt 0 view .LVU257
 1269 0000 CF93      		push r28
 1270               	.LCFI30:
 1271               		.cfi_def_cfa_offset 3
 1272               		.cfi_offset 28, -2
 1273 0002 DF93      		push r29
 1274               	.LCFI31:
 1275               		.cfi_def_cfa_offset 4
 1276               		.cfi_offset 29, -3
 1277               	/* prologue: function */
 1278               	/* frame size = 0 */
 1279               	/* stack size = 2 */
 1280               	.L__stack_usage = 2
 1281 0004 EC01      		movw r28,r24
1080:quantum/rgblight/rgblight.c ****     uint8_t val = breathe_calc(anim->pos);
 1282               		.loc 1 1080 5 is_stmt 1 view .LVU258
 1283               	.LVL58:
 1284               	.LBB34:
 1285               	.LBI34:
1063:quantum/rgblight/rgblight.c ****     // http://sean.voisen.org/blog/2011/10/breathing-led-with-arduino/
 1286               		.loc 1 1063 16 view .LVU259
1066:quantum/rgblight/rgblight.c **** #    else
 1287               		.loc 1 1066 5 view .LVU260
 1288               	.LBB35:
1066:quantum/rgblight/rgblight.c **** #    else
 1289               		.loc 1 1066 12 view .LVU261
1066:quantum/rgblight/rgblight.c **** #    else
 1290               		.loc 1 1066 12 view .LVU262
1066:quantum/rgblight/rgblight.c **** #    else
 1291               		.loc 1 1066 12 view .LVU263
 1292 0006 EC81      		ldd r30,Y+4
 1293 0008 F0E0      		ldi r31,0
 1294 000a E050      		subi r30,lo8(-(rgblight_effect_breathe_table))
 1295 000c F040      		sbci r31,hi8(-(rgblight_effect_breathe_table))
 1296               	/* #APP */
 1297               	 ;  1066 "quantum/rgblight/rgblight.c" 1
 1298 000e 4491      		lpm r20, Z
 1299               		
 1300               	 ;  0 "" 2
 1301               	.LVL59:
1066:quantum/rgblight/rgblight.c **** #    else
 1302               		.loc 1 1066 12 view .LVU264
1066:quantum/rgblight/rgblight.c **** #    else
 1303               		.loc 1 1066 12 is_stmt 0 view .LVU265
 1304               	/* #NOAPP */
 1305               	.LBE35:
 1306               	.LBE34:
1081:quantum/rgblight/rgblight.c ****     rgblight_sethsv_noeeprom_old(rgblight_config.hue, rgblight_config.sat, val);
 1307               		.loc 1 1081 5 is_stmt 1 view .LVU266
 1308 0010 E0E0      		ldi r30,lo8(rgblight_config)
 1309 0012 F0E0      		ldi r31,hi8(rgblight_config)
 1310 0014 6281      		ldd r22,Z+2
 1311 0016 8181      		ldd r24,Z+1
 1312               	.LVL60:
 1313               		.loc 1 1081 5 is_stmt 0 view .LVU267
 1314 0018 0E94 0000 		call rgblight_sethsv_noeeprom_old
 1315               	.LVL61:
1082:quantum/rgblight/rgblight.c ****     anim->pos = (anim->pos + 1);
 1316               		.loc 1 1082 5 is_stmt 1 view .LVU268
 1317               		.loc 1 1082 28 is_stmt 0 view .LVU269
 1318 001c 8C81      		ldd r24,Y+4
 1319 001e 8F5F      		subi r24,lo8(-(1))
 1320               		.loc 1 1082 15 view .LVU270
 1321 0020 8C83      		std Y+4,r24
 1322               	/* epilogue start */
1083:quantum/rgblight/rgblight.c **** }
 1323               		.loc 1 1083 1 view .LVU271
 1324 0022 DF91      		pop r29
 1325 0024 CF91      		pop r28
 1326               	.LVL62:
 1327               		.loc 1 1083 1 view .LVU272
 1328 0026 0895      		ret
 1329               		.cfi_endproc
 1330               	.LFE177:
 1332               		.section	.text.rgblight_effect_rainbow_mood,"ax",@progbits
 1333               	.global	rgblight_effect_rainbow_mood
 1335               	rgblight_effect_rainbow_mood:
 1336               	.LVL63:
 1337               	.LFB178:
1084:quantum/rgblight/rgblight.c **** #endif
1085:quantum/rgblight/rgblight.c **** 
1086:quantum/rgblight/rgblight.c **** #ifdef RGBLIGHT_EFFECT_RAINBOW_MOOD
1087:quantum/rgblight/rgblight.c **** __attribute__((weak)) const uint8_t RGBLED_RAINBOW_MOOD_INTERVALS[] PROGMEM = {120, 60, 30};
1088:quantum/rgblight/rgblight.c **** 
1089:quantum/rgblight/rgblight.c **** void rgblight_effect_rainbow_mood(animation_status_t *anim) {
 1338               		.loc 1 1089 61 is_stmt 1 view -0
 1339               		.cfi_startproc
 1340               		.loc 1 1089 61 is_stmt 0 view .LVU274
 1341 0000 CF93      		push r28
 1342               	.LCFI32:
 1343               		.cfi_def_cfa_offset 3
 1344               		.cfi_offset 28, -2
 1345 0002 DF93      		push r29
 1346               	.LCFI33:
 1347               		.cfi_def_cfa_offset 4
 1348               		.cfi_offset 29, -3
 1349               	/* prologue: function */
 1350               	/* frame size = 0 */
 1351               	/* stack size = 2 */
 1352               	.L__stack_usage = 2
 1353 0004 EC01      		movw r28,r24
1090:quantum/rgblight/rgblight.c ****     rgblight_sethsv_noeeprom_old(anim->current_hue, rgblight_config.sat, rgblight_config.val);
 1354               		.loc 1 1090 5 is_stmt 1 view .LVU275
 1355 0006 E0E0      		ldi r30,lo8(rgblight_config)
 1356 0008 F0E0      		ldi r31,hi8(rgblight_config)
 1357 000a 4381      		ldd r20,Z+3
 1358 000c 6281      		ldd r22,Z+2
 1359 000e 8C81      		ldd r24,Y+4
 1360               	.LVL64:
 1361               		.loc 1 1090 5 is_stmt 0 view .LVU276
 1362 0010 0E94 0000 		call rgblight_sethsv_noeeprom_old
 1363               	.LVL65:
1091:quantum/rgblight/rgblight.c ****     anim->current_hue++;
 1364               		.loc 1 1091 5 is_stmt 1 view .LVU277
 1365               		.loc 1 1091 22 is_stmt 0 view .LVU278
 1366 0014 8C81      		ldd r24,Y+4
 1367 0016 8F5F      		subi r24,lo8(-(1))
 1368 0018 8C83      		std Y+4,r24
 1369               	/* epilogue start */
1092:quantum/rgblight/rgblight.c **** }
 1370               		.loc 1 1092 1 view .LVU279
 1371 001a DF91      		pop r29
 1372 001c CF91      		pop r28
 1373               	.LVL66:
 1374               		.loc 1 1092 1 view .LVU280
 1375 001e 0895      		ret
 1376               		.cfi_endproc
 1377               	.LFE178:
 1379               		.section	.text.rgblight_effect_rgbtest,"ax",@progbits
 1380               	.global	rgblight_effect_rgbtest
 1382               	rgblight_effect_rgbtest:
 1383               	.LVL67:
 1384               	.LFB183:
1093:quantum/rgblight/rgblight.c **** #endif
1094:quantum/rgblight/rgblight.c **** 
1095:quantum/rgblight/rgblight.c **** #ifdef RGBLIGHT_EFFECT_RAINBOW_SWIRL
1096:quantum/rgblight/rgblight.c **** #    ifndef RGBLIGHT_RAINBOW_SWIRL_RANGE
1097:quantum/rgblight/rgblight.c **** #        define RGBLIGHT_RAINBOW_SWIRL_RANGE 255
1098:quantum/rgblight/rgblight.c **** #    endif
1099:quantum/rgblight/rgblight.c **** 
1100:quantum/rgblight/rgblight.c **** __attribute__((weak)) const uint8_t RGBLED_RAINBOW_SWIRL_INTERVALS[] PROGMEM = {100, 50, 20};
1101:quantum/rgblight/rgblight.c **** 
1102:quantum/rgblight/rgblight.c **** void rgblight_effect_rainbow_swirl(animation_status_t *anim) {
1103:quantum/rgblight/rgblight.c ****     uint8_t hue;
1104:quantum/rgblight/rgblight.c ****     uint8_t i;
1105:quantum/rgblight/rgblight.c **** 
1106:quantum/rgblight/rgblight.c ****     for (i = 0; i < rgblight_ranges.effect_num_leds; i++) {
1107:quantum/rgblight/rgblight.c ****         hue = (RGBLIGHT_RAINBOW_SWIRL_RANGE / rgblight_ranges.effect_num_leds * i + anim->current_h
1108:quantum/rgblight/rgblight.c ****         sethsv(hue, rgblight_config.sat, rgblight_config.val, (LED_TYPE *)&led[i + rgblight_ranges.
1109:quantum/rgblight/rgblight.c ****     }
1110:quantum/rgblight/rgblight.c ****     rgblight_set();
1111:quantum/rgblight/rgblight.c **** 
1112:quantum/rgblight/rgblight.c ****     if (anim->delta % 2) {
1113:quantum/rgblight/rgblight.c ****         anim->current_hue++;
1114:quantum/rgblight/rgblight.c ****     } else {
1115:quantum/rgblight/rgblight.c ****         anim->current_hue--;
1116:quantum/rgblight/rgblight.c ****     }
1117:quantum/rgblight/rgblight.c **** }
1118:quantum/rgblight/rgblight.c **** #endif
1119:quantum/rgblight/rgblight.c **** 
1120:quantum/rgblight/rgblight.c **** #ifdef RGBLIGHT_EFFECT_SNAKE
1121:quantum/rgblight/rgblight.c **** __attribute__((weak)) const uint8_t RGBLED_SNAKE_INTERVALS[] PROGMEM = {100, 50, 20};
1122:quantum/rgblight/rgblight.c **** 
1123:quantum/rgblight/rgblight.c **** void rgblight_effect_snake(animation_status_t *anim) {
1124:quantum/rgblight/rgblight.c ****     static uint8_t pos = 0;
1125:quantum/rgblight/rgblight.c ****     uint8_t        i, j;
1126:quantum/rgblight/rgblight.c ****     int8_t         k;
1127:quantum/rgblight/rgblight.c ****     int8_t         increment = 1;
1128:quantum/rgblight/rgblight.c **** 
1129:quantum/rgblight/rgblight.c ****     if (anim->delta % 2) {
1130:quantum/rgblight/rgblight.c ****         increment = -1;
1131:quantum/rgblight/rgblight.c ****     }
1132:quantum/rgblight/rgblight.c **** 
1133:quantum/rgblight/rgblight.c **** #    if defined(RGBLIGHT_SPLIT) && !defined(RGBLIGHT_SPLIT_NO_ANIMATION_SYNC)
1134:quantum/rgblight/rgblight.c ****     if (anim->pos == 0) {  // restart signal
1135:quantum/rgblight/rgblight.c ****         if (increment == 1) {
1136:quantum/rgblight/rgblight.c ****             pos = rgblight_ranges.effect_num_leds - 1;
1137:quantum/rgblight/rgblight.c ****         } else {
1138:quantum/rgblight/rgblight.c ****             pos = 0;
1139:quantum/rgblight/rgblight.c ****         }
1140:quantum/rgblight/rgblight.c ****         anim->pos = 1;
1141:quantum/rgblight/rgblight.c ****     }
1142:quantum/rgblight/rgblight.c **** #    endif
1143:quantum/rgblight/rgblight.c **** 
1144:quantum/rgblight/rgblight.c ****     for (i = 0; i < rgblight_ranges.effect_num_leds; i++) {
1145:quantum/rgblight/rgblight.c ****         LED_TYPE *ledp = led + i + rgblight_ranges.effect_start_pos;
1146:quantum/rgblight/rgblight.c ****         ledp->r        = 0;
1147:quantum/rgblight/rgblight.c ****         ledp->g        = 0;
1148:quantum/rgblight/rgblight.c ****         ledp->b        = 0;
1149:quantum/rgblight/rgblight.c **** #    ifdef RGBW
1150:quantum/rgblight/rgblight.c ****         ledp->w = 0;
1151:quantum/rgblight/rgblight.c **** #    endif
1152:quantum/rgblight/rgblight.c ****         for (j = 0; j < RGBLIGHT_EFFECT_SNAKE_LENGTH; j++) {
1153:quantum/rgblight/rgblight.c ****             k = pos + j * increment;
1154:quantum/rgblight/rgblight.c ****             if (k > RGBLED_NUM) {
1155:quantum/rgblight/rgblight.c ****                 k = k % RGBLED_NUM;
1156:quantum/rgblight/rgblight.c ****             }
1157:quantum/rgblight/rgblight.c ****             if (k < 0) {
1158:quantum/rgblight/rgblight.c ****                 k = k + rgblight_ranges.effect_num_leds;
1159:quantum/rgblight/rgblight.c ****             }
1160:quantum/rgblight/rgblight.c ****             if (i == k) {
1161:quantum/rgblight/rgblight.c ****                 sethsv(rgblight_config.hue, rgblight_config.sat, (uint8_t)(rgblight_config.val * (R
1162:quantum/rgblight/rgblight.c ****             }
1163:quantum/rgblight/rgblight.c ****         }
1164:quantum/rgblight/rgblight.c ****     }
1165:quantum/rgblight/rgblight.c ****     rgblight_set();
1166:quantum/rgblight/rgblight.c ****     if (increment == 1) {
1167:quantum/rgblight/rgblight.c ****         if (pos - 1 < 0) {
1168:quantum/rgblight/rgblight.c ****             pos = rgblight_ranges.effect_num_leds - 1;
1169:quantum/rgblight/rgblight.c **** #    if defined(RGBLIGHT_SPLIT) && !defined(RGBLIGHT_SPLIT_NO_ANIMATION_SYNC)
1170:quantum/rgblight/rgblight.c ****             anim->pos = 0;
1171:quantum/rgblight/rgblight.c **** #    endif
1172:quantum/rgblight/rgblight.c ****         } else {
1173:quantum/rgblight/rgblight.c ****             pos -= 1;
1174:quantum/rgblight/rgblight.c **** #    if defined(RGBLIGHT_SPLIT) && !defined(RGBLIGHT_SPLIT_NO_ANIMATION_SYNC)
1175:quantum/rgblight/rgblight.c ****             anim->pos = 1;
1176:quantum/rgblight/rgblight.c **** #    endif
1177:quantum/rgblight/rgblight.c ****         }
1178:quantum/rgblight/rgblight.c ****     } else {
1179:quantum/rgblight/rgblight.c ****         pos = (pos + 1) % rgblight_ranges.effect_num_leds;
1180:quantum/rgblight/rgblight.c **** #    if defined(RGBLIGHT_SPLIT) && !defined(RGBLIGHT_SPLIT_NO_ANIMATION_SYNC)
1181:quantum/rgblight/rgblight.c ****         anim->pos = pos;
1182:quantum/rgblight/rgblight.c **** #    endif
1183:quantum/rgblight/rgblight.c ****     }
1184:quantum/rgblight/rgblight.c **** }
1185:quantum/rgblight/rgblight.c **** #endif
1186:quantum/rgblight/rgblight.c **** 
1187:quantum/rgblight/rgblight.c **** #ifdef RGBLIGHT_EFFECT_KNIGHT
1188:quantum/rgblight/rgblight.c **** __attribute__((weak)) const uint8_t RGBLED_KNIGHT_INTERVALS[] PROGMEM = {127, 63, 31};
1189:quantum/rgblight/rgblight.c **** 
1190:quantum/rgblight/rgblight.c **** void rgblight_effect_knight(animation_status_t *anim) {
1191:quantum/rgblight/rgblight.c ****     static int8_t low_bound  = 0;
1192:quantum/rgblight/rgblight.c ****     static int8_t high_bound = RGBLIGHT_EFFECT_KNIGHT_LENGTH - 1;
1193:quantum/rgblight/rgblight.c ****     static int8_t increment  = 1;
1194:quantum/rgblight/rgblight.c ****     uint8_t       i, cur;
1195:quantum/rgblight/rgblight.c **** 
1196:quantum/rgblight/rgblight.c **** #    if defined(RGBLIGHT_SPLIT) && !defined(RGBLIGHT_SPLIT_NO_ANIMATION_SYNC)
1197:quantum/rgblight/rgblight.c ****     if (anim->pos == 0) {  // restart signal
1198:quantum/rgblight/rgblight.c ****         anim->pos  = 1;
1199:quantum/rgblight/rgblight.c ****         low_bound  = 0;
1200:quantum/rgblight/rgblight.c ****         high_bound = RGBLIGHT_EFFECT_KNIGHT_LENGTH - 1;
1201:quantum/rgblight/rgblight.c ****         increment  = 1;
1202:quantum/rgblight/rgblight.c ****     }
1203:quantum/rgblight/rgblight.c **** #    endif
1204:quantum/rgblight/rgblight.c ****     // Set all the LEDs to 0
1205:quantum/rgblight/rgblight.c ****     for (i = rgblight_ranges.effect_start_pos; i < rgblight_ranges.effect_end_pos; i++) {
1206:quantum/rgblight/rgblight.c ****         led[i].r = 0;
1207:quantum/rgblight/rgblight.c ****         led[i].g = 0;
1208:quantum/rgblight/rgblight.c ****         led[i].b = 0;
1209:quantum/rgblight/rgblight.c **** #    ifdef RGBW
1210:quantum/rgblight/rgblight.c ****         led[i].w = 0;
1211:quantum/rgblight/rgblight.c **** #    endif
1212:quantum/rgblight/rgblight.c ****     }
1213:quantum/rgblight/rgblight.c ****     // Determine which LEDs should be lit up
1214:quantum/rgblight/rgblight.c ****     for (i = 0; i < RGBLIGHT_EFFECT_KNIGHT_LED_NUM; i++) {
1215:quantum/rgblight/rgblight.c ****         cur = (i + RGBLIGHT_EFFECT_KNIGHT_OFFSET) % rgblight_ranges.effect_num_leds + rgblight_rang
1216:quantum/rgblight/rgblight.c **** 
1217:quantum/rgblight/rgblight.c ****         if (i >= low_bound && i <= high_bound) {
1218:quantum/rgblight/rgblight.c ****             sethsv(rgblight_config.hue, rgblight_config.sat, rgblight_config.val, (LED_TYPE *)&led[
1219:quantum/rgblight/rgblight.c ****         } else {
1220:quantum/rgblight/rgblight.c ****             led[cur].r = 0;
1221:quantum/rgblight/rgblight.c ****             led[cur].g = 0;
1222:quantum/rgblight/rgblight.c ****             led[cur].b = 0;
1223:quantum/rgblight/rgblight.c **** #    ifdef RGBW
1224:quantum/rgblight/rgblight.c ****             led[cur].w = 0;
1225:quantum/rgblight/rgblight.c **** #    endif
1226:quantum/rgblight/rgblight.c ****         }
1227:quantum/rgblight/rgblight.c ****     }
1228:quantum/rgblight/rgblight.c ****     rgblight_set();
1229:quantum/rgblight/rgblight.c **** 
1230:quantum/rgblight/rgblight.c ****     // Move from low_bound to high_bound changing the direction we increment each
1231:quantum/rgblight/rgblight.c ****     // time a boundary is hit.
1232:quantum/rgblight/rgblight.c ****     low_bound += increment;
1233:quantum/rgblight/rgblight.c ****     high_bound += increment;
1234:quantum/rgblight/rgblight.c **** 
1235:quantum/rgblight/rgblight.c ****     if (high_bound <= 0 || low_bound >= RGBLIGHT_EFFECT_KNIGHT_LED_NUM - 1) {
1236:quantum/rgblight/rgblight.c ****         increment = -increment;
1237:quantum/rgblight/rgblight.c **** #    if defined(RGBLIGHT_SPLIT) && !defined(RGBLIGHT_SPLIT_NO_ANIMATION_SYNC)
1238:quantum/rgblight/rgblight.c ****         if (increment == 1) {
1239:quantum/rgblight/rgblight.c ****             anim->pos = 0;
1240:quantum/rgblight/rgblight.c ****         }
1241:quantum/rgblight/rgblight.c **** #    endif
1242:quantum/rgblight/rgblight.c ****     }
1243:quantum/rgblight/rgblight.c **** }
1244:quantum/rgblight/rgblight.c **** #endif
1245:quantum/rgblight/rgblight.c **** 
1246:quantum/rgblight/rgblight.c **** #ifdef RGBLIGHT_EFFECT_CHRISTMAS
1247:quantum/rgblight/rgblight.c **** #    define CUBED(x) ((x) * (x) * (x))
1248:quantum/rgblight/rgblight.c **** 
1249:quantum/rgblight/rgblight.c **** /**
1250:quantum/rgblight/rgblight.c ****  * Christmas lights effect, with a smooth animation between red & green.
1251:quantum/rgblight/rgblight.c ****  */
1252:quantum/rgblight/rgblight.c **** void rgblight_effect_christmas(animation_status_t *anim) {
1253:quantum/rgblight/rgblight.c ****     static int8_t increment = 1;
1254:quantum/rgblight/rgblight.c ****     const uint8_t max_pos   = 32;
1255:quantum/rgblight/rgblight.c ****     const uint8_t hue_green = 85;
1256:quantum/rgblight/rgblight.c **** 
1257:quantum/rgblight/rgblight.c ****     uint32_t xa;
1258:quantum/rgblight/rgblight.c ****     uint8_t  hue, val;
1259:quantum/rgblight/rgblight.c ****     uint8_t  i;
1260:quantum/rgblight/rgblight.c **** 
1261:quantum/rgblight/rgblight.c ****     // The effect works by animating anim->pos from 0 to 32 and back to 0.
1262:quantum/rgblight/rgblight.c ****     // The pos is used in a cubic bezier formula to ease-in-out between red and green, leaving the 
1263:quantum/rgblight/rgblight.c ****     xa  = CUBED((uint32_t)anim->pos);
1264:quantum/rgblight/rgblight.c ****     hue = ((uint32_t)hue_green) * xa / (xa + CUBED((uint32_t)(max_pos - anim->pos)));
1265:quantum/rgblight/rgblight.c ****     // Additionally, these interpolated colors get shown with a slightly darker value, to make them
1266:quantum/rgblight/rgblight.c ****     val = 255 - (3 * (hue < hue_green / 2 ? hue : hue_green - hue) / 2);
1267:quantum/rgblight/rgblight.c **** 
1268:quantum/rgblight/rgblight.c ****     for (i = 0; i < rgblight_ranges.effect_num_leds; i++) {
1269:quantum/rgblight/rgblight.c ****         uint8_t local_hue = (i / RGBLIGHT_EFFECT_CHRISTMAS_STEP) % 2 ? hue : hue_green - hue;
1270:quantum/rgblight/rgblight.c ****         sethsv(local_hue, rgblight_config.sat, val, (LED_TYPE *)&led[i + rgblight_ranges.effect_sta
1271:quantum/rgblight/rgblight.c ****     }
1272:quantum/rgblight/rgblight.c ****     rgblight_set();
1273:quantum/rgblight/rgblight.c **** 
1274:quantum/rgblight/rgblight.c ****     if (anim->pos == 0) {
1275:quantum/rgblight/rgblight.c ****         increment = 1;
1276:quantum/rgblight/rgblight.c ****     } else if (anim->pos == max_pos) {
1277:quantum/rgblight/rgblight.c ****         increment = -1;
1278:quantum/rgblight/rgblight.c ****     }
1279:quantum/rgblight/rgblight.c ****     anim->pos += increment;
1280:quantum/rgblight/rgblight.c **** }
1281:quantum/rgblight/rgblight.c **** #endif
1282:quantum/rgblight/rgblight.c **** 
1283:quantum/rgblight/rgblight.c **** #ifdef RGBLIGHT_EFFECT_RGB_TEST
1284:quantum/rgblight/rgblight.c **** __attribute__((weak)) const uint16_t RGBLED_RGBTEST_INTERVALS[] PROGMEM = {1024};
1285:quantum/rgblight/rgblight.c **** 
1286:quantum/rgblight/rgblight.c **** void rgblight_effect_rgbtest(animation_status_t *anim) {
 1385               		.loc 1 1286 56 is_stmt 1 view -0
 1386               		.cfi_startproc
 1387               		.loc 1 1286 56 is_stmt 0 view .LVU282
 1388 0000 0F93      		push r16
 1389               	.LCFI34:
 1390               		.cfi_def_cfa_offset 3
 1391               		.cfi_offset 16, -2
 1392 0002 1F93      		push r17
 1393               	.LCFI35:
 1394               		.cfi_def_cfa_offset 4
 1395               		.cfi_offset 17, -3
 1396 0004 CF93      		push r28
 1397               	.LCFI36:
 1398               		.cfi_def_cfa_offset 5
 1399               		.cfi_offset 28, -4
 1400 0006 DF93      		push r29
 1401               	.LCFI37:
 1402               		.cfi_def_cfa_offset 6
 1403               		.cfi_offset 29, -5
 1404 0008 00D0      		rcall .
 1405 000a 0F92      		push __tmp_reg__
 1406               	.LCFI38:
 1407               		.cfi_def_cfa_offset 9
 1408 000c CDB7      		in r28,__SP_L__
 1409 000e DEB7      		in r29,__SP_H__
 1410               	.LCFI39:
 1411               		.cfi_def_cfa_register 28
 1412               	/* prologue: function */
 1413               	/* frame size = 3 */
 1414               	/* stack size = 7 */
 1415               	.L__stack_usage = 7
 1416 0010 8C01      		movw r16,r24
1287:quantum/rgblight/rgblight.c ****     static uint8_t maxval = 0;
 1417               		.loc 1 1287 5 is_stmt 1 view .LVU283
1288:quantum/rgblight/rgblight.c ****     uint8_t        g;
 1418               		.loc 1 1288 5 view .LVU284
1289:quantum/rgblight/rgblight.c ****     uint8_t        r;
 1419               		.loc 1 1289 5 view .LVU285
1290:quantum/rgblight/rgblight.c ****     uint8_t        b;
 1420               		.loc 1 1290 5 view .LVU286
1291:quantum/rgblight/rgblight.c **** 
1292:quantum/rgblight/rgblight.c ****     if (maxval == 0) {
 1421               		.loc 1 1292 5 view .LVU287
 1422               		.loc 1 1292 8 is_stmt 0 view .LVU288
 1423 0012 8091 0000 		lds r24,maxval.0
 1424               	.LVL68:
 1425               		.loc 1 1292 8 view .LVU289
 1426 0016 8111      		cpse r24,__zero_reg__
 1427 0018 00C0      		rjmp .L60
 1428               	.LBB39:
1293:quantum/rgblight/rgblight.c ****         LED_TYPE tmp_led;
 1429               		.loc 1 1293 9 is_stmt 1 view .LVU290
1294:quantum/rgblight/rgblight.c ****         sethsv(0, 255, RGBLIGHT_LIMIT_VAL, &tmp_led);
 1430               		.loc 1 1294 9 view .LVU291
 1431               	.LVL69:
 1432               	.LBB40:
 1433               	.LBI40:
 154:quantum/rgblight/rgblight.c **** 
 1434               		.loc 1 154 6 view .LVU292
 1435               	.LBB41:
 154:quantum/rgblight/rgblight.c **** 
 1436               		.loc 1 154 70 view .LVU293
 1437 001a 9E01      		movw r18,r28
 1438 001c 2F5F      		subi r18,-1
 1439 001e 3F4F      		sbci r19,-1
 1440               	.LVL70:
 154:quantum/rgblight/rgblight.c **** 
 1441               		.loc 1 154 70 is_stmt 0 view .LVU294
 1442 0020 4FEF      		ldi r20,lo8(-1)
 1443 0022 6FEF      		ldi r22,lo8(-1)
 1444 0024 0E94 0000 		call sethsv_raw
 1445               	.LVL71:
 154:quantum/rgblight/rgblight.c **** 
 1446               		.loc 1 154 70 view .LVU295
 1447               	.LBE41:
 1448               	.LBE40:
1295:quantum/rgblight/rgblight.c ****         maxval = tmp_led.r;
 1449               		.loc 1 1295 9 is_stmt 1 view .LVU296
 1450               		.loc 1 1295 16 is_stmt 0 view .LVU297
 1451 0028 8A81      		ldd r24,Y+2
 1452 002a 8093 0000 		sts maxval.0,r24
 1453               	.L60:
 1454               	.LBE39:
1296:quantum/rgblight/rgblight.c ****     }
1297:quantum/rgblight/rgblight.c ****     g = r = b = 0;
 1455               		.loc 1 1297 5 is_stmt 1 view .LVU298
 1456               	.LVL72:
1298:quantum/rgblight/rgblight.c ****     switch (anim->pos) {
 1457               		.loc 1 1298 5 view .LVU299
 1458               		.loc 1 1298 17 is_stmt 0 view .LVU300
 1459 002e F801      		movw r30,r16
 1460 0030 6481      		ldd r22,Z+4
 1461               		.loc 1 1298 5 view .LVU301
 1462 0032 6130      		cpi r22,lo8(1)
 1463 0034 01F0      		breq .L61
 1464               		.loc 1 1298 5 view .LVU302
 1465 0036 6230      		cpi r22,lo8(2)
 1466 0038 01F0      		breq .L62
1299:quantum/rgblight/rgblight.c ****         case 0:
1300:quantum/rgblight/rgblight.c ****             r = maxval;
 1467               		.loc 1 1300 15 view .LVU303
 1468 003a 8091 0000 		lds r24,maxval.0
 1469               	.LVL73:
1301:quantum/rgblight/rgblight.c ****             break;
 1470               		.loc 1 1301 13 is_stmt 1 view .LVU304
1297:quantum/rgblight/rgblight.c ****     switch (anim->pos) {
 1471               		.loc 1 1297 15 is_stmt 0 view .LVU305
 1472 003e 40E0      		ldi r20,0
1298:quantum/rgblight/rgblight.c ****         case 0:
 1473               		.loc 1 1298 5 view .LVU306
 1474 0040 6623      		tst r22
 1475 0042 01F0      		breq .L63
 1476 0044 40E0      		ldi r20,0
 1477 0046 00C0      		rjmp .L65
 1478               	.LVL74:
 1479               	.L61:
1302:quantum/rgblight/rgblight.c ****         case 1:
1303:quantum/rgblight/rgblight.c ****             g = maxval;
 1480               		.loc 1 1303 13 is_stmt 1 view .LVU307
 1481               		.loc 1 1303 15 is_stmt 0 view .LVU308
 1482 0048 6091 0000 		lds r22,maxval.0
 1483               	.LVL75:
1304:quantum/rgblight/rgblight.c ****             break;
 1484               		.loc 1 1304 13 is_stmt 1 view .LVU309
1297:quantum/rgblight/rgblight.c ****     switch (anim->pos) {
 1485               		.loc 1 1297 15 is_stmt 0 view .LVU310
 1486 004c 40E0      		ldi r20,0
1297:quantum/rgblight/rgblight.c ****     switch (anim->pos) {
 1487               		.loc 1 1297 11 view .LVU311
 1488 004e 80E0      		ldi r24,0
 1489               	.LVL76:
 1490               	.L63:
1305:quantum/rgblight/rgblight.c ****         case 2:
1306:quantum/rgblight/rgblight.c ****             b = maxval;
1307:quantum/rgblight/rgblight.c ****             break;
1308:quantum/rgblight/rgblight.c ****     }
1309:quantum/rgblight/rgblight.c ****     rgblight_setrgb(r, g, b);
 1491               		.loc 1 1309 5 is_stmt 1 view .LVU312
 1492 0050 0E94 0000 		call rgblight_setrgb
 1493               	.LVL77:
1310:quantum/rgblight/rgblight.c ****     anim->pos = (anim->pos + 1) % 3;
 1494               		.loc 1 1310 5 view .LVU313
 1495               		.loc 1 1310 22 is_stmt 0 view .LVU314
 1496 0054 F801      		movw r30,r16
 1497 0056 8481      		ldd r24,Z+4
 1498 0058 90E0      		ldi r25,0
 1499               		.loc 1 1310 28 view .LVU315
 1500 005a 0196      		adiw r24,1
 1501               		.loc 1 1310 33 view .LVU316
 1502 005c 63E0      		ldi r22,lo8(3)
 1503 005e 70E0      		ldi r23,0
 1504 0060 0E94 0000 		call __divmodhi4
 1505               		.loc 1 1310 15 view .LVU317
 1506 0064 8483      		std Z+4,r24
 1507               	/* epilogue start */
1311:quantum/rgblight/rgblight.c **** }
 1508               		.loc 1 1311 1 view .LVU318
 1509 0066 0F90      		pop __tmp_reg__
 1510 0068 0F90      		pop __tmp_reg__
 1511 006a 0F90      		pop __tmp_reg__
 1512 006c DF91      		pop r29
 1513 006e CF91      		pop r28
 1514 0070 1F91      		pop r17
 1515 0072 0F91      		pop r16
 1516               	.LVL78:
 1517               		.loc 1 1311 1 view .LVU319
 1518 0074 0895      		ret
 1519               	.LVL79:
 1520               	.L62:
1306:quantum/rgblight/rgblight.c ****             break;
 1521               		.loc 1 1306 13 is_stmt 1 view .LVU320
1306:quantum/rgblight/rgblight.c ****             break;
 1522               		.loc 1 1306 15 is_stmt 0 view .LVU321
 1523 0076 4091 0000 		lds r20,maxval.0
 1524               	.LVL80:
1307:quantum/rgblight/rgblight.c ****     }
 1525               		.loc 1 1307 13 is_stmt 1 view .LVU322
 1526               	.L65:
1298:quantum/rgblight/rgblight.c ****         case 0:
 1527               		.loc 1 1298 5 is_stmt 0 view .LVU323
 1528 007a 80E0      		ldi r24,0
 1529 007c 60E0      		ldi r22,0
 1530 007e 00C0      		rjmp .L63
 1531               		.cfi_endproc
 1532               	.LFE183:
 1534               		.section	.text.rgblight_sethsv_eeprom_helper,"ax",@progbits
 1535               	.global	rgblight_sethsv_eeprom_helper
 1537               	rgblight_sethsv_eeprom_helper:
 1538               	.LVL81:
 1539               	.LFB146:
 471:quantum/rgblight/rgblight.c ****     if (rgblight_config.enable) {
 1540               		.loc 1 471 97 is_stmt 1 view -0
 1541               		.cfi_startproc
 471:quantum/rgblight/rgblight.c ****     if (rgblight_config.enable) {
 1542               		.loc 1 471 97 is_stmt 0 view .LVU325
 1543 0000 AF92      		push r10
 1544               	.LCFI40:
 1545               		.cfi_def_cfa_offset 3
 1546               		.cfi_offset 10, -2
 1547 0002 BF92      		push r11
 1548               	.LCFI41:
 1549               		.cfi_def_cfa_offset 4
 1550               		.cfi_offset 11, -3
 1551 0004 CF92      		push r12
 1552               	.LCFI42:
 1553               		.cfi_def_cfa_offset 5
 1554               		.cfi_offset 12, -4
 1555 0006 DF92      		push r13
 1556               	.LCFI43:
 1557               		.cfi_def_cfa_offset 6
 1558               		.cfi_offset 13, -5
 1559 0008 EF92      		push r14
 1560               	.LCFI44:
 1561               		.cfi_def_cfa_offset 7
 1562               		.cfi_offset 14, -6
 1563 000a FF92      		push r15
 1564               	.LCFI45:
 1565               		.cfi_def_cfa_offset 8
 1566               		.cfi_offset 15, -7
 1567 000c 0F93      		push r16
 1568               	.LCFI46:
 1569               		.cfi_def_cfa_offset 9
 1570               		.cfi_offset 16, -8
 1571 000e 1F93      		push r17
 1572               	.LCFI47:
 1573               		.cfi_def_cfa_offset 10
 1574               		.cfi_offset 17, -9
 1575 0010 CF93      		push r28
 1576               	.LCFI48:
 1577               		.cfi_def_cfa_offset 11
 1578               		.cfi_offset 28, -10
 1579 0012 DF93      		push r29
 1580               	.LCFI49:
 1581               		.cfi_def_cfa_offset 12
 1582               		.cfi_offset 29, -11
 1583 0014 00D0      		rcall .
 1584 0016 00D0      		rcall .
 1585 0018 00D0      		rcall .
 1586 001a 0F92      		push __tmp_reg__
 1587               	.LCFI50:
 1588               		.cfi_def_cfa_offset 19
 1589 001c CDB7      		in r28,__SP_L__
 1590 001e DEB7      		in r29,__SP_H__
 1591               	.LCFI51:
 1592               		.cfi_def_cfa_register 28
 1593               	/* prologue: function */
 1594               	/* frame size = 7 */
 1595               	/* stack size = 17 */
 1596               	.L__stack_usage = 17
 1597 0020 182F      		mov r17,r24
 1598 0022 F62E      		mov r15,r22
 1599 0024 042F      		mov r16,r20
 1600 0026 D22E      		mov r13,r18
 472:quantum/rgblight/rgblight.c ****         rgblight_status.base_mode = mode_base_table[rgblight_config.mode];
 1601               		.loc 1 472 5 is_stmt 1 view .LVU326
 472:quantum/rgblight/rgblight.c ****         rgblight_status.base_mode = mode_base_table[rgblight_config.mode];
 1602               		.loc 1 472 9 is_stmt 0 view .LVU327
 1603 0028 9091 0000 		lds r25,rgblight_config
 472:quantum/rgblight/rgblight.c ****         rgblight_status.base_mode = mode_base_table[rgblight_config.mode];
 1604               		.loc 1 472 8 view .LVU328
 1605 002c 90FF      		sbrs r25,0
 1606 002e 00C0      		rjmp .L66
 473:quantum/rgblight/rgblight.c ****         if (rgblight_config.mode == RGBLIGHT_MODE_STATIC_LIGHT) {
 1607               		.loc 1 473 9 is_stmt 1 view .LVU329
 473:quantum/rgblight/rgblight.c ****         if (rgblight_config.mode == RGBLIGHT_MODE_STATIC_LIGHT) {
 1608               		.loc 1 473 68 is_stmt 0 view .LVU330
 1609 0030 E92F      		mov r30,r25
 1610 0032 E695      		lsr r30
 1611 0034 AE2F      		mov r26,r30
 1612 0036 B0E0      		ldi r27,0
 473:quantum/rgblight/rgblight.c ****         if (rgblight_config.mode == RGBLIGHT_MODE_STATIC_LIGHT) {
 1613               		.loc 1 473 52 view .LVU331
 1614 0038 A050      		subi r26,lo8(-(mode_base_table))
 1615 003a B040      		sbci r27,hi8(-(mode_base_table))
 1616 003c 8C91      		ld r24,X
 1617               	.LVL82:
 473:quantum/rgblight/rgblight.c ****         if (rgblight_config.mode == RGBLIGHT_MODE_STATIC_LIGHT) {
 1618               		.loc 1 473 35 view .LVU332
 1619 003e 8093 0000 		sts rgblight_status,r24
 474:quantum/rgblight/rgblight.c ****             // same static color
 1620               		.loc 1 474 9 is_stmt 1 view .LVU333
 474:quantum/rgblight/rgblight.c ****             // same static color
 1621               		.loc 1 474 34 is_stmt 0 view .LVU334
 1622 0042 9E7F      		andi r25,lo8(-2)
 474:quantum/rgblight/rgblight.c ****             // same static color
 1623               		.loc 1 474 12 view .LVU335
 1624 0044 9230      		cpi r25,lo8(2)
 1625 0046 01F4      		brne .L69
 1626               	.LBB51:
 476:quantum/rgblight/rgblight.c ****             sethsv(hue, sat, val, &tmp_led);
 1627               		.loc 1 476 13 is_stmt 1 view .LVU336
 477:quantum/rgblight/rgblight.c ****             rgblight_setrgb(tmp_led.r, tmp_led.g, tmp_led.b);
 1628               		.loc 1 477 13 view .LVU337
 1629               	.LVL83:
 1630               	.LBB52:
 1631               	.LBI52:
 154:quantum/rgblight/rgblight.c **** 
 1632               		.loc 1 154 6 view .LVU338
 1633               	.LBB53:
 154:quantum/rgblight/rgblight.c **** 
 1634               		.loc 1 154 70 view .LVU339
 1635 0048 9E01      		movw r18,r28
 1636               	.LVL84:
 154:quantum/rgblight/rgblight.c **** 
 1637               		.loc 1 154 70 is_stmt 0 view .LVU340
 1638 004a 2F5F      		subi r18,-1
 1639 004c 3F4F      		sbci r19,-1
 1640               	.LVL85:
 154:quantum/rgblight/rgblight.c **** 
 1641               		.loc 1 154 70 view .LVU341
 1642 004e 812F      		mov r24,r17
 1643 0050 0E94 0000 		call sethsv_raw
 1644               	.LVL86:
 154:quantum/rgblight/rgblight.c **** 
 1645               		.loc 1 154 70 view .LVU342
 1646               	.LBE53:
 1647               	.LBE52:
 478:quantum/rgblight/rgblight.c ****         } else {
 1648               		.loc 1 478 13 is_stmt 1 view .LVU343
 1649 0054 4B81      		ldd r20,Y+3
 1650 0056 6981      		ldd r22,Y+1
 1651 0058 8A81      		ldd r24,Y+2
 1652 005a 0E94 0000 		call rgblight_setrgb
 1653               	.LVL87:
 1654               	.L70:
 478:quantum/rgblight/rgblight.c ****         } else {
 1655               		.loc 1 478 13 is_stmt 0 view .LVU344
 1656               	.LBE51:
 531:quantum/rgblight/rgblight.c ****         rgblight_config.sat = sat;
 1657               		.loc 1 531 9 is_stmt 1 view .LVU345
 531:quantum/rgblight/rgblight.c ****         rgblight_config.sat = sat;
 1658               		.loc 1 531 29 is_stmt 0 view .LVU346
 1659 005e 1093 0000 		sts rgblight_config+1,r17
 532:quantum/rgblight/rgblight.c ****         rgblight_config.val = val;
 1660               		.loc 1 532 9 is_stmt 1 view .LVU347
 532:quantum/rgblight/rgblight.c ****         rgblight_config.val = val;
 1661               		.loc 1 532 29 is_stmt 0 view .LVU348
 1662 0062 F092 0000 		sts rgblight_config+2,r15
 533:quantum/rgblight/rgblight.c ****         if (write_to_eeprom) {
 1663               		.loc 1 533 9 is_stmt 1 view .LVU349
 533:quantum/rgblight/rgblight.c ****         if (write_to_eeprom) {
 1664               		.loc 1 533 29 is_stmt 0 view .LVU350
 1665 0066 0093 0000 		sts rgblight_config+3,r16
 534:quantum/rgblight/rgblight.c ****             eeconfig_update_rgblight(rgblight_config.raw);
 1666               		.loc 1 534 9 is_stmt 1 view .LVU351
 534:quantum/rgblight/rgblight.c ****             eeconfig_update_rgblight(rgblight_config.raw);
 1667               		.loc 1 534 12 is_stmt 0 view .LVU352
 1668 006a DD20      		tst r13
 1669 006c 01F4      		brne .+2
 1670 006e 00C0      		rjmp .L66
 535:quantum/rgblight/rgblight.c ****             dprintf("rgblight set hsv [EEPROM]: %u,%u,%u\n", rgblight_config.hue, rgblight_config.s
 1671               		.loc 1 535 13 is_stmt 1 view .LVU353
 1672 0070 8091 0000 		lds r24,rgblight_config
 1673 0074 9091 0000 		lds r25,rgblight_config+1
 1674 0078 A091 0000 		lds r26,rgblight_config+2
 1675 007c B091 0000 		lds r27,rgblight_config+3
 1676 0080 8C83      		std Y+4,r24
 1677 0082 9D83      		std Y+5,r25
 1678 0084 AE83      		std Y+6,r26
 1679 0086 BF83      		std Y+7,r27
 1680 0088 BC01      		movw r22,r24
 1681 008a CD01      		movw r24,r26
 1682               	/* epilogue start */
 541:quantum/rgblight/rgblight.c **** 
 1683               		.loc 1 541 1 is_stmt 0 view .LVU354
 1684 008c 2796      		adiw r28,7
 1685 008e 0FB6      		in __tmp_reg__,__SREG__
 1686 0090 F894      		cli
 1687 0092 DEBF      		out __SP_H__,r29
 1688 0094 0FBE      		out __SREG__,__tmp_reg__
 1689 0096 CDBF      		out __SP_L__,r28
 1690 0098 DF91      		pop r29
 1691 009a CF91      		pop r28
 1692 009c 1F91      		pop r17
 1693               	.LVL88:
 541:quantum/rgblight/rgblight.c **** 
 1694               		.loc 1 541 1 view .LVU355
 1695 009e 0F91      		pop r16
 1696               	.LVL89:
 541:quantum/rgblight/rgblight.c **** 
 1697               		.loc 1 541 1 view .LVU356
 1698 00a0 FF90      		pop r15
 1699               	.LVL90:
 541:quantum/rgblight/rgblight.c **** 
 1700               		.loc 1 541 1 view .LVU357
 1701 00a2 EF90      		pop r14
 1702 00a4 DF90      		pop r13
 1703               	.LVL91:
 541:quantum/rgblight/rgblight.c **** 
 1704               		.loc 1 541 1 view .LVU358
 1705 00a6 CF90      		pop r12
 1706 00a8 BF90      		pop r11
 1707 00aa AF90      		pop r10
 535:quantum/rgblight/rgblight.c ****             dprintf("rgblight set hsv [EEPROM]: %u,%u,%u\n", rgblight_config.hue, rgblight_config.s
 1708               		.loc 1 535 13 view .LVU359
 1709 00ac 0C94 0000 		jmp eeconfig_update_rgblight
 1710               	.LVL92:
 1711               	.L69:
 481:quantum/rgblight/rgblight.c ****             }
 1712               		.loc 1 481 13 is_stmt 1 view .LVU360
 484:quantum/rgblight/rgblight.c ****                 // breathing mode, ignore the change of val, use in memory value instead
 1713               		.loc 1 484 18 view .LVU361
 484:quantum/rgblight/rgblight.c ****                 // breathing mode, ignore the change of val, use in memory value instead
 1714               		.loc 1 484 21 is_stmt 0 view .LVU362
 1715 00b0 8230      		cpi r24,lo8(2)
 1716 00b2 01F4      		brne .L71
 486:quantum/rgblight/rgblight.c ****             }
 1717               		.loc 1 486 17 is_stmt 1 view .LVU363
 486:quantum/rgblight/rgblight.c ****             }
 1718               		.loc 1 486 21 is_stmt 0 view .LVU364
 1719 00b4 0091 0000 		lds r16,rgblight_config+3
 1720               	.LVL93:
 486:quantum/rgblight/rgblight.c ****             }
 1721               		.loc 1 486 21 view .LVU365
 1722 00b8 00C0      		rjmp .L70
 1723               	.L71:
 490:quantum/rgblight/rgblight.c ****                 // rainbow mood, ignore the change of hue
 1724               		.loc 1 490 18 is_stmt 1 view .LVU366
 490:quantum/rgblight/rgblight.c ****                 // rainbow mood, ignore the change of hue
 1725               		.loc 1 490 21 is_stmt 0 view .LVU367
 1726 00ba 8630      		cpi r24,lo8(6)
 1727 00bc 01F4      		brne .L72
 1728               	.L73:
 492:quantum/rgblight/rgblight.c ****             }
 1729               		.loc 1 492 17 is_stmt 1 view .LVU368
 492:quantum/rgblight/rgblight.c ****             }
 1730               		.loc 1 492 21 is_stmt 0 view .LVU369
 1731 00be 1091 0000 		lds r17,rgblight_config+1
 1732               	.LVL94:
 492:quantum/rgblight/rgblight.c ****             }
 1733               		.loc 1 492 21 view .LVU370
 1734 00c2 00C0      		rjmp .L70
 1735               	.L72:
 496:quantum/rgblight/rgblight.c ****                 // rainbow swirl, ignore the change of hue
 1736               		.loc 1 496 18 is_stmt 1 view .LVU371
 496:quantum/rgblight/rgblight.c ****                 // rainbow swirl, ignore the change of hue
 1737               		.loc 1 496 21 is_stmt 0 view .LVU372
 1738 00c4 8930      		cpi r24,lo8(9)
 1739 00c6 01F0      		breq .L73
 502:quantum/rgblight/rgblight.c ****                 // static gradient
 1740               		.loc 1 502 18 is_stmt 1 view .LVU373
 502:quantum/rgblight/rgblight.c ****                 // static gradient
 1741               		.loc 1 502 21 is_stmt 0 view .LVU374
 1742 00c8 8931      		cpi r24,lo8(25)
 1743 00ca 01F4      		brne .L70
 1744               	.LBB54:
 504:quantum/rgblight/rgblight.c ****                 bool    direction = (delta % 2) == 0;
 1745               		.loc 1 504 17 is_stmt 1 view .LVU375
 504:quantum/rgblight/rgblight.c ****                 bool    direction = (delta % 2) == 0;
 1746               		.loc 1 504 25 is_stmt 0 view .LVU376
 1747 00cc E951      		subi r30,lo8(-(-25))
 1748               	.LVL95:
 505:quantum/rgblight/rgblight.c **** #    ifdef __AVR__
 1749               		.loc 1 505 17 is_stmt 1 view .LVU377
 505:quantum/rgblight/rgblight.c **** #    ifdef __AVR__
 1750               		.loc 1 505 49 is_stmt 0 view .LVU378
 1751 00ce 8E2F      		mov r24,r30
 1752 00d0 8170      		andi r24,lo8(1)
 1753 00d2 C82E      		mov r12,r24
 1754               	.LVL96:
 508:quantum/rgblight/rgblight.c **** #    else
 1755               		.loc 1 508 17 is_stmt 1 view .LVU379
 1756               	.LBB55:
 508:quantum/rgblight/rgblight.c **** #    else
 1757               		.loc 1 508 33 view .LVU380
 1758 00d4 E695      		lsr r30
 1759               	.LVL97:
 508:quantum/rgblight/rgblight.c **** #    else
 1760               		.loc 1 508 33 is_stmt 0 view .LVU381
 1761 00d6 F0E0      		ldi r31,0
 1762 00d8 E050      		subi r30,lo8(-(RGBLED_GRADIENT_RANGES))
 1763 00da F040      		sbci r31,hi8(-(RGBLED_GRADIENT_RANGES))
 1764               	.LVL98:
 508:quantum/rgblight/rgblight.c **** #    else
 1765               		.loc 1 508 33 is_stmt 1 view .LVU382
 508:quantum/rgblight/rgblight.c **** #    else
 1766               		.loc 1 508 33 view .LVU383
 1767               	/* #APP */
 1768               	 ;  508 "quantum/rgblight/rgblight.c" 1
 1769 00dc A590      		lpm r10, Z+
 1770 00de B490      		lpm r11, Z
 1771               		
 1772               	 ;  0 "" 2
 1773               	.LVL99:
 508:quantum/rgblight/rgblight.c **** #    else
 1774               		.loc 1 508 33 view .LVU384
 508:quantum/rgblight/rgblight.c **** #    else
 1775               		.loc 1 508 33 is_stmt 0 view .LVU385
 1776               	/* #NOAPP */
 1777               	.LBE55:
 512:quantum/rgblight/rgblight.c ****                     uint8_t _hue = ((uint16_t)i * (uint16_t)range) / rgblight_ranges.effect_num_led
 1778               		.loc 1 512 17 is_stmt 1 view .LVU386
 1779               	.LBB56:
 512:quantum/rgblight/rgblight.c ****                     uint8_t _hue = ((uint16_t)i * (uint16_t)range) / rgblight_ranges.effect_num_led
 1780               		.loc 1 512 22 view .LVU387
 512:quantum/rgblight/rgblight.c ****                     uint8_t _hue = ((uint16_t)i * (uint16_t)range) / rgblight_ranges.effect_num_led
 1781               		.loc 1 512 30 is_stmt 0 view .LVU388
 1782 00e0 E12C      		mov r14,__zero_reg__
 1783               	.LBB57:
 513:quantum/rgblight/rgblight.c ****                     if (direction) {
 1784               		.loc 1 513 49 view .LVU389
 1785 00e2 BB24      		clr r11
 1786               	.LVL100:
 1787               	.L74:
 513:quantum/rgblight/rgblight.c ****                     if (direction) {
 1788               		.loc 1 513 49 view .LVU390
 1789               	.LBE57:
 512:quantum/rgblight/rgblight.c ****                     uint8_t _hue = ((uint16_t)i * (uint16_t)range) / rgblight_ranges.effect_num_led
 1790               		.loc 1 512 39 is_stmt 1 discriminator 1 view .LVU391
 512:quantum/rgblight/rgblight.c ****                     uint8_t _hue = ((uint16_t)i * (uint16_t)range) / rgblight_ranges.effect_num_led
 1791               		.loc 1 512 56 is_stmt 0 discriminator 1 view .LVU392
 1792 00e4 6091 0000 		lds r22,rgblight_ranges+4
 512:quantum/rgblight/rgblight.c ****                     uint8_t _hue = ((uint16_t)i * (uint16_t)range) / rgblight_ranges.effect_num_led
 1793               		.loc 1 512 39 discriminator 1 view .LVU393
 1794 00e8 E616      		cp r14,r22
 1795 00ea 00F0      		brlo .L77
 1796               	.LBE56:
 522:quantum/rgblight/rgblight.c ****             }
 1797               		.loc 1 522 17 is_stmt 1 view .LVU394
 1798 00ec 0E94 0000 		call rgblight_set
 1799               	.LVL101:
 1800 00f0 00C0      		rjmp .L70
 1801               	.L77:
 1802               	.LBB64:
 1803               	.LBB62:
 513:quantum/rgblight/rgblight.c ****                     if (direction) {
 1804               		.loc 1 513 21 view .LVU395
 513:quantum/rgblight/rgblight.c ****                     if (direction) {
 1805               		.loc 1 513 37 is_stmt 0 view .LVU396
 1806 00f2 2E2D      		mov r18,r14
 1807 00f4 30E0      		ldi r19,0
 513:quantum/rgblight/rgblight.c ****                     if (direction) {
 1808               		.loc 1 513 49 view .LVU397
 1809 00f6 EA9C      		mul r14,r10
 1810 00f8 C001      		movw r24,r0
 1811 00fa EB9C      		mul r14,r11
 1812 00fc 900D      		add r25,r0
 1813 00fe 1124      		clr __zero_reg__
 513:quantum/rgblight/rgblight.c ****                     if (direction) {
 1814               		.loc 1 513 85 view .LVU398
 1815 0100 70E0      		ldi r23,0
 513:quantum/rgblight/rgblight.c ****                     if (direction) {
 1816               		.loc 1 513 68 view .LVU399
 1817 0102 0E94 0000 		call __udivmodhi4
 1818               	.LVL102:
 514:quantum/rgblight/rgblight.c ****                         _hue = hue + _hue;
 1819               		.loc 1 514 21 is_stmt 1 view .LVU400
 515:quantum/rgblight/rgblight.c ****                     } else {
 1820               		.loc 1 515 30 is_stmt 0 view .LVU401
 1821 0106 812F      		mov r24,r17
 514:quantum/rgblight/rgblight.c ****                         _hue = hue + _hue;
 1822               		.loc 1 514 24 view .LVU402
 1823 0108 C110      		cpse r12,__zero_reg__
 1824 010a 00C0      		rjmp .L75
 515:quantum/rgblight/rgblight.c ****                     } else {
 1825               		.loc 1 515 25 is_stmt 1 view .LVU403
 515:quantum/rgblight/rgblight.c ****                     } else {
 1826               		.loc 1 515 30 is_stmt 0 view .LVU404
 1827 010c 860F      		add r24,r22
 1828               	.LVL103:
 1829               	.L76:
 519:quantum/rgblight/rgblight.c ****                     sethsv(_hue, sat, val, (LED_TYPE *)&led[i + rgblight_ranges.effect_start_pos]);
 1830               		.loc 1 519 98 is_stmt 1 discriminator 2 view .LVU405
 520:quantum/rgblight/rgblight.c ****                 }
 1831               		.loc 1 520 21 discriminator 2 view .LVU406
 1832               	.LBB58:
 1833               	.LBI58:
 154:quantum/rgblight/rgblight.c **** 
 1834               		.loc 1 154 6 discriminator 2 view .LVU407
 1835               	.LBB59:
 154:quantum/rgblight/rgblight.c **** 
 1836               		.loc 1 154 70 discriminator 2 view .LVU408
 1837               	.LBE59:
 1838               	.LBE58:
 520:quantum/rgblight/rgblight.c ****                 }
 1839               		.loc 1 520 80 is_stmt 0 discriminator 2 view .LVU409
 1840 010e 9091 0000 		lds r25,rgblight_ranges+2
 520:quantum/rgblight/rgblight.c ****                 }
 1841               		.loc 1 520 63 discriminator 2 view .LVU410
 1842 0112 A901      		movw r20,r18
 1843 0114 490F      		add r20,r25
 1844 0116 511D      		adc r21,__zero_reg__
 520:quantum/rgblight/rgblight.c ****                 }
 1845               		.loc 1 520 21 discriminator 2 view .LVU411
 1846 0118 9A01      		movw r18,r20
 1847 011a 220F      		lsl r18
 1848 011c 331F      		rol r19
 1849 011e 240F      		add r18,r20
 1850 0120 351F      		adc r19,r21
 1851 0122 2050      		subi r18,lo8(-(led))
 1852 0124 3040      		sbci r19,hi8(-(led))
 1853               	.LBB61:
 1854               	.LBB60:
 154:quantum/rgblight/rgblight.c **** 
 1855               		.loc 1 154 70 discriminator 2 view .LVU412
 1856 0126 402F      		mov r20,r16
 1857 0128 6F2D      		mov r22,r15
 1858 012a 0E94 0000 		call sethsv_raw
 1859               	.LVL104:
 154:quantum/rgblight/rgblight.c **** 
 1860               		.loc 1 154 70 discriminator 2 view .LVU413
 1861               	.LBE60:
 1862               	.LBE61:
 1863               	.LBE62:
 512:quantum/rgblight/rgblight.c ****                     uint8_t _hue = ((uint16_t)i * (uint16_t)range) / rgblight_ranges.effect_num_led
 1864               		.loc 1 512 75 is_stmt 1 discriminator 2 view .LVU414
 1865 012e E394      		inc r14
 1866               	.LVL105:
 512:quantum/rgblight/rgblight.c ****                     uint8_t _hue = ((uint16_t)i * (uint16_t)range) / rgblight_ranges.effect_num_led
 1867               		.loc 1 512 75 is_stmt 0 discriminator 2 view .LVU415
 1868 0130 00C0      		rjmp .L74
 1869               	.LVL106:
 1870               	.L75:
 1871               	.LBB63:
 517:quantum/rgblight/rgblight.c ****                     }
 1872               		.loc 1 517 25 is_stmt 1 view .LVU416
 517:quantum/rgblight/rgblight.c ****                     }
 1873               		.loc 1 517 30 is_stmt 0 view .LVU417
 1874 0132 861B      		sub r24,r22
 1875               	.LVL107:
 517:quantum/rgblight/rgblight.c ****                     }
 1876               		.loc 1 517 30 view .LVU418
 1877 0134 00C0      		rjmp .L76
 1878               	.LVL108:
 1879               	.L66:
 1880               	/* epilogue start */
 517:quantum/rgblight/rgblight.c ****                     }
 1881               		.loc 1 517 30 view .LVU419
 1882               	.LBE63:
 1883               	.LBE64:
 1884               	.LBE54:
 541:quantum/rgblight/rgblight.c **** 
 1885               		.loc 1 541 1 view .LVU420
 1886 0136 2796      		adiw r28,7
 1887 0138 0FB6      		in __tmp_reg__,__SREG__
 1888 013a F894      		cli
 1889 013c DEBF      		out __SP_H__,r29
 1890 013e 0FBE      		out __SREG__,__tmp_reg__
 1891 0140 CDBF      		out __SP_L__,r28
 1892 0142 DF91      		pop r29
 1893 0144 CF91      		pop r28
 1894 0146 1F91      		pop r17
 1895               	.LVL109:
 541:quantum/rgblight/rgblight.c **** 
 1896               		.loc 1 541 1 view .LVU421
 1897 0148 0F91      		pop r16
 1898               	.LVL110:
 541:quantum/rgblight/rgblight.c **** 
 1899               		.loc 1 541 1 view .LVU422
 1900 014a FF90      		pop r15
 1901               	.LVL111:
 541:quantum/rgblight/rgblight.c **** 
 1902               		.loc 1 541 1 view .LVU423
 1903 014c EF90      		pop r14
 1904 014e DF90      		pop r13
 1905               	.LVL112:
 541:quantum/rgblight/rgblight.c **** 
 1906               		.loc 1 541 1 view .LVU424
 1907 0150 CF90      		pop r12
 1908 0152 BF90      		pop r11
 1909 0154 AF90      		pop r10
 1910 0156 0895      		ret
 1911               		.cfi_endproc
 1912               	.LFE146:
 1914               		.section	.text.rgblight_increase_hue_helper,"ax",@progbits
 1915               	.global	rgblight_increase_hue_helper
 1917               	rgblight_increase_hue_helper:
 1918               	.LVL113:
 1919               	.LFB121:
 406:quantum/rgblight/rgblight.c ****     uint8_t hue = rgblight_config.hue + RGBLIGHT_HUE_STEP;
 1920               		.loc 1 406 57 is_stmt 1 view -0
 1921               		.cfi_startproc
 1922               	/* prologue: function */
 1923               	/* frame size = 0 */
 1924               	/* stack size = 0 */
 1925               	.L__stack_usage = 0
 406:quantum/rgblight/rgblight.c ****     uint8_t hue = rgblight_config.hue + RGBLIGHT_HUE_STEP;
 1926               		.loc 1 406 57 is_stmt 0 view .LVU426
 1927 0000 282F      		mov r18,r24
 407:quantum/rgblight/rgblight.c ****     rgblight_sethsv_eeprom_helper(hue, rgblight_config.sat, rgblight_config.val, write_to_eeprom);
 1928               		.loc 1 407 5 is_stmt 1 view .LVU427
 1929               	.LVL114:
 408:quantum/rgblight/rgblight.c **** }
 1930               		.loc 1 408 5 view .LVU428
 1931 0002 E0E0      		ldi r30,lo8(rgblight_config)
 1932 0004 F0E0      		ldi r31,hi8(rgblight_config)
 407:quantum/rgblight/rgblight.c ****     rgblight_sethsv_eeprom_helper(hue, rgblight_config.sat, rgblight_config.val, write_to_eeprom);
 1933               		.loc 1 407 13 is_stmt 0 view .LVU429
 1934 0006 8181      		ldd r24,Z+1
 1935               	.LVL115:
 408:quantum/rgblight/rgblight.c **** }
 1936               		.loc 1 408 5 view .LVU430
 1937 0008 4381      		ldd r20,Z+3
 1938 000a 6281      		ldd r22,Z+2
 1939 000c 885F      		subi r24,lo8(-(8))
 1940               	.LVL116:
 408:quantum/rgblight/rgblight.c **** }
 1941               		.loc 1 408 5 view .LVU431
 1942 000e 0C94 0000 		jmp rgblight_sethsv_eeprom_helper
 1943               	.LVL117:
 408:quantum/rgblight/rgblight.c **** }
 1944               		.loc 1 408 5 view .LVU432
 1945               		.cfi_endproc
 1946               	.LFE121:
 1948               		.section	.text.rgblight_increase_hue_noeeprom,"ax",@progbits
 1949               	.global	rgblight_increase_hue_noeeprom
 1951               	rgblight_increase_hue_noeeprom:
 1952               	.LFB122:
 410:quantum/rgblight/rgblight.c **** void rgblight_increase_hue(void) { rgblight_increase_hue_helper(true); }
 1953               		.loc 1 410 43 is_stmt 1 view -0
 1954               		.cfi_startproc
 1955               	/* prologue: function */
 1956               	/* frame size = 0 */
 1957               	/* stack size = 0 */
 1958               	.L__stack_usage = 0
 410:quantum/rgblight/rgblight.c **** void rgblight_increase_hue(void) { rgblight_increase_hue_helper(true); }
 1959               		.loc 1 410 45 view .LVU434
 1960 0000 80E0      		ldi r24,0
 1961 0002 0C94 0000 		jmp rgblight_increase_hue_helper
 1962               	.LVL118:
 1963               		.cfi_endproc
 1964               	.LFE122:
 1966               		.section	.text.rgblight_increase_hue,"ax",@progbits
 1967               	.global	rgblight_increase_hue
 1969               	rgblight_increase_hue:
 1970               	.LFB123:
 411:quantum/rgblight/rgblight.c **** void rgblight_decrease_hue_helper(bool write_to_eeprom) {
 1971               		.loc 1 411 34 view -0
 1972               		.cfi_startproc
 1973               	/* prologue: function */
 1974               	/* frame size = 0 */
 1975               	/* stack size = 0 */
 1976               	.L__stack_usage = 0
 411:quantum/rgblight/rgblight.c **** void rgblight_decrease_hue_helper(bool write_to_eeprom) {
 1977               		.loc 1 411 36 view .LVU436
 1978 0000 81E0      		ldi r24,lo8(1)
 1979 0002 0C94 0000 		jmp rgblight_increase_hue_helper
 1980               	.LVL119:
 1981               		.cfi_endproc
 1982               	.LFE123:
 1984               		.section	.text.rgblight_decrease_hue_helper,"ax",@progbits
 1985               	.global	rgblight_decrease_hue_helper
 1987               	rgblight_decrease_hue_helper:
 1988               	.LVL120:
 1989               	.LFB124:
 412:quantum/rgblight/rgblight.c ****     uint8_t hue = rgblight_config.hue - RGBLIGHT_HUE_STEP;
 1990               		.loc 1 412 57 view -0
 1991               		.cfi_startproc
 1992               	/* prologue: function */
 1993               	/* frame size = 0 */
 1994               	/* stack size = 0 */
 1995               	.L__stack_usage = 0
 412:quantum/rgblight/rgblight.c ****     uint8_t hue = rgblight_config.hue - RGBLIGHT_HUE_STEP;
 1996               		.loc 1 412 57 is_stmt 0 view .LVU438
 1997 0000 282F      		mov r18,r24
 413:quantum/rgblight/rgblight.c ****     rgblight_sethsv_eeprom_helper(hue, rgblight_config.sat, rgblight_config.val, write_to_eeprom);
 1998               		.loc 1 413 5 is_stmt 1 view .LVU439
 1999               	.LVL121:
 414:quantum/rgblight/rgblight.c **** }
 2000               		.loc 1 414 5 view .LVU440
 2001 0002 E0E0      		ldi r30,lo8(rgblight_config)
 2002 0004 F0E0      		ldi r31,hi8(rgblight_config)
 413:quantum/rgblight/rgblight.c ****     rgblight_sethsv_eeprom_helper(hue, rgblight_config.sat, rgblight_config.val, write_to_eeprom);
 2003               		.loc 1 413 13 is_stmt 0 view .LVU441
 2004 0006 8181      		ldd r24,Z+1
 2005               	.LVL122:
 414:quantum/rgblight/rgblight.c **** }
 2006               		.loc 1 414 5 view .LVU442
 2007 0008 4381      		ldd r20,Z+3
 2008 000a 6281      		ldd r22,Z+2
 2009 000c 8850      		subi r24,lo8(-(-8))
 2010               	.LVL123:
 414:quantum/rgblight/rgblight.c **** }
 2011               		.loc 1 414 5 view .LVU443
 2012 000e 0C94 0000 		jmp rgblight_sethsv_eeprom_helper
 2013               	.LVL124:
 414:quantum/rgblight/rgblight.c **** }
 2014               		.loc 1 414 5 view .LVU444
 2015               		.cfi_endproc
 2016               	.LFE124:
 2018               		.section	.text.rgblight_decrease_hue_noeeprom,"ax",@progbits
 2019               	.global	rgblight_decrease_hue_noeeprom
 2021               	rgblight_decrease_hue_noeeprom:
 2022               	.LFB125:
 416:quantum/rgblight/rgblight.c **** void rgblight_decrease_hue(void) { rgblight_decrease_hue_helper(true); }
 2023               		.loc 1 416 43 is_stmt 1 view -0
 2024               		.cfi_startproc
 2025               	/* prologue: function */
 2026               	/* frame size = 0 */
 2027               	/* stack size = 0 */
 2028               	.L__stack_usage = 0
 416:quantum/rgblight/rgblight.c **** void rgblight_decrease_hue(void) { rgblight_decrease_hue_helper(true); }
 2029               		.loc 1 416 45 view .LVU446
 2030 0000 80E0      		ldi r24,0
 2031 0002 0C94 0000 		jmp rgblight_decrease_hue_helper
 2032               	.LVL125:
 2033               		.cfi_endproc
 2034               	.LFE125:
 2036               		.section	.text.rgblight_decrease_hue,"ax",@progbits
 2037               	.global	rgblight_decrease_hue
 2039               	rgblight_decrease_hue:
 2040               	.LFB126:
 417:quantum/rgblight/rgblight.c **** void rgblight_increase_sat_helper(bool write_to_eeprom) {
 2041               		.loc 1 417 34 view -0
 2042               		.cfi_startproc
 2043               	/* prologue: function */
 2044               	/* frame size = 0 */
 2045               	/* stack size = 0 */
 2046               	.L__stack_usage = 0
 417:quantum/rgblight/rgblight.c **** void rgblight_increase_sat_helper(bool write_to_eeprom) {
 2047               		.loc 1 417 36 view .LVU448
 2048 0000 81E0      		ldi r24,lo8(1)
 2049 0002 0C94 0000 		jmp rgblight_decrease_hue_helper
 2050               	.LVL126:
 2051               		.cfi_endproc
 2052               	.LFE126:
 2054               		.section	.text.rgblight_increase_sat_helper,"ax",@progbits
 2055               	.global	rgblight_increase_sat_helper
 2057               	rgblight_increase_sat_helper:
 2058               	.LVL127:
 2059               	.LFB127:
 418:quantum/rgblight/rgblight.c ****     uint8_t sat = qadd8(rgblight_config.sat, RGBLIGHT_SAT_STEP);
 2060               		.loc 1 418 57 view -0
 2061               		.cfi_startproc
 2062               	/* prologue: function */
 2063               	/* frame size = 0 */
 2064               	/* stack size = 0 */
 2065               	.L__stack_usage = 0
 418:quantum/rgblight/rgblight.c ****     uint8_t sat = qadd8(rgblight_config.sat, RGBLIGHT_SAT_STEP);
 2066               		.loc 1 418 57 is_stmt 0 view .LVU450
 2067 0000 282F      		mov r18,r24
 419:quantum/rgblight/rgblight.c ****     rgblight_sethsv_eeprom_helper(rgblight_config.hue, sat, rgblight_config.val, write_to_eeprom);
 2068               		.loc 1 419 5 is_stmt 1 view .LVU451
 2069               	.LVL128:
 2070               	.LBB65:
 2071               	.LBI65:
 2072               		.file 2 "./lib/lib8tion/math8.h"
   1:./lib/lib8tion/math8.h **** #ifndef __INC_LIB8TION_MATH_H
   2:./lib/lib8tion/math8.h **** #define __INC_LIB8TION_MATH_H
   3:./lib/lib8tion/math8.h **** 
   4:./lib/lib8tion/math8.h **** #include "scale8.h"
   5:./lib/lib8tion/math8.h **** 
   6:./lib/lib8tion/math8.h **** ///@ingroup lib8tion
   7:./lib/lib8tion/math8.h **** 
   8:./lib/lib8tion/math8.h **** ///@defgroup Math Basic math operations
   9:./lib/lib8tion/math8.h **** /// Fast, efficient 8-bit math functions specifically
  10:./lib/lib8tion/math8.h **** /// designed for high-performance LED programming.
  11:./lib/lib8tion/math8.h **** ///
  12:./lib/lib8tion/math8.h **** /// Because of the AVR(Arduino) and ARM assembly language
  13:./lib/lib8tion/math8.h **** /// implementations provided, using these functions often
  14:./lib/lib8tion/math8.h **** /// results in smaller and faster code than the equivalent
  15:./lib/lib8tion/math8.h **** /// program using plain "C" arithmetic and logic.
  16:./lib/lib8tion/math8.h **** ///@{
  17:./lib/lib8tion/math8.h **** 
  18:./lib/lib8tion/math8.h **** 
  19:./lib/lib8tion/math8.h **** /// add one byte to another, saturating at 0xFF
  20:./lib/lib8tion/math8.h **** /// @param i - first byte to add
  21:./lib/lib8tion/math8.h **** /// @param j - second byte to add
  22:./lib/lib8tion/math8.h **** /// @returns the sum of i & j, capped at 0xFF
  23:./lib/lib8tion/math8.h **** LIB8STATIC_ALWAYS_INLINE uint8_t qadd8( uint8_t i, uint8_t j)
 2073               		.loc 2 23 34 view .LVU452
 2074               	.LBB66:
  24:./lib/lib8tion/math8.h **** {
  25:./lib/lib8tion/math8.h **** #if QADD8_C == 1
  26:./lib/lib8tion/math8.h ****     uint16_t t = i + j;
  27:./lib/lib8tion/math8.h ****     if (t > 255) t = 255;
  28:./lib/lib8tion/math8.h ****     return t;
  29:./lib/lib8tion/math8.h **** #elif QADD8_AVRASM == 1
  30:./lib/lib8tion/math8.h ****     asm volatile(
 2075               		.loc 2 30 5 view .LVU453
 2076               	.LBE66:
 2077               	.LBE65:
 419:quantum/rgblight/rgblight.c ****     rgblight_sethsv_eeprom_helper(rgblight_config.hue, sat, rgblight_config.val, write_to_eeprom);
 2078               		.loc 1 419 19 is_stmt 0 view .LVU454
 2079 0002 E0E0      		ldi r30,lo8(rgblight_config)
 2080 0004 F0E0      		ldi r31,hi8(rgblight_config)
 2081               	.LBB68:
 2082               	.LBB67:
 2083               		.loc 2 30 5 view .LVU455
 2084 0006 6281      		ldd r22,Z+2
 2085 0008 38E0      		ldi r19,lo8(8)
 2086               	/* #APP */
 2087               	 ;  30 "./lib/lib8tion/math8.h" 1
 2088 000a 630F      		add r22, r19    
 2089 000c 00F4      		brcc L_1619     
 2090 000e 6FEF      		ldi r22, 0xFF  
 2091               		L_1619: 
 2092               	 ;  0 "" 2
 2093               	.LVL129:
  31:./lib/lib8tion/math8.h ****          /* First, add j to i, conditioning the C flag */
  32:./lib/lib8tion/math8.h ****          "add %0, %1    \n\t"
  33:./lib/lib8tion/math8.h **** 
  34:./lib/lib8tion/math8.h ****          /* Now test the C flag.
  35:./lib/lib8tion/math8.h ****            If C is clear, we branch around a load of 0xFF into i.
  36:./lib/lib8tion/math8.h ****            If C is set, we go ahead and load 0xFF into i.
  37:./lib/lib8tion/math8.h ****          */
  38:./lib/lib8tion/math8.h ****          "brcc L_%=     \n\t"
  39:./lib/lib8tion/math8.h ****          "ldi %0, 0xFF  \n\t"
  40:./lib/lib8tion/math8.h ****          "L_%=: "
  41:./lib/lib8tion/math8.h ****          : "+a" (i)
  42:./lib/lib8tion/math8.h ****          : "a"  (j) );
  43:./lib/lib8tion/math8.h ****     return i;
 2094               		.loc 2 43 5 is_stmt 1 view .LVU456
 2095               		.loc 2 43 5 is_stmt 0 view .LVU457
 2096               	/* #NOAPP */
 2097               	.LBE67:
 2098               	.LBE68:
 420:quantum/rgblight/rgblight.c **** }
 2099               		.loc 1 420 5 is_stmt 1 view .LVU458
 2100 0010 4381      		ldd r20,Z+3
 2101 0012 8181      		ldd r24,Z+1
 2102               	.LVL130:
 420:quantum/rgblight/rgblight.c **** }
 2103               		.loc 1 420 5 is_stmt 0 view .LVU459
 2104 0014 0C94 0000 		jmp rgblight_sethsv_eeprom_helper
 2105               	.LVL131:
 420:quantum/rgblight/rgblight.c **** }
 2106               		.loc 1 420 5 view .LVU460
 2107               		.cfi_endproc
 2108               	.LFE127:
 2110               		.section	.text.rgblight_increase_sat_noeeprom,"ax",@progbits
 2111               	.global	rgblight_increase_sat_noeeprom
 2113               	rgblight_increase_sat_noeeprom:
 2114               	.LFB128:
 422:quantum/rgblight/rgblight.c **** void rgblight_increase_sat(void) { rgblight_increase_sat_helper(true); }
 2115               		.loc 1 422 43 is_stmt 1 view -0
 2116               		.cfi_startproc
 2117               	/* prologue: function */
 2118               	/* frame size = 0 */
 2119               	/* stack size = 0 */
 2120               	.L__stack_usage = 0
 422:quantum/rgblight/rgblight.c **** void rgblight_increase_sat(void) { rgblight_increase_sat_helper(true); }
 2121               		.loc 1 422 45 view .LVU462
 2122 0000 80E0      		ldi r24,0
 2123 0002 0C94 0000 		jmp rgblight_increase_sat_helper
 2124               	.LVL132:
 2125               		.cfi_endproc
 2126               	.LFE128:
 2128               		.section	.text.rgblight_increase_sat,"ax",@progbits
 2129               	.global	rgblight_increase_sat
 2131               	rgblight_increase_sat:
 2132               	.LFB129:
 423:quantum/rgblight/rgblight.c **** void rgblight_decrease_sat_helper(bool write_to_eeprom) {
 2133               		.loc 1 423 34 view -0
 2134               		.cfi_startproc
 2135               	/* prologue: function */
 2136               	/* frame size = 0 */
 2137               	/* stack size = 0 */
 2138               	.L__stack_usage = 0
 423:quantum/rgblight/rgblight.c **** void rgblight_decrease_sat_helper(bool write_to_eeprom) {
 2139               		.loc 1 423 36 view .LVU464
 2140 0000 81E0      		ldi r24,lo8(1)
 2141 0002 0C94 0000 		jmp rgblight_increase_sat_helper
 2142               	.LVL133:
 2143               		.cfi_endproc
 2144               	.LFE129:
 2146               		.section	.text.rgblight_decrease_sat_helper,"ax",@progbits
 2147               	.global	rgblight_decrease_sat_helper
 2149               	rgblight_decrease_sat_helper:
 2150               	.LVL134:
 2151               	.LFB130:
 424:quantum/rgblight/rgblight.c ****     uint8_t sat = qsub8(rgblight_config.sat, RGBLIGHT_SAT_STEP);
 2152               		.loc 1 424 57 view -0
 2153               		.cfi_startproc
 2154               	/* prologue: function */
 2155               	/* frame size = 0 */
 2156               	/* stack size = 0 */
 2157               	.L__stack_usage = 0
 424:quantum/rgblight/rgblight.c ****     uint8_t sat = qsub8(rgblight_config.sat, RGBLIGHT_SAT_STEP);
 2158               		.loc 1 424 57 is_stmt 0 view .LVU466
 2159 0000 282F      		mov r18,r24
 425:quantum/rgblight/rgblight.c ****     rgblight_sethsv_eeprom_helper(rgblight_config.hue, sat, rgblight_config.val, write_to_eeprom);
 2160               		.loc 1 425 5 is_stmt 1 view .LVU467
 2161               	.LVL135:
 2162               	.LBB69:
 2163               	.LBI69:
  44:./lib/lib8tion/math8.h **** #elif QADD8_ARM_DSP_ASM == 1
  45:./lib/lib8tion/math8.h ****     asm volatile( "uqadd8 %0, %0, %1" : "+r" (i) : "r" (j));
  46:./lib/lib8tion/math8.h ****     return i;
  47:./lib/lib8tion/math8.h **** #else
  48:./lib/lib8tion/math8.h **** #error "No implementation for qadd8 available."
  49:./lib/lib8tion/math8.h **** #endif
  50:./lib/lib8tion/math8.h **** }
  51:./lib/lib8tion/math8.h **** 
  52:./lib/lib8tion/math8.h **** /// Add one byte to another, saturating at 0x7F
  53:./lib/lib8tion/math8.h **** /// @param i - first byte to add
  54:./lib/lib8tion/math8.h **** /// @param j - second byte to add
  55:./lib/lib8tion/math8.h **** /// @returns the sum of i & j, capped at 0xFF
  56:./lib/lib8tion/math8.h **** LIB8STATIC_ALWAYS_INLINE int8_t qadd7( int8_t i, int8_t j)
  57:./lib/lib8tion/math8.h **** {
  58:./lib/lib8tion/math8.h **** #if QADD7_C == 1
  59:./lib/lib8tion/math8.h ****     int16_t t = i + j;
  60:./lib/lib8tion/math8.h ****     if (t > 127) t = 127;
  61:./lib/lib8tion/math8.h ****     return t;
  62:./lib/lib8tion/math8.h **** #elif QADD7_AVRASM == 1
  63:./lib/lib8tion/math8.h ****     asm volatile(
  64:./lib/lib8tion/math8.h ****          /* First, add j to i, conditioning the V flag */
  65:./lib/lib8tion/math8.h ****          "add %0, %1    \n\t"
  66:./lib/lib8tion/math8.h **** 
  67:./lib/lib8tion/math8.h ****          /* Now test the V flag.
  68:./lib/lib8tion/math8.h ****           If V is clear, we branch around a load of 0x7F into i.
  69:./lib/lib8tion/math8.h ****           If V is set, we go ahead and load 0x7F into i.
  70:./lib/lib8tion/math8.h ****           */
  71:./lib/lib8tion/math8.h ****          "brvc L_%=     \n\t"
  72:./lib/lib8tion/math8.h ****          "ldi %0, 0x7F  \n\t"
  73:./lib/lib8tion/math8.h ****          "L_%=: "
  74:./lib/lib8tion/math8.h ****          : "+a" (i)
  75:./lib/lib8tion/math8.h ****          : "a"  (j) );
  76:./lib/lib8tion/math8.h **** 
  77:./lib/lib8tion/math8.h ****     return i;
  78:./lib/lib8tion/math8.h **** #elif QADD7_ARM_DSP_ASM == 1
  79:./lib/lib8tion/math8.h ****     asm volatile( "qadd8 %0, %0, %1" : "+r" (i) : "r" (j));
  80:./lib/lib8tion/math8.h ****     return i;
  81:./lib/lib8tion/math8.h **** #else
  82:./lib/lib8tion/math8.h **** #error "No implementation for qadd7 available."
  83:./lib/lib8tion/math8.h **** #endif
  84:./lib/lib8tion/math8.h **** }
  85:./lib/lib8tion/math8.h **** 
  86:./lib/lib8tion/math8.h **** /// subtract one byte from another, saturating at 0x00
  87:./lib/lib8tion/math8.h **** /// @returns i - j with a floor of 0
  88:./lib/lib8tion/math8.h **** LIB8STATIC_ALWAYS_INLINE uint8_t qsub8( uint8_t i, uint8_t j)
 2164               		.loc 2 88 34 view .LVU468
 2165               	.LBB70:
  89:./lib/lib8tion/math8.h **** {
  90:./lib/lib8tion/math8.h **** #if QSUB8_C == 1
  91:./lib/lib8tion/math8.h ****     int16_t t = i - j;
  92:./lib/lib8tion/math8.h ****     if (t < 0) t = 0;
  93:./lib/lib8tion/math8.h ****     return t;
  94:./lib/lib8tion/math8.h **** #elif QSUB8_AVRASM == 1
  95:./lib/lib8tion/math8.h **** 
  96:./lib/lib8tion/math8.h ****     asm volatile(
 2166               		.loc 2 96 5 view .LVU469
 2167               	.LBE70:
 2168               	.LBE69:
 425:quantum/rgblight/rgblight.c ****     rgblight_sethsv_eeprom_helper(rgblight_config.hue, sat, rgblight_config.val, write_to_eeprom);
 2169               		.loc 1 425 19 is_stmt 0 view .LVU470
 2170 0002 E0E0      		ldi r30,lo8(rgblight_config)
 2171 0004 F0E0      		ldi r31,hi8(rgblight_config)
 2172               	.LBB72:
 2173               	.LBB71:
 2174               		.loc 2 96 5 view .LVU471
 2175 0006 6281      		ldd r22,Z+2
 2176 0008 38E0      		ldi r19,lo8(8)
 2177               	/* #APP */
 2178               	 ;  96 "./lib/lib8tion/math8.h" 1
 2179 000a 631B      		sub r22, r19    
 2180 000c 00F4      		brcc L_1675     
 2181 000e 60E0      		ldi r22, 0x00  
 2182               		L_1675: 
 2183               	 ;  0 "" 2
 2184               	.LVL136:
  97:./lib/lib8tion/math8.h ****          /* First, subtract j from i, conditioning the C flag */
  98:./lib/lib8tion/math8.h ****          "sub %0, %1    \n\t"
  99:./lib/lib8tion/math8.h **** 
 100:./lib/lib8tion/math8.h ****          /* Now test the C flag.
 101:./lib/lib8tion/math8.h ****           If C is clear, we branch around a load of 0x00 into i.
 102:./lib/lib8tion/math8.h ****           If C is set, we go ahead and load 0x00 into i.
 103:./lib/lib8tion/math8.h ****           */
 104:./lib/lib8tion/math8.h ****          "brcc L_%=     \n\t"
 105:./lib/lib8tion/math8.h ****          "ldi %0, 0x00  \n\t"
 106:./lib/lib8tion/math8.h ****          "L_%=: "
 107:./lib/lib8tion/math8.h ****          : "+a" (i)
 108:./lib/lib8tion/math8.h ****          : "a"  (j) );
 109:./lib/lib8tion/math8.h **** 
 110:./lib/lib8tion/math8.h ****     return i;
 2185               		.loc 2 110 5 is_stmt 1 view .LVU472
 2186               		.loc 2 110 5 is_stmt 0 view .LVU473
 2187               	/* #NOAPP */
 2188               	.LBE71:
 2189               	.LBE72:
 426:quantum/rgblight/rgblight.c **** }
 2190               		.loc 1 426 5 is_stmt 1 view .LVU474
 2191 0010 4381      		ldd r20,Z+3
 2192 0012 8181      		ldd r24,Z+1
 2193               	.LVL137:
 426:quantum/rgblight/rgblight.c **** }
 2194               		.loc 1 426 5 is_stmt 0 view .LVU475
 2195 0014 0C94 0000 		jmp rgblight_sethsv_eeprom_helper
 2196               	.LVL138:
 426:quantum/rgblight/rgblight.c **** }
 2197               		.loc 1 426 5 view .LVU476
 2198               		.cfi_endproc
 2199               	.LFE130:
 2201               		.section	.text.rgblight_decrease_sat_noeeprom,"ax",@progbits
 2202               	.global	rgblight_decrease_sat_noeeprom
 2204               	rgblight_decrease_sat_noeeprom:
 2205               	.LFB131:
 428:quantum/rgblight/rgblight.c **** void rgblight_decrease_sat(void) { rgblight_decrease_sat_helper(true); }
 2206               		.loc 1 428 43 is_stmt 1 view -0
 2207               		.cfi_startproc
 2208               	/* prologue: function */
 2209               	/* frame size = 0 */
 2210               	/* stack size = 0 */
 2211               	.L__stack_usage = 0
 428:quantum/rgblight/rgblight.c **** void rgblight_decrease_sat(void) { rgblight_decrease_sat_helper(true); }
 2212               		.loc 1 428 45 view .LVU478
 2213 0000 80E0      		ldi r24,0
 2214 0002 0C94 0000 		jmp rgblight_decrease_sat_helper
 2215               	.LVL139:
 2216               		.cfi_endproc
 2217               	.LFE131:
 2219               		.section	.text.rgblight_decrease_sat,"ax",@progbits
 2220               	.global	rgblight_decrease_sat
 2222               	rgblight_decrease_sat:
 2223               	.LFB132:
 429:quantum/rgblight/rgblight.c **** void rgblight_increase_val_helper(bool write_to_eeprom) {
 2224               		.loc 1 429 34 view -0
 2225               		.cfi_startproc
 2226               	/* prologue: function */
 2227               	/* frame size = 0 */
 2228               	/* stack size = 0 */
 2229               	.L__stack_usage = 0
 429:quantum/rgblight/rgblight.c **** void rgblight_increase_val_helper(bool write_to_eeprom) {
 2230               		.loc 1 429 36 view .LVU480
 2231 0000 81E0      		ldi r24,lo8(1)
 2232 0002 0C94 0000 		jmp rgblight_decrease_sat_helper
 2233               	.LVL140:
 2234               		.cfi_endproc
 2235               	.LFE132:
 2237               		.section	.text.rgblight_increase_val_helper,"ax",@progbits
 2238               	.global	rgblight_increase_val_helper
 2240               	rgblight_increase_val_helper:
 2241               	.LVL141:
 2242               	.LFB133:
 430:quantum/rgblight/rgblight.c ****     uint8_t val = qadd8(rgblight_config.val, RGBLIGHT_VAL_STEP);
 2243               		.loc 1 430 57 view -0
 2244               		.cfi_startproc
 2245               	/* prologue: function */
 2246               	/* frame size = 0 */
 2247               	/* stack size = 0 */
 2248               	.L__stack_usage = 0
 430:quantum/rgblight/rgblight.c ****     uint8_t val = qadd8(rgblight_config.val, RGBLIGHT_VAL_STEP);
 2249               		.loc 1 430 57 is_stmt 0 view .LVU482
 2250 0000 282F      		mov r18,r24
 431:quantum/rgblight/rgblight.c ****     rgblight_sethsv_eeprom_helper(rgblight_config.hue, rgblight_config.sat, val, write_to_eeprom);
 2251               		.loc 1 431 5 is_stmt 1 view .LVU483
 2252               	.LVL142:
 2253               	.LBB73:
 2254               	.LBI73:
  23:./lib/lib8tion/math8.h **** {
 2255               		.loc 2 23 34 view .LVU484
 2256               	.LBB74:
  30:./lib/lib8tion/math8.h ****          /* First, add j to i, conditioning the C flag */
 2257               		.loc 2 30 5 view .LVU485
 2258               	.LBE74:
 2259               	.LBE73:
 431:quantum/rgblight/rgblight.c ****     rgblight_sethsv_eeprom_helper(rgblight_config.hue, rgblight_config.sat, val, write_to_eeprom);
 2260               		.loc 1 431 19 is_stmt 0 view .LVU486
 2261 0002 E0E0      		ldi r30,lo8(rgblight_config)
 2262 0004 F0E0      		ldi r31,hi8(rgblight_config)
 2263               	.LBB76:
 2264               	.LBB75:
  30:./lib/lib8tion/math8.h ****          /* First, add j to i, conditioning the C flag */
 2265               		.loc 2 30 5 view .LVU487
 2266 0006 4381      		ldd r20,Z+3
 2267 0008 38E0      		ldi r19,lo8(8)
 2268               	/* #APP */
 2269               	 ;  30 "./lib/lib8tion/math8.h" 1
 2270 000a 430F      		add r20, r19    
 2271 000c 00F4      		brcc L_1731     
 2272 000e 4FEF      		ldi r20, 0xFF  
 2273               		L_1731: 
 2274               	 ;  0 "" 2
 2275               	.LVL143:
  43:./lib/lib8tion/math8.h **** #elif QADD8_ARM_DSP_ASM == 1
 2276               		.loc 2 43 5 is_stmt 1 view .LVU488
  43:./lib/lib8tion/math8.h **** #elif QADD8_ARM_DSP_ASM == 1
 2277               		.loc 2 43 5 is_stmt 0 view .LVU489
 2278               	/* #NOAPP */
 2279               	.LBE75:
 2280               	.LBE76:
 432:quantum/rgblight/rgblight.c **** }
 2281               		.loc 1 432 5 is_stmt 1 view .LVU490
 2282 0010 6281      		ldd r22,Z+2
 2283 0012 8181      		ldd r24,Z+1
 2284               	.LVL144:
 432:quantum/rgblight/rgblight.c **** }
 2285               		.loc 1 432 5 is_stmt 0 view .LVU491
 2286 0014 0C94 0000 		jmp rgblight_sethsv_eeprom_helper
 2287               	.LVL145:
 432:quantum/rgblight/rgblight.c **** }
 2288               		.loc 1 432 5 view .LVU492
 2289               		.cfi_endproc
 2290               	.LFE133:
 2292               		.section	.text.rgblight_increase_val_noeeprom,"ax",@progbits
 2293               	.global	rgblight_increase_val_noeeprom
 2295               	rgblight_increase_val_noeeprom:
 2296               	.LFB134:
 434:quantum/rgblight/rgblight.c **** void rgblight_increase_val(void) { rgblight_increase_val_helper(true); }
 2297               		.loc 1 434 43 is_stmt 1 view -0
 2298               		.cfi_startproc
 2299               	/* prologue: function */
 2300               	/* frame size = 0 */
 2301               	/* stack size = 0 */
 2302               	.L__stack_usage = 0
 434:quantum/rgblight/rgblight.c **** void rgblight_increase_val(void) { rgblight_increase_val_helper(true); }
 2303               		.loc 1 434 45 view .LVU494
 2304 0000 80E0      		ldi r24,0
 2305 0002 0C94 0000 		jmp rgblight_increase_val_helper
 2306               	.LVL146:
 2307               		.cfi_endproc
 2308               	.LFE134:
 2310               		.section	.text.rgblight_increase_val,"ax",@progbits
 2311               	.global	rgblight_increase_val
 2313               	rgblight_increase_val:
 2314               	.LFB135:
 435:quantum/rgblight/rgblight.c **** void rgblight_decrease_val_helper(bool write_to_eeprom) {
 2315               		.loc 1 435 34 view -0
 2316               		.cfi_startproc
 2317               	/* prologue: function */
 2318               	/* frame size = 0 */
 2319               	/* stack size = 0 */
 2320               	.L__stack_usage = 0
 435:quantum/rgblight/rgblight.c **** void rgblight_decrease_val_helper(bool write_to_eeprom) {
 2321               		.loc 1 435 36 view .LVU496
 2322 0000 81E0      		ldi r24,lo8(1)
 2323 0002 0C94 0000 		jmp rgblight_increase_val_helper
 2324               	.LVL147:
 2325               		.cfi_endproc
 2326               	.LFE135:
 2328               		.section	.text.rgblight_decrease_val_helper,"ax",@progbits
 2329               	.global	rgblight_decrease_val_helper
 2331               	rgblight_decrease_val_helper:
 2332               	.LVL148:
 2333               	.LFB136:
 436:quantum/rgblight/rgblight.c ****     uint8_t val = qsub8(rgblight_config.val, RGBLIGHT_VAL_STEP);
 2334               		.loc 1 436 57 view -0
 2335               		.cfi_startproc
 2336               	/* prologue: function */
 2337               	/* frame size = 0 */
 2338               	/* stack size = 0 */
 2339               	.L__stack_usage = 0
 436:quantum/rgblight/rgblight.c ****     uint8_t val = qsub8(rgblight_config.val, RGBLIGHT_VAL_STEP);
 2340               		.loc 1 436 57 is_stmt 0 view .LVU498
 2341 0000 282F      		mov r18,r24
 437:quantum/rgblight/rgblight.c ****     rgblight_sethsv_eeprom_helper(rgblight_config.hue, rgblight_config.sat, val, write_to_eeprom);
 2342               		.loc 1 437 5 is_stmt 1 view .LVU499
 2343               	.LVL149:
 2344               	.LBB77:
 2345               	.LBI77:
  88:./lib/lib8tion/math8.h **** {
 2346               		.loc 2 88 34 view .LVU500
 2347               	.LBB78:
  96:./lib/lib8tion/math8.h ****          /* First, subtract j from i, conditioning the C flag */
 2348               		.loc 2 96 5 view .LVU501
 2349               	.LBE78:
 2350               	.LBE77:
 437:quantum/rgblight/rgblight.c ****     rgblight_sethsv_eeprom_helper(rgblight_config.hue, rgblight_config.sat, val, write_to_eeprom);
 2351               		.loc 1 437 19 is_stmt 0 view .LVU502
 2352 0002 E0E0      		ldi r30,lo8(rgblight_config)
 2353 0004 F0E0      		ldi r31,hi8(rgblight_config)
 2354               	.LBB80:
 2355               	.LBB79:
  96:./lib/lib8tion/math8.h ****          /* First, subtract j from i, conditioning the C flag */
 2356               		.loc 2 96 5 view .LVU503
 2357 0006 4381      		ldd r20,Z+3
 2358 0008 38E0      		ldi r19,lo8(8)
 2359               	/* #APP */
 2360               	 ;  96 "./lib/lib8tion/math8.h" 1
 2361 000a 431B      		sub r20, r19    
 2362 000c 00F4      		brcc L_1787     
 2363 000e 40E0      		ldi r20, 0x00  
 2364               		L_1787: 
 2365               	 ;  0 "" 2
 2366               	.LVL150:
 2367               		.loc 2 110 5 is_stmt 1 view .LVU504
 2368               		.loc 2 110 5 is_stmt 0 view .LVU505
 2369               	/* #NOAPP */
 2370               	.LBE79:
 2371               	.LBE80:
 438:quantum/rgblight/rgblight.c **** }
 2372               		.loc 1 438 5 is_stmt 1 view .LVU506
 2373 0010 6281      		ldd r22,Z+2
 2374 0012 8181      		ldd r24,Z+1
 2375               	.LVL151:
 438:quantum/rgblight/rgblight.c **** }
 2376               		.loc 1 438 5 is_stmt 0 view .LVU507
 2377 0014 0C94 0000 		jmp rgblight_sethsv_eeprom_helper
 2378               	.LVL152:
 438:quantum/rgblight/rgblight.c **** }
 2379               		.loc 1 438 5 view .LVU508
 2380               		.cfi_endproc
 2381               	.LFE136:
 2383               		.section	.text.rgblight_decrease_val_noeeprom,"ax",@progbits
 2384               	.global	rgblight_decrease_val_noeeprom
 2386               	rgblight_decrease_val_noeeprom:
 2387               	.LFB137:
 440:quantum/rgblight/rgblight.c **** void rgblight_decrease_val(void) { rgblight_decrease_val_helper(true); }
 2388               		.loc 1 440 43 is_stmt 1 view -0
 2389               		.cfi_startproc
 2390               	/* prologue: function */
 2391               	/* frame size = 0 */
 2392               	/* stack size = 0 */
 2393               	.L__stack_usage = 0
 440:quantum/rgblight/rgblight.c **** void rgblight_decrease_val(void) { rgblight_decrease_val_helper(true); }
 2394               		.loc 1 440 45 view .LVU510
 2395 0000 80E0      		ldi r24,0
 2396 0002 0C94 0000 		jmp rgblight_decrease_val_helper
 2397               	.LVL153:
 2398               		.cfi_endproc
 2399               	.LFE137:
 2401               		.section	.text.rgblight_decrease_val,"ax",@progbits
 2402               	.global	rgblight_decrease_val
 2404               	rgblight_decrease_val:
 2405               	.LFB138:
 441:quantum/rgblight/rgblight.c **** 
 2406               		.loc 1 441 34 view -0
 2407               		.cfi_startproc
 2408               	/* prologue: function */
 2409               	/* frame size = 0 */
 2410               	/* stack size = 0 */
 2411               	.L__stack_usage = 0
 441:quantum/rgblight/rgblight.c **** 
 2412               		.loc 1 441 36 view .LVU512
 2413 0000 81E0      		ldi r24,lo8(1)
 2414 0002 0C94 0000 		jmp rgblight_decrease_val_helper
 2415               	.LVL154:
 2416               		.cfi_endproc
 2417               	.LFE138:
 2419               		.section	.text.rgblight_sethsv,"ax",@progbits
 2420               	.global	rgblight_sethsv
 2422               	rgblight_sethsv:
 2423               	.LVL155:
 2424               	.LFB147:
 543:quantum/rgblight/rgblight.c **** 
 2425               		.loc 1 543 61 view -0
 2426               		.cfi_startproc
 2427               	/* prologue: function */
 2428               	/* frame size = 0 */
 2429               	/* stack size = 0 */
 2430               	.L__stack_usage = 0
 543:quantum/rgblight/rgblight.c **** 
 2431               		.loc 1 543 63 view .LVU514
 2432 0000 21E0      		ldi r18,lo8(1)
 2433 0002 0C94 0000 		jmp rgblight_sethsv_eeprom_helper
 2434               	.LVL156:
 543:quantum/rgblight/rgblight.c **** 
 2435               		.loc 1 543 63 is_stmt 0 view .LVU515
 2436               		.cfi_endproc
 2437               	.LFE147:
 2439               		.section	.text.rgblight_sethsv_noeeprom,"ax",@progbits
 2440               	.global	rgblight_sethsv_noeeprom
 2442               	rgblight_sethsv_noeeprom:
 2443               	.LVL157:
 2444               	.LFB148:
 545:quantum/rgblight/rgblight.c **** 
 2445               		.loc 1 545 70 is_stmt 1 view -0
 2446               		.cfi_startproc
 2447               	/* prologue: function */
 2448               	/* frame size = 0 */
 2449               	/* stack size = 0 */
 2450               	.L__stack_usage = 0
 545:quantum/rgblight/rgblight.c **** 
 2451               		.loc 1 545 72 view .LVU517
 2452 0000 20E0      		ldi r18,0
 2453 0002 0C94 0000 		jmp rgblight_sethsv_eeprom_helper
 2454               	.LVL158:
 545:quantum/rgblight/rgblight.c **** 
 2455               		.loc 1 545 72 is_stmt 0 view .LVU518
 2456               		.cfi_endproc
 2457               	.LFE148:
 2459               		.section	.text.rgblight_setrgb_at,"ax",@progbits
 2460               	.global	rgblight_setrgb_at
 2462               	rgblight_setrgb_at:
 2463               	.LVL159:
 2464               	.LFB158:
 587:quantum/rgblight/rgblight.c ****     if (!rgblight_config.enable || index >= RGBLED_NUM) {
 2465               		.loc 1 587 73 is_stmt 1 view -0
 2466               		.cfi_startproc
 2467               	/* prologue: function */
 2468               	/* frame size = 0 */
 2469               	/* stack size = 0 */
 2470               	.L__stack_usage = 0
 588:quantum/rgblight/rgblight.c ****         return;
 2471               		.loc 1 588 5 view .LVU520
 588:quantum/rgblight/rgblight.c ****         return;
 2472               		.loc 1 588 25 is_stmt 0 view .LVU521
 2473 0000 9091 0000 		lds r25,rgblight_config
 588:quantum/rgblight/rgblight.c ****         return;
 2474               		.loc 1 588 8 view .LVU522
 2475 0004 90FF      		sbrs r25,0
 2476 0006 00C0      		rjmp .L105
 588:quantum/rgblight/rgblight.c ****         return;
 2477               		.loc 1 588 33 discriminator 1 view .LVU523
 2478 0008 2230      		cpi r18,lo8(2)
 2479 000a 00F4      		brsh .L105
 592:quantum/rgblight/rgblight.c ****     led[index].g = g;
 2480               		.loc 1 592 5 is_stmt 1 view .LVU524
 592:quantum/rgblight/rgblight.c ****     led[index].g = g;
 2481               		.loc 1 592 15 is_stmt 0 view .LVU525
 2482 000c 30E0      		ldi r19,0
 592:quantum/rgblight/rgblight.c ****     led[index].g = g;
 2483               		.loc 1 592 18 view .LVU526
 2484 000e F901      		movw r30,r18
 2485 0010 EE0F      		lsl r30
 2486 0012 FF1F      		rol r31
 2487 0014 E20F      		add r30,r18
 2488 0016 F31F      		adc r31,r19
 2489 0018 E050      		subi r30,lo8(-(led))
 2490 001a F040      		sbci r31,hi8(-(led))
 2491 001c 8183      		std Z+1,r24
 593:quantum/rgblight/rgblight.c ****     led[index].b = b;
 2492               		.loc 1 593 5 is_stmt 1 view .LVU527
 593:quantum/rgblight/rgblight.c ****     led[index].b = b;
 2493               		.loc 1 593 18 is_stmt 0 view .LVU528
 2494 001e 6083      		st Z,r22
 594:quantum/rgblight/rgblight.c **** #ifdef RGBW
 2495               		.loc 1 594 5 is_stmt 1 view .LVU529
 594:quantum/rgblight/rgblight.c **** #ifdef RGBW
 2496               		.loc 1 594 18 is_stmt 0 view .LVU530
 2497 0020 4283      		std Z+2,r20
 598:quantum/rgblight/rgblight.c **** }
 2498               		.loc 1 598 5 is_stmt 1 view .LVU531
 2499 0022 0C94 0000 		jmp rgblight_set
 2500               	.LVL160:
 2501               	.L105:
 2502               	/* epilogue start */
 599:quantum/rgblight/rgblight.c **** 
 2503               		.loc 1 599 1 is_stmt 0 view .LVU532
 2504 0026 0895      		ret
 2505               		.cfi_endproc
 2506               	.LFE158:
 2508               		.section	.text.rgblight_sethsv_at,"ax",@progbits
 2509               	.global	rgblight_sethsv_at
 2511               	rgblight_sethsv_at:
 2512               	.LVL161:
 2513               	.LFB159:
 601:quantum/rgblight/rgblight.c ****     if (!rgblight_config.enable) {
 2514               		.loc 1 601 79 is_stmt 1 view -0
 2515               		.cfi_startproc
 601:quantum/rgblight/rgblight.c ****     if (!rgblight_config.enable) {
 2516               		.loc 1 601 79 is_stmt 0 view .LVU534
 2517 0000 1F93      		push r17
 2518               	.LCFI52:
 2519               		.cfi_def_cfa_offset 3
 2520               		.cfi_offset 17, -2
 2521 0002 CF93      		push r28
 2522               	.LCFI53:
 2523               		.cfi_def_cfa_offset 4
 2524               		.cfi_offset 28, -3
 2525 0004 DF93      		push r29
 2526               	.LCFI54:
 2527               		.cfi_def_cfa_offset 5
 2528               		.cfi_offset 29, -4
 2529 0006 00D0      		rcall .
 2530 0008 0F92      		push __tmp_reg__
 2531               	.LCFI55:
 2532               		.cfi_def_cfa_offset 8
 2533 000a CDB7      		in r28,__SP_L__
 2534 000c DEB7      		in r29,__SP_H__
 2535               	.LCFI56:
 2536               		.cfi_def_cfa_register 28
 2537               	/* prologue: function */
 2538               	/* frame size = 3 */
 2539               	/* stack size = 6 */
 2540               	.L__stack_usage = 6
 2541 000e 122F      		mov r17,r18
 602:quantum/rgblight/rgblight.c ****         return;
 2542               		.loc 1 602 5 is_stmt 1 view .LVU535
 602:quantum/rgblight/rgblight.c ****         return;
 2543               		.loc 1 602 25 is_stmt 0 view .LVU536
 2544 0010 9091 0000 		lds r25,rgblight_config
 602:quantum/rgblight/rgblight.c ****         return;
 2545               		.loc 1 602 8 view .LVU537
 2546 0014 90FF      		sbrs r25,0
 2547 0016 00C0      		rjmp .L110
 606:quantum/rgblight/rgblight.c ****     sethsv(hue, sat, val, &tmp_led);
 2548               		.loc 1 606 5 is_stmt 1 view .LVU538
 607:quantum/rgblight/rgblight.c ****     rgblight_setrgb_at(tmp_led.r, tmp_led.g, tmp_led.b, index);
 2549               		.loc 1 607 5 view .LVU539
 2550               	.LVL162:
 2551               	.LBB83:
 2552               	.LBI83:
 154:quantum/rgblight/rgblight.c **** 
 2553               		.loc 1 154 6 view .LVU540
 2554               	.LBB84:
 154:quantum/rgblight/rgblight.c **** 
 2555               		.loc 1 154 70 view .LVU541
 2556 0018 9E01      		movw r18,r28
 2557               	.LVL163:
 154:quantum/rgblight/rgblight.c **** 
 2558               		.loc 1 154 70 is_stmt 0 view .LVU542
 2559 001a 2F5F      		subi r18,-1
 2560 001c 3F4F      		sbci r19,-1
 2561               	.LVL164:
 154:quantum/rgblight/rgblight.c **** 
 2562               		.loc 1 154 70 view .LVU543
 2563 001e 0E94 0000 		call sethsv_raw
 2564               	.LVL165:
 154:quantum/rgblight/rgblight.c **** 
 2565               		.loc 1 154 70 view .LVU544
 2566               	.LBE84:
 2567               	.LBE83:
 608:quantum/rgblight/rgblight.c **** }
 2568               		.loc 1 608 5 is_stmt 1 view .LVU545
 2569 0022 212F      		mov r18,r17
 2570 0024 4B81      		ldd r20,Y+3
 2571 0026 6981      		ldd r22,Y+1
 2572 0028 8A81      		ldd r24,Y+2
 2573               	/* epilogue start */
 609:quantum/rgblight/rgblight.c **** 
 2574               		.loc 1 609 1 is_stmt 0 view .LVU546
 2575 002a 0F90      		pop __tmp_reg__
 2576 002c 0F90      		pop __tmp_reg__
 2577 002e 0F90      		pop __tmp_reg__
 2578 0030 DF91      		pop r29
 2579 0032 CF91      		pop r28
 2580 0034 1F91      		pop r17
 2581               	.LVL166:
 608:quantum/rgblight/rgblight.c **** }
 2582               		.loc 1 608 5 view .LVU547
 2583 0036 0C94 0000 		jmp rgblight_setrgb_at
 2584               	.LVL167:
 2585               	.L110:
 2586               	/* epilogue start */
 609:quantum/rgblight/rgblight.c **** 
 2587               		.loc 1 609 1 view .LVU548
 2588 003a 0F90      		pop __tmp_reg__
 2589 003c 0F90      		pop __tmp_reg__
 2590 003e 0F90      		pop __tmp_reg__
 2591 0040 DF91      		pop r29
 2592 0042 CF91      		pop r28
 2593 0044 1F91      		pop r17
 2594               	.LVL168:
 609:quantum/rgblight/rgblight.c **** 
 2595               		.loc 1 609 1 view .LVU549
 2596 0046 0895      		ret
 2597               		.cfi_endproc
 2598               	.LFE159:
 2600               		.section	.text.rgblight_setrgb_range,"ax",@progbits
 2601               	.global	rgblight_setrgb_range
 2603               	rgblight_setrgb_range:
 2604               	.LVL169:
 2605               	.LFB161:
 623:quantum/rgblight/rgblight.c ****     if (!rgblight_config.enable || start < 0 || start >= end || end > RGBLED_NUM) {
 2606               		.loc 1 623 89 is_stmt 1 view -0
 2607               		.cfi_startproc
 623:quantum/rgblight/rgblight.c ****     if (!rgblight_config.enable || start < 0 || start >= end || end > RGBLED_NUM) {
 2608               		.loc 1 623 89 is_stmt 0 view .LVU551
 2609 0000 0F93      		push r16
 2610               	.LCFI57:
 2611               		.cfi_def_cfa_offset 3
 2612               		.cfi_offset 16, -2
 2613               	/* prologue: function */
 2614               	/* frame size = 0 */
 2615               	/* stack size = 1 */
 2616               	.L__stack_usage = 1
 624:quantum/rgblight/rgblight.c ****         return;
 2617               		.loc 1 624 5 is_stmt 1 view .LVU552
 624:quantum/rgblight/rgblight.c ****         return;
 2618               		.loc 1 624 25 is_stmt 0 view .LVU553
 2619 0002 9091 0000 		lds r25,rgblight_config
 624:quantum/rgblight/rgblight.c ****         return;
 2620               		.loc 1 624 8 view .LVU554
 2621 0006 90FF      		sbrs r25,0
 2622 0008 00C0      		rjmp .L112
 624:quantum/rgblight/rgblight.c ****         return;
 2623               		.loc 1 624 46 discriminator 1 view .LVU555
 2624 000a 2017      		cp r18,r16
 2625 000c 00F4      		brsh .L112
 624:quantum/rgblight/rgblight.c ****         return;
 2626               		.loc 1 624 62 discriminator 2 view .LVU556
 2627 000e 0330      		cpi r16,lo8(3)
 2628 0010 00F4      		brsh .L112
 2629               	.LVL170:
 2630               	.LBB85:
 629:quantum/rgblight/rgblight.c ****         led[i].g = g;
 2631               		.loc 1 629 9 is_stmt 1 view .LVU557
 629:quantum/rgblight/rgblight.c ****         led[i].g = g;
 2632               		.loc 1 629 15 is_stmt 0 view .LVU558
 2633 0012 A22F      		mov r26,r18
 2634 0014 B0E0      		ldi r27,0
 629:quantum/rgblight/rgblight.c ****         led[i].g = g;
 2635               		.loc 1 629 18 view .LVU559
 2636 0016 FD01      		movw r30,r26
 2637 0018 EE0F      		lsl r30
 2638 001a FF1F      		rol r31
 2639 001c EA0F      		add r30,r26
 2640 001e FB1F      		adc r31,r27
 2641 0020 E050      		subi r30,lo8(-(led))
 2642 0022 F040      		sbci r31,hi8(-(led))
 2643 0024 8183      		std Z+1,r24
 630:quantum/rgblight/rgblight.c ****         led[i].b = b;
 2644               		.loc 1 630 9 is_stmt 1 view .LVU560
 630:quantum/rgblight/rgblight.c ****         led[i].b = b;
 2645               		.loc 1 630 18 is_stmt 0 view .LVU561
 2646 0026 6083      		st Z,r22
 631:quantum/rgblight/rgblight.c **** #ifdef RGBW
 2647               		.loc 1 631 9 is_stmt 1 view .LVU562
 631:quantum/rgblight/rgblight.c **** #ifdef RGBW
 2648               		.loc 1 631 18 is_stmt 0 view .LVU563
 2649 0028 4283      		std Z+2,r20
 628:quantum/rgblight/rgblight.c ****         led[i].r = r;
 2650               		.loc 1 628 39 is_stmt 1 view .LVU564
 2651               	.LVL171:
 628:quantum/rgblight/rgblight.c ****         led[i].r = r;
 2652               		.loc 1 628 31 view .LVU565
 628:quantum/rgblight/rgblight.c ****         led[i].r = r;
 2653               		.loc 1 628 39 is_stmt 0 view .LVU566
 2654 002a 2F5F      		subi r18,lo8(-(1))
 2655               	.LVL172:
 628:quantum/rgblight/rgblight.c ****         led[i].r = r;
 2656               		.loc 1 628 31 view .LVU567
 2657 002c 2017      		cp r18,r16
 2658 002e 00F4      		brsh .L114
 2659               	.LVL173:
 629:quantum/rgblight/rgblight.c ****         led[i].g = g;
 2660               		.loc 1 629 9 is_stmt 1 discriminator 3 view .LVU568
 629:quantum/rgblight/rgblight.c ****         led[i].g = g;
 2661               		.loc 1 629 18 is_stmt 0 discriminator 3 view .LVU569
 2662 0030 8093 0000 		sts led+4,r24
 630:quantum/rgblight/rgblight.c ****         led[i].b = b;
 2663               		.loc 1 630 9 is_stmt 1 discriminator 3 view .LVU570
 630:quantum/rgblight/rgblight.c ****         led[i].b = b;
 2664               		.loc 1 630 18 is_stmt 0 discriminator 3 view .LVU571
 2665 0034 6093 0000 		sts led+3,r22
 631:quantum/rgblight/rgblight.c **** #ifdef RGBW
 2666               		.loc 1 631 9 is_stmt 1 discriminator 3 view .LVU572
 631:quantum/rgblight/rgblight.c **** #ifdef RGBW
 2667               		.loc 1 631 18 is_stmt 0 discriminator 3 view .LVU573
 2668 0038 4093 0000 		sts led+5,r20
 628:quantum/rgblight/rgblight.c ****         led[i].r = r;
 2669               		.loc 1 628 39 is_stmt 1 discriminator 3 view .LVU574
 2670               	.LVL174:
 628:quantum/rgblight/rgblight.c ****         led[i].r = r;
 2671               		.loc 1 628 31 discriminator 3 view .LVU575
 2672               	.L114:
 628:quantum/rgblight/rgblight.c ****         led[i].r = r;
 2673               		.loc 1 628 31 is_stmt 0 discriminator 3 view .LVU576
 2674               	.LBE85:
 636:quantum/rgblight/rgblight.c ****     wait_ms(1);
 2675               		.loc 1 636 5 is_stmt 1 view .LVU577
 2676 003c 0E94 0000 		call rgblight_set
 2677               	.LVL175:
 637:quantum/rgblight/rgblight.c **** }
 2678               		.loc 1 637 5 view .LVU578
 637:quantum/rgblight/rgblight.c **** }
 2679               		.loc 1 637 5 view .LVU579
 637:quantum/rgblight/rgblight.c **** }
 2680               		.loc 1 637 5 view .LVU580
 2681               	.LBB86:
 2682               	.LBI86:
 2683               		.file 3 "/usr/avr/include/util/delay.h"
   1:/usr/avr/include/util/delay.h **** /* Copyright (c) 2002, Marek Michalkiewicz
   2:/usr/avr/include/util/delay.h ****    Copyright (c) 2004,2005,2007 Joerg Wunsch
   3:/usr/avr/include/util/delay.h ****    Copyright (c) 2007  Florin-Viorel Petrov
   4:/usr/avr/include/util/delay.h ****    All rights reserved.
   5:/usr/avr/include/util/delay.h **** 
   6:/usr/avr/include/util/delay.h ****    Redistribution and use in source and binary forms, with or without
   7:/usr/avr/include/util/delay.h ****    modification, are permitted provided that the following conditions are met:
   8:/usr/avr/include/util/delay.h **** 
   9:/usr/avr/include/util/delay.h ****    * Redistributions of source code must retain the above copyright
  10:/usr/avr/include/util/delay.h ****      notice, this list of conditions and the following disclaimer.
  11:/usr/avr/include/util/delay.h **** 
  12:/usr/avr/include/util/delay.h ****    * Redistributions in binary form must reproduce the above copyright
  13:/usr/avr/include/util/delay.h ****      notice, this list of conditions and the following disclaimer in
  14:/usr/avr/include/util/delay.h ****      the documentation and/or other materials provided with the
  15:/usr/avr/include/util/delay.h ****      distribution.
  16:/usr/avr/include/util/delay.h **** 
  17:/usr/avr/include/util/delay.h ****    * Neither the name of the copyright holders nor the names of
  18:/usr/avr/include/util/delay.h ****      contributors may be used to endorse or promote products derived
  19:/usr/avr/include/util/delay.h ****      from this software without specific prior written permission.
  20:/usr/avr/include/util/delay.h **** 
  21:/usr/avr/include/util/delay.h ****   THIS SOFTWARE IS PROVIDED BY THE COPYRIGHT HOLDERS AND CONTRIBUTORS "AS IS"
  22:/usr/avr/include/util/delay.h ****   AND ANY EXPRESS OR IMPLIED WARRANTIES, INCLUDING, BUT NOT LIMITED TO, THE
  23:/usr/avr/include/util/delay.h ****   IMPLIED WARRANTIES OF MERCHANTABILITY AND FITNESS FOR A PARTICULAR PURPOSE
  24:/usr/avr/include/util/delay.h ****   ARE DISCLAIMED. IN NO EVENT SHALL THE COPYRIGHT OWNER OR CONTRIBUTORS BE
  25:/usr/avr/include/util/delay.h ****   LIABLE FOR ANY DIRECT, INDIRECT, INCIDENTAL, SPECIAL, EXEMPLARY, OR
  26:/usr/avr/include/util/delay.h ****   CONSEQUENTIAL DAMAGES (INCLUDING, BUT NOT LIMITED TO, PROCUREMENT OF
  27:/usr/avr/include/util/delay.h ****   SUBSTITUTE GOODS OR SERVICES; LOSS OF USE, DATA, OR PROFITS; OR BUSINESS
  28:/usr/avr/include/util/delay.h ****   INTERRUPTION) HOWEVER CAUSED AND ON ANY THEORY OF LIABILITY, WHETHER IN
  29:/usr/avr/include/util/delay.h ****   CONTRACT, STRICT LIABILITY, OR TORT (INCLUDING NEGLIGENCE OR OTHERWISE)
  30:/usr/avr/include/util/delay.h ****   ARISING IN ANY WAY OUT OF THE USE OF THIS SOFTWARE, EVEN IF ADVISED OF THE
  31:/usr/avr/include/util/delay.h ****   POSSIBILITY OF SUCH DAMAGE. */
  32:/usr/avr/include/util/delay.h **** 
  33:/usr/avr/include/util/delay.h **** /* $Id: delay.h.in 2506 2016-02-08 10:05:45Z joerg_wunsch $ */
  34:/usr/avr/include/util/delay.h **** 
  35:/usr/avr/include/util/delay.h **** #ifndef _UTIL_DELAY_H_
  36:/usr/avr/include/util/delay.h **** #define _UTIL_DELAY_H_ 1
  37:/usr/avr/include/util/delay.h **** 
  38:/usr/avr/include/util/delay.h **** #ifndef __DOXYGEN__
  39:/usr/avr/include/util/delay.h **** #  ifndef __HAS_DELAY_CYCLES
  40:/usr/avr/include/util/delay.h **** #    define __HAS_DELAY_CYCLES 1
  41:/usr/avr/include/util/delay.h **** #  endif
  42:/usr/avr/include/util/delay.h **** #endif  /* __DOXYGEN__ */
  43:/usr/avr/include/util/delay.h **** 
  44:/usr/avr/include/util/delay.h **** #include <inttypes.h>
  45:/usr/avr/include/util/delay.h **** #include <util/delay_basic.h>
  46:/usr/avr/include/util/delay.h **** #include <math.h>
  47:/usr/avr/include/util/delay.h **** 
  48:/usr/avr/include/util/delay.h **** /** \file */
  49:/usr/avr/include/util/delay.h **** /** \defgroup util_delay <util/delay.h>: Convenience functions for busy-wait delay loops
  50:/usr/avr/include/util/delay.h ****     \code
  51:/usr/avr/include/util/delay.h ****     #define F_CPU 1000000UL  // 1 MHz
  52:/usr/avr/include/util/delay.h ****     //#define F_CPU 14.7456E6
  53:/usr/avr/include/util/delay.h ****     #include <util/delay.h>
  54:/usr/avr/include/util/delay.h ****     \endcode
  55:/usr/avr/include/util/delay.h **** 
  56:/usr/avr/include/util/delay.h ****     \note As an alternative method, it is possible to pass the
  57:/usr/avr/include/util/delay.h ****     F_CPU macro down to the compiler from the Makefile.
  58:/usr/avr/include/util/delay.h ****     Obviously, in that case, no \c \#define statement should be
  59:/usr/avr/include/util/delay.h ****     used.
  60:/usr/avr/include/util/delay.h **** 
  61:/usr/avr/include/util/delay.h ****     The functions in this header file are wrappers around the basic
  62:/usr/avr/include/util/delay.h ****     busy-wait functions from <util/delay_basic.h>.  They are meant as
  63:/usr/avr/include/util/delay.h ****     convenience functions where actual time values can be specified
  64:/usr/avr/include/util/delay.h ****     rather than a number of cycles to wait for.  The idea behind is
  65:/usr/avr/include/util/delay.h ****     that compile-time constant expressions will be eliminated by
  66:/usr/avr/include/util/delay.h ****     compiler optimization so floating-point expressions can be used
  67:/usr/avr/include/util/delay.h ****     to calculate the number of delay cycles needed based on the CPU
  68:/usr/avr/include/util/delay.h ****     frequency passed by the macro F_CPU.
  69:/usr/avr/include/util/delay.h **** 
  70:/usr/avr/include/util/delay.h ****     \note In order for these functions to work as intended, compiler
  71:/usr/avr/include/util/delay.h ****     optimizations <em>must</em> be enabled, and the delay time
  72:/usr/avr/include/util/delay.h ****     <em>must</em> be an expression that is a known constant at
  73:/usr/avr/include/util/delay.h ****     compile-time.  If these requirements are not met, the resulting
  74:/usr/avr/include/util/delay.h ****     delay will be much longer (and basically unpredictable), and
  75:/usr/avr/include/util/delay.h ****     applications that otherwise do not use floating-point calculations
  76:/usr/avr/include/util/delay.h ****     will experience severe code bloat by the floating-point library
  77:/usr/avr/include/util/delay.h ****     routines linked into the application.
  78:/usr/avr/include/util/delay.h **** 
  79:/usr/avr/include/util/delay.h ****     The functions available allow the specification of microsecond, and
  80:/usr/avr/include/util/delay.h ****     millisecond delays directly, using the application-supplied macro
  81:/usr/avr/include/util/delay.h ****     F_CPU as the CPU clock frequency (in Hertz).
  82:/usr/avr/include/util/delay.h **** 
  83:/usr/avr/include/util/delay.h **** */
  84:/usr/avr/include/util/delay.h **** 
  85:/usr/avr/include/util/delay.h **** #if !defined(__DOXYGEN__)
  86:/usr/avr/include/util/delay.h **** static __inline__ void _delay_us(double __us) __attribute__((__always_inline__));
  87:/usr/avr/include/util/delay.h **** static __inline__ void _delay_ms(double __ms) __attribute__((__always_inline__));
  88:/usr/avr/include/util/delay.h **** #endif
  89:/usr/avr/include/util/delay.h **** 
  90:/usr/avr/include/util/delay.h **** #ifndef F_CPU
  91:/usr/avr/include/util/delay.h **** /* prevent compiler error by supplying a default */
  92:/usr/avr/include/util/delay.h **** # warning "F_CPU not defined for <util/delay.h>"
  93:/usr/avr/include/util/delay.h **** /** \ingroup util_delay
  94:/usr/avr/include/util/delay.h ****     \def F_CPU
  95:/usr/avr/include/util/delay.h ****     \brief CPU frequency in Hz
  96:/usr/avr/include/util/delay.h **** 
  97:/usr/avr/include/util/delay.h ****     The macro F_CPU specifies the CPU frequency to be considered by
  98:/usr/avr/include/util/delay.h ****     the delay macros.  This macro is normally supplied by the
  99:/usr/avr/include/util/delay.h ****     environment (e.g. from within a project header, or the project's
 100:/usr/avr/include/util/delay.h ****     Makefile).  The value 1 MHz here is only provided as a "vanilla"
 101:/usr/avr/include/util/delay.h ****     fallback if no such user-provided definition could be found.
 102:/usr/avr/include/util/delay.h **** 
 103:/usr/avr/include/util/delay.h ****     In terms of the delay functions, the CPU frequency can be given as
 104:/usr/avr/include/util/delay.h ****     a floating-point constant (e.g. 3.6864E6 for 3.6864 MHz).
 105:/usr/avr/include/util/delay.h ****     However, the macros in <util/setbaud.h> require it to be an
 106:/usr/avr/include/util/delay.h ****     integer value.
 107:/usr/avr/include/util/delay.h ****  */
 108:/usr/avr/include/util/delay.h **** # define F_CPU 1000000UL
 109:/usr/avr/include/util/delay.h **** #endif
 110:/usr/avr/include/util/delay.h **** 
 111:/usr/avr/include/util/delay.h **** #ifndef __OPTIMIZE__
 112:/usr/avr/include/util/delay.h **** # warning "Compiler optimizations disabled; functions from <util/delay.h> won't work as designed"
 113:/usr/avr/include/util/delay.h **** #endif
 114:/usr/avr/include/util/delay.h **** 
 115:/usr/avr/include/util/delay.h **** #if __HAS_DELAY_CYCLES && defined(__OPTIMIZE__) && \
 116:/usr/avr/include/util/delay.h ****   !defined(__DELAY_BACKWARD_COMPATIBLE__) &&	   \
 117:/usr/avr/include/util/delay.h ****   __STDC_HOSTED__
 118:/usr/avr/include/util/delay.h **** #  include <math.h>
 119:/usr/avr/include/util/delay.h **** #endif
 120:/usr/avr/include/util/delay.h **** 
 121:/usr/avr/include/util/delay.h **** /**
 122:/usr/avr/include/util/delay.h ****    \ingroup util_delay
 123:/usr/avr/include/util/delay.h **** 
 124:/usr/avr/include/util/delay.h ****    Perform a delay of \c __ms milliseconds, using _delay_loop_2().
 125:/usr/avr/include/util/delay.h **** 
 126:/usr/avr/include/util/delay.h ****    The macro F_CPU is supposed to be defined to a
 127:/usr/avr/include/util/delay.h ****    constant defining the CPU clock frequency (in Hertz).
 128:/usr/avr/include/util/delay.h **** 
 129:/usr/avr/include/util/delay.h ****    The maximal possible delay is 262.14 ms / F_CPU in MHz.
 130:/usr/avr/include/util/delay.h **** 
 131:/usr/avr/include/util/delay.h ****    When the user request delay which exceed the maximum possible one,
 132:/usr/avr/include/util/delay.h ****    _delay_ms() provides a decreased resolution functionality. In this
 133:/usr/avr/include/util/delay.h ****    mode _delay_ms() will work with a resolution of 1/10 ms, providing
 134:/usr/avr/include/util/delay.h ****    delays up to 6.5535 seconds (independent from CPU frequency).  The
 135:/usr/avr/include/util/delay.h ****    user will not be informed about decreased resolution.
 136:/usr/avr/include/util/delay.h **** 
 137:/usr/avr/include/util/delay.h ****    If the avr-gcc toolchain has __builtin_avr_delay_cycles()
 138:/usr/avr/include/util/delay.h ****    support, maximal possible delay is 4294967.295 ms/ F_CPU in MHz. For
 139:/usr/avr/include/util/delay.h ****    values greater than the maximal possible delay, overflows results in
 140:/usr/avr/include/util/delay.h ****    no delay i.e., 0ms.
 141:/usr/avr/include/util/delay.h **** 
 142:/usr/avr/include/util/delay.h ****    Conversion of \c __ms into clock cycles may not always result in
 143:/usr/avr/include/util/delay.h ****    integer.  By default, the clock cycles rounded up to next
 144:/usr/avr/include/util/delay.h ****    integer. This ensures that the user gets at least \c __ms
 145:/usr/avr/include/util/delay.h ****    microseconds of delay.
 146:/usr/avr/include/util/delay.h **** 
 147:/usr/avr/include/util/delay.h ****    Alternatively, by defining the macro \c __DELAY_ROUND_DOWN__, or
 148:/usr/avr/include/util/delay.h ****    \c __DELAY_ROUND_CLOSEST__, before including this header file, the
 149:/usr/avr/include/util/delay.h ****    algorithm can be made to round down, or round to closest integer,
 150:/usr/avr/include/util/delay.h ****    respectively.
 151:/usr/avr/include/util/delay.h **** 
 152:/usr/avr/include/util/delay.h ****    \note
 153:/usr/avr/include/util/delay.h **** 
 154:/usr/avr/include/util/delay.h ****    The implementation of _delay_ms() based on
 155:/usr/avr/include/util/delay.h ****    __builtin_avr_delay_cycles() is not backward compatible with older
 156:/usr/avr/include/util/delay.h ****    implementations.  In order to get functionality backward compatible
 157:/usr/avr/include/util/delay.h ****    with previous versions, the macro \c "__DELAY_BACKWARD_COMPATIBLE__"
 158:/usr/avr/include/util/delay.h ****    must be defined before including this header file. Also, the
 159:/usr/avr/include/util/delay.h ****    backward compatible algorithm will be chosen if the code is
 160:/usr/avr/include/util/delay.h ****    compiled in a <em>freestanding environment</em> (GCC option
 161:/usr/avr/include/util/delay.h ****    \c -ffreestanding), as the math functions required for rounding are
 162:/usr/avr/include/util/delay.h ****    not available to the compiler then.
 163:/usr/avr/include/util/delay.h **** 
 164:/usr/avr/include/util/delay.h ****  */
 165:/usr/avr/include/util/delay.h **** void
 166:/usr/avr/include/util/delay.h **** _delay_ms(double __ms)
 2684               		.loc 3 166 1 view .LVU581
 2685               	.LBB87:
 167:/usr/avr/include/util/delay.h **** {
 168:/usr/avr/include/util/delay.h **** 	double __tmp ;
 2686               		.loc 3 168 2 view .LVU582
 169:/usr/avr/include/util/delay.h **** #if __HAS_DELAY_CYCLES && defined(__OPTIMIZE__) && \
 170:/usr/avr/include/util/delay.h ****   !defined(__DELAY_BACKWARD_COMPATIBLE__) &&	   \
 171:/usr/avr/include/util/delay.h ****   __STDC_HOSTED__
 172:/usr/avr/include/util/delay.h **** 	uint32_t __ticks_dc;
 2687               		.loc 3 172 2 view .LVU583
 173:/usr/avr/include/util/delay.h **** 	extern void __builtin_avr_delay_cycles(unsigned long);
 2688               		.loc 3 173 2 view .LVU584
 174:/usr/avr/include/util/delay.h **** 	__tmp = ((F_CPU) / 1e3) * __ms;
 2689               		.loc 3 174 2 view .LVU585
 175:/usr/avr/include/util/delay.h **** 
 176:/usr/avr/include/util/delay.h **** 	#if defined(__DELAY_ROUND_DOWN__)
 177:/usr/avr/include/util/delay.h **** 		__ticks_dc = (uint32_t)fabs(__tmp);
 178:/usr/avr/include/util/delay.h **** 
 179:/usr/avr/include/util/delay.h **** 	#elif defined(__DELAY_ROUND_CLOSEST__)
 180:/usr/avr/include/util/delay.h **** 		__ticks_dc = (uint32_t)(fabs(__tmp)+0.5);
 181:/usr/avr/include/util/delay.h **** 
 182:/usr/avr/include/util/delay.h **** 	#else
 183:/usr/avr/include/util/delay.h **** 		//round up by default
 184:/usr/avr/include/util/delay.h **** 		__ticks_dc = (uint32_t)(ceil(fabs(__tmp)));
 2690               		.loc 3 184 3 view .LVU586
 185:/usr/avr/include/util/delay.h **** 	#endif
 186:/usr/avr/include/util/delay.h **** 
 187:/usr/avr/include/util/delay.h **** 	__builtin_avr_delay_cycles(__ticks_dc);
 2691               		.loc 3 187 2 view .LVU587
 2692 0040 8FE9      		ldi r24,lo8(3999)
 2693 0042 9FE0      		ldi r25,hi8(3999)
 2694 0044 0197      	1:	sbiw r24,1
 2695 0046 01F4      		brne 1b
 2696 0048 00C0      		rjmp .
 2697 004a 0000      		nop
 2698               	.LVL176:
 2699               		.loc 3 187 2 is_stmt 0 view .LVU588
 2700               	.LBE87:
 2701               	.LBE86:
 637:quantum/rgblight/rgblight.c **** }
 2702               		.loc 1 637 5 is_stmt 1 view .LVU589
 2703               	.L112:
 2704               	/* epilogue start */
 638:quantum/rgblight/rgblight.c **** 
 2705               		.loc 1 638 1 is_stmt 0 view .LVU590
 2706 004c 0F91      		pop r16
 2707               	.LVL177:
 638:quantum/rgblight/rgblight.c **** 
 2708               		.loc 1 638 1 view .LVU591
 2709 004e 0895      		ret
 2710               		.cfi_endproc
 2711               	.LFE161:
 2713               		.section	.text.rgblight_sethsv_range,"ax",@progbits
 2714               	.global	rgblight_sethsv_range
 2716               	rgblight_sethsv_range:
 2717               	.LVL178:
 2718               	.LFB162:
 640:quantum/rgblight/rgblight.c ****     if (!rgblight_config.enable) {
 2719               		.loc 1 640 95 is_stmt 1 view -0
 2720               		.cfi_startproc
 640:quantum/rgblight/rgblight.c ****     if (!rgblight_config.enable) {
 2721               		.loc 1 640 95 is_stmt 0 view .LVU593
 2722 0000 0F93      		push r16
 2723               	.LCFI58:
 2724               		.cfi_def_cfa_offset 3
 2725               		.cfi_offset 16, -2
 2726 0002 1F93      		push r17
 2727               	.LCFI59:
 2728               		.cfi_def_cfa_offset 4
 2729               		.cfi_offset 17, -3
 2730 0004 CF93      		push r28
 2731               	.LCFI60:
 2732               		.cfi_def_cfa_offset 5
 2733               		.cfi_offset 28, -4
 2734 0006 DF93      		push r29
 2735               	.LCFI61:
 2736               		.cfi_def_cfa_offset 6
 2737               		.cfi_offset 29, -5
 2738 0008 00D0      		rcall .
 2739 000a 0F92      		push __tmp_reg__
 2740               	.LCFI62:
 2741               		.cfi_def_cfa_offset 9
 2742 000c CDB7      		in r28,__SP_L__
 2743 000e DEB7      		in r29,__SP_H__
 2744               	.LCFI63:
 2745               		.cfi_def_cfa_register 28
 2746               	/* prologue: function */
 2747               	/* frame size = 3 */
 2748               	/* stack size = 7 */
 2749               	.L__stack_usage = 7
 2750 0010 122F      		mov r17,r18
 641:quantum/rgblight/rgblight.c ****         return;
 2751               		.loc 1 641 5 is_stmt 1 view .LVU594
 641:quantum/rgblight/rgblight.c ****         return;
 2752               		.loc 1 641 25 is_stmt 0 view .LVU595
 2753 0012 9091 0000 		lds r25,rgblight_config
 641:quantum/rgblight/rgblight.c ****         return;
 2754               		.loc 1 641 8 view .LVU596
 2755 0016 90FF      		sbrs r25,0
 2756 0018 00C0      		rjmp .L118
 645:quantum/rgblight/rgblight.c ****     sethsv(hue, sat, val, &tmp_led);
 2757               		.loc 1 645 5 is_stmt 1 view .LVU597
 646:quantum/rgblight/rgblight.c ****     rgblight_setrgb_range(tmp_led.r, tmp_led.g, tmp_led.b, start, end);
 2758               		.loc 1 646 5 view .LVU598
 2759               	.LVL179:
 2760               	.LBB90:
 2761               	.LBI90:
 154:quantum/rgblight/rgblight.c **** 
 2762               		.loc 1 154 6 view .LVU599
 2763               	.LBB91:
 154:quantum/rgblight/rgblight.c **** 
 2764               		.loc 1 154 70 view .LVU600
 2765 001a 9E01      		movw r18,r28
 2766               	.LVL180:
 154:quantum/rgblight/rgblight.c **** 
 2767               		.loc 1 154 70 is_stmt 0 view .LVU601
 2768 001c 2F5F      		subi r18,-1
 2769 001e 3F4F      		sbci r19,-1
 2770               	.LVL181:
 154:quantum/rgblight/rgblight.c **** 
 2771               		.loc 1 154 70 view .LVU602
 2772 0020 0E94 0000 		call sethsv_raw
 2773               	.LVL182:
 154:quantum/rgblight/rgblight.c **** 
 2774               		.loc 1 154 70 view .LVU603
 2775               	.LBE91:
 2776               	.LBE90:
 647:quantum/rgblight/rgblight.c **** }
 2777               		.loc 1 647 5 is_stmt 1 view .LVU604
 2778 0024 212F      		mov r18,r17
 2779 0026 4B81      		ldd r20,Y+3
 2780 0028 6981      		ldd r22,Y+1
 2781 002a 8A81      		ldd r24,Y+2
 2782 002c 0E94 0000 		call rgblight_setrgb_range
 2783               	.LVL183:
 2784               	.L118:
 2785               	/* epilogue start */
 648:quantum/rgblight/rgblight.c **** 
 2786               		.loc 1 648 1 is_stmt 0 view .LVU605
 2787 0030 0F90      		pop __tmp_reg__
 2788 0032 0F90      		pop __tmp_reg__
 2789 0034 0F90      		pop __tmp_reg__
 2790 0036 DF91      		pop r29
 2791 0038 CF91      		pop r28
 2792 003a 1F91      		pop r17
 2793               	.LVL184:
 648:quantum/rgblight/rgblight.c **** 
 2794               		.loc 1 648 1 view .LVU606
 2795 003c 0F91      		pop r16
 2796               	.LVL185:
 648:quantum/rgblight/rgblight.c **** 
 2797               		.loc 1 648 1 view .LVU607
 2798 003e 0895      		ret
 2799               		.cfi_endproc
 2800               	.LFE162:
 2802               		.section	.text.rgblight_sethsv_master,"ax",@progbits
 2803               	.global	rgblight_sethsv_master
 2805               	rgblight_sethsv_master:
 2806               	.LVL186:
 2807               	.LFB165:
 655:quantum/rgblight/rgblight.c **** 
 2808               		.loc 1 655 68 is_stmt 1 view -0
 2809               		.cfi_startproc
 655:quantum/rgblight/rgblight.c **** 
 2810               		.loc 1 655 68 is_stmt 0 view .LVU609
 2811 0000 0F93      		push r16
 2812               	.LCFI64:
 2813               		.cfi_def_cfa_offset 3
 2814               		.cfi_offset 16, -2
 2815               	/* prologue: function */
 2816               	/* frame size = 0 */
 2817               	/* stack size = 1 */
 2818               	.L__stack_usage = 1
 655:quantum/rgblight/rgblight.c **** 
 2819               		.loc 1 655 70 is_stmt 1 view .LVU610
 2820 0002 01E0      		ldi r16,lo8(1)
 2821 0004 20E0      		ldi r18,0
 2822 0006 0E94 0000 		call rgblight_sethsv_range
 2823               	.LVL187:
 2824               	/* epilogue start */
 655:quantum/rgblight/rgblight.c **** 
 2825               		.loc 1 655 136 is_stmt 0 view .LVU611
 2826 000a 0F91      		pop r16
 2827 000c 0895      		ret
 2828               		.cfi_endproc
 2829               	.LFE165:
 2831               		.section	.text.rgblight_sethsv_slave,"ax",@progbits
 2832               	.global	rgblight_sethsv_slave
 2834               	rgblight_sethsv_slave:
 2835               	.LVL188:
 2836               	.LFB166:
 657:quantum/rgblight/rgblight.c **** #endif  // ifndef RGBLIGHT_SPLIT
 2837               		.loc 1 657 67 is_stmt 1 view -0
 2838               		.cfi_startproc
 657:quantum/rgblight/rgblight.c **** #endif  // ifndef RGBLIGHT_SPLIT
 2839               		.loc 1 657 67 is_stmt 0 view .LVU613
 2840 0000 0F93      		push r16
 2841               	.LCFI65:
 2842               		.cfi_def_cfa_offset 3
 2843               		.cfi_offset 16, -2
 2844               	/* prologue: function */
 2845               	/* frame size = 0 */
 2846               	/* stack size = 1 */
 2847               	.L__stack_usage = 1
 657:quantum/rgblight/rgblight.c **** #endif  // ifndef RGBLIGHT_SPLIT
 2848               		.loc 1 657 69 is_stmt 1 view .LVU614
 2849 0002 02E0      		ldi r16,lo8(2)
 2850 0004 21E0      		ldi r18,lo8(1)
 2851 0006 0E94 0000 		call rgblight_sethsv_range
 2852               	.LVL189:
 2853               	/* epilogue start */
 657:quantum/rgblight/rgblight.c **** #endif  // ifndef RGBLIGHT_SPLIT
 2854               		.loc 1 657 153 is_stmt 0 view .LVU615
 2855 000a 0F91      		pop r16
 2856 000c 0895      		ret
 2857               		.cfi_endproc
 2858               	.LFE166:
 2860               		.section	.text.rgblight_setrgb_master,"ax",@progbits
 2861               	.global	rgblight_setrgb_master
 2863               	rgblight_setrgb_master:
 2864               	.LVL190:
 2865               	.LFB163:
 651:quantum/rgblight/rgblight.c **** 
 2866               		.loc 1 651 62 is_stmt 1 view -0
 2867               		.cfi_startproc
 651:quantum/rgblight/rgblight.c **** 
 2868               		.loc 1 651 62 is_stmt 0 view .LVU617
 2869 0000 0F93      		push r16
 2870               	.LCFI66:
 2871               		.cfi_def_cfa_offset 3
 2872               		.cfi_offset 16, -2
 2873               	/* prologue: function */
 2874               	/* frame size = 0 */
 2875               	/* stack size = 1 */
 2876               	.L__stack_usage = 1
 651:quantum/rgblight/rgblight.c **** 
 2877               		.loc 1 651 64 is_stmt 1 view .LVU618
 2878 0002 01E0      		ldi r16,lo8(1)
 2879 0004 20E0      		ldi r18,0
 2880 0006 0E94 0000 		call rgblight_setrgb_range
 2881               	.LVL191:
 2882               	/* epilogue start */
 651:quantum/rgblight/rgblight.c **** 
 2883               		.loc 1 651 124 is_stmt 0 view .LVU619
 2884 000a 0F91      		pop r16
 2885 000c 0895      		ret
 2886               		.cfi_endproc
 2887               	.LFE163:
 2889               		.section	.text.rgblight_setrgb_slave,"ax",@progbits
 2890               	.global	rgblight_setrgb_slave
 2892               	rgblight_setrgb_slave:
 2893               	.LVL192:
 2894               	.LFB164:
 653:quantum/rgblight/rgblight.c **** 
 2895               		.loc 1 653 61 is_stmt 1 view -0
 2896               		.cfi_startproc
 653:quantum/rgblight/rgblight.c **** 
 2897               		.loc 1 653 61 is_stmt 0 view .LVU621
 2898 0000 0F93      		push r16
 2899               	.LCFI67:
 2900               		.cfi_def_cfa_offset 3
 2901               		.cfi_offset 16, -2
 2902               	/* prologue: function */
 2903               	/* frame size = 0 */
 2904               	/* stack size = 1 */
 2905               	.L__stack_usage = 1
 653:quantum/rgblight/rgblight.c **** 
 2906               		.loc 1 653 63 is_stmt 1 view .LVU622
 2907 0002 02E0      		ldi r16,lo8(2)
 2908 0004 21E0      		ldi r18,lo8(1)
 2909 0006 0E94 0000 		call rgblight_setrgb_range
 2910               	.LVL193:
 2911               	/* epilogue start */
 653:quantum/rgblight/rgblight.c **** 
 2912               		.loc 1 653 141 is_stmt 0 view .LVU623
 2913 000a 0F91      		pop r16
 2914 000c 0895      		ret
 2915               		.cfi_endproc
 2916               	.LFE164:
 2918               		.section	.text.rgblight_effect_rainbow_swirl,"ax",@progbits
 2919               	.global	rgblight_effect_rainbow_swirl
 2921               	rgblight_effect_rainbow_swirl:
 2922               	.LVL194:
 2923               	.LFB179:
1102:quantum/rgblight/rgblight.c ****     uint8_t hue;
 2924               		.loc 1 1102 62 is_stmt 1 view -0
 2925               		.cfi_startproc
1102:quantum/rgblight/rgblight.c ****     uint8_t hue;
 2926               		.loc 1 1102 62 is_stmt 0 view .LVU625
 2927 0000 EF92      		push r14
 2928               	.LCFI68:
 2929               		.cfi_def_cfa_offset 3
 2930               		.cfi_offset 14, -2
 2931 0002 FF92      		push r15
 2932               	.LCFI69:
 2933               		.cfi_def_cfa_offset 4
 2934               		.cfi_offset 15, -3
 2935 0004 1F93      		push r17
 2936               	.LCFI70:
 2937               		.cfi_def_cfa_offset 5
 2938               		.cfi_offset 17, -4
 2939 0006 CF93      		push r28
 2940               	.LCFI71:
 2941               		.cfi_def_cfa_offset 6
 2942               		.cfi_offset 28, -5
 2943 0008 DF93      		push r29
 2944               	.LCFI72:
 2945               		.cfi_def_cfa_offset 7
 2946               		.cfi_offset 29, -6
 2947               	/* prologue: function */
 2948               	/* frame size = 0 */
 2949               	/* stack size = 5 */
 2950               	.L__stack_usage = 5
 2951 000a EC01      		movw r28,r24
1103:quantum/rgblight/rgblight.c ****     uint8_t i;
 2952               		.loc 1 1103 5 is_stmt 1 view .LVU626
1104:quantum/rgblight/rgblight.c **** 
 2953               		.loc 1 1104 5 view .LVU627
1106:quantum/rgblight/rgblight.c ****         hue = (RGBLIGHT_RAINBOW_SWIRL_RANGE / rgblight_ranges.effect_num_leds * i + anim->current_h
 2954               		.loc 1 1106 5 view .LVU628
 2955               	.LVL195:
1106:quantum/rgblight/rgblight.c ****         hue = (RGBLIGHT_RAINBOW_SWIRL_RANGE / rgblight_ranges.effect_num_leds * i + anim->current_h
 2956               		.loc 1 1106 12 is_stmt 0 view .LVU629
 2957 000c 10E0      		ldi r17,0
1107:quantum/rgblight/rgblight.c ****         sethsv(hue, rgblight_config.sat, rgblight_config.val, (LED_TYPE *)&led[i + rgblight_ranges.
 2958               		.loc 1 1107 45 view .LVU630
 2959 000e EE24      		clr r14
 2960 0010 EA94      		dec r14
 2961 0012 F12C      		mov r15,__zero_reg__
 2962               	.LVL196:
 2963               	.L128:
1106:quantum/rgblight/rgblight.c ****         hue = (RGBLIGHT_RAINBOW_SWIRL_RANGE / rgblight_ranges.effect_num_leds * i + anim->current_h
 2964               		.loc 1 1106 19 is_stmt 1 discriminator 1 view .LVU631
1106:quantum/rgblight/rgblight.c ****         hue = (RGBLIGHT_RAINBOW_SWIRL_RANGE / rgblight_ranges.effect_num_leds * i + anim->current_h
 2965               		.loc 1 1106 36 is_stmt 0 discriminator 1 view .LVU632
 2966 0014 6091 0000 		lds r22,rgblight_ranges+4
1106:quantum/rgblight/rgblight.c ****         hue = (RGBLIGHT_RAINBOW_SWIRL_RANGE / rgblight_ranges.effect_num_leds * i + anim->current_h
 2967               		.loc 1 1106 19 discriminator 1 view .LVU633
 2968 0018 1617      		cp r17,r22
 2969 001a 00F0      		brlo .L129
1110:quantum/rgblight/rgblight.c **** 
 2970               		.loc 1 1110 5 is_stmt 1 view .LVU634
 2971 001c 0E94 0000 		call rgblight_set
 2972               	.LVL197:
1112:quantum/rgblight/rgblight.c ****         anim->current_hue++;
 2973               		.loc 1 1112 5 view .LVU635
1112:quantum/rgblight/rgblight.c ****         anim->current_hue++;
 2974               		.loc 1 1112 9 is_stmt 0 view .LVU636
 2975 0020 9A81      		ldd r25,Y+2
 2976 0022 8C81      		ldd r24,Y+4
1112:quantum/rgblight/rgblight.c ****         anim->current_hue++;
 2977               		.loc 1 1112 8 view .LVU637
 2978 0024 90FF      		sbrs r25,0
 2979 0026 00C0      		rjmp .L130
1113:quantum/rgblight/rgblight.c ****     } else {
 2980               		.loc 1 1113 9 is_stmt 1 view .LVU638
1113:quantum/rgblight/rgblight.c ****     } else {
 2981               		.loc 1 1113 26 is_stmt 0 view .LVU639
 2982 0028 8F5F      		subi r24,lo8(-(1))
 2983               	.L131:
 2984 002a 8C83      		std Y+4,r24
 2985               	/* epilogue start */
1117:quantum/rgblight/rgblight.c **** #endif
 2986               		.loc 1 1117 1 view .LVU640
 2987 002c DF91      		pop r29
 2988 002e CF91      		pop r28
 2989               	.LVL198:
1117:quantum/rgblight/rgblight.c **** #endif
 2990               		.loc 1 1117 1 view .LVU641
 2991 0030 1F91      		pop r17
 2992               	.LVL199:
1117:quantum/rgblight/rgblight.c **** #endif
 2993               		.loc 1 1117 1 view .LVU642
 2994 0032 FF90      		pop r15
 2995 0034 EF90      		pop r14
 2996 0036 0895      		ret
 2997               	.LVL200:
 2998               	.L129:
1107:quantum/rgblight/rgblight.c ****         sethsv(hue, rgblight_config.sat, rgblight_config.val, (LED_TYPE *)&led[i + rgblight_ranges.
 2999               		.loc 1 1107 9 is_stmt 1 discriminator 3 view .LVU643
1108:quantum/rgblight/rgblight.c ****     }
 3000               		.loc 1 1108 9 discriminator 3 view .LVU644
 3001               	.LBB94:
 3002               	.LBI94:
 154:quantum/rgblight/rgblight.c **** 
 3003               		.loc 1 154 6 discriminator 3 view .LVU645
 3004               	.LBB95:
 154:quantum/rgblight/rgblight.c **** 
 3005               		.loc 1 154 70 discriminator 3 view .LVU646
 3006               	.LBE95:
 3007               	.LBE94:
1108:quantum/rgblight/rgblight.c ****     }
 3008               		.loc 1 1108 99 is_stmt 0 discriminator 3 view .LVU647
 3009 0038 8091 0000 		lds r24,rgblight_ranges+2
1108:quantum/rgblight/rgblight.c ****     }
 3010               		.loc 1 1108 82 discriminator 3 view .LVU648
 3011 003c 810F      		add r24,r17
 3012 003e 9927      		clr r25
 3013 0040 991F      		rol r25
1108:quantum/rgblight/rgblight.c ****     }
 3014               		.loc 1 1108 9 discriminator 3 view .LVU649
 3015 0042 9C01      		movw r18,r24
 3016 0044 220F      		lsl r18
 3017 0046 331F      		rol r19
 3018 0048 280F      		add r18,r24
 3019 004a 391F      		adc r19,r25
 3020 004c 2050      		subi r18,lo8(-(led))
 3021 004e 3040      		sbci r19,hi8(-(led))
1107:quantum/rgblight/rgblight.c ****         sethsv(hue, rgblight_config.sat, rgblight_config.val, (LED_TYPE *)&led[i + rgblight_ranges.
 3022               		.loc 1 1107 62 discriminator 3 view .LVU650
 3023 0050 70E0      		ldi r23,0
1107:quantum/rgblight/rgblight.c ****         sethsv(hue, rgblight_config.sat, rgblight_config.val, (LED_TYPE *)&led[i + rgblight_ranges.
 3024               		.loc 1 1107 45 discriminator 3 view .LVU651
 3025 0052 C701      		movw r24,r14
 3026 0054 0E94 0000 		call __divmodhi4
 3027               	.LVL201:
1107:quantum/rgblight/rgblight.c ****         sethsv(hue, rgblight_config.sat, rgblight_config.val, (LED_TYPE *)&led[i + rgblight_ranges.
 3028               		.loc 1 1107 45 discriminator 3 view .LVU652
 3029 0058 962F      		mov r25,r22
1107:quantum/rgblight/rgblight.c ****         sethsv(hue, rgblight_config.sat, rgblight_config.val, (LED_TYPE *)&led[i + rgblight_ranges.
 3030               		.loc 1 1107 13 discriminator 3 view .LVU653
 3031 005a 8C81      		ldd r24,Y+4
 3032               	.LBB97:
 3033               	.LBB96:
 154:quantum/rgblight/rgblight.c **** 
 3034               		.loc 1 154 70 discriminator 3 view .LVU654
 3035 005c 4091 0000 		lds r20,rgblight_config+3
 3036 0060 6091 0000 		lds r22,rgblight_config+2
 3037 0064 199F      		mul r17,r25
 3038 0066 800D      		add r24,r0
 3039 0068 1124      		clr __zero_reg__
 3040 006a 0E94 0000 		call sethsv_raw
 3041               	.LVL202:
 154:quantum/rgblight/rgblight.c **** 
 3042               		.loc 1 154 70 discriminator 3 view .LVU655
 3043               	.LBE96:
 3044               	.LBE97:
1106:quantum/rgblight/rgblight.c ****         hue = (RGBLIGHT_RAINBOW_SWIRL_RANGE / rgblight_ranges.effect_num_leds * i + anim->current_h
 3045               		.loc 1 1106 55 is_stmt 1 discriminator 3 view .LVU656
 3046 006e 1F5F      		subi r17,lo8(-(1))
 3047               	.LVL203:
1106:quantum/rgblight/rgblight.c ****         hue = (RGBLIGHT_RAINBOW_SWIRL_RANGE / rgblight_ranges.effect_num_leds * i + anim->current_h
 3048               		.loc 1 1106 55 is_stmt 0 discriminator 3 view .LVU657
 3049 0070 00C0      		rjmp .L128
 3050               	.L130:
1115:quantum/rgblight/rgblight.c ****     }
 3051               		.loc 1 1115 9 is_stmt 1 view .LVU658
1115:quantum/rgblight/rgblight.c ****     }
 3052               		.loc 1 1115 26 is_stmt 0 view .LVU659
 3053 0072 8150      		subi r24,lo8(-(-1))
 3054 0074 00C0      		rjmp .L131
 3055               		.cfi_endproc
 3056               	.LFE179:
 3058               		.section	.text.rgblight_effect_snake,"ax",@progbits
 3059               	.global	rgblight_effect_snake
 3061               	rgblight_effect_snake:
 3062               	.LVL204:
 3063               	.LFB180:
1123:quantum/rgblight/rgblight.c ****     static uint8_t pos = 0;
 3064               		.loc 1 1123 54 is_stmt 1 view -0
 3065               		.cfi_startproc
1123:quantum/rgblight/rgblight.c ****     static uint8_t pos = 0;
 3066               		.loc 1 1123 54 is_stmt 0 view .LVU661
 3067 0000 BF92      		push r11
 3068               	.LCFI73:
 3069               		.cfi_def_cfa_offset 3
 3070               		.cfi_offset 11, -2
 3071 0002 CF92      		push r12
 3072               	.LCFI74:
 3073               		.cfi_def_cfa_offset 4
 3074               		.cfi_offset 12, -3
 3075 0004 DF92      		push r13
 3076               	.LCFI75:
 3077               		.cfi_def_cfa_offset 5
 3078               		.cfi_offset 13, -4
 3079 0006 EF92      		push r14
 3080               	.LCFI76:
 3081               		.cfi_def_cfa_offset 6
 3082               		.cfi_offset 14, -5
 3083 0008 FF92      		push r15
 3084               	.LCFI77:
 3085               		.cfi_def_cfa_offset 7
 3086               		.cfi_offset 15, -6
 3087 000a 0F93      		push r16
 3088               	.LCFI78:
 3089               		.cfi_def_cfa_offset 8
 3090               		.cfi_offset 16, -7
 3091 000c 1F93      		push r17
 3092               	.LCFI79:
 3093               		.cfi_def_cfa_offset 9
 3094               		.cfi_offset 17, -8
 3095 000e CF93      		push r28
 3096               	.LCFI80:
 3097               		.cfi_def_cfa_offset 10
 3098               		.cfi_offset 28, -9
 3099 0010 DF93      		push r29
 3100               	.LCFI81:
 3101               		.cfi_def_cfa_offset 11
 3102               		.cfi_offset 29, -10
 3103               	/* prologue: function */
 3104               	/* frame size = 0 */
 3105               	/* stack size = 9 */
 3106               	.L__stack_usage = 9
1124:quantum/rgblight/rgblight.c ****     uint8_t        i, j;
 3107               		.loc 1 1124 5 is_stmt 1 view .LVU662
1125:quantum/rgblight/rgblight.c ****     int8_t         k;
 3108               		.loc 1 1125 5 view .LVU663
1126:quantum/rgblight/rgblight.c ****     int8_t         increment = 1;
 3109               		.loc 1 1126 5 view .LVU664
1127:quantum/rgblight/rgblight.c **** 
 3110               		.loc 1 1127 5 view .LVU665
 3111               	.LVL205:
1129:quantum/rgblight/rgblight.c ****         increment = -1;
 3112               		.loc 1 1129 5 view .LVU666
1129:quantum/rgblight/rgblight.c ****         increment = -1;
 3113               		.loc 1 1129 9 is_stmt 0 view .LVU667
 3114 0012 FC01      		movw r30,r24
 3115 0014 8281      		ldd r24,Z+2
 3116               	.LVL206:
1130:quantum/rgblight/rgblight.c ****     }
 3117               		.loc 1 1130 19 view .LVU668
 3118 0016 0FEF      		ldi r16,lo8(-1)
1129:quantum/rgblight/rgblight.c ****         increment = -1;
 3119               		.loc 1 1129 8 view .LVU669
 3120 0018 80FF      		sbrs r24,0
1127:quantum/rgblight/rgblight.c **** 
 3121               		.loc 1 1127 20 view .LVU670
 3122 001a 01E0      		ldi r16,lo8(1)
 3123               	.L133:
 3124               	.LVL207:
1144:quantum/rgblight/rgblight.c ****         LED_TYPE *ledp = led + i + rgblight_ranges.effect_start_pos;
 3125               		.loc 1 1144 5 is_stmt 1 view .LVU671
1144:quantum/rgblight/rgblight.c ****         LED_TYPE *ledp = led + i + rgblight_ranges.effect_start_pos;
 3126               		.loc 1 1144 12 is_stmt 0 view .LVU672
 3127 001c 10E0      		ldi r17,0
 3128               	.LVL208:
 3129               	.L134:
1144:quantum/rgblight/rgblight.c ****         LED_TYPE *ledp = led + i + rgblight_ranges.effect_start_pos;
 3130               		.loc 1 1144 19 is_stmt 1 discriminator 1 view .LVU673
 3131 001e 8091 0000 		lds r24,rgblight_ranges+4
 3132 0022 1817      		cp r17,r24
 3133 0024 00F0      		brlo .L139
1165:quantum/rgblight/rgblight.c ****     if (increment == 1) {
 3134               		.loc 1 1165 5 view .LVU674
 3135 0026 0E94 0000 		call rgblight_set
 3136               	.LVL209:
1166:quantum/rgblight/rgblight.c ****         if (pos - 1 < 0) {
 3137               		.loc 1 1166 5 view .LVU675
 3138 002a 8091 0000 		lds r24,pos.5
1166:quantum/rgblight/rgblight.c ****         if (pos - 1 < 0) {
 3139               		.loc 1 1166 8 is_stmt 0 view .LVU676
 3140 002e 0130      		cpi r16,lo8(1)
 3141 0030 01F0      		breq .+2
 3142 0032 00C0      		rjmp .L140
1167:quantum/rgblight/rgblight.c ****             pos = rgblight_ranges.effect_num_leds - 1;
 3143               		.loc 1 1167 9 is_stmt 1 view .LVU677
1167:quantum/rgblight/rgblight.c ****             pos = rgblight_ranges.effect_num_leds - 1;
 3144               		.loc 1 1167 12 is_stmt 0 view .LVU678
 3145 0034 8111      		cpse r24,__zero_reg__
 3146 0036 00C0      		rjmp .L141
1168:quantum/rgblight/rgblight.c **** #    if defined(RGBLIGHT_SPLIT) && !defined(RGBLIGHT_SPLIT_NO_ANIMATION_SYNC)
 3147               		.loc 1 1168 13 is_stmt 1 view .LVU679
1168:quantum/rgblight/rgblight.c **** #    if defined(RGBLIGHT_SPLIT) && !defined(RGBLIGHT_SPLIT_NO_ANIMATION_SYNC)
 3148               		.loc 1 1168 51 is_stmt 0 view .LVU680
 3149 0038 8091 0000 		lds r24,rgblight_ranges+4
 3150               	.L141:
1173:quantum/rgblight/rgblight.c **** #    if defined(RGBLIGHT_SPLIT) && !defined(RGBLIGHT_SPLIT_NO_ANIMATION_SYNC)
 3151               		.loc 1 1173 13 is_stmt 1 view .LVU681
1173:quantum/rgblight/rgblight.c **** #    if defined(RGBLIGHT_SPLIT) && !defined(RGBLIGHT_SPLIT_NO_ANIMATION_SYNC)
 3152               		.loc 1 1173 17 is_stmt 0 view .LVU682
 3153 003c 8150      		subi r24,lo8(-(-1))
 3154               	.L142:
 3155 003e 8093 0000 		sts pos.5,r24
 3156               	/* epilogue start */
1184:quantum/rgblight/rgblight.c **** #endif
 3157               		.loc 1 1184 1 view .LVU683
 3158 0042 DF91      		pop r29
 3159 0044 CF91      		pop r28
 3160 0046 1F91      		pop r17
 3161               	.LVL210:
1184:quantum/rgblight/rgblight.c **** #endif
 3162               		.loc 1 1184 1 view .LVU684
 3163 0048 0F91      		pop r16
 3164               	.LVL211:
1184:quantum/rgblight/rgblight.c **** #endif
 3165               		.loc 1 1184 1 view .LVU685
 3166 004a FF90      		pop r15
 3167 004c EF90      		pop r14
 3168 004e DF90      		pop r13
 3169 0050 CF90      		pop r12
 3170 0052 BF90      		pop r11
 3171 0054 0895      		ret
 3172               	.LVL212:
 3173               	.L139:
 3174               	.LBB101:
1145:quantum/rgblight/rgblight.c ****         ledp->r        = 0;
 3175               		.loc 1 1145 9 is_stmt 1 view .LVU686
1145:quantum/rgblight/rgblight.c ****         ledp->r        = 0;
 3176               		.loc 1 1145 34 is_stmt 0 view .LVU687
 3177 0056 8091 0000 		lds r24,rgblight_ranges+2
 3178 005a C12E      		mov r12,r17
 3179 005c D12C      		mov r13,__zero_reg__
 3180 005e 8C0D      		add r24,r12
 3181 0060 9D2D      		mov r25,r13
 3182 0062 911D      		adc r25,__zero_reg__
 3183 0064 EC01      		movw r28,r24
 3184 0066 CC0F      		lsl r28
 3185 0068 DD1F      		rol r29
 3186 006a C80F      		add r28,r24
 3187 006c D91F      		adc r29,r25
1145:quantum/rgblight/rgblight.c ****         ledp->r        = 0;
 3188               		.loc 1 1145 19 view .LVU688
 3189 006e C050      		subi r28,lo8(-(led))
 3190 0070 D040      		sbci r29,hi8(-(led))
 3191               	.LVL213:
1146:quantum/rgblight/rgblight.c ****         ledp->g        = 0;
 3192               		.loc 1 1146 9 is_stmt 1 view .LVU689
1146:quantum/rgblight/rgblight.c ****         ledp->g        = 0;
 3193               		.loc 1 1146 24 is_stmt 0 view .LVU690
 3194 0072 1982      		std Y+1,__zero_reg__
1147:quantum/rgblight/rgblight.c ****         ledp->b        = 0;
 3195               		.loc 1 1147 9 is_stmt 1 view .LVU691
1147:quantum/rgblight/rgblight.c ****         ledp->b        = 0;
 3196               		.loc 1 1147 24 is_stmt 0 view .LVU692
 3197 0074 1882      		st Y,__zero_reg__
1148:quantum/rgblight/rgblight.c **** #    ifdef RGBW
 3198               		.loc 1 1148 9 is_stmt 1 view .LVU693
1148:quantum/rgblight/rgblight.c **** #    ifdef RGBW
 3199               		.loc 1 1148 24 is_stmt 0 view .LVU694
 3200 0076 1A82      		std Y+2,__zero_reg__
1152:quantum/rgblight/rgblight.c ****             k = pos + j * increment;
 3201               		.loc 1 1152 9 is_stmt 1 view .LVU695
 3202               	.LVL214:
1152:quantum/rgblight/rgblight.c ****             k = pos + j * increment;
 3203               		.loc 1 1152 23 view .LVU696
1148:quantum/rgblight/rgblight.c **** #    ifdef RGBW
 3204               		.loc 1 1148 24 is_stmt 0 view .LVU697
 3205 0078 34E0      		ldi r19,lo8(4)
 3206 007a E32E      		mov r14,r19
 3207 007c F12C      		mov r15,__zero_reg__
 3208 007e B12C      		mov r11,__zero_reg__
 3209               	.LVL215:
 3210               	.L138:
1153:quantum/rgblight/rgblight.c ****             if (k > RGBLED_NUM) {
 3211               		.loc 1 1153 13 is_stmt 1 view .LVU698
1153:quantum/rgblight/rgblight.c ****             if (k > RGBLED_NUM) {
 3212               		.loc 1 1153 21 is_stmt 0 view .LVU699
 3213 0080 8091 0000 		lds r24,pos.5
 3214 0084 8B0D      		add r24,r11
 3215               	.LVL216:
1154:quantum/rgblight/rgblight.c ****                 k = k % RGBLED_NUM;
 3216               		.loc 1 1154 13 is_stmt 1 view .LVU700
1154:quantum/rgblight/rgblight.c ****                 k = k % RGBLED_NUM;
 3217               		.loc 1 1154 16 is_stmt 0 view .LVU701
 3218 0086 8330      		cpi r24,lo8(3)
 3219 0088 04F0      		brlt .L135
1155:quantum/rgblight/rgblight.c ****             }
 3220               		.loc 1 1155 17 is_stmt 1 view .LVU702
1155:quantum/rgblight/rgblight.c ****             }
 3221               		.loc 1 1155 19 is_stmt 0 view .LVU703
 3222 008a 8170      		andi r24,lo8(1)
 3223               	.LVL217:
1157:quantum/rgblight/rgblight.c ****                 k = k + rgblight_ranges.effect_num_leds;
 3224               		.loc 1 1157 13 is_stmt 1 view .LVU704
 3225               	.L136:
1160:quantum/rgblight/rgblight.c ****                 sethsv(rgblight_config.hue, rgblight_config.sat, (uint8_t)(rgblight_config.val * (R
 3226               		.loc 1 1160 13 view .LVU705
1160:quantum/rgblight/rgblight.c ****                 sethsv(rgblight_config.hue, rgblight_config.sat, (uint8_t)(rgblight_config.val * (R
 3227               		.loc 1 1160 19 is_stmt 0 view .LVU706
 3228 008c 082E      		mov __tmp_reg__,r24
 3229 008e 000C      		lsl r0
 3230 0090 990B      		sbc r25,r25
1160:quantum/rgblight/rgblight.c ****                 sethsv(rgblight_config.hue, rgblight_config.sat, (uint8_t)(rgblight_config.val * (R
 3231               		.loc 1 1160 16 view .LVU707
 3232 0092 C816      		cp r12,r24
 3233 0094 D906      		cpc r13,r25
 3234 0096 01F4      		brne .L137
1161:quantum/rgblight/rgblight.c ****             }
 3235               		.loc 1 1161 17 is_stmt 1 view .LVU708
 3236               	.LVL218:
 3237               	.LBB102:
 3238               	.LBI102:
 154:quantum/rgblight/rgblight.c **** 
 3239               		.loc 1 154 6 view .LVU709
 3240               	.LBB103:
 154:quantum/rgblight/rgblight.c **** 
 3241               		.loc 1 154 70 view .LVU710
 3242               	.LBE103:
 3243               	.LBE102:
1161:quantum/rgblight/rgblight.c ****             }
 3244               		.loc 1 1161 91 is_stmt 0 view .LVU711
 3245 0098 8091 0000 		lds r24,rgblight_config+3
 3246               	.LVL219:
1161:quantum/rgblight/rgblight.c ****             }
 3247               		.loc 1 1161 96 view .LVU712
 3248 009c 8E9D      		mul r24,r14
 3249 009e A001      		movw r20,r0
 3250 00a0 8F9D      		mul r24,r15
 3251 00a2 500D      		add r21,r0
 3252 00a4 1124      		clr __zero_reg__
1161:quantum/rgblight/rgblight.c ****             }
 3253               		.loc 1 1161 133 view .LVU713
 3254 00a6 5595      		asr r21
 3255 00a8 4795      		ror r20
 3256 00aa 5595      		asr r21
 3257 00ac 4795      		ror r20
 3258               	.LBB105:
 3259               	.LBB104:
 154:quantum/rgblight/rgblight.c **** 
 3260               		.loc 1 154 70 view .LVU714
 3261 00ae 9E01      		movw r18,r28
 3262 00b0 6091 0000 		lds r22,rgblight_config+2
 3263 00b4 8091 0000 		lds r24,rgblight_config+1
 3264 00b8 0E94 0000 		call sethsv_raw
 3265               	.LVL220:
 3266               	.L137:
 154:quantum/rgblight/rgblight.c **** 
 3267               		.loc 1 154 70 view .LVU715
 3268               	.LBE104:
 3269               	.LBE105:
1152:quantum/rgblight/rgblight.c ****             k = pos + j * increment;
 3270               		.loc 1 1152 56 is_stmt 1 discriminator 2 view .LVU716
1152:quantum/rgblight/rgblight.c ****             k = pos + j * increment;
 3271               		.loc 1 1152 23 discriminator 2 view .LVU717
 3272 00bc B00E      		add r11,r16
 3273 00be F1E0      		ldi r31,1
 3274 00c0 EF1A      		sub r14,r31
 3275 00c2 F108      		sbc r15,__zero_reg__
 3276               	.LVL221:
1152:quantum/rgblight/rgblight.c ****             k = pos + j * increment;
 3277               		.loc 1 1152 23 is_stmt 0 discriminator 2 view .LVU718
 3278 00c4 01F4      		brne .L138
 3279               	.LBE101:
1144:quantum/rgblight/rgblight.c ****         LED_TYPE *ledp = led + i + rgblight_ranges.effect_start_pos;
 3280               		.loc 1 1144 55 is_stmt 1 discriminator 2 view .LVU719
 3281 00c6 1F5F      		subi r17,lo8(-(1))
 3282               	.LVL222:
1144:quantum/rgblight/rgblight.c ****         LED_TYPE *ledp = led + i + rgblight_ranges.effect_start_pos;
 3283               		.loc 1 1144 55 is_stmt 0 discriminator 2 view .LVU720
 3284 00c8 00C0      		rjmp .L134
 3285               	.LVL223:
 3286               	.L135:
 3287               	.LBB106:
1157:quantum/rgblight/rgblight.c ****                 k = k + rgblight_ranges.effect_num_leds;
 3288               		.loc 1 1157 13 is_stmt 1 view .LVU721
1157:quantum/rgblight/rgblight.c ****                 k = k + rgblight_ranges.effect_num_leds;
 3289               		.loc 1 1157 16 is_stmt 0 view .LVU722
 3290 00ca 87FF      		sbrs r24,7
 3291 00cc 00C0      		rjmp .L136
1158:quantum/rgblight/rgblight.c ****             }
 3292               		.loc 1 1158 17 is_stmt 1 view .LVU723
1158:quantum/rgblight/rgblight.c ****             }
 3293               		.loc 1 1158 23 is_stmt 0 view .LVU724
 3294 00ce 9091 0000 		lds r25,rgblight_ranges+4
 3295 00d2 890F      		add r24,r25
 3296               	.LVL224:
1158:quantum/rgblight/rgblight.c ****             }
 3297               		.loc 1 1158 23 view .LVU725
 3298 00d4 00C0      		rjmp .L136
 3299               	.LVL225:
 3300               	.L140:
1158:quantum/rgblight/rgblight.c ****             }
 3301               		.loc 1 1158 23 view .LVU726
 3302               	.LBE106:
1179:quantum/rgblight/rgblight.c **** #    if defined(RGBLIGHT_SPLIT) && !defined(RGBLIGHT_SPLIT_NO_ANIMATION_SYNC)
 3303               		.loc 1 1179 9 is_stmt 1 view .LVU727
1179:quantum/rgblight/rgblight.c **** #    if defined(RGBLIGHT_SPLIT) && !defined(RGBLIGHT_SPLIT_NO_ANIMATION_SYNC)
 3304               		.loc 1 1179 20 is_stmt 0 view .LVU728
 3305 00d6 90E0      		ldi r25,0
 3306 00d8 0196      		adiw r24,1
1179:quantum/rgblight/rgblight.c **** #    if defined(RGBLIGHT_SPLIT) && !defined(RGBLIGHT_SPLIT_NO_ANIMATION_SYNC)
 3307               		.loc 1 1179 42 view .LVU729
 3308 00da 6091 0000 		lds r22,rgblight_ranges+4
 3309 00de 70E0      		ldi r23,0
1179:quantum/rgblight/rgblight.c **** #    if defined(RGBLIGHT_SPLIT) && !defined(RGBLIGHT_SPLIT_NO_ANIMATION_SYNC)
 3310               		.loc 1 1179 25 view .LVU730
 3311 00e0 0E94 0000 		call __divmodhi4
 3312 00e4 00C0      		rjmp .L142
 3313               		.cfi_endproc
 3314               	.LFE180:
 3316               		.section	.text.rgblight_effect_knight,"ax",@progbits
 3317               	.global	rgblight_effect_knight
 3319               	rgblight_effect_knight:
 3320               	.LVL226:
 3321               	.LFB181:
1190:quantum/rgblight/rgblight.c ****     static int8_t low_bound  = 0;
 3322               		.loc 1 1190 55 is_stmt 1 view -0
 3323               		.cfi_startproc
1190:quantum/rgblight/rgblight.c ****     static int8_t low_bound  = 0;
 3324               		.loc 1 1190 55 is_stmt 0 view .LVU732
 3325 0000 CF93      		push r28
 3326               	.LCFI82:
 3327               		.cfi_def_cfa_offset 3
 3328               		.cfi_offset 28, -2
 3329 0002 DF93      		push r29
 3330               	.LCFI83:
 3331               		.cfi_def_cfa_offset 4
 3332               		.cfi_offset 29, -3
 3333               	/* prologue: function */
 3334               	/* frame size = 0 */
 3335               	/* stack size = 2 */
 3336               	.L__stack_usage = 2
1191:quantum/rgblight/rgblight.c ****     static int8_t high_bound = RGBLIGHT_EFFECT_KNIGHT_LENGTH - 1;
 3337               		.loc 1 1191 5 is_stmt 1 view .LVU733
1192:quantum/rgblight/rgblight.c ****     static int8_t increment  = 1;
 3338               		.loc 1 1192 5 view .LVU734
1193:quantum/rgblight/rgblight.c ****     uint8_t       i, cur;
 3339               		.loc 1 1193 5 view .LVU735
1194:quantum/rgblight/rgblight.c **** 
 3340               		.loc 1 1194 5 view .LVU736
1205:quantum/rgblight/rgblight.c ****         led[i].r = 0;
 3341               		.loc 1 1205 5 view .LVU737
1205:quantum/rgblight/rgblight.c ****         led[i].r = 0;
 3342               		.loc 1 1205 12 is_stmt 0 view .LVU738
 3343 0004 8091 0000 		lds r24,rgblight_ranges+2
 3344               	.LVL227:
1205:quantum/rgblight/rgblight.c ****         led[i].r = 0;
 3345               		.loc 1 1205 67 view .LVU739
 3346 0008 9091 0000 		lds r25,rgblight_ranges+3
 3347 000c 23E0      		ldi r18,lo8(3)
 3348 000e 829F      		mul r24,r18
 3349 0010 F001      		movw r30,r0
 3350 0012 1124      		clr __zero_reg__
 3351 0014 E050      		subi r30,lo8(-(led))
 3352 0016 F040      		sbci r31,hi8(-(led))
 3353               	.L146:
1205:quantum/rgblight/rgblight.c ****         led[i].r = 0;
 3354               		.loc 1 1205 50 is_stmt 1 discriminator 1 view .LVU740
 3355 0018 8917      		cp r24,r25
 3356 001a 00F0      		brlo .L147
1214:quantum/rgblight/rgblight.c ****         cur = (i + RGBLIGHT_EFFECT_KNIGHT_OFFSET) % rgblight_ranges.effect_num_leds + rgblight_rang
 3357               		.loc 1 1214 12 is_stmt 0 view .LVU741
 3358 001c C0E0      		ldi r28,0
1218:quantum/rgblight/rgblight.c ****         } else {
 3359               		.loc 1 1218 13 view .LVU742
 3360 001e D3E0      		ldi r29,lo8(3)
 3361               	.LVL228:
 3362               	.L148:
1214:quantum/rgblight/rgblight.c ****         cur = (i + RGBLIGHT_EFFECT_KNIGHT_OFFSET) % rgblight_ranges.effect_num_leds + rgblight_rang
 3363               		.loc 1 1214 19 is_stmt 1 discriminator 1 view .LVU743
1214:quantum/rgblight/rgblight.c ****         cur = (i + RGBLIGHT_EFFECT_KNIGHT_OFFSET) % rgblight_ranges.effect_num_leds + rgblight_rang
 3364               		.loc 1 1214 21 is_stmt 0 discriminator 1 view .LVU744
 3365 0020 6091 0000 		lds r22,rgblight_ranges+4
1214:quantum/rgblight/rgblight.c ****         cur = (i + RGBLIGHT_EFFECT_KNIGHT_OFFSET) % rgblight_ranges.effect_num_leds + rgblight_rang
 3366               		.loc 1 1214 19 discriminator 1 view .LVU745
 3367 0024 C617      		cp r28,r22
 3368 0026 00F0      		brlo .L151
1228:quantum/rgblight/rgblight.c **** 
 3369               		.loc 1 1228 5 is_stmt 1 view .LVU746
 3370 0028 0E94 0000 		call rgblight_set
 3371               	.LVL229:
1232:quantum/rgblight/rgblight.c ****     high_bound += increment;
 3372               		.loc 1 1232 5 view .LVU747
1232:quantum/rgblight/rgblight.c ****     high_bound += increment;
 3373               		.loc 1 1232 15 is_stmt 0 view .LVU748
 3374 002c 2091 0000 		lds r18,increment.2
 3375 0030 8091 0000 		lds r24,low_bound.4
 3376 0034 820F      		add r24,r18
 3377 0036 8093 0000 		sts low_bound.4,r24
1233:quantum/rgblight/rgblight.c **** 
 3378               		.loc 1 1233 5 is_stmt 1 view .LVU749
1233:quantum/rgblight/rgblight.c **** 
 3379               		.loc 1 1233 16 is_stmt 0 view .LVU750
 3380 003a 9091 0000 		lds r25,high_bound.3
 3381 003e 920F      		add r25,r18
 3382 0040 9093 0000 		sts high_bound.3,r25
1235:quantum/rgblight/rgblight.c ****         increment = -increment;
 3383               		.loc 1 1235 5 is_stmt 1 view .LVU751
1235:quantum/rgblight/rgblight.c ****         increment = -increment;
 3384               		.loc 1 1235 8 is_stmt 0 view .LVU752
 3385 0044 1916      		cp __zero_reg__,r25
 3386 0046 04F4      		brge .L152
1235:quantum/rgblight/rgblight.c ****         increment = -increment;
 3387               		.loc 1 1235 38 discriminator 1 view .LVU753
 3388 0048 082E      		mov __tmp_reg__,r24
 3389 004a 000C      		lsl r0
 3390 004c 990B      		sbc r25,r25
1235:quantum/rgblight/rgblight.c ****         increment = -increment;
 3391               		.loc 1 1235 41 discriminator 1 view .LVU754
 3392 004e 4091 0000 		lds r20,rgblight_ranges+4
1235:quantum/rgblight/rgblight.c ****         increment = -increment;
 3393               		.loc 1 1235 72 discriminator 1 view .LVU755
 3394 0052 4150      		subi r20,1
 3395 0054 550B      		sbc r21,r21
1235:quantum/rgblight/rgblight.c ****         increment = -increment;
 3396               		.loc 1 1235 25 discriminator 1 view .LVU756
 3397 0056 8417      		cp r24,r20
 3398 0058 9507      		cpc r25,r21
 3399 005a 04F0      		brlt .L145
 3400               	.L152:
1236:quantum/rgblight/rgblight.c **** #    if defined(RGBLIGHT_SPLIT) && !defined(RGBLIGHT_SPLIT_NO_ANIMATION_SYNC)
 3401               		.loc 1 1236 9 is_stmt 1 view .LVU757
1236:quantum/rgblight/rgblight.c **** #    if defined(RGBLIGHT_SPLIT) && !defined(RGBLIGHT_SPLIT_NO_ANIMATION_SYNC)
 3402               		.loc 1 1236 19 is_stmt 0 view .LVU758
 3403 005c 2195      		neg r18
 3404 005e 2093 0000 		sts increment.2,r18
 3405               	.L145:
 3406               	/* epilogue start */
1243:quantum/rgblight/rgblight.c **** #endif
 3407               		.loc 1 1243 1 view .LVU759
 3408 0062 DF91      		pop r29
 3409 0064 CF91      		pop r28
 3410               	.LVL230:
1243:quantum/rgblight/rgblight.c **** #endif
 3411               		.loc 1 1243 1 view .LVU760
 3412 0066 0895      		ret
 3413               	.LVL231:
 3414               	.L147:
1206:quantum/rgblight/rgblight.c ****         led[i].g = 0;
 3415               		.loc 1 1206 9 is_stmt 1 discriminator 3 view .LVU761
1206:quantum/rgblight/rgblight.c ****         led[i].g = 0;
 3416               		.loc 1 1206 18 is_stmt 0 discriminator 3 view .LVU762
 3417 0068 1182      		std Z+1,__zero_reg__
1207:quantum/rgblight/rgblight.c ****         led[i].b = 0;
 3418               		.loc 1 1207 9 is_stmt 1 discriminator 3 view .LVU763
1207:quantum/rgblight/rgblight.c ****         led[i].b = 0;
 3419               		.loc 1 1207 18 is_stmt 0 discriminator 3 view .LVU764
 3420 006a 1082      		st Z,__zero_reg__
1208:quantum/rgblight/rgblight.c **** #    ifdef RGBW
 3421               		.loc 1 1208 9 is_stmt 1 discriminator 3 view .LVU765
1208:quantum/rgblight/rgblight.c **** #    ifdef RGBW
 3422               		.loc 1 1208 18 is_stmt 0 discriminator 3 view .LVU766
 3423 006c 1282      		std Z+2,__zero_reg__
1205:quantum/rgblight/rgblight.c ****         led[i].r = 0;
 3424               		.loc 1 1205 85 is_stmt 1 discriminator 3 view .LVU767
 3425 006e 8F5F      		subi r24,lo8(-(1))
 3426               	.LVL232:
1205:quantum/rgblight/rgblight.c ****         led[i].r = 0;
 3427               		.loc 1 1205 85 is_stmt 0 discriminator 3 view .LVU768
 3428 0070 3396      		adiw r30,3
 3429 0072 00C0      		rjmp .L146
 3430               	.LVL233:
 3431               	.L151:
1215:quantum/rgblight/rgblight.c **** 
 3432               		.loc 1 1215 9 is_stmt 1 view .LVU769
1215:quantum/rgblight/rgblight.c **** 
 3433               		.loc 1 1215 18 is_stmt 0 view .LVU770
 3434 0074 EC2F      		mov r30,r28
 3435 0076 F0E0      		ldi r31,0
1215:quantum/rgblight/rgblight.c **** 
 3436               		.loc 1 1215 68 view .LVU771
 3437 0078 70E0      		ldi r23,0
1215:quantum/rgblight/rgblight.c **** 
 3438               		.loc 1 1215 51 view .LVU772
 3439 007a CF01      		movw r24,r30
 3440 007c 0E94 0000 		call __divmodhi4
1215:quantum/rgblight/rgblight.c **** 
 3441               		.loc 1 1215 13 view .LVU773
 3442 0080 2091 0000 		lds r18,rgblight_ranges+2
 3443 0084 280F      		add r18,r24
 3444               	.LVL234:
1217:quantum/rgblight/rgblight.c ****             sethsv(rgblight_config.hue, rgblight_config.sat, rgblight_config.val, (LED_TYPE *)&led[
 3445               		.loc 1 1217 9 is_stmt 1 view .LVU774
1218:quantum/rgblight/rgblight.c ****         } else {
 3446               		.loc 1 1218 99 is_stmt 0 view .LVU775
 3447 0086 422F      		mov r20,r18
 3448 0088 50E0      		ldi r21,0
1217:quantum/rgblight/rgblight.c ****             sethsv(rgblight_config.hue, rgblight_config.sat, rgblight_config.val, (LED_TYPE *)&led[
 3449               		.loc 1 1217 15 view .LVU776
 3450 008a 8091 0000 		lds r24,low_bound.4
 3451 008e 082E      		mov __tmp_reg__,r24
 3452 0090 000C      		lsl r0
 3453 0092 990B      		sbc r25,r25
1217:quantum/rgblight/rgblight.c ****             sethsv(rgblight_config.hue, rgblight_config.sat, rgblight_config.val, (LED_TYPE *)&led[
 3454               		.loc 1 1217 12 view .LVU777
 3455 0094 E817      		cp r30,r24
 3456 0096 F907      		cpc r31,r25
 3457 0098 04F0      		brlt .L149
1217:quantum/rgblight/rgblight.c ****             sethsv(rgblight_config.hue, rgblight_config.sat, rgblight_config.val, (LED_TYPE *)&led[
 3458               		.loc 1 1217 33 discriminator 1 view .LVU778
 3459 009a 8091 0000 		lds r24,high_bound.3
 3460 009e 082E      		mov __tmp_reg__,r24
 3461 00a0 000C      		lsl r0
 3462 00a2 990B      		sbc r25,r25
1217:quantum/rgblight/rgblight.c ****             sethsv(rgblight_config.hue, rgblight_config.sat, rgblight_config.val, (LED_TYPE *)&led[
 3463               		.loc 1 1217 28 discriminator 1 view .LVU779
 3464 00a4 8E17      		cp r24,r30
 3465 00a6 9F07      		cpc r25,r31
 3466 00a8 04F0      		brlt .L149
1218:quantum/rgblight/rgblight.c ****         } else {
 3467               		.loc 1 1218 13 is_stmt 1 view .LVU780
 3468               	.LVL235:
 3469               	.LBB109:
 3470               	.LBI109:
 154:quantum/rgblight/rgblight.c **** 
 3471               		.loc 1 154 6 view .LVU781
 3472               	.LBB110:
 154:quantum/rgblight/rgblight.c **** 
 3473               		.loc 1 154 70 view .LVU782
 3474               	.LBE110:
 3475               	.LBE109:
1218:quantum/rgblight/rgblight.c ****         } else {
 3476               		.loc 1 1218 13 is_stmt 0 view .LVU783
 3477 00aa 2D9F      		mul r18,r29
 3478 00ac 9001      		movw r18,r0
 3479 00ae 1124      		clr __zero_reg__
 3480               	.LVL236:
1218:quantum/rgblight/rgblight.c ****         } else {
 3481               		.loc 1 1218 13 view .LVU784
 3482 00b0 2050      		subi r18,lo8(-(led))
 3483 00b2 3040      		sbci r19,hi8(-(led))
 3484               	.LBB112:
 3485               	.LBB111:
 154:quantum/rgblight/rgblight.c **** 
 3486               		.loc 1 154 70 view .LVU785
 3487 00b4 4091 0000 		lds r20,rgblight_config+3
 3488               	.LVL237:
 154:quantum/rgblight/rgblight.c **** 
 3489               		.loc 1 154 70 view .LVU786
 3490 00b8 6091 0000 		lds r22,rgblight_config+2
 3491 00bc 8091 0000 		lds r24,rgblight_config+1
 3492 00c0 0E94 0000 		call sethsv_raw
 3493               	.LVL238:
 3494               	.L150:
 154:quantum/rgblight/rgblight.c **** 
 3495               		.loc 1 154 70 view .LVU787
 3496               	.LBE111:
 3497               	.LBE112:
1214:quantum/rgblight/rgblight.c ****         cur = (i + RGBLIGHT_EFFECT_KNIGHT_OFFSET) % rgblight_ranges.effect_num_leds + rgblight_rang
 3498               		.loc 1 1214 54 is_stmt 1 discriminator 2 view .LVU788
 3499 00c4 CF5F      		subi r28,lo8(-(1))
 3500               	.LVL239:
1214:quantum/rgblight/rgblight.c ****         cur = (i + RGBLIGHT_EFFECT_KNIGHT_OFFSET) % rgblight_ranges.effect_num_leds + rgblight_rang
 3501               		.loc 1 1214 54 is_stmt 0 discriminator 2 view .LVU789
 3502 00c6 00C0      		rjmp .L148
 3503               	.LVL240:
 3504               	.L149:
1220:quantum/rgblight/rgblight.c ****             led[cur].g = 0;
 3505               		.loc 1 1220 13 is_stmt 1 view .LVU790
1220:quantum/rgblight/rgblight.c ****             led[cur].g = 0;
 3506               		.loc 1 1220 24 is_stmt 0 view .LVU791
 3507 00c8 FA01      		movw r30,r20
 3508 00ca EE0F      		lsl r30
 3509 00cc FF1F      		rol r31
 3510 00ce E40F      		add r30,r20
 3511 00d0 F51F      		adc r31,r21
 3512 00d2 E050      		subi r30,lo8(-(led))
 3513 00d4 F040      		sbci r31,hi8(-(led))
 3514 00d6 1182      		std Z+1,__zero_reg__
1221:quantum/rgblight/rgblight.c ****             led[cur].b = 0;
 3515               		.loc 1 1221 13 is_stmt 1 view .LVU792
1221:quantum/rgblight/rgblight.c ****             led[cur].b = 0;
 3516               		.loc 1 1221 24 is_stmt 0 view .LVU793
 3517 00d8 1082      		st Z,__zero_reg__
1222:quantum/rgblight/rgblight.c **** #    ifdef RGBW
 3518               		.loc 1 1222 13 is_stmt 1 view .LVU794
1222:quantum/rgblight/rgblight.c **** #    ifdef RGBW
 3519               		.loc 1 1222 24 is_stmt 0 view .LVU795
 3520 00da 1282      		std Z+2,__zero_reg__
 3521 00dc 00C0      		rjmp .L150
 3522               		.cfi_endproc
 3523               	.LFE181:
 3525               		.section	.text.rgblight_effect_christmas,"ax",@progbits
 3526               	.global	rgblight_effect_christmas
 3528               	rgblight_effect_christmas:
 3529               	.LVL241:
 3530               	.LFB182:
1252:quantum/rgblight/rgblight.c ****     static int8_t increment = 1;
 3531               		.loc 1 1252 58 is_stmt 1 view -0
 3532               		.cfi_startproc
1252:quantum/rgblight/rgblight.c ****     static int8_t increment = 1;
 3533               		.loc 1 1252 58 is_stmt 0 view .LVU797
 3534 0000 EF92      		push r14
 3535               	.LCFI84:
 3536               		.cfi_def_cfa_offset 3
 3537               		.cfi_offset 14, -2
 3538 0002 FF92      		push r15
 3539               	.LCFI85:
 3540               		.cfi_def_cfa_offset 4
 3541               		.cfi_offset 15, -3
 3542 0004 0F93      		push r16
 3543               	.LCFI86:
 3544               		.cfi_def_cfa_offset 5
 3545               		.cfi_offset 16, -4
 3546 0006 1F93      		push r17
 3547               	.LCFI87:
 3548               		.cfi_def_cfa_offset 6
 3549               		.cfi_offset 17, -5
 3550 0008 CF93      		push r28
 3551               	.LCFI88:
 3552               		.cfi_def_cfa_offset 7
 3553               		.cfi_offset 28, -6
 3554 000a DF93      		push r29
 3555               	.LCFI89:
 3556               		.cfi_def_cfa_offset 8
 3557               		.cfi_offset 29, -7
 3558 000c CDB7      		in r28,__SP_L__
 3559 000e DEB7      		in r29,__SP_H__
 3560               	.LCFI90:
 3561               		.cfi_def_cfa_register 28
 3562 0010 2E97      		sbiw r28,14
 3563               	.LCFI91:
 3564               		.cfi_def_cfa_offset 22
 3565 0012 0FB6      		in __tmp_reg__,__SREG__
 3566 0014 F894      		cli
 3567 0016 DEBF      		out __SP_H__,r29
 3568 0018 0FBE      		out __SREG__,__tmp_reg__
 3569 001a CDBF      		out __SP_L__,r28
 3570               	/* prologue: function */
 3571               	/* frame size = 14 */
 3572               	/* stack size = 20 */
 3573               	.L__stack_usage = 20
 3574 001c 8D87      		std Y+13,r24
 3575 001e 9E87      		std Y+14,r25
1253:quantum/rgblight/rgblight.c ****     const uint8_t max_pos   = 32;
 3576               		.loc 1 1253 5 is_stmt 1 view .LVU798
1254:quantum/rgblight/rgblight.c ****     const uint8_t hue_green = 85;
 3577               		.loc 1 1254 5 view .LVU799
 3578               	.LVL242:
1255:quantum/rgblight/rgblight.c **** 
 3579               		.loc 1 1255 5 view .LVU800
1257:quantum/rgblight/rgblight.c ****     uint8_t  hue, val;
 3580               		.loc 1 1257 5 view .LVU801
1258:quantum/rgblight/rgblight.c ****     uint8_t  i;
 3581               		.loc 1 1258 5 view .LVU802
1259:quantum/rgblight/rgblight.c **** 
 3582               		.loc 1 1259 5 view .LVU803
1263:quantum/rgblight/rgblight.c ****     hue = ((uint32_t)hue_green) * xa / (xa + CUBED((uint32_t)(max_pos - anim->pos)));
 3583               		.loc 1 1263 5 view .LVU804
1263:quantum/rgblight/rgblight.c ****     hue = ((uint32_t)hue_green) * xa / (xa + CUBED((uint32_t)(max_pos - anim->pos)));
 3584               		.loc 1 1263 11 is_stmt 0 view .LVU805
 3585 0020 AD85      		ldd r26,Y+13
 3586 0022 BE85      		ldd r27,Y+14
 3587 0024 1496      		adiw r26,4
 3588 0026 1C91      		ld r17,X
1263:quantum/rgblight/rgblight.c ****     hue = ((uint32_t)hue_green) * xa / (xa + CUBED((uint32_t)(max_pos - anim->pos)));
 3589               		.loc 1 1263 9 view .LVU806
 3590 0028 212F      		mov r18,r17
 3591 002a 30E0      		ldi r19,0
 3592 002c D901      		movw r26,r18
 3593 002e 0E94 0000 		call __umulhisi3
 3594 0032 9B01      		movw r18,r22
 3595 0034 AC01      		movw r20,r24
 3596 0036 0E94 0000 		call __muluhisi3
 3597 003a 6983      		std Y+1,r22
 3598 003c 7A83      		std Y+2,r23
 3599 003e 8B83      		std Y+3,r24
 3600 0040 9C83      		std Y+4,r25
 3601               	.LVL243:
1264:quantum/rgblight/rgblight.c ****     // Additionally, these interpolated colors get shown with a slightly darker value, to make them
 3602               		.loc 1 1264 5 is_stmt 1 view .LVU807
1264:quantum/rgblight/rgblight.c ****     // Additionally, these interpolated colors get shown with a slightly darker value, to make them
 3603               		.loc 1 1264 46 is_stmt 0 view .LVU808
 3604 0042 E0E2      		ldi r30,lo8(32)
 3605 0044 F0E0      		ldi r31,0
 3606 0046 E11B      		sub r30,r17
 3607 0048 F109      		sbc r31,__zero_reg__
1264:quantum/rgblight/rgblight.c ****     // Additionally, these interpolated colors get shown with a slightly darker value, to make them
 3608               		.loc 1 1264 33 view .LVU809
 3609 004a A5E5      		ldi r26,lo8(85)
 3610 004c B0E0      		ldi r27,0
 3611 004e 9B01      		movw r18,r22
 3612 0050 AC01      		movw r20,r24
 3613 0052 0E94 0000 		call __muluhisi3
 3614               	.LVL244:
1264:quantum/rgblight/rgblight.c ****     // Additionally, these interpolated colors get shown with a slightly darker value, to make them
 3615               		.loc 1 1264 33 view .LVU810
 3616 0056 6987      		std Y+9,r22
 3617 0058 7A87      		std Y+10,r23
 3618 005a 8B87      		std Y+11,r24
 3619 005c 9C87      		std Y+12,r25
1264:quantum/rgblight/rgblight.c ****     // Additionally, these interpolated colors get shown with a slightly darker value, to make them
 3620               		.loc 1 1264 46 view .LVU811
 3621 005e 9F01      		movw r18,r30
 3622 0060 DF01      		movw r26,r30
 3623 0062 0E94 0000 		call __mulhisi3
 3624 0066 9B01      		movw r18,r22
 3625 0068 AC01      		movw r20,r24
 3626 006a 0E94 0000 		call __mulshisi3
 3627 006e 6D83      		std Y+5,r22
 3628 0070 7E83      		std Y+6,r23
 3629 0072 8F83      		std Y+7,r24
 3630 0074 9887      		std Y+8,r25
1264:quantum/rgblight/rgblight.c ****     // Additionally, these interpolated colors get shown with a slightly darker value, to make them
 3631               		.loc 1 1264 44 view .LVU812
 3632 0076 9B01      		movw r18,r22
 3633 0078 AC01      		movw r20,r24
 3634 007a 8981      		ldd r24,Y+1
 3635 007c 9A81      		ldd r25,Y+2
 3636 007e AB81      		ldd r26,Y+3
 3637 0080 BC81      		ldd r27,Y+4
 3638               	.LVL245:
1264:quantum/rgblight/rgblight.c ****     // Additionally, these interpolated colors get shown with a slightly darker value, to make them
 3639               		.loc 1 1264 44 view .LVU813
 3640 0082 280F      		add r18,r24
 3641 0084 391F      		adc r19,r25
 3642 0086 4A1F      		adc r20,r26
 3643 0088 5B1F      		adc r21,r27
1264:quantum/rgblight/rgblight.c ****     // Additionally, these interpolated colors get shown with a slightly darker value, to make them
 3644               		.loc 1 1264 38 view .LVU814
 3645 008a 6985      		ldd r22,Y+9
 3646 008c 7A85      		ldd r23,Y+10
 3647 008e 8B85      		ldd r24,Y+11
 3648 0090 9C85      		ldd r25,Y+12
 3649 0092 0E94 0000 		call __udivmodsi4
1264:quantum/rgblight/rgblight.c ****     // Additionally, these interpolated colors get shown with a slightly darker value, to make them
 3650               		.loc 1 1264 9 view .LVU815
 3651 0096 F22E      		mov r15,r18
 3652               	.LVL246:
1266:quantum/rgblight/rgblight.c **** 
 3653               		.loc 1 1266 5 is_stmt 1 view .LVU816
1266:quantum/rgblight/rgblight.c **** 
 3654               		.loc 1 1266 20 is_stmt 0 view .LVU817
 3655 0098 422F      		mov r20,r18
 3656               	.LVL247:
1266:quantum/rgblight/rgblight.c **** 
 3657               		.loc 1 1266 20 view .LVU818
 3658 009a 50E0      		ldi r21,0
1266:quantum/rgblight/rgblight.c **** 
 3659               		.loc 1 1266 9 view .LVU819
 3660 009c 99E2      		ldi r25,lo8(41)
 3661 009e 9F15      		cp r25,r15
 3662 00a0 00F0      		brlo .L155
1266:quantum/rgblight/rgblight.c **** 
 3663               		.loc 1 1266 20 discriminator 1 view .LVU820
 3664 00a2 A3E0      		ldi r26,lo8(3)
 3665 00a4 2A9F      		mul r18,r26
 3666 00a6 9001      		movw r18,r0
 3667 00a8 1124      		clr __zero_reg__
 3668               	.LVL248:
 3669               	.L158:
1266:quantum/rgblight/rgblight.c **** 
 3670               		.loc 1 1266 68 discriminator 2 view .LVU821
 3671 00aa 3595      		asr r19
 3672 00ac 2795      		ror r18
1266:quantum/rgblight/rgblight.c **** 
 3673               		.loc 1 1266 9 discriminator 2 view .LVU822
 3674 00ae 122F      		mov r17,r18
 3675 00b0 1095      		com r17
 3676               	.LVL249:
1268:quantum/rgblight/rgblight.c ****         uint8_t local_hue = (i / RGBLIGHT_EFFECT_CHRISTMAS_STEP) % 2 ? hue : hue_green - hue;
 3677               		.loc 1 1268 5 is_stmt 1 discriminator 2 view .LVU823
1268:quantum/rgblight/rgblight.c ****         uint8_t local_hue = (i / RGBLIGHT_EFFECT_CHRISTMAS_STEP) % 2 ? hue : hue_green - hue;
 3678               		.loc 1 1268 12 is_stmt 0 discriminator 2 view .LVU824
 3679 00b2 00E0      		ldi r16,0
 3680               	.LBB116:
1269:quantum/rgblight/rgblight.c ****         sethsv(local_hue, rgblight_config.sat, val, (LED_TYPE *)&led[i + rgblight_ranges.effect_sta
 3681               		.loc 1 1269 17 discriminator 2 view .LVU825
 3682 00b4 85E5      		ldi r24,lo8(85)
 3683 00b6 E82E      		mov r14,r24
 3684 00b8 EF18      		sub r14,r15
 3685               	.LVL250:
 3686               	.L159:
1269:quantum/rgblight/rgblight.c ****         sethsv(local_hue, rgblight_config.sat, val, (LED_TYPE *)&led[i + rgblight_ranges.effect_sta
 3687               		.loc 1 1269 17 discriminator 2 view .LVU826
 3688               	.LBE116:
1268:quantum/rgblight/rgblight.c ****         uint8_t local_hue = (i / RGBLIGHT_EFFECT_CHRISTMAS_STEP) % 2 ? hue : hue_green - hue;
 3689               		.loc 1 1268 19 is_stmt 1 discriminator 2 view .LVU827
 3690 00ba 8091 0000 		lds r24,rgblight_ranges+4
 3691 00be 0817      		cp r16,r24
 3692 00c0 00F0      		brlo .L161
1272:quantum/rgblight/rgblight.c **** 
 3693               		.loc 1 1272 5 view .LVU828
 3694 00c2 0E94 0000 		call rgblight_set
 3695               	.LVL251:
1274:quantum/rgblight/rgblight.c ****         increment = 1;
 3696               		.loc 1 1274 5 view .LVU829
1274:quantum/rgblight/rgblight.c ****         increment = 1;
 3697               		.loc 1 1274 13 is_stmt 0 view .LVU830
 3698 00c6 ED85      		ldd r30,Y+13
 3699 00c8 FE85      		ldd r31,Y+14
 3700 00ca 9481      		ldd r25,Z+4
1275:quantum/rgblight/rgblight.c ****     } else if (anim->pos == max_pos) {
 3701               		.loc 1 1275 19 view .LVU831
 3702 00cc 81E0      		ldi r24,lo8(1)
1274:quantum/rgblight/rgblight.c ****         increment = 1;
 3703               		.loc 1 1274 8 view .LVU832
 3704 00ce 9923      		tst r25
 3705 00d0 01F0      		breq .L165
1276:quantum/rgblight/rgblight.c ****         increment = -1;
 3706               		.loc 1 1276 12 is_stmt 1 view .LVU833
1276:quantum/rgblight/rgblight.c ****         increment = -1;
 3707               		.loc 1 1276 15 is_stmt 0 view .LVU834
 3708 00d2 9032      		cpi r25,lo8(32)
 3709 00d4 01F4      		brne .L163
1277:quantum/rgblight/rgblight.c ****     }
 3710               		.loc 1 1277 9 is_stmt 1 view .LVU835
1277:quantum/rgblight/rgblight.c ****     }
 3711               		.loc 1 1277 19 is_stmt 0 view .LVU836
 3712 00d6 8FEF      		ldi r24,lo8(-1)
 3713               	.L165:
 3714 00d8 8093 0000 		sts increment.1,r24
 3715               	.L163:
1279:quantum/rgblight/rgblight.c **** }
 3716               		.loc 1 1279 5 is_stmt 1 view .LVU837
1279:quantum/rgblight/rgblight.c **** }
 3717               		.loc 1 1279 15 is_stmt 0 view .LVU838
 3718 00dc 8091 0000 		lds r24,increment.1
 3719 00e0 890F      		add r24,r25
 3720 00e2 AD85      		ldd r26,Y+13
 3721 00e4 BE85      		ldd r27,Y+14
 3722 00e6 1496      		adiw r26,4
 3723 00e8 8C93      		st X,r24
 3724               	/* epilogue start */
1280:quantum/rgblight/rgblight.c **** #endif
 3725               		.loc 1 1280 1 view .LVU839
 3726 00ea 2E96      		adiw r28,14
 3727 00ec 0FB6      		in __tmp_reg__,__SREG__
 3728 00ee F894      		cli
 3729 00f0 DEBF      		out __SP_H__,r29
 3730 00f2 0FBE      		out __SREG__,__tmp_reg__
 3731 00f4 CDBF      		out __SP_L__,r28
 3732 00f6 DF91      		pop r29
 3733 00f8 CF91      		pop r28
 3734 00fa 1F91      		pop r17
 3735               	.LVL252:
1280:quantum/rgblight/rgblight.c **** #endif
 3736               		.loc 1 1280 1 view .LVU840
 3737 00fc 0F91      		pop r16
 3738               	.LVL253:
1280:quantum/rgblight/rgblight.c **** #endif
 3739               		.loc 1 1280 1 view .LVU841
 3740 00fe FF90      		pop r15
 3741               	.LVL254:
1280:quantum/rgblight/rgblight.c **** #endif
 3742               		.loc 1 1280 1 view .LVU842
 3743 0100 EF90      		pop r14
 3744 0102 0895      		ret
 3745               	.LVL255:
 3746               	.L155:
1266:quantum/rgblight/rgblight.c **** 
 3747               		.loc 1 1266 61 discriminator 2 view .LVU843
 3748 0104 85E5      		ldi r24,lo8(85)
 3749 0106 90E0      		ldi r25,0
 3750               	.LVL256:
1266:quantum/rgblight/rgblight.c **** 
 3751               		.loc 1 1266 61 discriminator 2 view .LVU844
 3752 0108 841B      		sub r24,r20
 3753 010a 950B      		sbc r25,r21
1266:quantum/rgblight/rgblight.c **** 
 3754               		.loc 1 1266 20 discriminator 2 view .LVU845
 3755 010c 9C01      		movw r18,r24
 3756 010e 220F      		lsl r18
 3757 0110 331F      		rol r19
 3758 0112 280F      		add r18,r24
 3759 0114 391F      		adc r19,r25
1266:quantum/rgblight/rgblight.c **** 
 3760               		.loc 1 1266 68 discriminator 2 view .LVU846
 3761 0116 37FF      		sbrs r19,7
 3762 0118 00C0      		rjmp .L158
 3763 011a 2F5F      		subi r18,-1
 3764 011c 3F4F      		sbci r19,-1
 3765 011e 00C0      		rjmp .L158
 3766               	.LVL257:
 3767               	.L161:
 3768               	.LBB121:
1269:quantum/rgblight/rgblight.c ****         sethsv(local_hue, rgblight_config.sat, val, (LED_TYPE *)&led[i + rgblight_ranges.effect_sta
 3769               		.loc 1 1269 9 is_stmt 1 view .LVU847
1269:quantum/rgblight/rgblight.c ****         sethsv(local_hue, rgblight_config.sat, val, (LED_TYPE *)&led[i + rgblight_ranges.effect_sta
 3770               		.loc 1 1269 17 is_stmt 0 view .LVU848
 3771 0120 8E2D      		mov r24,r14
 3772 0122 01FD      		sbrc r16,1
 3773               	.LBE121:
1264:quantum/rgblight/rgblight.c ****     // Additionally, these interpolated colors get shown with a slightly darker value, to make them
 3774               		.loc 1 1264 9 view .LVU849
 3775 0124 8F2D      		mov r24,r15
 3776               	.L160:
 3777               	.LVL258:
 3778               	.LBB122:
1270:quantum/rgblight/rgblight.c ****     }
 3779               		.loc 1 1270 9 is_stmt 1 discriminator 4 view .LVU850
 3780               	.LBB117:
 3781               	.LBI117:
 154:quantum/rgblight/rgblight.c **** 
 3782               		.loc 1 154 6 discriminator 4 view .LVU851
 3783               	.LBB118:
 154:quantum/rgblight/rgblight.c **** 
 3784               		.loc 1 154 70 discriminator 4 view .LVU852
 3785               	.LBE118:
 3786               	.LBE117:
1270:quantum/rgblight/rgblight.c ****     }
 3787               		.loc 1 1270 89 is_stmt 0 discriminator 4 view .LVU853
 3788 0126 4091 0000 		lds r20,rgblight_ranges+2
1270:quantum/rgblight/rgblight.c ****     }
 3789               		.loc 1 1270 72 discriminator 4 view .LVU854
 3790 012a 400F      		add r20,r16
 3791 012c 5527      		clr r21
 3792 012e 551F      		rol r21
1270:quantum/rgblight/rgblight.c ****     }
 3793               		.loc 1 1270 9 discriminator 4 view .LVU855
 3794 0130 9A01      		movw r18,r20
 3795 0132 220F      		lsl r18
 3796 0134 331F      		rol r19
 3797 0136 240F      		add r18,r20
 3798 0138 351F      		adc r19,r21
 3799 013a 2050      		subi r18,lo8(-(led))
 3800 013c 3040      		sbci r19,hi8(-(led))
 3801               	.LBB120:
 3802               	.LBB119:
 154:quantum/rgblight/rgblight.c **** 
 3803               		.loc 1 154 70 discriminator 4 view .LVU856
 3804 013e 412F      		mov r20,r17
 3805 0140 6091 0000 		lds r22,rgblight_config+2
 3806 0144 0E94 0000 		call sethsv_raw
 3807               	.LVL259:
 154:quantum/rgblight/rgblight.c **** 
 3808               		.loc 1 154 70 discriminator 4 view .LVU857
 3809               	.LBE119:
 3810               	.LBE120:
 3811               	.LBE122:
1268:quantum/rgblight/rgblight.c ****         uint8_t local_hue = (i / RGBLIGHT_EFFECT_CHRISTMAS_STEP) % 2 ? hue : hue_green - hue;
 3812               		.loc 1 1268 55 is_stmt 1 discriminator 4 view .LVU858
 3813 0148 0F5F      		subi r16,lo8(-(1))
 3814               	.LVL260:
1268:quantum/rgblight/rgblight.c ****         uint8_t local_hue = (i / RGBLIGHT_EFFECT_CHRISTMAS_STEP) % 2 ? hue : hue_green - hue;
 3815               		.loc 1 1268 55 is_stmt 0 discriminator 4 view .LVU859
 3816 014a 00C0      		rjmp .L159
 3817               		.cfi_endproc
 3818               	.LFE182:
 3820               		.section	.text.rgblight_effect_alternating,"ax",@progbits
 3821               	.global	rgblight_effect_alternating
 3823               	rgblight_effect_alternating:
 3824               	.LVL261:
 3825               	.LFB184:
1312:quantum/rgblight/rgblight.c **** #endif
1313:quantum/rgblight/rgblight.c **** 
1314:quantum/rgblight/rgblight.c **** #ifdef RGBLIGHT_EFFECT_ALTERNATING
1315:quantum/rgblight/rgblight.c **** void rgblight_effect_alternating(animation_status_t *anim) {
 3826               		.loc 1 1315 60 is_stmt 1 view -0
 3827               		.cfi_startproc
 3828               		.loc 1 1315 60 is_stmt 0 view .LVU861
 3829 0000 0F93      		push r16
 3830               	.LCFI92:
 3831               		.cfi_def_cfa_offset 3
 3832               		.cfi_offset 16, -2
 3833 0002 1F93      		push r17
 3834               	.LCFI93:
 3835               		.cfi_def_cfa_offset 4
 3836               		.cfi_offset 17, -3
 3837 0004 CF93      		push r28
 3838               	.LCFI94:
 3839               		.cfi_def_cfa_offset 5
 3840               		.cfi_offset 28, -4
 3841 0006 DF93      		push r29
 3842               	.LCFI95:
 3843               		.cfi_def_cfa_offset 6
 3844               		.cfi_offset 29, -5
 3845               	/* prologue: function */
 3846               	/* frame size = 0 */
 3847               	/* stack size = 4 */
 3848               	.L__stack_usage = 4
 3849 0008 EC01      		movw r28,r24
1316:quantum/rgblight/rgblight.c ****     for (int i = 0; i < rgblight_ranges.effect_num_leds; i++) {
 3850               		.loc 1 1316 5 is_stmt 1 view .LVU862
 3851               	.LBB131:
 3852               		.loc 1 1316 10 view .LVU863
 3853               	.LVL262:
 3854               		.loc 1 1316 14 is_stmt 0 view .LVU864
 3855 000a 10E0      		ldi r17,0
 3856 000c 00E0      		ldi r16,0
 3857               	.LVL263:
 3858               	.L167:
 3859               		.loc 1 1316 23 is_stmt 1 discriminator 1 view .LVU865
 3860               		.loc 1 1316 40 is_stmt 0 discriminator 1 view .LVU866
 3861 000e 9091 0000 		lds r25,rgblight_ranges+4
 3862               		.loc 1 1316 23 discriminator 1 view .LVU867
 3863 0012 9017      		cp r25,r16
 3864 0014 1106      		cpc __zero_reg__,r17
 3865 0016 01F0      		breq .+2
 3866 0018 04F4      		brge .L171
 3867               	.LBE131:
1317:quantum/rgblight/rgblight.c ****         LED_TYPE *ledp = led + i + rgblight_ranges.effect_start_pos;
1318:quantum/rgblight/rgblight.c ****         if (i < rgblight_ranges.effect_num_leds / 2 && anim->pos) {
1319:quantum/rgblight/rgblight.c ****             sethsv(rgblight_config.hue, rgblight_config.sat, rgblight_config.val, ledp);
1320:quantum/rgblight/rgblight.c ****         } else if (i >= rgblight_ranges.effect_num_leds / 2 && !anim->pos) {
1321:quantum/rgblight/rgblight.c ****             sethsv(rgblight_config.hue, rgblight_config.sat, rgblight_config.val, ledp);
1322:quantum/rgblight/rgblight.c ****         } else {
1323:quantum/rgblight/rgblight.c ****             sethsv(rgblight_config.hue, rgblight_config.sat, 0, ledp);
1324:quantum/rgblight/rgblight.c ****         }
1325:quantum/rgblight/rgblight.c ****     }
1326:quantum/rgblight/rgblight.c ****     rgblight_set();
 3868               		.loc 1 1326 5 is_stmt 1 view .LVU868
 3869 001a 0E94 0000 		call rgblight_set
 3870               	.LVL264:
1327:quantum/rgblight/rgblight.c ****     anim->pos = (anim->pos + 1) % 2;
 3871               		.loc 1 1327 5 view .LVU869
 3872               		.loc 1 1327 22 is_stmt 0 view .LVU870
 3873 001e 8C81      		ldd r24,Y+4
 3874 0020 90E0      		ldi r25,0
 3875               		.loc 1 1327 28 view .LVU871
 3876 0022 0196      		adiw r24,1
 3877               		.loc 1 1327 33 view .LVU872
 3878 0024 8170      		andi r24,1
 3879 0026 9927      		clr r25
 3880               		.loc 1 1327 15 view .LVU873
 3881 0028 8C83      		std Y+4,r24
 3882               	/* epilogue start */
1328:quantum/rgblight/rgblight.c **** }
 3883               		.loc 1 1328 1 view .LVU874
 3884 002a DF91      		pop r29
 3885 002c CF91      		pop r28
 3886               	.LVL265:
 3887               		.loc 1 1328 1 view .LVU875
 3888 002e 1F91      		pop r17
 3889 0030 0F91      		pop r16
 3890               	.LVL266:
 3891               		.loc 1 1328 1 view .LVU876
 3892 0032 0895      		ret
 3893               	.LVL267:
 3894               	.L171:
 3895               	.LBB140:
 3896               	.LBB132:
1317:quantum/rgblight/rgblight.c ****         LED_TYPE *ledp = led + i + rgblight_ranges.effect_start_pos;
 3897               		.loc 1 1317 9 is_stmt 1 view .LVU877
1317:quantum/rgblight/rgblight.c ****         LED_TYPE *ledp = led + i + rgblight_ranges.effect_start_pos;
 3898               		.loc 1 1317 34 is_stmt 0 view .LVU878
 3899 0034 8091 0000 		lds r24,rgblight_ranges+2
 3900 0038 A801      		movw r20,r16
 3901 003a 480F      		add r20,r24
 3902 003c 511D      		adc r21,__zero_reg__
 3903 003e 9A01      		movw r18,r20
 3904 0040 220F      		lsl r18
 3905 0042 331F      		rol r19
 3906 0044 240F      		add r18,r20
 3907 0046 351F      		adc r19,r21
1317:quantum/rgblight/rgblight.c ****         LED_TYPE *ledp = led + i + rgblight_ranges.effect_start_pos;
 3908               		.loc 1 1317 19 view .LVU879
 3909 0048 2050      		subi r18,lo8(-(led))
 3910 004a 3040      		sbci r19,hi8(-(led))
 3911               	.LVL268:
1318:quantum/rgblight/rgblight.c ****             sethsv(rgblight_config.hue, rgblight_config.sat, rgblight_config.val, ledp);
 3912               		.loc 1 1318 9 is_stmt 1 view .LVU880
1318:quantum/rgblight/rgblight.c ****             sethsv(rgblight_config.hue, rgblight_config.sat, rgblight_config.val, ledp);
 3913               		.loc 1 1318 60 is_stmt 0 view .LVU881
 3914 004c 4C81      		ldd r20,Y+4
1319:quantum/rgblight/rgblight.c ****         } else if (i >= rgblight_ranges.effect_num_leds / 2 && !anim->pos) {
 3915               		.loc 1 1319 13 view .LVU882
 3916 004e 6091 0000 		lds r22,rgblight_config+2
 3917 0052 8091 0000 		lds r24,rgblight_config+1
1318:quantum/rgblight/rgblight.c ****             sethsv(rgblight_config.hue, rgblight_config.sat, rgblight_config.val, ledp);
 3918               		.loc 1 1318 49 view .LVU883
 3919 0056 9695      		lsr r25
1318:quantum/rgblight/rgblight.c ****             sethsv(rgblight_config.hue, rgblight_config.sat, rgblight_config.val, ledp);
 3920               		.loc 1 1318 12 view .LVU884
 3921 0058 9017      		cp r25,r16
 3922 005a 1106      		cpc __zero_reg__,r17
 3923 005c 01F0      		breq .L168
 3924 005e 04F0      		brlt .L168
1318:quantum/rgblight/rgblight.c ****             sethsv(rgblight_config.hue, rgblight_config.sat, rgblight_config.val, ledp);
 3925               		.loc 1 1318 53 discriminator 1 view .LVU885
 3926 0060 4423      		tst r20
 3927 0062 01F0      		breq .L169
 3928               	.L176:
1321:quantum/rgblight/rgblight.c ****         } else {
 3929               		.loc 1 1321 13 is_stmt 1 view .LVU886
 3930               	.LVL269:
 3931               	.LBB133:
 3932               	.LBI133:
 154:quantum/rgblight/rgblight.c **** 
 3933               		.loc 1 154 6 view .LVU887
 3934               	.LBB134:
 154:quantum/rgblight/rgblight.c **** 
 3935               		.loc 1 154 70 view .LVU888
 3936 0064 4091 0000 		lds r20,rgblight_config+3
 3937               	.LVL270:
 3938               	.L175:
 154:quantum/rgblight/rgblight.c **** 
 3939               		.loc 1 154 70 is_stmt 0 view .LVU889
 3940               	.LBE134:
 3941               	.LBE133:
 3942               	.LBB135:
 3943               	.LBB136:
 3944 0068 0E94 0000 		call sethsv_raw
 3945               	.LVL271:
 154:quantum/rgblight/rgblight.c **** 
 3946               		.loc 1 154 70 view .LVU890
 3947               	.LBE136:
 3948               	.LBE135:
 3949               	.LBE132:
1316:quantum/rgblight/rgblight.c ****         LED_TYPE *ledp = led + i + rgblight_ranges.effect_start_pos;
 3950               		.loc 1 1316 59 is_stmt 1 view .LVU891
 3951 006c 0F5F      		subi r16,-1
 3952 006e 1F4F      		sbci r17,-1
 3953               	.LVL272:
1316:quantum/rgblight/rgblight.c ****         LED_TYPE *ledp = led + i + rgblight_ranges.effect_start_pos;
 3954               		.loc 1 1316 59 is_stmt 0 view .LVU892
 3955 0070 00C0      		rjmp .L167
 3956               	.LVL273:
 3957               	.L168:
 3958               	.LBB139:
1320:quantum/rgblight/rgblight.c ****             sethsv(rgblight_config.hue, rgblight_config.sat, rgblight_config.val, ledp);
 3959               		.loc 1 1320 16 is_stmt 1 discriminator 1 view .LVU893
1320:quantum/rgblight/rgblight.c ****             sethsv(rgblight_config.hue, rgblight_config.sat, rgblight_config.val, ledp);
 3960               		.loc 1 1320 61 is_stmt 0 discriminator 1 view .LVU894
 3961 0072 4423      		tst r20
 3962 0074 01F0      		breq .L176
 3963               	.L169:
1323:quantum/rgblight/rgblight.c ****         }
 3964               		.loc 1 1323 13 is_stmt 1 view .LVU895
 3965               	.LVL274:
 3966               	.LBB138:
 3967               	.LBI135:
 154:quantum/rgblight/rgblight.c **** 
 3968               		.loc 1 154 6 view .LVU896
 3969               	.LBB137:
 154:quantum/rgblight/rgblight.c **** 
 3970               		.loc 1 154 70 view .LVU897
 3971 0076 40E0      		ldi r20,0
 3972 0078 00C0      		rjmp .L175
 3973               	.LBE137:
 3974               	.LBE138:
 3975               	.LBE139:
 3976               	.LBE140:
 3977               		.cfi_endproc
 3978               	.LFE184:
 3980               		.section	.text.rgblight_disable,"ax",@progbits
 3981               	.global	rgblight_disable
 3983               	rgblight_disable:
 3984               	.LFB118:
 385:quantum/rgblight/rgblight.c ****     rgblight_config.enable = 0;
 3985               		.loc 1 385 29 view -0
 3986               		.cfi_startproc
 3987 0000 CF93      		push r28
 3988               	.LCFI96:
 3989               		.cfi_def_cfa_offset 3
 3990               		.cfi_offset 28, -2
 3991 0002 DF93      		push r29
 3992               	.LCFI97:
 3993               		.cfi_def_cfa_offset 4
 3994               		.cfi_offset 29, -3
 3995 0004 00D0      		rcall .
 3996 0006 00D0      		rcall .
 3997               	.LCFI98:
 3998               		.cfi_def_cfa_offset 8
 3999 0008 CDB7      		in r28,__SP_L__
 4000 000a DEB7      		in r29,__SP_H__
 4001               	.LCFI99:
 4002               		.cfi_def_cfa_register 28
 4003               	/* prologue: function */
 4004               	/* frame size = 4 */
 4005               	/* stack size = 6 */
 4006               	.L__stack_usage = 6
 386:quantum/rgblight/rgblight.c ****     eeconfig_update_rgblight(rgblight_config.raw);
 4007               		.loc 1 386 5 view .LVU899
 386:quantum/rgblight/rgblight.c ****     eeconfig_update_rgblight(rgblight_config.raw);
 4008               		.loc 1 386 28 is_stmt 0 view .LVU900
 4009 000c E0E0      		ldi r30,lo8(rgblight_config)
 4010 000e F0E0      		ldi r31,hi8(rgblight_config)
 4011 0010 8081      		ld r24,Z
 4012 0012 8E7F      		andi r24,lo8(~(1<<0))
 4013 0014 8083      		st Z,r24
 387:quantum/rgblight/rgblight.c ****     dprintf("rgblight disable [EEPROM]: rgblight_config.enable = %u\n", rgblight_config.enable);
 4014               		.loc 1 387 5 is_stmt 1 view .LVU901
 4015 0016 8081      		ld r24,Z
 4016 0018 9181      		ldd r25,Z+1
 4017 001a A281      		ldd r26,Z+2
 4018 001c B381      		ldd r27,Z+3
 4019 001e 8983      		std Y+1,r24
 4020 0020 9A83      		std Y+2,r25
 4021 0022 AB83      		std Y+3,r26
 4022 0024 BC83      		std Y+4,r27
 4023 0026 BC01      		movw r22,r24
 4024 0028 CD01      		movw r24,r26
 4025 002a 0E94 0000 		call eeconfig_update_rgblight
 4026               	.LVL275:
 388:quantum/rgblight/rgblight.c ****     rgblight_timer_disable();
 4027               		.loc 1 388 96 view .LVU902
 389:quantum/rgblight/rgblight.c ****     RGBLIGHT_SPLIT_SET_CHANGE_MODE;
 4028               		.loc 1 389 5 view .LVU903
 4029               	.LBB145:
 4030               	.LBI145:
 901:quantum/rgblight/rgblight.c ****     rgblight_status.timer_enabled = false;
 4031               		.loc 1 901 6 view .LVU904
 4032               	.LBB146:
 902:quantum/rgblight/rgblight.c ****     RGBLIGHT_SPLIT_SET_CHANGE_TIMER_ENABLE;
 4033               		.loc 1 902 5 view .LVU905
 902:quantum/rgblight/rgblight.c ****     RGBLIGHT_SPLIT_SET_CHANGE_TIMER_ENABLE;
 4034               		.loc 1 902 35 is_stmt 0 view .LVU906
 4035 002e 1092 0000 		sts rgblight_status+1,__zero_reg__
 903:quantum/rgblight/rgblight.c **** }
 4036               		.loc 1 903 43 is_stmt 1 view .LVU907
 4037               	.LBE146:
 4038               	.LBE145:
 390:quantum/rgblight/rgblight.c ****     wait_ms(50);
 4039               		.loc 1 390 35 view .LVU908
 391:quantum/rgblight/rgblight.c ****     rgblight_set();
 4040               		.loc 1 391 5 view .LVU909
 391:quantum/rgblight/rgblight.c ****     rgblight_set();
 4041               		.loc 1 391 5 view .LVU910
 391:quantum/rgblight/rgblight.c ****     rgblight_set();
 4042               		.loc 1 391 5 view .LVU911
 4043               	.LVL276:
 4044               	.LBB147:
 4045               	.LBI147:
 166:/usr/avr/include/util/delay.h **** {
 4046               		.loc 3 166 1 view .LVU912
 4047               	.LBB148:
 168:/usr/avr/include/util/delay.h **** #if __HAS_DELAY_CYCLES && defined(__OPTIMIZE__) && \
 4048               		.loc 3 168 2 view .LVU913
 172:/usr/avr/include/util/delay.h **** 	extern void __builtin_avr_delay_cycles(unsigned long);
 4049               		.loc 3 172 2 view .LVU914
 173:/usr/avr/include/util/delay.h **** 	__tmp = ((F_CPU) / 1e3) * __ms;
 4050               		.loc 3 173 2 view .LVU915
 174:/usr/avr/include/util/delay.h **** 
 4051               		.loc 3 174 2 view .LVU916
 184:/usr/avr/include/util/delay.h **** 	#endif
 4052               		.loc 3 184 3 view .LVU917
 4053               		.loc 3 187 2 view .LVU918
 4054 0032 9FEF      		ldi r25,lo8(159999)
 4055 0034 A0E7      		ldi r26,hi8(159999)
 4056 0036 B2E0      		ldi r27,hlo8(159999)
 4057 0038 9150      	1:	subi r25,1
 4058 003a A040      		sbci r26,0
 4059 003c B040      		sbci r27,0
 4060 003e 01F4      		brne 1b
 4061 0040 00C0      		rjmp .
 4062 0042 0000      		nop
 4063               	.LVL277:
 4064               		.loc 3 187 2 is_stmt 0 view .LVU919
 4065               	.LBE148:
 4066               	.LBE147:
 391:quantum/rgblight/rgblight.c ****     rgblight_set();
 4067               		.loc 1 391 5 is_stmt 1 view .LVU920
 392:quantum/rgblight/rgblight.c **** }
 4068               		.loc 1 392 5 view .LVU921
 4069               	/* epilogue start */
 393:quantum/rgblight/rgblight.c **** 
 4070               		.loc 1 393 1 is_stmt 0 view .LVU922
 4071 0044 0F90      		pop __tmp_reg__
 4072 0046 0F90      		pop __tmp_reg__
 4073 0048 0F90      		pop __tmp_reg__
 4074 004a 0F90      		pop __tmp_reg__
 4075 004c DF91      		pop r29
 4076 004e CF91      		pop r28
 392:quantum/rgblight/rgblight.c **** }
 4077               		.loc 1 392 5 view .LVU923
 4078 0050 0C94 0000 		jmp rgblight_set
 4079               	.LVL278:
 4080               		.cfi_endproc
 4081               	.LFE118:
 4083               		.section	.text.rgblight_disable_noeeprom,"ax",@progbits
 4084               	.global	rgblight_disable_noeeprom
 4086               	rgblight_disable_noeeprom:
 4087               	.LFB119:
 395:quantum/rgblight/rgblight.c ****     rgblight_config.enable = 0;
 4088               		.loc 1 395 38 is_stmt 1 view -0
 4089               		.cfi_startproc
 4090               	/* prologue: function */
 4091               	/* frame size = 0 */
 4092               	/* stack size = 0 */
 4093               	.L__stack_usage = 0
 396:quantum/rgblight/rgblight.c ****     dprintf("rgblight disable [NOEEPROM]: rgblight_config.enable = %u\n", rgblight_config.enable);
 4094               		.loc 1 396 5 view .LVU925
 396:quantum/rgblight/rgblight.c ****     dprintf("rgblight disable [NOEEPROM]: rgblight_config.enable = %u\n", rgblight_config.enable);
 4095               		.loc 1 396 28 is_stmt 0 view .LVU926
 4096 0000 E0E0      		ldi r30,lo8(rgblight_config)
 4097 0002 F0E0      		ldi r31,hi8(rgblight_config)
 4098 0004 8081      		ld r24,Z
 4099 0006 8E7F      		andi r24,lo8(~(1<<0))
 4100 0008 8083      		st Z,r24
 397:quantum/rgblight/rgblight.c ****     rgblight_timer_disable();
 4101               		.loc 1 397 98 is_stmt 1 view .LVU927
 398:quantum/rgblight/rgblight.c ****     RGBLIGHT_SPLIT_SET_CHANGE_MODE;
 4102               		.loc 1 398 5 view .LVU928
 4103               	.LBB153:
 4104               	.LBI153:
 901:quantum/rgblight/rgblight.c ****     rgblight_status.timer_enabled = false;
 4105               		.loc 1 901 6 view .LVU929
 4106               	.LBB154:
 902:quantum/rgblight/rgblight.c ****     RGBLIGHT_SPLIT_SET_CHANGE_TIMER_ENABLE;
 4107               		.loc 1 902 5 view .LVU930
 902:quantum/rgblight/rgblight.c ****     RGBLIGHT_SPLIT_SET_CHANGE_TIMER_ENABLE;
 4108               		.loc 1 902 35 is_stmt 0 view .LVU931
 4109 000a 1092 0000 		sts rgblight_status+1,__zero_reg__
 903:quantum/rgblight/rgblight.c **** }
 4110               		.loc 1 903 43 is_stmt 1 view .LVU932
 4111               	.LBE154:
 4112               	.LBE153:
 399:quantum/rgblight/rgblight.c ****     wait_ms(50);
 4113               		.loc 1 399 35 view .LVU933
 400:quantum/rgblight/rgblight.c ****     rgblight_set();
 4114               		.loc 1 400 5 view .LVU934
 400:quantum/rgblight/rgblight.c ****     rgblight_set();
 4115               		.loc 1 400 5 view .LVU935
 400:quantum/rgblight/rgblight.c ****     rgblight_set();
 4116               		.loc 1 400 5 view .LVU936
 4117               	.LVL279:
 4118               	.LBB155:
 4119               	.LBI155:
 166:/usr/avr/include/util/delay.h **** {
 4120               		.loc 3 166 1 view .LVU937
 4121               	.LBB156:
 168:/usr/avr/include/util/delay.h **** #if __HAS_DELAY_CYCLES && defined(__OPTIMIZE__) && \
 4122               		.loc 3 168 2 view .LVU938
 172:/usr/avr/include/util/delay.h **** 	extern void __builtin_avr_delay_cycles(unsigned long);
 4123               		.loc 3 172 2 view .LVU939
 173:/usr/avr/include/util/delay.h **** 	__tmp = ((F_CPU) / 1e3) * __ms;
 4124               		.loc 3 173 2 view .LVU940
 174:/usr/avr/include/util/delay.h **** 
 4125               		.loc 3 174 2 view .LVU941
 184:/usr/avr/include/util/delay.h **** 	#endif
 4126               		.loc 3 184 3 view .LVU942
 4127               		.loc 3 187 2 view .LVU943
 4128 000e 2FEF      		ldi r18,lo8(159999)
 4129 0010 80E7      		ldi r24,hi8(159999)
 4130 0012 92E0      		ldi r25,hlo8(159999)
 4131 0014 2150      	1:	subi r18,1
 4132 0016 8040      		sbci r24,0
 4133 0018 9040      		sbci r25,0
 4134 001a 01F4      		brne 1b
 4135 001c 00C0      		rjmp .
 4136 001e 0000      		nop
 4137               	.LVL280:
 4138               		.loc 3 187 2 is_stmt 0 view .LVU944
 4139               	.LBE156:
 4140               	.LBE155:
 400:quantum/rgblight/rgblight.c ****     rgblight_set();
 4141               		.loc 1 400 5 is_stmt 1 view .LVU945
 401:quantum/rgblight/rgblight.c **** }
 4142               		.loc 1 401 5 view .LVU946
 4143 0020 0C94 0000 		jmp rgblight_set
 4144               	.LVL281:
 4145               		.cfi_endproc
 4146               	.LFE119:
 4148               		.section	.text.rgblight_timer_init,"ax",@progbits
 4149               	.global	rgblight_timer_init
 4151               	rgblight_timer_init:
 4152               	.LFB169:
 901:quantum/rgblight/rgblight.c ****     rgblight_status.timer_enabled = false;
 4153               		.loc 1 901 32 view -0
 4154               		.cfi_startproc
 4155               	/* prologue: function */
 4156               	/* frame size = 0 */
 4157               	/* stack size = 0 */
 4158               	.L__stack_usage = 0
 902:quantum/rgblight/rgblight.c ****     RGBLIGHT_SPLIT_SET_CHANGE_TIMER_ENABLE;
 4159               		.loc 1 902 5 view .LVU948
 902:quantum/rgblight/rgblight.c ****     RGBLIGHT_SPLIT_SET_CHANGE_TIMER_ENABLE;
 4160               		.loc 1 902 35 is_stmt 0 view .LVU949
 4161 0000 1092 0000 		sts rgblight_status+1,__zero_reg__
 903:quantum/rgblight/rgblight.c **** }
 4162               		.loc 1 903 43 is_stmt 1 view .LVU950
 4163               	/* epilogue start */
 904:quantum/rgblight/rgblight.c **** void rgblight_timer_enable(void) {
 4164               		.loc 1 904 1 is_stmt 0 view .LVU951
 4165 0004 0895      		ret
 4166               		.cfi_endproc
 4167               	.LFE169:
 4169               		.section	.text.rgblight_timer_enable,"ax",@progbits
 4170               	.global	rgblight_timer_enable
 4172               	rgblight_timer_enable:
 4173               	.LFB170:
 905:quantum/rgblight/rgblight.c ****     if (!is_static_effect(rgblight_config.mode)) {
 4174               		.loc 1 905 34 is_stmt 1 view -0
 4175               		.cfi_startproc
 4176               	/* prologue: function */
 4177               	/* frame size = 0 */
 4178               	/* stack size = 0 */
 4179               	.L__stack_usage = 0
 906:quantum/rgblight/rgblight.c ****         rgblight_status.timer_enabled = true;
 4180               		.loc 1 906 5 view .LVU953
 4181               	.LVL282:
 4182               	.LBB159:
 4183               	.LBI159:
  99:quantum/rgblight/rgblight.c **** 
 4184               		.loc 1 99 19 view .LVU954
 4185               	.LBB160:
  99:quantum/rgblight/rgblight.c **** 
 4186               		.loc 1 99 52 view .LVU955
 4187               	.LBE160:
 4188               	.LBE159:
 906:quantum/rgblight/rgblight.c ****         rgblight_status.timer_enabled = true;
 4189               		.loc 1 906 42 is_stmt 0 view .LVU956
 4190 0000 6091 0000 		lds r22,rgblight_config
 4191 0004 6695      		lsr r22
 4192               	.LBB162:
 4193               	.LBB161:
  99:quantum/rgblight/rgblight.c **** 
 4194               		.loc 1 99 59 view .LVU957
 4195 0006 70E0      		ldi r23,0
 4196 0008 4BE0      		ldi r20,lo8(11)
 4197 000a 50E0      		ldi r21,0
 4198 000c 80E0      		ldi r24,lo8(static_effect_table)
 4199 000e 90E0      		ldi r25,hi8(static_effect_table)
 4200 0010 0E94 0000 		call memchr
 4201               	.LVL283:
  99:quantum/rgblight/rgblight.c **** 
 4202               		.loc 1 99 59 view .LVU958
 4203               	.LBE161:
 4204               	.LBE162:
 906:quantum/rgblight/rgblight.c ****         rgblight_status.timer_enabled = true;
 4205               		.loc 1 906 8 view .LVU959
 4206 0014 892B      		or r24,r25
 4207 0016 01F4      		brne .L181
 907:quantum/rgblight/rgblight.c ****     }
 4208               		.loc 1 907 9 is_stmt 1 view .LVU960
 907:quantum/rgblight/rgblight.c ****     }
 4209               		.loc 1 907 39 is_stmt 0 view .LVU961
 4210 0018 81E0      		ldi r24,lo8(1)
 4211 001a 8093 0000 		sts rgblight_status+1,r24
 4212               	.L181:
 909:quantum/rgblight/rgblight.c ****     RGBLIGHT_SPLIT_SET_CHANGE_TIMER_ENABLE;
 4213               		.loc 1 909 5 is_stmt 1 view .LVU962
 909:quantum/rgblight/rgblight.c ****     RGBLIGHT_SPLIT_SET_CHANGE_TIMER_ENABLE;
 4214               		.loc 1 909 35 is_stmt 0 view .LVU963
 4215 001e 0E94 0000 		call timer_read
 4216               	.LVL284:
 909:quantum/rgblight/rgblight.c ****     RGBLIGHT_SPLIT_SET_CHANGE_TIMER_ENABLE;
 4217               		.loc 1 909 33 view .LVU964
 4218 0022 9093 0000 		sts animation_status+1,r25
 4219 0026 8093 0000 		sts animation_status,r24
 910:quantum/rgblight/rgblight.c ****     dprintf("rgblight timer enabled.\n");
 4220               		.loc 1 910 43 is_stmt 1 view .LVU965
 911:quantum/rgblight/rgblight.c **** }
 4221               		.loc 1 911 41 view .LVU966
 4222               	/* epilogue start */
 912:quantum/rgblight/rgblight.c **** void rgblight_timer_disable(void) {
 4223               		.loc 1 912 1 is_stmt 0 view .LVU967
 4224 002a 0895      		ret
 4225               		.cfi_endproc
 4226               	.LFE170:
 4228               		.section	.text.rgblight_mode_eeprom_helper,"ax",@progbits
 4229               	.global	rgblight_mode_eeprom_helper
 4231               	rgblight_mode_eeprom_helper:
 4232               	.LVL285:
 4233               	.LFB111:
 320:quantum/rgblight/rgblight.c ****     if (!rgblight_config.enable) {
 4234               		.loc 1 320 70 is_stmt 1 view -0
 4235               		.cfi_startproc
 320:quantum/rgblight/rgblight.c ****     if (!rgblight_config.enable) {
 4236               		.loc 1 320 70 is_stmt 0 view .LVU969
 4237 0000 CF93      		push r28
 4238               	.LCFI100:
 4239               		.cfi_def_cfa_offset 3
 4240               		.cfi_offset 28, -2
 4241 0002 DF93      		push r29
 4242               	.LCFI101:
 4243               		.cfi_def_cfa_offset 4
 4244               		.cfi_offset 29, -3
 4245 0004 00D0      		rcall .
 4246 0006 00D0      		rcall .
 4247               	.LCFI102:
 4248               		.cfi_def_cfa_offset 8
 4249 0008 CDB7      		in r28,__SP_L__
 4250 000a DEB7      		in r29,__SP_H__
 4251               	.LCFI103:
 4252               		.cfi_def_cfa_register 28
 4253               	/* prologue: function */
 4254               	/* frame size = 4 */
 4255               	/* stack size = 6 */
 4256               	.L__stack_usage = 6
 321:quantum/rgblight/rgblight.c ****         return;
 4257               		.loc 1 321 5 is_stmt 1 view .LVU970
 321:quantum/rgblight/rgblight.c ****         return;
 4258               		.loc 1 321 25 is_stmt 0 view .LVU971
 4259 000c 9091 0000 		lds r25,rgblight_config
 321:quantum/rgblight/rgblight.c ****         return;
 4260               		.loc 1 321 8 view .LVU972
 4261 0010 90FF      		sbrs r25,0
 4262 0012 00C0      		rjmp .L182
 324:quantum/rgblight/rgblight.c ****         rgblight_config.mode = RGBLIGHT_MODE_STATIC_LIGHT;
 4263               		.loc 1 324 5 is_stmt 1 view .LVU973
 324:quantum/rgblight/rgblight.c ****         rgblight_config.mode = RGBLIGHT_MODE_STATIC_LIGHT;
 4264               		.loc 1 324 8 is_stmt 0 view .LVU974
 4265 0014 8823      		tst r24
 4266 0016 01F0      		breq .L188
 326:quantum/rgblight/rgblight.c ****         rgblight_config.mode = RGBLIGHT_MODES;
 4267               		.loc 1 326 12 is_stmt 1 view .LVU975
 326:quantum/rgblight/rgblight.c ****         rgblight_config.mode = RGBLIGHT_MODES;
 4268               		.loc 1 326 15 is_stmt 0 view .LVU976
 4269 0018 8532      		cpi r24,lo8(37)
 4270 001a 00F4      		brsh .L189
 329:quantum/rgblight/rgblight.c ****     }
 4271               		.loc 1 329 9 is_stmt 1 view .LVU977
 329:quantum/rgblight/rgblight.c ****     }
 4272               		.loc 1 329 30 is_stmt 0 view .LVU978
 4273 001c 8F77      		andi r24,lo8(127)
 4274               	.LVL286:
 4275               	.L184:
 325:quantum/rgblight/rgblight.c ****     } else if (mode > RGBLIGHT_MODES) {
 4276               		.loc 1 325 30 view .LVU979
 4277 001e 880F      		lsl r24
 4278 0020 9091 0000 		lds r25,rgblight_config
 4279 0024 9170      		andi r25,lo8(1)
 4280 0026 892B      		or r24,r25
 4281 0028 8093 0000 		sts rgblight_config,r24
 331:quantum/rgblight/rgblight.c ****     if (write_to_eeprom) {
 4282               		.loc 1 331 35 is_stmt 1 view .LVU980
 332:quantum/rgblight/rgblight.c ****         eeconfig_update_rgblight(rgblight_config.raw);
 4283               		.loc 1 332 5 view .LVU981
 332:quantum/rgblight/rgblight.c ****         eeconfig_update_rgblight(rgblight_config.raw);
 4284               		.loc 1 332 8 is_stmt 0 view .LVU982
 4285 002c 6623      		tst r22
 4286 002e 01F0      		breq .L185
 333:quantum/rgblight/rgblight.c ****         dprintf("rgblight mode [EEPROM]: %u\n", rgblight_config.mode);
 4287               		.loc 1 333 9 is_stmt 1 view .LVU983
 4288 0030 8091 0000 		lds r24,rgblight_config
 4289 0034 9091 0000 		lds r25,rgblight_config+1
 4290 0038 A091 0000 		lds r26,rgblight_config+2
 4291 003c B091 0000 		lds r27,rgblight_config+3
 4292 0040 8983      		std Y+1,r24
 4293 0042 9A83      		std Y+2,r25
 4294 0044 AB83      		std Y+3,r26
 4295 0046 BC83      		std Y+4,r27
 4296 0048 BC01      		movw r22,r24
 4297               	.LVL287:
 333:quantum/rgblight/rgblight.c ****         dprintf("rgblight mode [EEPROM]: %u\n", rgblight_config.mode);
 4298               		.loc 1 333 9 is_stmt 0 view .LVU984
 4299 004a CD01      		movw r24,r26
 4300 004c 0E94 0000 		call eeconfig_update_rgblight
 4301               	.LVL288:
 334:quantum/rgblight/rgblight.c ****     } else {
 4302               		.loc 1 334 70 is_stmt 1 view .LVU985
 4303               	.L185:
 336:quantum/rgblight/rgblight.c ****     }
 4304               		.loc 1 336 72 view .LVU986
 338:quantum/rgblight/rgblight.c ****         rgblight_timer_disable();
 4305               		.loc 1 338 5 view .LVU987
 4306               	.LBB167:
 4307               	.LBI167:
  99:quantum/rgblight/rgblight.c **** 
 4308               		.loc 1 99 19 view .LVU988
 4309               	.LBB168:
  99:quantum/rgblight/rgblight.c **** 
 4310               		.loc 1 99 52 view .LVU989
 4311               	.LBE168:
 4312               	.LBE167:
 338:quantum/rgblight/rgblight.c ****         rgblight_timer_disable();
 4313               		.loc 1 338 41 is_stmt 0 view .LVU990
 4314 0050 6091 0000 		lds r22,rgblight_config
 4315 0054 6695      		lsr r22
 4316               	.LBB170:
 4317               	.LBB169:
  99:quantum/rgblight/rgblight.c **** 
 4318               		.loc 1 99 59 view .LVU991
 4319 0056 70E0      		ldi r23,0
 4320 0058 4BE0      		ldi r20,lo8(11)
 4321 005a 50E0      		ldi r21,0
 4322 005c 80E0      		ldi r24,lo8(static_effect_table)
 4323 005e 90E0      		ldi r25,hi8(static_effect_table)
 4324 0060 0E94 0000 		call memchr
 4325               	.LVL289:
  99:quantum/rgblight/rgblight.c **** 
 4326               		.loc 1 99 59 view .LVU992
 4327               	.LBE169:
 4328               	.LBE170:
 338:quantum/rgblight/rgblight.c ****         rgblight_timer_disable();
 4329               		.loc 1 338 8 view .LVU993
 4330 0064 892B      		or r24,r25
 4331 0066 01F0      		breq .L186
 339:quantum/rgblight/rgblight.c ****     } else {
 4332               		.loc 1 339 9 is_stmt 1 view .LVU994
 4333               	.LBB171:
 4334               	.LBI171:
 901:quantum/rgblight/rgblight.c ****     rgblight_status.timer_enabled = false;
 4335               		.loc 1 901 6 view .LVU995
 4336               	.LBB172:
 902:quantum/rgblight/rgblight.c ****     RGBLIGHT_SPLIT_SET_CHANGE_TIMER_ENABLE;
 4337               		.loc 1 902 5 view .LVU996
 902:quantum/rgblight/rgblight.c ****     RGBLIGHT_SPLIT_SET_CHANGE_TIMER_ENABLE;
 4338               		.loc 1 902 35 is_stmt 0 view .LVU997
 4339 0068 1092 0000 		sts rgblight_status+1,__zero_reg__
 903:quantum/rgblight/rgblight.c **** }
 4340               		.loc 1 903 43 is_stmt 1 view .LVU998
 4341               	.L187:
 4342               	.LBE172:
 4343               	.LBE171:
 344:quantum/rgblight/rgblight.c **** #endif
 4344               		.loc 1 344 5 view .LVU999
 344:quantum/rgblight/rgblight.c **** #endif
 4345               		.loc 1 344 30 is_stmt 0 view .LVU1000
 4346 006c 81E0      		ldi r24,lo8(1)
 4347 006e 8093 0000 		sts animation_status+3,r24
 346:quantum/rgblight/rgblight.c **** }
 4348               		.loc 1 346 5 is_stmt 1 view .LVU1001
 4349 0072 4091 0000 		lds r20,rgblight_config+3
 4350 0076 6091 0000 		lds r22,rgblight_config+2
 4351 007a 8091 0000 		lds r24,rgblight_config+1
 4352               	/* epilogue start */
 347:quantum/rgblight/rgblight.c **** 
 4353               		.loc 1 347 1 is_stmt 0 view .LVU1002
 4354 007e 0F90      		pop __tmp_reg__
 4355 0080 0F90      		pop __tmp_reg__
 4356 0082 0F90      		pop __tmp_reg__
 4357 0084 0F90      		pop __tmp_reg__
 4358 0086 DF91      		pop r29
 4359 0088 CF91      		pop r28
 346:quantum/rgblight/rgblight.c **** }
 4360               		.loc 1 346 5 view .LVU1003
 4361 008a 0C94 0000 		jmp rgblight_sethsv_noeeprom
 4362               	.LVL290:
 4363               	.L188:
 346:quantum/rgblight/rgblight.c **** }
 4364               		.loc 1 346 5 view .LVU1004
 4365 008e 81E0      		ldi r24,lo8(1)
 4366               	.LVL291:
 346:quantum/rgblight/rgblight.c **** }
 4367               		.loc 1 346 5 view .LVU1005
 4368 0090 00C0      		rjmp .L184
 4369               	.LVL292:
 4370               	.L189:
 346:quantum/rgblight/rgblight.c **** }
 4371               		.loc 1 346 5 view .LVU1006
 4372 0092 84E2      		ldi r24,lo8(36)
 4373               	.LVL293:
 346:quantum/rgblight/rgblight.c **** }
 4374               		.loc 1 346 5 view .LVU1007
 4375 0094 00C0      		rjmp .L184
 4376               	.LVL294:
 4377               	.L186:
 341:quantum/rgblight/rgblight.c ****     }
 4378               		.loc 1 341 9 is_stmt 1 view .LVU1008
 4379 0096 0E94 0000 		call rgblight_timer_enable
 4380               	.LVL295:
 4381 009a 00C0      		rjmp .L187
 4382               	.LVL296:
 4383               	.L182:
 4384               	/* epilogue start */
 347:quantum/rgblight/rgblight.c **** 
 4385               		.loc 1 347 1 is_stmt 0 view .LVU1009
 4386 009c 0F90      		pop __tmp_reg__
 4387 009e 0F90      		pop __tmp_reg__
 4388 00a0 0F90      		pop __tmp_reg__
 4389 00a2 0F90      		pop __tmp_reg__
 4390 00a4 DF91      		pop r29
 4391 00a6 CF91      		pop r28
 4392 00a8 0895      		ret
 4393               		.cfi_endproc
 4394               	.LFE111:
 4396               		.section	.text.rgblight_step_helper,"ax",@progbits
 4397               	.global	rgblight_step_helper
 4399               	rgblight_step_helper:
 4400               	.LVL297:
 4401               	.LFB104:
 291:quantum/rgblight/rgblight.c ****     uint8_t mode = 0;
 4402               		.loc 1 291 49 is_stmt 1 view -0
 4403               		.cfi_startproc
 4404               	/* prologue: function */
 4405               	/* frame size = 0 */
 4406               	/* stack size = 0 */
 4407               	.L__stack_usage = 0
 291:quantum/rgblight/rgblight.c ****     uint8_t mode = 0;
 4408               		.loc 1 291 49 is_stmt 0 view .LVU1011
 4409 0000 682F      		mov r22,r24
 292:quantum/rgblight/rgblight.c ****     mode         = rgblight_config.mode + 1;
 4410               		.loc 1 292 5 is_stmt 1 view .LVU1012
 4411               	.LVL298:
 293:quantum/rgblight/rgblight.c ****     if (mode > RGBLIGHT_MODES) {
 4412               		.loc 1 293 5 view .LVU1013
 293:quantum/rgblight/rgblight.c ****     if (mode > RGBLIGHT_MODES) {
 4413               		.loc 1 293 35 is_stmt 0 view .LVU1014
 4414 0002 8091 0000 		lds r24,rgblight_config
 4415               	.LVL299:
 293:quantum/rgblight/rgblight.c ****     if (mode > RGBLIGHT_MODES) {
 4416               		.loc 1 293 35 view .LVU1015
 4417 0006 8695      		lsr r24
 293:quantum/rgblight/rgblight.c ****     if (mode > RGBLIGHT_MODES) {
 4418               		.loc 1 293 18 view .LVU1016
 4419 0008 8F5F      		subi r24,lo8(-(1))
 4420               	.LVL300:
 294:quantum/rgblight/rgblight.c ****         mode = 1;
 4421               		.loc 1 294 5 is_stmt 1 view .LVU1017
 294:quantum/rgblight/rgblight.c ****         mode = 1;
 4422               		.loc 1 294 8 is_stmt 0 view .LVU1018
 4423 000a 8532      		cpi r24,lo8(37)
 4424 000c 00F0      		brlo .L194
 295:quantum/rgblight/rgblight.c ****     }
 4425               		.loc 1 295 14 view .LVU1019
 4426 000e 81E0      		ldi r24,lo8(1)
 4427               	.LVL301:
 4428               	.L194:
 297:quantum/rgblight/rgblight.c **** }
 4429               		.loc 1 297 5 is_stmt 1 view .LVU1020
 4430 0010 0C94 0000 		jmp rgblight_mode_eeprom_helper
 4431               	.LVL302:
 297:quantum/rgblight/rgblight.c **** }
 4432               		.loc 1 297 5 is_stmt 0 view .LVU1021
 4433               		.cfi_endproc
 4434               	.LFE104:
 4436               		.section	.text.rgblight_step_noeeprom,"ax",@progbits
 4437               	.global	rgblight_step_noeeprom
 4439               	rgblight_step_noeeprom:
 4440               	.LFB105:
 299:quantum/rgblight/rgblight.c **** void rgblight_step(void) { rgblight_step_helper(true); }
 4441               		.loc 1 299 35 is_stmt 1 view -0
 4442               		.cfi_startproc
 4443               	/* prologue: function */
 4444               	/* frame size = 0 */
 4445               	/* stack size = 0 */
 4446               	.L__stack_usage = 0
 299:quantum/rgblight/rgblight.c **** void rgblight_step(void) { rgblight_step_helper(true); }
 4447               		.loc 1 299 37 view .LVU1023
 4448 0000 80E0      		ldi r24,0
 4449 0002 0C94 0000 		jmp rgblight_step_helper
 4450               	.LVL303:
 4451               		.cfi_endproc
 4452               	.LFE105:
 4454               		.section	.text.rgblight_step,"ax",@progbits
 4455               	.global	rgblight_step
 4457               	rgblight_step:
 4458               	.LFB106:
 300:quantum/rgblight/rgblight.c **** void rgblight_step_reverse_helper(bool write_to_eeprom) {
 4459               		.loc 1 300 26 view -0
 4460               		.cfi_startproc
 4461               	/* prologue: function */
 4462               	/* frame size = 0 */
 4463               	/* stack size = 0 */
 4464               	.L__stack_usage = 0
 300:quantum/rgblight/rgblight.c **** void rgblight_step_reverse_helper(bool write_to_eeprom) {
 4465               		.loc 1 300 28 view .LVU1025
 4466 0000 81E0      		ldi r24,lo8(1)
 4467 0002 0C94 0000 		jmp rgblight_step_helper
 4468               	.LVL304:
 4469               		.cfi_endproc
 4470               	.LFE106:
 4472               		.section	.text.rgblight_step_reverse_helper,"ax",@progbits
 4473               	.global	rgblight_step_reverse_helper
 4475               	rgblight_step_reverse_helper:
 4476               	.LVL305:
 4477               	.LFB107:
 301:quantum/rgblight/rgblight.c ****     uint8_t mode = 0;
 4478               		.loc 1 301 57 view -0
 4479               		.cfi_startproc
 4480               	/* prologue: function */
 4481               	/* frame size = 0 */
 4482               	/* stack size = 0 */
 4483               	.L__stack_usage = 0
 301:quantum/rgblight/rgblight.c ****     uint8_t mode = 0;
 4484               		.loc 1 301 57 is_stmt 0 view .LVU1027
 4485 0000 682F      		mov r22,r24
 302:quantum/rgblight/rgblight.c ****     mode         = rgblight_config.mode - 1;
 4486               		.loc 1 302 5 is_stmt 1 view .LVU1028
 4487               	.LVL306:
 303:quantum/rgblight/rgblight.c ****     if (mode < 1) {
 4488               		.loc 1 303 5 view .LVU1029
 303:quantum/rgblight/rgblight.c ****     if (mode < 1) {
 4489               		.loc 1 303 35 is_stmt 0 view .LVU1030
 4490 0002 9091 0000 		lds r25,rgblight_config
 4491 0006 9695      		lsr r25
 303:quantum/rgblight/rgblight.c ****     if (mode < 1) {
 4492               		.loc 1 303 18 view .LVU1031
 4493 0008 8FEF      		ldi r24,lo8(-1)
 4494               	.LVL307:
 303:quantum/rgblight/rgblight.c ****     if (mode < 1) {
 4495               		.loc 1 303 18 view .LVU1032
 4496 000a 890F      		add r24,r25
 4497               	.LVL308:
 304:quantum/rgblight/rgblight.c ****         mode = RGBLIGHT_MODES;
 4498               		.loc 1 304 5 is_stmt 1 view .LVU1033
 304:quantum/rgblight/rgblight.c ****         mode = RGBLIGHT_MODES;
 4499               		.loc 1 304 8 is_stmt 0 view .LVU1034
 4500 000c 9130      		cpi r25,lo8(1)
 4501 000e 01F4      		brne .L198
 305:quantum/rgblight/rgblight.c ****     }
 4502               		.loc 1 305 14 view .LVU1035
 4503 0010 84E2      		ldi r24,lo8(36)
 4504               	.LVL309:
 4505               	.L198:
 307:quantum/rgblight/rgblight.c **** }
 4506               		.loc 1 307 5 is_stmt 1 view .LVU1036
 4507 0012 0C94 0000 		jmp rgblight_mode_eeprom_helper
 4508               	.LVL310:
 307:quantum/rgblight/rgblight.c **** }
 4509               		.loc 1 307 5 is_stmt 0 view .LVU1037
 4510               		.cfi_endproc
 4511               	.LFE107:
 4513               		.section	.text.rgblight_step_reverse_noeeprom,"ax",@progbits
 4514               	.global	rgblight_step_reverse_noeeprom
 4516               	rgblight_step_reverse_noeeprom:
 4517               	.LFB108:
 309:quantum/rgblight/rgblight.c **** void rgblight_step_reverse(void) { rgblight_step_reverse_helper(true); }
 4518               		.loc 1 309 43 is_stmt 1 view -0
 4519               		.cfi_startproc
 4520               	/* prologue: function */
 4521               	/* frame size = 0 */
 4522               	/* stack size = 0 */
 4523               	.L__stack_usage = 0
 309:quantum/rgblight/rgblight.c **** void rgblight_step_reverse(void) { rgblight_step_reverse_helper(true); }
 4524               		.loc 1 309 45 view .LVU1039
 4525 0000 80E0      		ldi r24,0
 4526 0002 0C94 0000 		jmp rgblight_step_reverse_helper
 4527               	.LVL311:
 4528               		.cfi_endproc
 4529               	.LFE108:
 4531               		.section	.text.rgblight_step_reverse,"ax",@progbits
 4532               	.global	rgblight_step_reverse
 4534               	rgblight_step_reverse:
 4535               	.LFB109:
 310:quantum/rgblight/rgblight.c **** 
 4536               		.loc 1 310 34 view -0
 4537               		.cfi_startproc
 4538               	/* prologue: function */
 4539               	/* frame size = 0 */
 4540               	/* stack size = 0 */
 4541               	.L__stack_usage = 0
 310:quantum/rgblight/rgblight.c **** 
 4542               		.loc 1 310 36 view .LVU1041
 4543 0000 81E0      		ldi r24,lo8(1)
 4544 0002 0C94 0000 		jmp rgblight_step_reverse_helper
 4545               	.LVL312:
 4546               		.cfi_endproc
 4547               	.LFE109:
 4549               		.section	.text.rgblight_mode,"ax",@progbits
 4550               	.global	rgblight_mode
 4552               	rgblight_mode:
 4553               	.LVL313:
 4554               	.LFB112:
 349:quantum/rgblight/rgblight.c **** 
 4555               		.loc 1 349 34 view -0
 4556               		.cfi_startproc
 4557               	/* prologue: function */
 4558               	/* frame size = 0 */
 4559               	/* stack size = 0 */
 4560               	.L__stack_usage = 0
 349:quantum/rgblight/rgblight.c **** 
 4561               		.loc 1 349 36 view .LVU1043
 4562 0000 61E0      		ldi r22,lo8(1)
 4563 0002 0C94 0000 		jmp rgblight_mode_eeprom_helper
 4564               	.LVL314:
 349:quantum/rgblight/rgblight.c **** 
 4565               		.loc 1 349 36 is_stmt 0 view .LVU1044
 4566               		.cfi_endproc
 4567               	.LFE112:
 4569               		.section	.text.rgblight_increase,"ax",@progbits
 4570               	.global	rgblight_increase
 4572               	rgblight_increase:
 4573               	.LFB102:
 276:quantum/rgblight/rgblight.c ****     uint8_t mode = 0;
 4574               		.loc 1 276 30 is_stmt 1 view -0
 4575               		.cfi_startproc
 4576               	/* prologue: function */
 4577               	/* frame size = 0 */
 4578               	/* stack size = 0 */
 4579               	.L__stack_usage = 0
 277:quantum/rgblight/rgblight.c ****     if (rgblight_config.mode < RGBLIGHT_MODES) {
 4580               		.loc 1 277 5 view .LVU1046
 4581               	.LVL315:
 278:quantum/rgblight/rgblight.c ****         mode = rgblight_config.mode + 1;
 4582               		.loc 1 278 5 view .LVU1047
 278:quantum/rgblight/rgblight.c ****         mode = rgblight_config.mode + 1;
 4583               		.loc 1 278 24 is_stmt 0 view .LVU1048
 4584 0000 9091 0000 		lds r25,rgblight_config
 4585 0004 892F      		mov r24,r25
 4586 0006 8695      		lsr r24
 279:quantum/rgblight/rgblight.c ****     }
 4587               		.loc 1 279 14 view .LVU1049
 4588 0008 8F5F      		subi r24,lo8(-(1))
 4589 000a 8F77      		andi r24,lo8(127)
 278:quantum/rgblight/rgblight.c ****         mode = rgblight_config.mode + 1;
 4590               		.loc 1 278 8 view .LVU1050
 4591 000c 9834      		cpi r25,lo8(72)
 4592 000e 00F0      		brlo .L203
 277:quantum/rgblight/rgblight.c ****     if (rgblight_config.mode < RGBLIGHT_MODES) {
 4593               		.loc 1 277 13 view .LVU1051
 4594 0010 80E0      		ldi r24,0
 4595               	.L203:
 4596               	.LVL316:
 281:quantum/rgblight/rgblight.c **** }
 4597               		.loc 1 281 5 is_stmt 1 view .LVU1052
 4598 0012 0C94 0000 		jmp rgblight_mode
 4599               	.LVL317:
 281:quantum/rgblight/rgblight.c **** }
 4600               		.loc 1 281 5 is_stmt 0 view .LVU1053
 4601               		.cfi_endproc
 4602               	.LFE102:
 4604               		.section	.text.rgblight_decrease,"ax",@progbits
 4605               	.global	rgblight_decrease
 4607               	rgblight_decrease:
 4608               	.LFB103:
 283:quantum/rgblight/rgblight.c ****     uint8_t mode = 0;
 4609               		.loc 1 283 30 is_stmt 1 view -0
 4610               		.cfi_startproc
 4611               	/* prologue: function */
 4612               	/* frame size = 0 */
 4613               	/* stack size = 0 */
 4614               	.L__stack_usage = 0
 284:quantum/rgblight/rgblight.c ****     // Mode will never be < 1. If it ever is, eeprom needs to be initialized.
 4615               		.loc 1 284 5 view .LVU1055
 4616               	.LVL318:
 286:quantum/rgblight/rgblight.c ****         mode = rgblight_config.mode - 1;
 4617               		.loc 1 286 5 view .LVU1056
 286:quantum/rgblight/rgblight.c ****         mode = rgblight_config.mode - 1;
 4618               		.loc 1 286 24 is_stmt 0 view .LVU1057
 4619 0000 9091 0000 		lds r25,rgblight_config
 4620 0004 892F      		mov r24,r25
 4621 0006 8695      		lsr r24
 287:quantum/rgblight/rgblight.c ****     }
 4622               		.loc 1 287 14 view .LVU1058
 4623 0008 8150      		subi r24,lo8(-(-1))
 286:quantum/rgblight/rgblight.c ****         mode = rgblight_config.mode - 1;
 4624               		.loc 1 286 8 view .LVU1059
 4625 000a 9430      		cpi r25,lo8(4)
 4626 000c 00F4      		brsh .L206
 284:quantum/rgblight/rgblight.c ****     // Mode will never be < 1. If it ever is, eeprom needs to be initialized.
 4627               		.loc 1 284 13 view .LVU1060
 4628 000e 80E0      		ldi r24,0
 4629               	.L206:
 4630               	.LVL319:
 289:quantum/rgblight/rgblight.c **** }
 4631               		.loc 1 289 5 is_stmt 1 view .LVU1061
 4632 0010 0C94 0000 		jmp rgblight_mode
 4633               	.LVL320:
 289:quantum/rgblight/rgblight.c **** }
 4634               		.loc 1 289 5 is_stmt 0 view .LVU1062
 4635               		.cfi_endproc
 4636               	.LFE103:
 4638               		.section	.text.rgblight_enable,"ax",@progbits
 4639               	.global	rgblight_enable
 4641               	rgblight_enable:
 4642               	.LFB116:
 371:quantum/rgblight/rgblight.c ****     rgblight_config.enable = 1;
 4643               		.loc 1 371 28 is_stmt 1 view -0
 4644               		.cfi_startproc
 4645               	/* prologue: function */
 4646               	/* frame size = 0 */
 4647               	/* stack size = 0 */
 4648               	.L__stack_usage = 0
 372:quantum/rgblight/rgblight.c ****     // No need to update EEPROM here. rgblight_mode() will do that, actually
 4649               		.loc 1 372 5 view .LVU1064
 372:quantum/rgblight/rgblight.c ****     // No need to update EEPROM here. rgblight_mode() will do that, actually
 4650               		.loc 1 372 28 is_stmt 0 view .LVU1065
 4651 0000 E0E0      		ldi r30,lo8(rgblight_config)
 4652 0002 F0E0      		ldi r31,hi8(rgblight_config)
 4653 0004 8081      		ld r24,Z
 4654 0006 8160      		ori r24,lo8(1<<0)
 4655 0008 8083      		st Z,r24
 375:quantum/rgblight/rgblight.c ****     rgblight_mode(rgblight_config.mode);
 4656               		.loc 1 375 95 is_stmt 1 view .LVU1066
 376:quantum/rgblight/rgblight.c **** }
 4657               		.loc 1 376 5 view .LVU1067
 4658 000a 8695      		lsr r24
 4659 000c 0C94 0000 		jmp rgblight_mode
 4660               	.LVL321:
 4661               		.cfi_endproc
 4662               	.LFE116:
 4664               		.section	.text.rgblight_toggle,"ax",@progbits
 4665               	.global	rgblight_toggle
 4667               	rgblight_toggle:
 4668               	.LFB114:
 353:quantum/rgblight/rgblight.c ****     dprintf("rgblight toggle [EEPROM]: rgblight_config.enable = %u\n", !rgblight_config.enable);
 4669               		.loc 1 353 28 view -0
 4670               		.cfi_startproc
 4671               	/* prologue: function */
 4672               	/* frame size = 0 */
 4673               	/* stack size = 0 */
 4674               	.L__stack_usage = 0
 354:quantum/rgblight/rgblight.c ****     if (rgblight_config.enable) {
 4675               		.loc 1 354 96 view .LVU1069
 355:quantum/rgblight/rgblight.c ****         rgblight_disable();
 4676               		.loc 1 355 5 view .LVU1070
 355:quantum/rgblight/rgblight.c ****         rgblight_disable();
 4677               		.loc 1 355 9 is_stmt 0 view .LVU1071
 4678 0000 8091 0000 		lds r24,rgblight_config
 355:quantum/rgblight/rgblight.c ****         rgblight_disable();
 4679               		.loc 1 355 8 view .LVU1072
 4680 0004 80FD      		sbrc r24,0
 356:quantum/rgblight/rgblight.c ****     } else {
 4681               		.loc 1 356 9 is_stmt 1 view .LVU1073
 4682 0006 0C94 0000 		jmp rgblight_disable
 4683               	.LVL322:
 4684               	.L210:
 358:quantum/rgblight/rgblight.c ****     }
 4685               		.loc 1 358 9 view .LVU1074
 4686 000a 0C94 0000 		jmp rgblight_enable
 4687               	.LVL323:
 4688               		.cfi_endproc
 4689               	.LFE114:
 4691               		.section	.text.rgblight_mode_noeeprom,"ax",@progbits
 4692               	.global	rgblight_mode_noeeprom
 4694               	rgblight_mode_noeeprom:
 4695               	.LVL324:
 4696               	.LFB113:
 351:quantum/rgblight/rgblight.c **** 
 4697               		.loc 1 351 43 view -0
 4698               		.cfi_startproc
 4699               	/* prologue: function */
 4700               	/* frame size = 0 */
 4701               	/* stack size = 0 */
 4702               	.L__stack_usage = 0
 351:quantum/rgblight/rgblight.c **** 
 4703               		.loc 1 351 45 view .LVU1076
 4704 0000 60E0      		ldi r22,0
 4705 0002 0C94 0000 		jmp rgblight_mode_eeprom_helper
 4706               	.LVL325:
 351:quantum/rgblight/rgblight.c **** 
 4707               		.loc 1 351 45 is_stmt 0 view .LVU1077
 4708               		.cfi_endproc
 4709               	.LFE113:
 4711               		.section	.text.rgblight_init,"ax",@progbits
 4712               	.global	rgblight_init
 4714               	rgblight_init:
 4715               	.LFB98:
 217:quantum/rgblight/rgblight.c ****     /* if already initialized, don't do it again.
 4716               		.loc 1 217 26 is_stmt 1 view -0
 4717               		.cfi_startproc
 4718               	/* prologue: function */
 4719               	/* frame size = 0 */
 4720               	/* stack size = 0 */
 4721               	.L__stack_usage = 0
 221:quantum/rgblight/rgblight.c ****         return;
 4722               		.loc 1 221 5 view .LVU1079
 221:quantum/rgblight/rgblight.c ****         return;
 4723               		.loc 1 221 8 is_stmt 0 view .LVU1080
 4724 0000 8091 0000 		lds r24,is_rgblight_initialized
 4725 0004 8111      		cpse r24,__zero_reg__
 4726 0006 00C0      		rjmp .L212
 225:quantum/rgblight/rgblight.c ****     dprintf("rgblight_init start!\n");
 4727               		.loc 1 225 39 is_stmt 1 view .LVU1081
 226:quantum/rgblight/rgblight.c ****     if (!eeconfig_is_enabled()) {
 4728               		.loc 1 226 38 view .LVU1082
 227:quantum/rgblight/rgblight.c ****         dprintf("rgblight_init eeconfig is not enabled.\n");
 4729               		.loc 1 227 5 view .LVU1083
 227:quantum/rgblight/rgblight.c ****         dprintf("rgblight_init eeconfig is not enabled.\n");
 4730               		.loc 1 227 10 is_stmt 0 view .LVU1084
 4731 0008 0E94 0000 		call eeconfig_is_enabled
 4732               	.LVL326:
 227:quantum/rgblight/rgblight.c ****         dprintf("rgblight_init eeconfig is not enabled.\n");
 4733               		.loc 1 227 8 view .LVU1085
 4734 000c 8111      		cpse r24,__zero_reg__
 4735 000e 00C0      		rjmp .L214
 228:quantum/rgblight/rgblight.c ****         eeconfig_init();
 4736               		.loc 1 228 60 is_stmt 1 view .LVU1086
 229:quantum/rgblight/rgblight.c ****         eeconfig_update_rgblight_default();
 4737               		.loc 1 229 9 view .LVU1087
 4738 0010 0E94 0000 		call eeconfig_init
 4739               	.LVL327:
 230:quantum/rgblight/rgblight.c ****     }
 4740               		.loc 1 230 9 view .LVU1088
 4741 0014 0E94 0000 		call eeconfig_update_rgblight_default
 4742               	.LVL328:
 4743               	.L214:
 232:quantum/rgblight/rgblight.c ****     RGBLIGHT_SPLIT_SET_CHANGE_MODEHSVS;
 4744               		.loc 1 232 5 view .LVU1089
 232:quantum/rgblight/rgblight.c ****     RGBLIGHT_SPLIT_SET_CHANGE_MODEHSVS;
 4745               		.loc 1 232 27 is_stmt 0 view .LVU1090
 4746 0018 0E94 0000 		call eeconfig_read_rgblight
 4747               	.LVL329:
 232:quantum/rgblight/rgblight.c ****     RGBLIGHT_SPLIT_SET_CHANGE_MODEHSVS;
 4748               		.loc 1 232 25 view .LVU1091
 4749 001c 6093 0000 		sts rgblight_config,r22
 4750 0020 7093 0000 		sts rgblight_config+1,r23
 4751 0024 8093 0000 		sts rgblight_config+2,r24
 4752 0028 9093 0000 		sts rgblight_config+3,r25
 233:quantum/rgblight/rgblight.c ****     if (!rgblight_config.mode) {
 4753               		.loc 1 233 39 is_stmt 1 view .LVU1092
 234:quantum/rgblight/rgblight.c ****         dprintf("rgblight_init rgblight_config.mode = 0. Write default values to EEPROM.\n");
 4754               		.loc 1 234 5 view .LVU1093
 234:quantum/rgblight/rgblight.c ****         dprintf("rgblight_init rgblight_config.mode = 0. Write default values to EEPROM.\n");
 4755               		.loc 1 234 9 is_stmt 0 view .LVU1094
 4756 002c 6E7F      		andi r22,lo8(-2)
 234:quantum/rgblight/rgblight.c ****         dprintf("rgblight_init rgblight_config.mode = 0. Write default values to EEPROM.\n");
 4757               		.loc 1 234 8 view .LVU1095
 4758 002e 01F4      		brne .L215
 235:quantum/rgblight/rgblight.c ****         eeconfig_update_rgblight_default();
 4759               		.loc 1 235 93 is_stmt 1 view .LVU1096
 236:quantum/rgblight/rgblight.c ****         rgblight_config.raw = eeconfig_read_rgblight();
 4760               		.loc 1 236 9 view .LVU1097
 4761 0030 0E94 0000 		call eeconfig_update_rgblight_default
 4762               	.LVL330:
 237:quantum/rgblight/rgblight.c ****     }
 4763               		.loc 1 237 9 view .LVU1098
 237:quantum/rgblight/rgblight.c ****     }
 4764               		.loc 1 237 31 is_stmt 0 view .LVU1099
 4765 0034 0E94 0000 		call eeconfig_read_rgblight
 4766               	.LVL331:
 4767 0038 6093 0000 		sts rgblight_config,r22
 4768 003c 7093 0000 		sts rgblight_config+1,r23
 4769 0040 8093 0000 		sts rgblight_config+2,r24
 4770 0044 9093 0000 		sts rgblight_config+3,r25
 4771               	.L215:
 239:quantum/rgblight/rgblight.c **** 
 4772               		.loc 1 239 5 is_stmt 1 view .LVU1100
 4773 0048 0E94 0000 		call rgblight_check_config
 4774               	.LVL332:
 241:quantum/rgblight/rgblight.c **** 
 4775               		.loc 1 241 5 view .LVU1101
 243:quantum/rgblight/rgblight.c **** 
 4776               		.loc 1 243 5 view .LVU1102
 4777               	.LBB175:
 4778               	.LBI175:
 901:quantum/rgblight/rgblight.c ****     rgblight_status.timer_enabled = false;
 4779               		.loc 1 901 6 view .LVU1103
 4780               	.LBB176:
 902:quantum/rgblight/rgblight.c ****     RGBLIGHT_SPLIT_SET_CHANGE_TIMER_ENABLE;
 4781               		.loc 1 902 5 view .LVU1104
 902:quantum/rgblight/rgblight.c ****     RGBLIGHT_SPLIT_SET_CHANGE_TIMER_ENABLE;
 4782               		.loc 1 902 35 is_stmt 0 view .LVU1105
 4783 004c 1092 0000 		sts rgblight_status+1,__zero_reg__
 903:quantum/rgblight/rgblight.c **** }
 4784               		.loc 1 903 43 is_stmt 1 view .LVU1106
 4785               	.LBE176:
 4786               	.LBE175:
 245:quantum/rgblight/rgblight.c ****         rgblight_mode_noeeprom(rgblight_config.mode);
 4787               		.loc 1 245 5 view .LVU1107
 245:quantum/rgblight/rgblight.c ****         rgblight_mode_noeeprom(rgblight_config.mode);
 4788               		.loc 1 245 9 is_stmt 0 view .LVU1108
 4789 0050 8091 0000 		lds r24,rgblight_config
 245:quantum/rgblight/rgblight.c ****         rgblight_mode_noeeprom(rgblight_config.mode);
 4790               		.loc 1 245 8 view .LVU1109
 4791 0054 80FF      		sbrs r24,0
 4792 0056 00C0      		rjmp .L216
 246:quantum/rgblight/rgblight.c ****     }
 4793               		.loc 1 246 9 is_stmt 1 view .LVU1110
 4794 0058 8695      		lsr r24
 4795 005a 0E94 0000 		call rgblight_mode_noeeprom
 4796               	.LVL333:
 4797               	.L216:
 249:quantum/rgblight/rgblight.c **** }
 4798               		.loc 1 249 5 view .LVU1111
 249:quantum/rgblight/rgblight.c **** }
 4799               		.loc 1 249 29 is_stmt 0 view .LVU1112
 4800 005e 81E0      		ldi r24,lo8(1)
 4801 0060 8093 0000 		sts is_rgblight_initialized,r24
 4802               	.L212:
 4803               	/* epilogue start */
 250:quantum/rgblight/rgblight.c **** 
 4804               		.loc 1 250 1 view .LVU1113
 4805 0064 0895      		ret
 4806               		.cfi_endproc
 4807               	.LFE98:
 4809               		.section	.text.rgblight_reload_from_eeprom,"ax",@progbits
 4810               	.global	rgblight_reload_from_eeprom
 4812               	rgblight_reload_from_eeprom:
 4813               	.LFB99:
 252:quantum/rgblight/rgblight.c ****     /* Reset back to what we have in eeprom */
 4814               		.loc 1 252 40 is_stmt 1 view -0
 4815               		.cfi_startproc
 4816               	/* prologue: function */
 4817               	/* frame size = 0 */
 4818               	/* stack size = 0 */
 4819               	.L__stack_usage = 0
 254:quantum/rgblight/rgblight.c ****     RGBLIGHT_SPLIT_SET_CHANGE_MODEHSVS;
 4820               		.loc 1 254 5 view .LVU1115
 254:quantum/rgblight/rgblight.c ****     RGBLIGHT_SPLIT_SET_CHANGE_MODEHSVS;
 4821               		.loc 1 254 27 is_stmt 0 view .LVU1116
 4822 0000 0E94 0000 		call eeconfig_read_rgblight
 4823               	.LVL334:
 4824 0004 6093 0000 		sts rgblight_config,r22
 4825 0008 7093 0000 		sts rgblight_config+1,r23
 4826 000c 8093 0000 		sts rgblight_config+2,r24
 4827 0010 9093 0000 		sts rgblight_config+3,r25
 255:quantum/rgblight/rgblight.c ****     rgblight_check_config();
 4828               		.loc 1 255 39 is_stmt 1 view .LVU1117
 256:quantum/rgblight/rgblight.c ****     eeconfig_debug_rgblight();  // display current eeprom values
 4829               		.loc 1 256 5 view .LVU1118
 4830 0014 0E94 0000 		call rgblight_check_config
 4831               	.LVL335:
 257:quantum/rgblight/rgblight.c ****     if (rgblight_config.enable) {
 4832               		.loc 1 257 5 view .LVU1119
 258:quantum/rgblight/rgblight.c ****         rgblight_mode_noeeprom(rgblight_config.mode);
 4833               		.loc 1 258 5 view .LVU1120
 258:quantum/rgblight/rgblight.c ****         rgblight_mode_noeeprom(rgblight_config.mode);
 4834               		.loc 1 258 9 is_stmt 0 view .LVU1121
 4835 0018 8091 0000 		lds r24,rgblight_config
 258:quantum/rgblight/rgblight.c ****         rgblight_mode_noeeprom(rgblight_config.mode);
 4836               		.loc 1 258 8 view .LVU1122
 4837 001c 80FF      		sbrs r24,0
 4838 001e 00C0      		rjmp .L220
 259:quantum/rgblight/rgblight.c ****     }
 4839               		.loc 1 259 9 is_stmt 1 view .LVU1123
 4840 0020 8695      		lsr r24
 4841 0022 0C94 0000 		jmp rgblight_mode_noeeprom
 4842               	.LVL336:
 4843               	.L220:
 4844               	/* epilogue start */
 261:quantum/rgblight/rgblight.c **** 
 4845               		.loc 1 261 1 is_stmt 0 view .LVU1124
 4846 0026 0895      		ret
 4847               		.cfi_endproc
 4848               	.LFE99:
 4850               		.section	.text.rgblight_enable_noeeprom,"ax",@progbits
 4851               	.global	rgblight_enable_noeeprom
 4853               	rgblight_enable_noeeprom:
 4854               	.LFB117:
 379:quantum/rgblight/rgblight.c ****     rgblight_config.enable = 1;
 4855               		.loc 1 379 37 is_stmt 1 view -0
 4856               		.cfi_startproc
 4857               	/* prologue: function */
 4858               	/* frame size = 0 */
 4859               	/* stack size = 0 */
 4860               	.L__stack_usage = 0
 380:quantum/rgblight/rgblight.c ****     dprintf("rgblight enable [NOEEPROM]: rgblight_config.enable = %u\n", rgblight_config.enable);
 4861               		.loc 1 380 5 view .LVU1126
 380:quantum/rgblight/rgblight.c ****     dprintf("rgblight enable [NOEEPROM]: rgblight_config.enable = %u\n", rgblight_config.enable);
 4862               		.loc 1 380 28 is_stmt 0 view .LVU1127
 4863 0000 E0E0      		ldi r30,lo8(rgblight_config)
 4864 0002 F0E0      		ldi r31,hi8(rgblight_config)
 4865 0004 8081      		ld r24,Z
 4866 0006 8160      		ori r24,lo8(1<<0)
 4867 0008 8083      		st Z,r24
 381:quantum/rgblight/rgblight.c ****     rgblight_mode_noeeprom(rgblight_config.mode);
 4868               		.loc 1 381 97 is_stmt 1 view .LVU1128
 382:quantum/rgblight/rgblight.c **** }
 4869               		.loc 1 382 5 view .LVU1129
 4870 000a 8695      		lsr r24
 4871 000c 0C94 0000 		jmp rgblight_mode_noeeprom
 4872               	.LVL337:
 4873               		.cfi_endproc
 4874               	.LFE117:
 4876               		.section	.text.rgblight_toggle_noeeprom,"ax",@progbits
 4877               	.global	rgblight_toggle_noeeprom
 4879               	rgblight_toggle_noeeprom:
 4880               	.LFB115:
 362:quantum/rgblight/rgblight.c ****     dprintf("rgblight toggle [NOEEPROM]: rgblight_config.enable = %u\n", !rgblight_config.enable);
 4881               		.loc 1 362 37 view -0
 4882               		.cfi_startproc
 4883               	/* prologue: function */
 4884               	/* frame size = 0 */
 4885               	/* stack size = 0 */
 4886               	.L__stack_usage = 0
 363:quantum/rgblight/rgblight.c ****     if (rgblight_config.enable) {
 4887               		.loc 1 363 98 view .LVU1131
 364:quantum/rgblight/rgblight.c ****         rgblight_disable_noeeprom();
 4888               		.loc 1 364 5 view .LVU1132
 364:quantum/rgblight/rgblight.c ****         rgblight_disable_noeeprom();
 4889               		.loc 1 364 9 is_stmt 0 view .LVU1133
 4890 0000 8091 0000 		lds r24,rgblight_config
 364:quantum/rgblight/rgblight.c ****         rgblight_disable_noeeprom();
 4891               		.loc 1 364 8 view .LVU1134
 4892 0004 80FD      		sbrc r24,0
 365:quantum/rgblight/rgblight.c ****     } else {
 4893               		.loc 1 365 9 is_stmt 1 view .LVU1135
 4894 0006 0C94 0000 		jmp rgblight_disable_noeeprom
 4895               	.LVL338:
 4896               	.L224:
 367:quantum/rgblight/rgblight.c ****     }
 4897               		.loc 1 367 9 view .LVU1136
 4898 000a 0C94 0000 		jmp rgblight_enable_noeeprom
 4899               	.LVL339:
 4900               		.cfi_endproc
 4901               	.LFE115:
 4903               		.section	.text.rgblight_update_dword,"ax",@progbits
 4904               	.global	rgblight_update_dword
 4906               	rgblight_update_dword:
 4907               	.LVL340:
 4908               	.LFB101:
 265:quantum/rgblight/rgblight.c ****     RGBLIGHT_SPLIT_SET_CHANGE_MODEHSVS;
 4909               		.loc 1 265 44 view -0
 4910               		.cfi_startproc
 4911               	/* prologue: function */
 4912               	/* frame size = 0 */
 4913               	/* stack size = 0 */
 4914               	.L__stack_usage = 0
 266:quantum/rgblight/rgblight.c ****     rgblight_config.raw = dword;
 4915               		.loc 1 266 39 view .LVU1138
 267:quantum/rgblight/rgblight.c ****     if (rgblight_config.enable)
 4916               		.loc 1 267 5 view .LVU1139
 267:quantum/rgblight/rgblight.c ****     if (rgblight_config.enable)
 4917               		.loc 1 267 25 is_stmt 0 view .LVU1140
 4918 0000 6093 0000 		sts rgblight_config,r22
 4919 0004 7093 0000 		sts rgblight_config+1,r23
 4920 0008 8093 0000 		sts rgblight_config+2,r24
 4921 000c 9093 0000 		sts rgblight_config+3,r25
 268:quantum/rgblight/rgblight.c ****         rgblight_mode_noeeprom(rgblight_config.mode);
 4922               		.loc 1 268 5 is_stmt 1 view .LVU1141
 268:quantum/rgblight/rgblight.c ****         rgblight_mode_noeeprom(rgblight_config.mode);
 4923               		.loc 1 268 8 is_stmt 0 view .LVU1142
 4924 0010 60FF      		sbrs r22,0
 4925 0012 00C0      		rjmp .L226
 269:quantum/rgblight/rgblight.c ****     else {
 4926               		.loc 1 269 9 is_stmt 1 view .LVU1143
 4927 0014 862F      		mov r24,r22
 4928 0016 8695      		lsr r24
 4929 0018 0C94 0000 		jmp rgblight_mode_noeeprom
 4930               	.LVL341:
 4931               	.L226:
 271:quantum/rgblight/rgblight.c ****         rgblight_set();
 4932               		.loc 1 271 9 view .LVU1144
 4933               	.LBB179:
 4934               	.LBI179:
 901:quantum/rgblight/rgblight.c ****     rgblight_status.timer_enabled = false;
 4935               		.loc 1 901 6 view .LVU1145
 4936               	.LBB180:
 902:quantum/rgblight/rgblight.c ****     RGBLIGHT_SPLIT_SET_CHANGE_TIMER_ENABLE;
 4937               		.loc 1 902 5 view .LVU1146
 902:quantum/rgblight/rgblight.c ****     RGBLIGHT_SPLIT_SET_CHANGE_TIMER_ENABLE;
 4938               		.loc 1 902 35 is_stmt 0 view .LVU1147
 4939 001c 1092 0000 		sts rgblight_status+1,__zero_reg__
 903:quantum/rgblight/rgblight.c **** }
 4940               		.loc 1 903 43 is_stmt 1 view .LVU1148
 4941               	.LBE180:
 4942               	.LBE179:
 272:quantum/rgblight/rgblight.c ****     }
 4943               		.loc 1 272 9 view .LVU1149
 4944 0020 0C94 0000 		jmp rgblight_set
 4945               	.LVL342:
 272:quantum/rgblight/rgblight.c ****     }
 4946               		.loc 1 272 9 is_stmt 0 view .LVU1150
 4947               		.cfi_endproc
 4948               	.LFE101:
 4950               		.section	.text.rgblight_timer_disable,"ax",@progbits
 4951               	.global	rgblight_timer_disable
 4953               	rgblight_timer_disable:
 4954               	.LFB186:
 4955               		.cfi_startproc
 4956               	/* prologue: function */
 4957               	/* frame size = 0 */
 4958               	/* stack size = 0 */
 4959               	.L__stack_usage = 0
 4960 0000 1092 0000 		sts rgblight_status+1,__zero_reg__
 4961               	/* epilogue start */
 4962 0004 0895      		ret
 4963               		.cfi_endproc
 4964               	.LFE186:
 4966               		.section	.text.rgblight_timer_toggle,"ax",@progbits
 4967               	.global	rgblight_timer_toggle
 4969               	rgblight_timer_toggle:
 4970               	.LFB172:
 918:quantum/rgblight/rgblight.c ****     dprintf("rgblight timer toggle.\n");
 4971               		.loc 1 918 34 is_stmt 1 view -0
 4972               		.cfi_startproc
 4973               	/* prologue: function */
 4974               	/* frame size = 0 */
 4975               	/* stack size = 0 */
 4976               	.L__stack_usage = 0
 919:quantum/rgblight/rgblight.c ****     if (rgblight_status.timer_enabled) {
 4977               		.loc 1 919 40 view .LVU1152
 920:quantum/rgblight/rgblight.c ****         rgblight_timer_disable();
 4978               		.loc 1 920 5 view .LVU1153
 920:quantum/rgblight/rgblight.c ****         rgblight_timer_disable();
 4979               		.loc 1 920 8 is_stmt 0 view .LVU1154
 4980 0000 8091 0000 		lds r24,rgblight_status+1
 4981 0004 8823      		tst r24
 4982 0006 01F0      		breq .L229
 921:quantum/rgblight/rgblight.c ****     } else {
 4983               		.loc 1 921 9 is_stmt 1 view .LVU1155
 4984               	.LBB183:
 4985               	.LBI183:
 901:quantum/rgblight/rgblight.c ****     rgblight_status.timer_enabled = false;
 4986               		.loc 1 901 6 view .LVU1156
 4987               	.LBB184:
 902:quantum/rgblight/rgblight.c ****     RGBLIGHT_SPLIT_SET_CHANGE_TIMER_ENABLE;
 4988               		.loc 1 902 5 view .LVU1157
 902:quantum/rgblight/rgblight.c ****     RGBLIGHT_SPLIT_SET_CHANGE_TIMER_ENABLE;
 4989               		.loc 1 902 35 is_stmt 0 view .LVU1158
 4990 0008 1092 0000 		sts rgblight_status+1,__zero_reg__
 903:quantum/rgblight/rgblight.c **** }
 4991               		.loc 1 903 43 is_stmt 1 view .LVU1159
 4992               	/* epilogue start */
 4993               	.LBE184:
 4994               	.LBE183:
 925:quantum/rgblight/rgblight.c **** 
 4995               		.loc 1 925 1 is_stmt 0 view .LVU1160
 4996 000c 0895      		ret
 4997               	.L229:
 923:quantum/rgblight/rgblight.c ****     }
 4998               		.loc 1 923 9 is_stmt 1 view .LVU1161
 4999 000e 0C94 0000 		jmp rgblight_timer_enable
 5000               	.LVL343:
 5001               		.cfi_endproc
 5002               	.LFE172:
 5004               		.section	.text.rgblight_show_solid_color,"ax",@progbits
 5005               	.global	rgblight_show_solid_color
 5007               	rgblight_show_solid_color:
 5008               	.LVL344:
 5009               	.LFB173:
 927:quantum/rgblight/rgblight.c ****     rgblight_enable();
 5010               		.loc 1 927 65 view -0
 5011               		.cfi_startproc
 927:quantum/rgblight/rgblight.c ****     rgblight_enable();
 5012               		.loc 1 927 65 is_stmt 0 view .LVU1163
 5013 0000 1F93      		push r17
 5014               	.LCFI104:
 5015               		.cfi_def_cfa_offset 3
 5016               		.cfi_offset 17, -2
 5017 0002 CF93      		push r28
 5018               	.LCFI105:
 5019               		.cfi_def_cfa_offset 4
 5020               		.cfi_offset 28, -3
 5021 0004 DF93      		push r29
 5022               	.LCFI106:
 5023               		.cfi_def_cfa_offset 5
 5024               		.cfi_offset 29, -4
 5025               	/* prologue: function */
 5026               	/* frame size = 0 */
 5027               	/* stack size = 3 */
 5028               	.L__stack_usage = 3
 5029 0006 C82F      		mov r28,r24
 5030 0008 D62F      		mov r29,r22
 5031 000a 142F      		mov r17,r20
 928:quantum/rgblight/rgblight.c ****     rgblight_mode(RGBLIGHT_MODE_STATIC_LIGHT);
 5032               		.loc 1 928 5 is_stmt 1 view .LVU1164
 5033 000c 0E94 0000 		call rgblight_enable
 5034               	.LVL345:
 929:quantum/rgblight/rgblight.c ****     rgblight_setrgb(r, g, b);
 5035               		.loc 1 929 5 view .LVU1165
 5036 0010 81E0      		ldi r24,lo8(1)
 5037 0012 0E94 0000 		call rgblight_mode
 5038               	.LVL346:
 930:quantum/rgblight/rgblight.c **** }
 5039               		.loc 1 930 5 view .LVU1166
 5040 0016 412F      		mov r20,r17
 5041 0018 6D2F      		mov r22,r29
 5042 001a 8C2F      		mov r24,r28
 5043               	/* epilogue start */
 931:quantum/rgblight/rgblight.c **** 
 5044               		.loc 1 931 1 is_stmt 0 view .LVU1167
 5045 001c DF91      		pop r29
 5046               	.LVL347:
 931:quantum/rgblight/rgblight.c **** 
 5047               		.loc 1 931 1 view .LVU1168
 5048 001e CF91      		pop r28
 5049               	.LVL348:
 931:quantum/rgblight/rgblight.c **** 
 5050               		.loc 1 931 1 view .LVU1169
 5051 0020 1F91      		pop r17
 5052               	.LVL349:
 930:quantum/rgblight/rgblight.c **** }
 5053               		.loc 1 930 5 view .LVU1170
 5054 0022 0C94 0000 		jmp rgblight_setrgb
 5055               	.LVL350:
 930:quantum/rgblight/rgblight.c **** }
 5056               		.loc 1 930 5 view .LVU1171
 5057               		.cfi_endproc
 5058               	.LFE173:
 5060               		.section	.text.rgblight_task,"ax",@progbits
 5061               	.global	rgblight_task
 5063               	rgblight_task:
 5064               	.LFB175:
 945:quantum/rgblight/rgblight.c ****     if (rgblight_status.timer_enabled) {
 5065               		.loc 1 945 26 is_stmt 1 view -0
 5066               		.cfi_startproc
 5067 0000 0F93      		push r16
 5068               	.LCFI107:
 5069               		.cfi_def_cfa_offset 3
 5070               		.cfi_offset 16, -2
 5071 0002 1F93      		push r17
 5072               	.LCFI108:
 5073               		.cfi_def_cfa_offset 4
 5074               		.cfi_offset 17, -3
 5075 0004 CF93      		push r28
 5076               	.LCFI109:
 5077               		.cfi_def_cfa_offset 5
 5078               		.cfi_offset 28, -4
 5079 0006 DF93      		push r29
 5080               	.LCFI110:
 5081               		.cfi_def_cfa_offset 6
 5082               		.cfi_offset 29, -5
 5083               	/* prologue: function */
 5084               	/* frame size = 0 */
 5085               	/* stack size = 4 */
 5086               	.L__stack_usage = 4
 946:quantum/rgblight/rgblight.c ****         effect_func_t effect_func   = rgblight_effect_dummy;
 5087               		.loc 1 946 5 view .LVU1173
 946:quantum/rgblight/rgblight.c ****         effect_func_t effect_func   = rgblight_effect_dummy;
 5088               		.loc 1 946 8 is_stmt 0 view .LVU1174
 5089 0008 8091 0000 		lds r24,rgblight_status+1
 5090 000c 8823      		tst r24
 5091 000e 01F4      		brne .+2
 5092 0010 00C0      		rjmp .L233
 5093               	.LBB203:
 947:quantum/rgblight/rgblight.c ****         uint16_t      interval_time = 2000;  // dummy interval
 5094               		.loc 1 947 9 is_stmt 1 view .LVU1175
 5095               	.LVL351:
 948:quantum/rgblight/rgblight.c ****         uint8_t       delta         = rgblight_config.mode - rgblight_status.base_mode;
 5096               		.loc 1 948 9 view .LVU1176
 949:quantum/rgblight/rgblight.c ****         animation_status.delta      = delta;
 5097               		.loc 1 949 9 view .LVU1177
 949:quantum/rgblight/rgblight.c ****         animation_status.delta      = delta;
 5098               		.loc 1 949 77 is_stmt 0 view .LVU1178
 5099 0012 8091 0000 		lds r24,rgblight_status
 949:quantum/rgblight/rgblight.c ****         animation_status.delta      = delta;
 5100               		.loc 1 949 54 view .LVU1179
 5101 0016 E091 0000 		lds r30,rgblight_config
 5102 001a E695      		lsr r30
 949:quantum/rgblight/rgblight.c ****         animation_status.delta      = delta;
 5103               		.loc 1 949 23 view .LVU1180
 5104 001c E81B      		sub r30,r24
 5105               	.LVL352:
 950:quantum/rgblight/rgblight.c **** 
 5106               		.loc 1 950 9 is_stmt 1 view .LVU1181
 950:quantum/rgblight/rgblight.c **** 
 5107               		.loc 1 950 37 is_stmt 0 view .LVU1182
 5108 001e E093 0000 		sts animation_status+2,r30
 953:quantum/rgblight/rgblight.c ****         }
 5109               		.loc 1 953 9 is_stmt 1 view .LVU1183
 956:quantum/rgblight/rgblight.c ****             // breathing mode
 5110               		.loc 1 956 14 view .LVU1184
 956:quantum/rgblight/rgblight.c ****             // breathing mode
 5111               		.loc 1 956 17 is_stmt 0 view .LVU1185
 5112 0022 8230      		cpi r24,lo8(2)
 5113 0024 01F4      		brne .L236
 958:quantum/rgblight/rgblight.c ****             effect_func   = rgblight_effect_breathing;
 5114               		.loc 1 958 13 is_stmt 1 view .LVU1186
 5115               	.LVL353:
 5116               	.LBB204:
 5117               	.LBI204:
 613:quantum/rgblight/rgblight.c ****     return
 5118               		.loc 1 613 16 view .LVU1187
 614:quantum/rgblight/rgblight.c **** #    ifdef VELOCIKEY_ENABLE
 5119               		.loc 1 614 5 view .LVU1188
 5120               	.LBB205:
 618:quantum/rgblight/rgblight.c **** }
 5121               		.loc 1 618 29 view .LVU1189
 618:quantum/rgblight/rgblight.c **** }
 5122               		.loc 1 618 29 view .LVU1190
 618:quantum/rgblight/rgblight.c **** }
 5123               		.loc 1 618 29 view .LVU1191
 5124               	.LBE205:
 5125               	.LBE204:
 958:quantum/rgblight/rgblight.c ****             effect_func   = rgblight_effect_breathing;
 5126               		.loc 1 958 29 is_stmt 0 view .LVU1192
 5127 0026 F0E0      		ldi r31,0
 5128 0028 E050      		subi r30,lo8(-(RGBLED_BREATHING_INTERVALS))
 5129 002a F040      		sbci r31,hi8(-(RGBLED_BREATHING_INTERVALS))
 5130               	.LVL354:
 5131               	.LBB207:
 5132               	.LBB206:
 618:quantum/rgblight/rgblight.c **** }
 5133               		.loc 1 618 29 view .LVU1193
 5134               	/* #APP */
 5135               	 ;  618 "quantum/rgblight/rgblight.c" 1
 5136 002c E491      		lpm r30, Z
 5137               		
 5138               	 ;  0 "" 2
 5139               	.LVL355:
 618:quantum/rgblight/rgblight.c **** }
 5140               		.loc 1 618 29 is_stmt 1 view .LVU1194
 618:quantum/rgblight/rgblight.c **** }
 5141               		.loc 1 618 29 is_stmt 0 view .LVU1195
 5142               	/* #NOAPP */
 5143               	.LBE206:
 5144               	.LBE207:
 958:quantum/rgblight/rgblight.c ****             effect_func   = rgblight_effect_breathing;
 5145               		.loc 1 958 27 view .LVU1196
 5146 002e CE2F      		mov r28,r30
 5147 0030 D0E0      		ldi r29,0
 5148               	.LVL356:
 959:quantum/rgblight/rgblight.c ****         }
 5149               		.loc 1 959 13 is_stmt 1 view .LVU1197
 959:quantum/rgblight/rgblight.c ****         }
 5150               		.loc 1 959 27 is_stmt 0 view .LVU1198
 5151 0032 00E0      		ldi r16,lo8(gs(rgblight_effect_breathing))
 5152 0034 10E0      		ldi r17,hi8(gs(rgblight_effect_breathing))
 5153               	.LVL357:
 5154               	.L237:
1016:quantum/rgblight/rgblight.c ****             animation_status.restart    = false;
 5155               		.loc 1 1016 9 is_stmt 1 view .LVU1199
1016:quantum/rgblight/rgblight.c ****             animation_status.restart    = false;
 5156               		.loc 1 1016 12 is_stmt 0 view .LVU1200
 5157 0036 8091 0000 		lds r24,animation_status+3
 5158 003a 8823      		tst r24
 5159 003c 01F0      		breq .L244
1017:quantum/rgblight/rgblight.c ****             animation_status.last_timer = sync_timer_read();
 5160               		.loc 1 1017 13 is_stmt 1 view .LVU1201
1017:quantum/rgblight/rgblight.c ****             animation_status.last_timer = sync_timer_read();
 5161               		.loc 1 1017 41 is_stmt 0 view .LVU1202
 5162 003e 1092 0000 		sts animation_status+3,__zero_reg__
1018:quantum/rgblight/rgblight.c ****             animation_status.pos16      = 0;  // restart signal to local each effect
 5163               		.loc 1 1018 13 is_stmt 1 view .LVU1203
1018:quantum/rgblight/rgblight.c ****             animation_status.pos16      = 0;  // restart signal to local each effect
 5164               		.loc 1 1018 43 is_stmt 0 view .LVU1204
 5165 0042 0E94 0000 		call timer_read
 5166               	.LVL358:
1018:quantum/rgblight/rgblight.c ****             animation_status.pos16      = 0;  // restart signal to local each effect
 5167               		.loc 1 1018 41 view .LVU1205
 5168 0046 9093 0000 		sts animation_status+1,r25
 5169 004a 8093 0000 		sts animation_status,r24
1019:quantum/rgblight/rgblight.c ****         }
 5170               		.loc 1 1019 13 is_stmt 1 view .LVU1206
1019:quantum/rgblight/rgblight.c ****         }
 5171               		.loc 1 1019 41 is_stmt 0 view .LVU1207
 5172 004e 1092 0000 		sts animation_status+4+1,__zero_reg__
 5173 0052 1092 0000 		sts animation_status+4,__zero_reg__
 5174               	.L244:
1021:quantum/rgblight/rgblight.c ****         if (timer_expired(now, animation_status.last_timer)) {
 5175               		.loc 1 1021 9 is_stmt 1 view .LVU1208
1021:quantum/rgblight/rgblight.c ****         if (timer_expired(now, animation_status.last_timer)) {
 5176               		.loc 1 1021 24 is_stmt 0 view .LVU1209
 5177 0056 0E94 0000 		call timer_read
 5178               	.LVL359:
1022:quantum/rgblight/rgblight.c **** #    if defined(RGBLIGHT_SPLIT) && !defined(RGBLIGHT_SPLIT_NO_ANIMATION_SYNC)
 5179               		.loc 1 1022 9 is_stmt 1 view .LVU1210
1022:quantum/rgblight/rgblight.c **** #    if defined(RGBLIGHT_SPLIT) && !defined(RGBLIGHT_SPLIT_NO_ANIMATION_SYNC)
 5180               		.loc 1 1022 13 is_stmt 0 view .LVU1211
 5181 005a 2091 0000 		lds r18,animation_status
 5182 005e 3091 0000 		lds r19,animation_status+1
 5183 0062 821B      		sub r24,r18
 5184 0064 930B      		sbc r25,r19
 5185               	.LVL360:
1022:quantum/rgblight/rgblight.c **** #    if defined(RGBLIGHT_SPLIT) && !defined(RGBLIGHT_SPLIT_NO_ANIMATION_SYNC)
 5186               		.loc 1 1022 12 view .LVU1212
 5187 0066 8F3F      		cpi r24,-1
 5188 0068 9F47      		sbci r25,127
 5189 006a 00F0      		brlo .+2
 5190 006c 00C0      		rjmp .L233
1037:quantum/rgblight/rgblight.c ****             effect_func(&animation_status);
 5191               		.loc 1 1037 13 is_stmt 1 view .LVU1213
1037:quantum/rgblight/rgblight.c ****             effect_func(&animation_status);
 5192               		.loc 1 1037 41 is_stmt 0 view .LVU1214
 5193 006e 2C0F      		add r18,r28
 5194 0070 3D1F      		adc r19,r29
 5195 0072 3093 0000 		sts animation_status+1,r19
 5196 0076 2093 0000 		sts animation_status,r18
1038:quantum/rgblight/rgblight.c **** #    if defined(RGBLIGHT_SPLIT) && !defined(RGBLIGHT_SPLIT_NO_ANIMATION_SYNC)
 5197               		.loc 1 1038 13 is_stmt 1 view .LVU1215
 5198 007a 80E0      		ldi r24,lo8(animation_status)
 5199 007c 90E0      		ldi r25,hi8(animation_status)
 5200 007e F801      		movw r30,r16
 5201               	/* epilogue start */
 5202               	.LBE203:
1050:quantum/rgblight/rgblight.c **** 
 5203               		.loc 1 1050 1 is_stmt 0 view .LVU1216
 5204 0080 DF91      		pop r29
 5205 0082 CF91      		pop r28
 5206               	.LVL361:
1050:quantum/rgblight/rgblight.c **** 
 5207               		.loc 1 1050 1 view .LVU1217
 5208 0084 1F91      		pop r17
 5209 0086 0F91      		pop r16
 5210               	.LVL362:
 5211               	.LBB225:
1038:quantum/rgblight/rgblight.c **** #    if defined(RGBLIGHT_SPLIT) && !defined(RGBLIGHT_SPLIT_NO_ANIMATION_SYNC)
 5212               		.loc 1 1038 13 view .LVU1218
 5213 0088 0994      		ijmp
 5214               	.LVL363:
 5215               	.L236:
 963:quantum/rgblight/rgblight.c ****             // rainbow mood mode
 5216               		.loc 1 963 14 is_stmt 1 view .LVU1219
 5217 008a 8531      		cpi r24,lo8(21)
 5218 008c 01F4      		brne .+2
 5219 008e 00C0      		rjmp .L238
 5220 0090 00F4      		brsh .L239
 5221 0092 8930      		cpi r24,lo8(9)
 5222 0094 01F0      		breq .L240
 5223 0096 8F30      		cpi r24,lo8(15)
 5224 0098 01F0      		breq .L241
 5225 009a 8630      		cpi r24,lo8(6)
 5226 009c 01F0      		breq .L242
 5227               	.L247:
 956:quantum/rgblight/rgblight.c ****             // breathing mode
 5228               		.loc 1 956 17 is_stmt 0 view .LVU1220
 5229 009e C0ED      		ldi r28,lo8(-48)
 5230 00a0 D7E0      		ldi r29,lo8(7)
 5231 00a2 00E0      		ldi r16,lo8(gs(rgblight_effect_dummy))
 5232 00a4 10E0      		ldi r17,hi8(gs(rgblight_effect_dummy))
 5233 00a6 00C0      		rjmp .L237
 5234               	.L239:
 5235 00a8 8332      		cpi r24,lo8(35)
 5236 00aa 01F4      		brne .+2
 5237 00ac 00C0      		rjmp .L243
1006:quantum/rgblight/rgblight.c ****             effect_func   = (effect_func_t)rgblight_effect_alternating;
 5238               		.loc 1 1006 27 view .LVU1221
 5239 00ae C4EF      		ldi r28,lo8(-12)
 5240 00b0 D1E0      		ldi r29,lo8(1)
1007:quantum/rgblight/rgblight.c ****         }
 5241               		.loc 1 1007 27 view .LVU1222
 5242 00b2 00E0      		ldi r16,lo8(gs(rgblight_effect_alternating))
 5243 00b4 10E0      		ldi r17,hi8(gs(rgblight_effect_alternating))
 5244 00b6 8432      		cpi r24,lo8(36)
 5245 00b8 01F4      		brne .+2
 5246 00ba 00C0      		rjmp .L237
 956:quantum/rgblight/rgblight.c ****             // breathing mode
 5247               		.loc 1 956 17 view .LVU1223
 5248 00bc C8E2      		ldi r28,lo8(40)
 5249 00be D0E0      		ldi r29,0
 5250 00c0 00E0      		ldi r16,lo8(gs(rgblight_effect_christmas))
 5251 00c2 10E0      		ldi r17,hi8(gs(rgblight_effect_christmas))
 5252 00c4 8831      		cpi r24,lo8(24)
 5253 00c6 01F4      		brne .+2
 5254 00c8 00C0      		rjmp .L237
 5255 00ca 00C0      		rjmp .L247
 5256               	.L242:
 965:quantum/rgblight/rgblight.c ****             effect_func   = rgblight_effect_rainbow_mood;
 5257               		.loc 1 965 13 is_stmt 1 view .LVU1224
 5258               	.LVL364:
 5259               	.LBB208:
 5260               	.LBI208:
 613:quantum/rgblight/rgblight.c ****     return
 5261               		.loc 1 613 16 view .LVU1225
 614:quantum/rgblight/rgblight.c **** #    ifdef VELOCIKEY_ENABLE
 5262               		.loc 1 614 5 view .LVU1226
 5263               	.LBB209:
 618:quantum/rgblight/rgblight.c **** }
 5264               		.loc 1 618 29 view .LVU1227
 618:quantum/rgblight/rgblight.c **** }
 5265               		.loc 1 618 29 view .LVU1228
 618:quantum/rgblight/rgblight.c **** }
 5266               		.loc 1 618 29 view .LVU1229
 5267               	.LBE209:
 5268               	.LBE208:
 965:quantum/rgblight/rgblight.c ****             effect_func   = rgblight_effect_rainbow_mood;
 5269               		.loc 1 965 29 is_stmt 0 view .LVU1230
 5270 00cc F0E0      		ldi r31,0
 5271 00ce E050      		subi r30,lo8(-(RGBLED_RAINBOW_MOOD_INTERVALS))
 5272 00d0 F040      		sbci r31,hi8(-(RGBLED_RAINBOW_MOOD_INTERVALS))
 5273               	.LVL365:
 5274               	.LBB211:
 5275               	.LBB210:
 618:quantum/rgblight/rgblight.c **** }
 5276               		.loc 1 618 29 view .LVU1231
 5277               	/* #APP */
 5278               	 ;  618 "quantum/rgblight/rgblight.c" 1
 5279 00d2 E491      		lpm r30, Z
 5280               		
 5281               	 ;  0 "" 2
 5282               	.LVL366:
 618:quantum/rgblight/rgblight.c **** }
 5283               		.loc 1 618 29 is_stmt 1 view .LVU1232
 618:quantum/rgblight/rgblight.c **** }
 5284               		.loc 1 618 29 is_stmt 0 view .LVU1233
 5285               	/* #NOAPP */
 5286               	.LBE210:
 5287               	.LBE211:
 965:quantum/rgblight/rgblight.c ****             effect_func   = rgblight_effect_rainbow_mood;
 5288               		.loc 1 965 27 view .LVU1234
 5289 00d4 CE2F      		mov r28,r30
 5290 00d6 D0E0      		ldi r29,0
 5291               	.LVL367:
 966:quantum/rgblight/rgblight.c ****         }
 5292               		.loc 1 966 13 is_stmt 1 view .LVU1235
 966:quantum/rgblight/rgblight.c ****         }
 5293               		.loc 1 966 27 is_stmt 0 view .LVU1236
 5294 00d8 00E0      		ldi r16,lo8(gs(rgblight_effect_rainbow_mood))
 5295 00da 10E0      		ldi r17,hi8(gs(rgblight_effect_rainbow_mood))
 5296 00dc 00C0      		rjmp .L237
 5297               	.LVL368:
 5298               	.L240:
 972:quantum/rgblight/rgblight.c ****             effect_func   = rgblight_effect_rainbow_swirl;
 5299               		.loc 1 972 13 is_stmt 1 view .LVU1237
 5300               	.LBB212:
 5301               	.LBI212:
 613:quantum/rgblight/rgblight.c ****     return
 5302               		.loc 1 613 16 view .LVU1238
 614:quantum/rgblight/rgblight.c **** #    ifdef VELOCIKEY_ENABLE
 5303               		.loc 1 614 5 view .LVU1239
 5304               	.LBB213:
 618:quantum/rgblight/rgblight.c **** }
 5305               		.loc 1 618 29 view .LVU1240
 618:quantum/rgblight/rgblight.c **** }
 5306               		.loc 1 618 29 view .LVU1241
 618:quantum/rgblight/rgblight.c **** }
 5307               		.loc 1 618 29 view .LVU1242
 5308               	.LBE213:
 5309               	.LBE212:
 972:quantum/rgblight/rgblight.c ****             effect_func   = rgblight_effect_rainbow_swirl;
 5310               		.loc 1 972 85 is_stmt 0 view .LVU1243
 5311 00de E695      		lsr r30
 5312               	.LVL369:
 972:quantum/rgblight/rgblight.c ****             effect_func   = rgblight_effect_rainbow_swirl;
 5313               		.loc 1 972 29 view .LVU1244
 5314 00e0 F0E0      		ldi r31,0
 5315 00e2 E050      		subi r30,lo8(-(RGBLED_RAINBOW_SWIRL_INTERVALS))
 5316 00e4 F040      		sbci r31,hi8(-(RGBLED_RAINBOW_SWIRL_INTERVALS))
 5317               	.LBB215:
 5318               	.LBB214:
 618:quantum/rgblight/rgblight.c **** }
 5319               		.loc 1 618 29 view .LVU1245
 5320               	/* #APP */
 5321               	 ;  618 "quantum/rgblight/rgblight.c" 1
 5322 00e6 E491      		lpm r30, Z
 5323               		
 5324               	 ;  0 "" 2
 5325               	.LVL370:
 618:quantum/rgblight/rgblight.c **** }
 5326               		.loc 1 618 29 is_stmt 1 view .LVU1246
 618:quantum/rgblight/rgblight.c **** }
 5327               		.loc 1 618 29 is_stmt 0 view .LVU1247
 5328               	/* #NOAPP */
 5329               	.LBE214:
 5330               	.LBE215:
 972:quantum/rgblight/rgblight.c ****             effect_func   = rgblight_effect_rainbow_swirl;
 5331               		.loc 1 972 27 view .LVU1248
 5332 00e8 CE2F      		mov r28,r30
 5333 00ea D0E0      		ldi r29,0
 5334               	.LVL371:
 973:quantum/rgblight/rgblight.c ****         }
 5335               		.loc 1 973 13 is_stmt 1 view .LVU1249
 973:quantum/rgblight/rgblight.c ****         }
 5336               		.loc 1 973 27 is_stmt 0 view .LVU1250
 5337 00ec 00E0      		ldi r16,lo8(gs(rgblight_effect_rainbow_swirl))
 5338 00ee 10E0      		ldi r17,hi8(gs(rgblight_effect_rainbow_swirl))
 5339 00f0 00C0      		rjmp .L237
 5340               	.LVL372:
 5341               	.L241:
 979:quantum/rgblight/rgblight.c ****             effect_func   = rgblight_effect_snake;
 5342               		.loc 1 979 13 is_stmt 1 view .LVU1251
 5343               	.LBB216:
 5344               	.LBI216:
 613:quantum/rgblight/rgblight.c ****     return
 5345               		.loc 1 613 16 view .LVU1252
 614:quantum/rgblight/rgblight.c **** #    ifdef VELOCIKEY_ENABLE
 5346               		.loc 1 614 5 view .LVU1253
 5347               	.LBB217:
 618:quantum/rgblight/rgblight.c **** }
 5348               		.loc 1 618 29 view .LVU1254
 618:quantum/rgblight/rgblight.c **** }
 5349               		.loc 1 618 29 view .LVU1255
 618:quantum/rgblight/rgblight.c **** }
 5350               		.loc 1 618 29 view .LVU1256
 5351               	.LBE217:
 5352               	.LBE216:
 979:quantum/rgblight/rgblight.c ****             effect_func   = rgblight_effect_snake;
 5353               		.loc 1 979 77 is_stmt 0 view .LVU1257
 5354 00f2 E695      		lsr r30
 5355               	.LVL373:
 979:quantum/rgblight/rgblight.c ****             effect_func   = rgblight_effect_snake;
 5356               		.loc 1 979 29 view .LVU1258
 5357 00f4 F0E0      		ldi r31,0
 5358 00f6 E050      		subi r30,lo8(-(RGBLED_SNAKE_INTERVALS))
 5359 00f8 F040      		sbci r31,hi8(-(RGBLED_SNAKE_INTERVALS))
 5360               	.LBB219:
 5361               	.LBB218:
 618:quantum/rgblight/rgblight.c **** }
 5362               		.loc 1 618 29 view .LVU1259
 5363               	/* #APP */
 5364               	 ;  618 "quantum/rgblight/rgblight.c" 1
 5365 00fa E491      		lpm r30, Z
 5366               		
 5367               	 ;  0 "" 2
 5368               	.LVL374:
 618:quantum/rgblight/rgblight.c **** }
 5369               		.loc 1 618 29 is_stmt 1 view .LVU1260
 618:quantum/rgblight/rgblight.c **** }
 5370               		.loc 1 618 29 is_stmt 0 view .LVU1261
 5371               	/* #NOAPP */
 5372               	.LBE218:
 5373               	.LBE219:
 979:quantum/rgblight/rgblight.c ****             effect_func   = rgblight_effect_snake;
 5374               		.loc 1 979 27 view .LVU1262
 5375 00fc CE2F      		mov r28,r30
 5376 00fe D0E0      		ldi r29,0
 5377               	.LVL375:
 980:quantum/rgblight/rgblight.c ****         }
 5378               		.loc 1 980 13 is_stmt 1 view .LVU1263
 980:quantum/rgblight/rgblight.c ****         }
 5379               		.loc 1 980 27 is_stmt 0 view .LVU1264
 5380 0100 00E0      		ldi r16,lo8(gs(rgblight_effect_snake))
 5381 0102 10E0      		ldi r17,hi8(gs(rgblight_effect_snake))
 5382 0104 00C0      		rjmp .L237
 5383               	.LVL376:
 5384               	.L238:
 986:quantum/rgblight/rgblight.c ****             effect_func   = rgblight_effect_knight;
 5385               		.loc 1 986 13 is_stmt 1 view .LVU1265
 5386               	.LBB220:
 5387               	.LBI220:
 613:quantum/rgblight/rgblight.c ****     return
 5388               		.loc 1 613 16 view .LVU1266
 614:quantum/rgblight/rgblight.c **** #    ifdef VELOCIKEY_ENABLE
 5389               		.loc 1 614 5 view .LVU1267
 5390               	.LBB221:
 618:quantum/rgblight/rgblight.c **** }
 5391               		.loc 1 618 29 view .LVU1268
 618:quantum/rgblight/rgblight.c **** }
 5392               		.loc 1 618 29 view .LVU1269
 618:quantum/rgblight/rgblight.c **** }
 5393               		.loc 1 618 29 view .LVU1270
 5394               	.LBE221:
 5395               	.LBE220:
 986:quantum/rgblight/rgblight.c ****             effect_func   = rgblight_effect_knight;
 5396               		.loc 1 986 29 is_stmt 0 view .LVU1271
 5397 0106 F0E0      		ldi r31,0
 5398 0108 E050      		subi r30,lo8(-(RGBLED_KNIGHT_INTERVALS))
 5399 010a F040      		sbci r31,hi8(-(RGBLED_KNIGHT_INTERVALS))
 5400               	.LVL377:
 5401               	.LBB223:
 5402               	.LBB222:
 618:quantum/rgblight/rgblight.c **** }
 5403               		.loc 1 618 29 view .LVU1272
 5404               	/* #APP */
 5405               	 ;  618 "quantum/rgblight/rgblight.c" 1
 5406 010c E491      		lpm r30, Z
 5407               		
 5408               	 ;  0 "" 2
 5409               	.LVL378:
 618:quantum/rgblight/rgblight.c **** }
 5410               		.loc 1 618 29 is_stmt 1 view .LVU1273
 618:quantum/rgblight/rgblight.c **** }
 5411               		.loc 1 618 29 is_stmt 0 view .LVU1274
 5412               	/* #NOAPP */
 5413               	.LBE222:
 5414               	.LBE223:
 986:quantum/rgblight/rgblight.c ****             effect_func   = rgblight_effect_knight;
 5415               		.loc 1 986 27 view .LVU1275
 5416 010e CE2F      		mov r28,r30
 5417 0110 D0E0      		ldi r29,0
 5418               	.LVL379:
 987:quantum/rgblight/rgblight.c ****         }
 5419               		.loc 1 987 13 is_stmt 1 view .LVU1276
 987:quantum/rgblight/rgblight.c ****         }
 5420               		.loc 1 987 27 is_stmt 0 view .LVU1277
 5421 0112 00E0      		ldi r16,lo8(gs(rgblight_effect_knight))
 5422 0114 10E0      		ldi r17,hi8(gs(rgblight_effect_knight))
 5423 0116 00C0      		rjmp .L237
 5424               	.LVL380:
 5425               	.L243:
1000:quantum/rgblight/rgblight.c ****             effect_func   = (effect_func_t)rgblight_effect_rgbtest;
 5426               		.loc 1 1000 13 is_stmt 1 view .LVU1278
 5427               	.LBB224:
1000:quantum/rgblight/rgblight.c ****             effect_func   = (effect_func_t)rgblight_effect_rgbtest;
 5428               		.loc 1 1000 29 view .LVU1279
1000:quantum/rgblight/rgblight.c ****             effect_func   = (effect_func_t)rgblight_effect_rgbtest;
 5429               		.loc 1 1000 29 view .LVU1280
1000:quantum/rgblight/rgblight.c ****             effect_func   = (effect_func_t)rgblight_effect_rgbtest;
 5430               		.loc 1 1000 29 view .LVU1281
 5431 0118 E0E0      		ldi r30,lo8(RGBLED_RGBTEST_INTERVALS)
 5432 011a F0E0      		ldi r31,hi8(RGBLED_RGBTEST_INTERVALS)
 5433               	.LVL381:
1000:quantum/rgblight/rgblight.c ****             effect_func   = (effect_func_t)rgblight_effect_rgbtest;
 5434               		.loc 1 1000 29 is_stmt 0 view .LVU1282
 5435               	/* #APP */
 5436               	 ;  1000 "quantum/rgblight/rgblight.c" 1
 5437 011c C591      		lpm r28, Z+
 5438 011e D491      		lpm r29, Z
 5439               		
 5440               	 ;  0 "" 2
 5441               	.LVL382:
1000:quantum/rgblight/rgblight.c ****             effect_func   = (effect_func_t)rgblight_effect_rgbtest;
 5442               		.loc 1 1000 29 is_stmt 1 view .LVU1283
1000:quantum/rgblight/rgblight.c ****             effect_func   = (effect_func_t)rgblight_effect_rgbtest;
 5443               		.loc 1 1000 29 is_stmt 0 view .LVU1284
 5444               	/* #NOAPP */
 5445               	.LBE224:
1001:quantum/rgblight/rgblight.c ****         }
 5446               		.loc 1 1001 13 is_stmt 1 view .LVU1285
1001:quantum/rgblight/rgblight.c ****         }
 5447               		.loc 1 1001 27 is_stmt 0 view .LVU1286
 5448 0120 00E0      		ldi r16,lo8(gs(rgblight_effect_rgbtest))
 5449 0122 10E0      		ldi r17,hi8(gs(rgblight_effect_rgbtest))
 5450 0124 00C0      		rjmp .L237
 5451               	.LVL383:
 5452               	.L233:
 5453               	/* epilogue start */
1001:quantum/rgblight/rgblight.c ****         }
 5454               		.loc 1 1001 27 view .LVU1287
 5455               	.LBE225:
1050:quantum/rgblight/rgblight.c **** 
 5456               		.loc 1 1050 1 view .LVU1288
 5457 0126 DF91      		pop r29
 5458 0128 CF91      		pop r28
 5459 012a 1F91      		pop r17
 5460 012c 0F91      		pop r16
 5461 012e 0895      		ret
 5462               		.cfi_endproc
 5463               	.LFE175:
 5465               		.section	.bss.maxval.0,"aw",@nobits
 5468               	maxval.0:
 5469 0000 00        		.zero	1
 5470               		.section	.data.increment.1,"aw"
 5473               	increment.1:
 5474 0000 01        		.byte	1
 5475               		.section	.data.increment.2,"aw"
 5478               	increment.2:
 5479 0000 01        		.byte	1
 5480               		.section	.data.high_bound.3,"aw"
 5483               	high_bound.3:
 5484 0000 02        		.byte	2
 5485               		.section	.bss.low_bound.4,"aw",@nobits
 5488               	low_bound.4:
 5489 0000 00        		.zero	1
 5490               		.section	.bss.pos.5,"aw",@nobits
 5493               	pos.5:
 5494 0000 00        		.zero	1
 5495               		.weak	RGBLED_RGBTEST_INTERVALS
 5496               		.section	.progmem.data.RGBLED_RGBTEST_INTERVALS,"a"
 5499               	RGBLED_RGBTEST_INTERVALS:
 5500 0000 0004      		.word	1024
 5501               		.weak	RGBLED_KNIGHT_INTERVALS
 5502               		.section	.progmem.data.RGBLED_KNIGHT_INTERVALS,"a"
 5505               	RGBLED_KNIGHT_INTERVALS:
 5506 0000 7F3F 1F   		.ascii	"\177?\037"
 5507               		.weak	RGBLED_SNAKE_INTERVALS
 5508               		.section	.progmem.data.RGBLED_SNAKE_INTERVALS,"a"
 5511               	RGBLED_SNAKE_INTERVALS:
 5512 0000 6432 14   		.ascii	"d2\024"
 5513               		.weak	RGBLED_RAINBOW_SWIRL_INTERVALS
 5514               		.section	.progmem.data.RGBLED_RAINBOW_SWIRL_INTERVALS,"a"
 5517               	RGBLED_RAINBOW_SWIRL_INTERVALS:
 5518 0000 6432 14   		.ascii	"d2\024"
 5519               		.weak	RGBLED_RAINBOW_MOOD_INTERVALS
 5520               		.section	.progmem.data.RGBLED_RAINBOW_MOOD_INTERVALS,"a"
 5523               	RGBLED_RAINBOW_MOOD_INTERVALS:
 5524 0000 783C 1E   		.ascii	"x<\036"
 5525               		.weak	RGBLED_BREATHING_INTERVALS
 5526               		.section	.progmem.data.RGBLED_BREATHING_INTERVALS,"a"
 5529               	RGBLED_BREATHING_INTERVALS:
 5530 0000 1E14 0A05 		.ascii	"\036\024\n\005"
 5531               	.global	rgblight_effect_breathe_table
 5532               		.section	.progmem.data.rgblight_effect_breathe_table,"a"
 5535               	rgblight_effect_breathe_table:
 5536 0000 2223 2526 		.ascii	"\"#%&()*,-/023568:;=>@BCEGIJLNPQSUWYZ\\^`bdfhikmoqsuwy{}\177"
 5536      2829 2A2C 
 5536      2D2F 3032 
 5536      3335 3638 
 5536      3A3B 3D3E 
 5537 0037 8183 8587 		.ascii	"\201\203\205\207\211\212\214\216\220\222\224\226\230\232\234"
 5537      898A 8C8E 
 5537      9092 9496 
 5537      989A 9C
 5538 0046 9E9F A1A3 		.ascii	"\236\237\241\243\245\247\250\252\254\256\257\261\263\264\266"
 5538      A5A7 A8AA 
 5538      ACAE AFB1 
 5538      B3B4 B6
 5539 0055 B8B9 BBBC 		.ascii	"\270\271\273\274\276\277\301\302\303\305\306\307\311\312\313"
 5539      BEBF C1C2 
 5539      C3C5 C6C7 
 5539      C9CA CB
 5540 0064 CCCD CED0 		.ascii	"\314\315\316\320\321\322\322\323\324\325\326\327\327\330\331"
 5540      D1D2 D2D3 
 5540      D4D5 D6D7 
 5540      D7D8 D9
 5541 0073 D9DA DADB 		.ascii	"\331\332\332\333\333\333\334\334\334\334\334\335\335\335\335"
 5541      DBDB DCDC 
 5541      DCDC DCDD 
 5541      DDDD DD
 5542 0082 DCDC DCDC 		.ascii	"\334\334\334\334\334\333\333\333\332\332\331\331\330\327\327"
 5542      DCDB DBDB 
 5542      DADA D9D9 
 5542      D8D7 D7
 5543 0091 D6D5 D4D3 		.ascii	"\326\325\324\323\322\322\321\320\316\315\314\313\312\311\307"
 5543      D2D2 D1D0 
 5543      CECD CCCB 
 5543      CAC9 C7
 5544 00a0 C6C5 C3C2 		.ascii	"\306\305\303\302\301\277\276\274\273\271\270\266\264\263\261"
 5544      C1BF BEBC 
 5544      BBB9 B8B6 
 5544      B4B3 B1
 5545 00af AFAE ACAA 		.ascii	"\257\256\254\252\250\247\245\243\241\237\236\234\232\230\226"
 5545      A8A7 A5A3 
 5545      A19F 9E9C 
 5545      9A98 96
 5546 00be 9492 908E 		.ascii	"\224\222\220\216\214\212\211\207\205\203\201\177}{ywusqomkih"
 5546      8C8A 8987 
 5546      8583 817F 
 5546      7D7B 7977 
 5546      7573 716F 
 5547 00d6 6664 6260 		.ascii	"fdb`^\\ZYWUSQPNLJIGECB@>=;:865320/-,*)(&%#\""
 5547      5E5C 5A59 
 5547      5755 5351 
 5547      504E 4C4A 
 5547      4947 4543 
 5548               	.global	rgblight_ranges
 5549               		.section	.data.rgblight_ranges,"aw"
 5552               	rgblight_ranges:
 5553 0000 00        		.byte	0
 5554 0001 02        		.byte	2
 5555 0002 00        		.byte	0
 5556 0003 02        		.byte	2
 5557 0004 02        		.byte	2
 5558               		.comm	led,6,1
 5559               	.global	animation_status
 5560               		.section	.bss.animation_status,"aw",@nobits
 5563               	animation_status:
 5564 0000 0000 0000 		.zero	6
 5564      0000 
 5565               	.global	is_rgblight_initialized
 5566               		.section	.bss.is_rgblight_initialized,"aw",@nobits
 5569               	is_rgblight_initialized:
 5570 0000 00        		.zero	1
 5571               	.global	rgblight_status
 5572               		.section	.bss.rgblight_status,"aw",@nobits
 5575               	rgblight_status:
 5576 0000 0000      		.zero	2
 5577               		.comm	rgblight_config,5,1
 5578               		.weak	RGBLED_GRADIENT_RANGES
 5579               		.section	.progmem.data.RGBLED_GRADIENT_RANGES,"a"
 5582               	RGBLED_GRADIENT_RANGES:
 5583 0000 FFAA 7F55 		.ascii	"\377\252\177U@"
 5583      40
 5584               		.section	.rodata.mode_base_table,"a"
 5587               	mode_base_table:
 5588 0000 00        		.string	""
 5589 0001 0102 0202 		.ascii	"\001\002\002\002\002\006\006\006\t\t\t\t\t\t\017\017\017\017"
 5589      0206 0606 
 5589      0909 0909 
 5589      0909 0F0F 
 5589      0F0F 
 5590 0013 0F0F 1515 		.ascii	"\017\017\025\025\025\030\031\031\031\031\031\031\031\031\031"
 5590      1518 1919 
 5590      1919 1919 
 5590      1919 19
 5591 0022 1923 24   		.ascii	"\031#$"
 5592               		.section	.data.static_effect_table,"aw"
 5595               	static_effect_table:
 5596 0000 0119 1A1B 		.ascii	"\001\031\032\033\034\035\036\037 !\""
 5596      1C1D 1E1F 
 5596      2021 22
 5597               		.text
 5598               	.Letext0:
 5599               		.file 4 "/usr/lib/gcc/avr/11.2.0/include/stddef.h"
 5600               		.file 5 "/usr/avr/include/stdint.h"
 5601               		.file 6 "./quantum/color.h"
 5602               		.file 7 "quantum/rgblight/rgblight.h"
 5603               		.file 8 "./lib/lib8tion/trig8.h"
 5604               		.file 9 "quantum/rgblight/rgblight_breathe_table.h"
 5605               		.file 10 "drivers/ws2812.h"
 5606               		.file 11 "/usr/avr/include/math.h"
 5607               		.file 12 "/usr/avr/include/string.h"
 5608               		.file 13 "tmk_core/common/timer.h"
 5609               		.file 14 "quantum/eeconfig.h"
 5610               		.file 15 "/usr/avr/include/avr/eeprom.h"
DEFINED SYMBOLS
                            *ABS*:0000000000000000 rgblight.c
     /tmp/cccVSSeQ.s:2      *ABS*:000000000000003e __SP_H__
     /tmp/cccVSSeQ.s:3      *ABS*:000000000000003d __SP_L__
     /tmp/cccVSSeQ.s:4      *ABS*:000000000000003f __SREG__
     /tmp/cccVSSeQ.s:5      *ABS*:0000000000000000 __tmp_reg__
     /tmp/cccVSSeQ.s:6      *ABS*:0000000000000001 __zero_reg__
     /tmp/cccVSSeQ.s:12     .text.rgblight_effect_dummy:0000000000000000 rgblight_effect_dummy
     /tmp/cccVSSeQ.s:31     .text.rgblight_set_clipping_range:0000000000000000 rgblight_set_clipping_range
     /tmp/cccVSSeQ.s:5552   .data.rgblight_ranges:0000000000000000 rgblight_ranges
     /tmp/cccVSSeQ.s:57     .text.rgblight_set_effect_range:0000000000000000 rgblight_set_effect_range
     /tmp/cccVSSeQ.s:103    .text.rgblight_hsv_to_rgb:0000000000000000 rgblight_hsv_to_rgb
     /tmp/cccVSSeQ.s:123    .text.sethsv_raw:0000000000000000 sethsv_raw
     /tmp/cccVSSeQ.s:186    .text.sethsv:0000000000000000 sethsv
     /tmp/cccVSSeQ.s:205    .text.setrgb:0000000000000000 setrgb
     /tmp/cccVSSeQ.s:234    .text.rgblight_check_config:0000000000000000 rgblight_check_config
                            *COM*:0000000000000005 rgblight_config
     /tmp/cccVSSeQ.s:277    .text.eeconfig_read_rgblight:0000000000000000 eeconfig_read_rgblight
     /tmp/cccVSSeQ.s:297    .text.eeconfig_update_rgblight:0000000000000000 eeconfig_update_rgblight
     /tmp/cccVSSeQ.s:350    .text.eeconfig_update_rgblight_current:0000000000000000 eeconfig_update_rgblight_current
     /tmp/cccVSSeQ.s:402    .text.eeconfig_update_rgblight_default:0000000000000000 eeconfig_update_rgblight_default
     /tmp/cccVSSeQ.s:444    .text.eeconfig_debug_rgblight:0000000000000000 eeconfig_debug_rgblight
     /tmp/cccVSSeQ.s:468    .text.rgblight_read_dword:0000000000000000 rgblight_read_dword
     /tmp/cccVSSeQ.s:515    .text.rgblight_get_mode:0000000000000000 rgblight_get_mode
     /tmp/cccVSSeQ.s:545    .text.rgblight_is_enabled:0000000000000000 rgblight_is_enabled
     /tmp/cccVSSeQ.s:566    .text.rgblight_increase_speed_helper:0000000000000000 rgblight_increase_speed_helper
     /tmp/cccVSSeQ.s:647    .text.rgblight_increase_speed:0000000000000000 rgblight_increase_speed
     /tmp/cccVSSeQ.s:665    .text.rgblight_increase_speed_noeeprom:0000000000000000 rgblight_increase_speed_noeeprom
     /tmp/cccVSSeQ.s:683    .text.rgblight_decrease_speed_helper:0000000000000000 rgblight_decrease_speed_helper
     /tmp/cccVSSeQ.s:764    .text.rgblight_decrease_speed:0000000000000000 rgblight_decrease_speed
     /tmp/cccVSSeQ.s:782    .text.rgblight_decrease_speed_noeeprom:0000000000000000 rgblight_decrease_speed_noeeprom
     /tmp/cccVSSeQ.s:800    .text.rgblight_get_speed:0000000000000000 rgblight_get_speed
     /tmp/cccVSSeQ.s:819    .text.rgblight_set_speed_eeprom_helper:0000000000000000 rgblight_set_speed_eeprom_helper
     /tmp/cccVSSeQ.s:894    .text.rgblight_set_speed:0000000000000000 rgblight_set_speed
     /tmp/cccVSSeQ.s:914    .text.rgblight_set_speed_noeeprom:0000000000000000 rgblight_set_speed_noeeprom
     /tmp/cccVSSeQ.s:934    .text.rgblight_get_hue:0000000000000000 rgblight_get_hue
     /tmp/cccVSSeQ.s:953    .text.rgblight_get_sat:0000000000000000 rgblight_get_sat
     /tmp/cccVSSeQ.s:972    .text.rgblight_get_val:0000000000000000 rgblight_get_val
     /tmp/cccVSSeQ.s:991    .text.rgblight_get_hsv:0000000000000000 rgblight_get_hsv
     /tmp/cccVSSeQ.s:1016   .text.rgblight_call_driver:0000000000000000 rgblight_call_driver
     /tmp/cccVSSeQ.s:1036   .text.rgblight_set:0000000000000000 rgblight_set
                            *COM*:0000000000000006 led
     /tmp/cccVSSeQ.s:1111   .text.rgblight_setrgb:0000000000000000 rgblight_setrgb
     /tmp/cccVSSeQ.s:1179   .text.rgblight_sethsv_noeeprom_old:0000000000000000 rgblight_sethsv_noeeprom_old
     /tmp/cccVSSeQ.s:1263   .text.rgblight_effect_breathing:0000000000000000 rgblight_effect_breathing
     /tmp/cccVSSeQ.s:5535   .progmem.data.rgblight_effect_breathe_table:0000000000000000 rgblight_effect_breathe_table
     /tmp/cccVSSeQ.s:1335   .text.rgblight_effect_rainbow_mood:0000000000000000 rgblight_effect_rainbow_mood
     /tmp/cccVSSeQ.s:1382   .text.rgblight_effect_rgbtest:0000000000000000 rgblight_effect_rgbtest
     /tmp/cccVSSeQ.s:5468   .bss.maxval.0:0000000000000000 maxval.0
     /tmp/cccVSSeQ.s:1537   .text.rgblight_sethsv_eeprom_helper:0000000000000000 rgblight_sethsv_eeprom_helper
     /tmp/cccVSSeQ.s:5587   .rodata.mode_base_table:0000000000000000 mode_base_table
     /tmp/cccVSSeQ.s:5575   .bss.rgblight_status:0000000000000000 rgblight_status
     /tmp/cccVSSeQ.s:5582   .progmem.data.RGBLED_GRADIENT_RANGES:0000000000000000 RGBLED_GRADIENT_RANGES
     /tmp/cccVSSeQ.s:1917   .text.rgblight_increase_hue_helper:0000000000000000 rgblight_increase_hue_helper
     /tmp/cccVSSeQ.s:1951   .text.rgblight_increase_hue_noeeprom:0000000000000000 rgblight_increase_hue_noeeprom
     /tmp/cccVSSeQ.s:1969   .text.rgblight_increase_hue:0000000000000000 rgblight_increase_hue
     /tmp/cccVSSeQ.s:1987   .text.rgblight_decrease_hue_helper:0000000000000000 rgblight_decrease_hue_helper
     /tmp/cccVSSeQ.s:2021   .text.rgblight_decrease_hue_noeeprom:0000000000000000 rgblight_decrease_hue_noeeprom
     /tmp/cccVSSeQ.s:2039   .text.rgblight_decrease_hue:0000000000000000 rgblight_decrease_hue
     /tmp/cccVSSeQ.s:2057   .text.rgblight_increase_sat_helper:0000000000000000 rgblight_increase_sat_helper
     /tmp/cccVSSeQ.s:2091   .text.rgblight_increase_sat_helper:0000000000000010 L_1619
     /tmp/cccVSSeQ.s:2113   .text.rgblight_increase_sat_noeeprom:0000000000000000 rgblight_increase_sat_noeeprom
     /tmp/cccVSSeQ.s:2131   .text.rgblight_increase_sat:0000000000000000 rgblight_increase_sat
     /tmp/cccVSSeQ.s:2149   .text.rgblight_decrease_sat_helper:0000000000000000 rgblight_decrease_sat_helper
     /tmp/cccVSSeQ.s:2182   .text.rgblight_decrease_sat_helper:0000000000000010 L_1675
     /tmp/cccVSSeQ.s:2204   .text.rgblight_decrease_sat_noeeprom:0000000000000000 rgblight_decrease_sat_noeeprom
     /tmp/cccVSSeQ.s:2222   .text.rgblight_decrease_sat:0000000000000000 rgblight_decrease_sat
     /tmp/cccVSSeQ.s:2240   .text.rgblight_increase_val_helper:0000000000000000 rgblight_increase_val_helper
     /tmp/cccVSSeQ.s:2273   .text.rgblight_increase_val_helper:0000000000000010 L_1731
     /tmp/cccVSSeQ.s:2295   .text.rgblight_increase_val_noeeprom:0000000000000000 rgblight_increase_val_noeeprom
     /tmp/cccVSSeQ.s:2313   .text.rgblight_increase_val:0000000000000000 rgblight_increase_val
     /tmp/cccVSSeQ.s:2331   .text.rgblight_decrease_val_helper:0000000000000000 rgblight_decrease_val_helper
     /tmp/cccVSSeQ.s:2364   .text.rgblight_decrease_val_helper:0000000000000010 L_1787
     /tmp/cccVSSeQ.s:2386   .text.rgblight_decrease_val_noeeprom:0000000000000000 rgblight_decrease_val_noeeprom
     /tmp/cccVSSeQ.s:2404   .text.rgblight_decrease_val:0000000000000000 rgblight_decrease_val
     /tmp/cccVSSeQ.s:2422   .text.rgblight_sethsv:0000000000000000 rgblight_sethsv
     /tmp/cccVSSeQ.s:2442   .text.rgblight_sethsv_noeeprom:0000000000000000 rgblight_sethsv_noeeprom
     /tmp/cccVSSeQ.s:2462   .text.rgblight_setrgb_at:0000000000000000 rgblight_setrgb_at
     /tmp/cccVSSeQ.s:2511   .text.rgblight_sethsv_at:0000000000000000 rgblight_sethsv_at
     /tmp/cccVSSeQ.s:2603   .text.rgblight_setrgb_range:0000000000000000 rgblight_setrgb_range
     /tmp/cccVSSeQ.s:2716   .text.rgblight_sethsv_range:0000000000000000 rgblight_sethsv_range
     /tmp/cccVSSeQ.s:2805   .text.rgblight_sethsv_master:0000000000000000 rgblight_sethsv_master
     /tmp/cccVSSeQ.s:2834   .text.rgblight_sethsv_slave:0000000000000000 rgblight_sethsv_slave
     /tmp/cccVSSeQ.s:2863   .text.rgblight_setrgb_master:0000000000000000 rgblight_setrgb_master
     /tmp/cccVSSeQ.s:2892   .text.rgblight_setrgb_slave:0000000000000000 rgblight_setrgb_slave
     /tmp/cccVSSeQ.s:2921   .text.rgblight_effect_rainbow_swirl:0000000000000000 rgblight_effect_rainbow_swirl
     /tmp/cccVSSeQ.s:3061   .text.rgblight_effect_snake:0000000000000000 rgblight_effect_snake
     /tmp/cccVSSeQ.s:5493   .bss.pos.5:0000000000000000 pos.5
     /tmp/cccVSSeQ.s:3319   .text.rgblight_effect_knight:0000000000000000 rgblight_effect_knight
     /tmp/cccVSSeQ.s:5478   .data.increment.2:0000000000000000 increment.2
     /tmp/cccVSSeQ.s:5488   .bss.low_bound.4:0000000000000000 low_bound.4
     /tmp/cccVSSeQ.s:5483   .data.high_bound.3:0000000000000000 high_bound.3
     /tmp/cccVSSeQ.s:3528   .text.rgblight_effect_christmas:0000000000000000 rgblight_effect_christmas
     /tmp/cccVSSeQ.s:5473   .data.increment.1:0000000000000000 increment.1
     /tmp/cccVSSeQ.s:3823   .text.rgblight_effect_alternating:0000000000000000 rgblight_effect_alternating
     /tmp/cccVSSeQ.s:3983   .text.rgblight_disable:0000000000000000 rgblight_disable
     /tmp/cccVSSeQ.s:4086   .text.rgblight_disable_noeeprom:0000000000000000 rgblight_disable_noeeprom
     /tmp/cccVSSeQ.s:4151   .text.rgblight_timer_init:0000000000000000 rgblight_timer_init
     /tmp/cccVSSeQ.s:4172   .text.rgblight_timer_enable:0000000000000000 rgblight_timer_enable
     /tmp/cccVSSeQ.s:5595   .data.static_effect_table:0000000000000000 static_effect_table
     /tmp/cccVSSeQ.s:5563   .bss.animation_status:0000000000000000 animation_status
     /tmp/cccVSSeQ.s:4231   .text.rgblight_mode_eeprom_helper:0000000000000000 rgblight_mode_eeprom_helper
     /tmp/cccVSSeQ.s:4399   .text.rgblight_step_helper:0000000000000000 rgblight_step_helper
     /tmp/cccVSSeQ.s:4439   .text.rgblight_step_noeeprom:0000000000000000 rgblight_step_noeeprom
     /tmp/cccVSSeQ.s:4457   .text.rgblight_step:0000000000000000 rgblight_step
     /tmp/cccVSSeQ.s:4475   .text.rgblight_step_reverse_helper:0000000000000000 rgblight_step_reverse_helper
     /tmp/cccVSSeQ.s:4516   .text.rgblight_step_reverse_noeeprom:0000000000000000 rgblight_step_reverse_noeeprom
     /tmp/cccVSSeQ.s:4534   .text.rgblight_step_reverse:0000000000000000 rgblight_step_reverse
     /tmp/cccVSSeQ.s:4552   .text.rgblight_mode:0000000000000000 rgblight_mode
     /tmp/cccVSSeQ.s:4572   .text.rgblight_increase:0000000000000000 rgblight_increase
     /tmp/cccVSSeQ.s:4607   .text.rgblight_decrease:0000000000000000 rgblight_decrease
     /tmp/cccVSSeQ.s:4641   .text.rgblight_enable:0000000000000000 rgblight_enable
     /tmp/cccVSSeQ.s:4667   .text.rgblight_toggle:0000000000000000 rgblight_toggle
     /tmp/cccVSSeQ.s:4694   .text.rgblight_mode_noeeprom:0000000000000000 rgblight_mode_noeeprom
     /tmp/cccVSSeQ.s:4714   .text.rgblight_init:0000000000000000 rgblight_init
     /tmp/cccVSSeQ.s:5569   .bss.is_rgblight_initialized:0000000000000000 is_rgblight_initialized
     /tmp/cccVSSeQ.s:4812   .text.rgblight_reload_from_eeprom:0000000000000000 rgblight_reload_from_eeprom
     /tmp/cccVSSeQ.s:4853   .text.rgblight_enable_noeeprom:0000000000000000 rgblight_enable_noeeprom
     /tmp/cccVSSeQ.s:4879   .text.rgblight_toggle_noeeprom:0000000000000000 rgblight_toggle_noeeprom
     /tmp/cccVSSeQ.s:4906   .text.rgblight_update_dword:0000000000000000 rgblight_update_dword
     /tmp/cccVSSeQ.s:4953   .text.rgblight_timer_disable:0000000000000000 rgblight_timer_disable
     /tmp/cccVSSeQ.s:4969   .text.rgblight_timer_toggle:0000000000000000 rgblight_timer_toggle
     /tmp/cccVSSeQ.s:5007   .text.rgblight_show_solid_color:0000000000000000 rgblight_show_solid_color
     /tmp/cccVSSeQ.s:5063   .text.rgblight_task:0000000000000000 rgblight_task
     /tmp/cccVSSeQ.s:5529   .progmem.data.RGBLED_BREATHING_INTERVALS:0000000000000000 RGBLED_BREATHING_INTERVALS
     /tmp/cccVSSeQ.s:5523   .progmem.data.RGBLED_RAINBOW_MOOD_INTERVALS:0000000000000000 RGBLED_RAINBOW_MOOD_INTERVALS
     /tmp/cccVSSeQ.s:5517   .progmem.data.RGBLED_RAINBOW_SWIRL_INTERVALS:0000000000000000 RGBLED_RAINBOW_SWIRL_INTERVALS
     /tmp/cccVSSeQ.s:5511   .progmem.data.RGBLED_SNAKE_INTERVALS:0000000000000000 RGBLED_SNAKE_INTERVALS
     /tmp/cccVSSeQ.s:5505   .progmem.data.RGBLED_KNIGHT_INTERVALS:0000000000000000 RGBLED_KNIGHT_INTERVALS
     /tmp/cccVSSeQ.s:5499   .progmem.data.RGBLED_RGBTEST_INTERVALS:0000000000000000 RGBLED_RGBTEST_INTERVALS

UNDEFINED SYMBOLS
hsv_to_rgb
eeprom_read_dword
eeprom_update_dword
ws2812_setleds
__divmodhi4
__udivmodhi4
__umulhisi3
__muluhisi3
__mulhisi3
__mulshisi3
__udivmodsi4
memchr
timer_read
eeconfig_is_enabled
eeconfig_init
__do_copy_data
__do_clear_bss
