   1              		.cpu cortex-m4
   2              		.arch armv7e-m
   3              		.fpu fpv4-sp-d16
   4              		.eabi_attribute 27, 1
   5              		.eabi_attribute 28, 1
   6              		.eabi_attribute 20, 1
   7              		.eabi_attribute 21, 1
   8              		.eabi_attribute 23, 3
   9              		.eabi_attribute 24, 1
  10              		.eabi_attribute 25, 1
  11              		.eabi_attribute 26, 1
  12              		.eabi_attribute 30, 4
  13              		.eabi_attribute 34, 1
  14              		.eabi_attribute 18, 2
  15              		.file	"hal.c"
  16              		.text
  17              	.Ltext0:
  18              		.cfi_sections	.debug_frame
  19              		.file 1 "lib/chibios/os/hal/src/hal.c"
  20              		.section	.text.halInit,"ax",%progbits
  21              		.align	1
  22              		.global	halInit
  23              		.syntax unified
  24              		.thumb
  25              		.thumb_func
  27              	halInit:
  28              	.LFB282:
   1:lib/chibios/os/hal/src/hal.c **** /*
   2:lib/chibios/os/hal/src/hal.c ****     ChibiOS - Copyright (C) 2006..2018 Giovanni Di Sirio
   3:lib/chibios/os/hal/src/hal.c **** 
   4:lib/chibios/os/hal/src/hal.c ****     Licensed under the Apache License, Version 2.0 (the "License");
   5:lib/chibios/os/hal/src/hal.c ****     you may not use this file except in compliance with the License.
   6:lib/chibios/os/hal/src/hal.c ****     You may obtain a copy of the License at
   7:lib/chibios/os/hal/src/hal.c **** 
   8:lib/chibios/os/hal/src/hal.c ****         http://www.apache.org/licenses/LICENSE-2.0
   9:lib/chibios/os/hal/src/hal.c **** 
  10:lib/chibios/os/hal/src/hal.c ****     Unless required by applicable law or agreed to in writing, software
  11:lib/chibios/os/hal/src/hal.c ****     distributed under the License is distributed on an "AS IS" BASIS,
  12:lib/chibios/os/hal/src/hal.c ****     WITHOUT WARRANTIES OR CONDITIONS OF ANY KIND, either express or implied.
  13:lib/chibios/os/hal/src/hal.c ****     See the License for the specific language governing permissions and
  14:lib/chibios/os/hal/src/hal.c ****     limitations under the License.
  15:lib/chibios/os/hal/src/hal.c **** */
  16:lib/chibios/os/hal/src/hal.c **** 
  17:lib/chibios/os/hal/src/hal.c **** /**
  18:lib/chibios/os/hal/src/hal.c ****  * @file    hal.c
  19:lib/chibios/os/hal/src/hal.c ****  * @brief   HAL subsystem code.
  20:lib/chibios/os/hal/src/hal.c ****  *
  21:lib/chibios/os/hal/src/hal.c ****  * @addtogroup HAL
  22:lib/chibios/os/hal/src/hal.c ****  * @{
  23:lib/chibios/os/hal/src/hal.c ****  */
  24:lib/chibios/os/hal/src/hal.c **** 
  25:lib/chibios/os/hal/src/hal.c **** #include "hal.h"
  26:lib/chibios/os/hal/src/hal.c **** 
  27:lib/chibios/os/hal/src/hal.c **** /*===========================================================================*/
  28:lib/chibios/os/hal/src/hal.c **** /* Driver local definitions.                                                 */
  29:lib/chibios/os/hal/src/hal.c **** /*===========================================================================*/
  30:lib/chibios/os/hal/src/hal.c **** 
  31:lib/chibios/os/hal/src/hal.c **** /*===========================================================================*/
  32:lib/chibios/os/hal/src/hal.c **** /* Driver exported variables.                                                */
  33:lib/chibios/os/hal/src/hal.c **** /*===========================================================================*/
  34:lib/chibios/os/hal/src/hal.c **** 
  35:lib/chibios/os/hal/src/hal.c **** /*===========================================================================*/
  36:lib/chibios/os/hal/src/hal.c **** /* Driver local variables and types.                                         */
  37:lib/chibios/os/hal/src/hal.c **** /*===========================================================================*/
  38:lib/chibios/os/hal/src/hal.c **** 
  39:lib/chibios/os/hal/src/hal.c **** /*===========================================================================*/
  40:lib/chibios/os/hal/src/hal.c **** /* Driver local functions.                                                   */
  41:lib/chibios/os/hal/src/hal.c **** /*===========================================================================*/
  42:lib/chibios/os/hal/src/hal.c **** 
  43:lib/chibios/os/hal/src/hal.c **** /*===========================================================================*/
  44:lib/chibios/os/hal/src/hal.c **** /* Driver exported functions.                                                */
  45:lib/chibios/os/hal/src/hal.c **** /*===========================================================================*/
  46:lib/chibios/os/hal/src/hal.c **** 
  47:lib/chibios/os/hal/src/hal.c **** /**
  48:lib/chibios/os/hal/src/hal.c ****  * @brief   HAL initialization.
  49:lib/chibios/os/hal/src/hal.c ****  * @details This function invokes the low level initialization code then
  50:lib/chibios/os/hal/src/hal.c ****  *          initializes all the drivers enabled in the HAL. Finally the
  51:lib/chibios/os/hal/src/hal.c ****  *          board-specific initialization is performed by invoking
  52:lib/chibios/os/hal/src/hal.c ****  *          @p boardInit() (usually defined in @p board.c).
  53:lib/chibios/os/hal/src/hal.c ****  *
  54:lib/chibios/os/hal/src/hal.c ****  * @init
  55:lib/chibios/os/hal/src/hal.c ****  */
  56:lib/chibios/os/hal/src/hal.c **** void halInit(void) {
  29              		.loc 1 56 20 view -0
  30              		.cfi_startproc
  31              		@ args = 0, pretend = 0, frame = 0
  32              		@ frame_needed = 0, uses_anonymous_args = 0
  57:lib/chibios/os/hal/src/hal.c **** 
  58:lib/chibios/os/hal/src/hal.c ****   /* Initializes the OS Abstraction Layer.*/
  59:lib/chibios/os/hal/src/hal.c ****   osalInit();
  33              		.loc 1 59 3 view .LVU1
  60:lib/chibios/os/hal/src/hal.c **** 
  61:lib/chibios/os/hal/src/hal.c ****   /* Platform low level initializations.*/
  62:lib/chibios/os/hal/src/hal.c ****   hal_lld_init();
  34              		.loc 1 62 3 view .LVU2
  56:lib/chibios/os/hal/src/hal.c **** 
  35              		.loc 1 56 20 is_stmt 0 view .LVU3
  36 0000 08B5     		push	{r3, lr}
  37              		.cfi_def_cfa_offset 8
  38              		.cfi_offset 3, -8
  39              		.cfi_offset 14, -4
  40              		.loc 1 62 3 view .LVU4
  41 0002 FFF7FEFF 		bl	hal_lld_init
  42              	.LVL0:
  63:lib/chibios/os/hal/src/hal.c **** 
  64:lib/chibios/os/hal/src/hal.c **** #if (HAL_USE_PAL == TRUE) || defined(__DOXYGEN__)
  65:lib/chibios/os/hal/src/hal.c **** #if defined(PAL_NEW_INIT)
  66:lib/chibios/os/hal/src/hal.c ****   palInit();
  43              		.loc 1 66 3 is_stmt 1 view .LVU5
  44 0006 FFF7FEFF 		bl	_pal_lld_init
  45              	.LVL1:
  67:lib/chibios/os/hal/src/hal.c **** #else
  68:lib/chibios/os/hal/src/hal.c ****   palInit(&pal_default_config);
  69:lib/chibios/os/hal/src/hal.c **** #endif
  70:lib/chibios/os/hal/src/hal.c **** #endif
  71:lib/chibios/os/hal/src/hal.c **** #if (HAL_USE_ADC == TRUE) || defined(__DOXYGEN__)
  72:lib/chibios/os/hal/src/hal.c ****   adcInit();
  73:lib/chibios/os/hal/src/hal.c **** #endif
  74:lib/chibios/os/hal/src/hal.c **** #if (HAL_USE_CAN == TRUE) || defined(__DOXYGEN__)
  75:lib/chibios/os/hal/src/hal.c ****   canInit();
  76:lib/chibios/os/hal/src/hal.c **** #endif
  77:lib/chibios/os/hal/src/hal.c **** #if (HAL_USE_CRY == TRUE) || defined(__DOXYGEN__)
  78:lib/chibios/os/hal/src/hal.c ****   cryInit();
  79:lib/chibios/os/hal/src/hal.c **** #endif
  80:lib/chibios/os/hal/src/hal.c **** #if (HAL_USE_DAC == TRUE) || defined(__DOXYGEN__)
  81:lib/chibios/os/hal/src/hal.c ****   dacInit();
  46              		.loc 1 81 3 view .LVU6
  47 000a FFF7FEFF 		bl	dacInit
  48              	.LVL2:
  82:lib/chibios/os/hal/src/hal.c **** #endif
  83:lib/chibios/os/hal/src/hal.c **** #if (HAL_USE_EFL == TRUE) || defined(__DOXYGEN__)
  84:lib/chibios/os/hal/src/hal.c ****   eflInit();
  85:lib/chibios/os/hal/src/hal.c **** #endif
  86:lib/chibios/os/hal/src/hal.c **** #if (HAL_USE_GPT == TRUE) || defined(__DOXYGEN__)
  87:lib/chibios/os/hal/src/hal.c ****   gptInit();
  49              		.loc 1 87 3 view .LVU7
  50 000e FFF7FEFF 		bl	gptInit
  51              	.LVL3:
  88:lib/chibios/os/hal/src/hal.c **** #endif
  89:lib/chibios/os/hal/src/hal.c **** #if (HAL_USE_I2C == TRUE) || defined(__DOXYGEN__)
  90:lib/chibios/os/hal/src/hal.c ****   i2cInit();
  52              		.loc 1 90 3 view .LVU8
  53 0012 FFF7FEFF 		bl	i2cInit
  54              	.LVL4:
  91:lib/chibios/os/hal/src/hal.c **** #endif
  92:lib/chibios/os/hal/src/hal.c **** #if (HAL_USE_I2S == TRUE) || defined(__DOXYGEN__)
  93:lib/chibios/os/hal/src/hal.c ****   i2sInit();
  94:lib/chibios/os/hal/src/hal.c **** #endif
  95:lib/chibios/os/hal/src/hal.c **** #if (HAL_USE_ICU == TRUE) || defined(__DOXYGEN__)
  96:lib/chibios/os/hal/src/hal.c ****   icuInit();
  97:lib/chibios/os/hal/src/hal.c **** #endif
  98:lib/chibios/os/hal/src/hal.c **** #if (HAL_USE_MAC == TRUE) || defined(__DOXYGEN__)
  99:lib/chibios/os/hal/src/hal.c ****   macInit();
 100:lib/chibios/os/hal/src/hal.c **** #endif
 101:lib/chibios/os/hal/src/hal.c **** #if (HAL_USE_PWM == TRUE) || defined(__DOXYGEN__)
 102:lib/chibios/os/hal/src/hal.c ****   pwmInit();
  55              		.loc 1 102 3 view .LVU9
  56 0016 FFF7FEFF 		bl	pwmInit
  57              	.LVL5:
 103:lib/chibios/os/hal/src/hal.c **** #endif
 104:lib/chibios/os/hal/src/hal.c **** #if (HAL_USE_SERIAL == TRUE) || defined(__DOXYGEN__)
 105:lib/chibios/os/hal/src/hal.c ****   sdInit();
 106:lib/chibios/os/hal/src/hal.c **** #endif
 107:lib/chibios/os/hal/src/hal.c **** #if (HAL_USE_SDC == TRUE) || defined(__DOXYGEN__)
 108:lib/chibios/os/hal/src/hal.c ****   sdcInit();
 109:lib/chibios/os/hal/src/hal.c **** #endif
 110:lib/chibios/os/hal/src/hal.c **** #if (HAL_USE_SPI == TRUE) || defined(__DOXYGEN__)
 111:lib/chibios/os/hal/src/hal.c ****   spiInit();
 112:lib/chibios/os/hal/src/hal.c **** #endif
 113:lib/chibios/os/hal/src/hal.c **** #if (HAL_USE_TRNG == TRUE) || defined(__DOXYGEN__)
 114:lib/chibios/os/hal/src/hal.c ****   trngInit();
 115:lib/chibios/os/hal/src/hal.c **** #endif
 116:lib/chibios/os/hal/src/hal.c **** #if (HAL_USE_UART == TRUE) || defined(__DOXYGEN__)
 117:lib/chibios/os/hal/src/hal.c ****   uartInit();
 118:lib/chibios/os/hal/src/hal.c **** #endif
 119:lib/chibios/os/hal/src/hal.c **** #if (HAL_USE_USB == TRUE) || defined(__DOXYGEN__)
 120:lib/chibios/os/hal/src/hal.c ****   usbInit();
  58              		.loc 1 120 3 view .LVU10
  59 001a FFF7FEFF 		bl	usbInit
  60              	.LVL6:
 121:lib/chibios/os/hal/src/hal.c **** #endif
 122:lib/chibios/os/hal/src/hal.c **** #if (HAL_USE_MMC_SPI == TRUE) || defined(__DOXYGEN__)
 123:lib/chibios/os/hal/src/hal.c ****   mmcInit();
 124:lib/chibios/os/hal/src/hal.c **** #endif
 125:lib/chibios/os/hal/src/hal.c **** #if (HAL_USE_SERIAL_USB == TRUE) || defined(__DOXYGEN__)
 126:lib/chibios/os/hal/src/hal.c ****   sduInit();
 127:lib/chibios/os/hal/src/hal.c **** #endif
 128:lib/chibios/os/hal/src/hal.c **** #if (HAL_USE_RTC == TRUE) || defined(__DOXYGEN__)
 129:lib/chibios/os/hal/src/hal.c ****   rtcInit();
 130:lib/chibios/os/hal/src/hal.c **** #endif
 131:lib/chibios/os/hal/src/hal.c **** #if (HAL_USE_WDG == TRUE) || defined(__DOXYGEN__)
 132:lib/chibios/os/hal/src/hal.c ****   wdgInit();
 133:lib/chibios/os/hal/src/hal.c **** #endif
 134:lib/chibios/os/hal/src/hal.c **** #if (HAL_USE_WSPI == TRUE) || defined(__DOXYGEN__)
 135:lib/chibios/os/hal/src/hal.c ****   wspiInit();
 136:lib/chibios/os/hal/src/hal.c **** #endif
 137:lib/chibios/os/hal/src/hal.c **** 
 138:lib/chibios/os/hal/src/hal.c ****   /* Community driver overlay initialization.*/
 139:lib/chibios/os/hal/src/hal.c **** #if defined(HAL_USE_COMMUNITY) || defined(__DOXYGEN__)
 140:lib/chibios/os/hal/src/hal.c **** #if (HAL_USE_COMMUNITY == TRUE) || defined(__DOXYGEN__)
 141:lib/chibios/os/hal/src/hal.c ****   halCommunityInit();
 142:lib/chibios/os/hal/src/hal.c **** #endif
 143:lib/chibios/os/hal/src/hal.c **** #endif
 144:lib/chibios/os/hal/src/hal.c **** 
 145:lib/chibios/os/hal/src/hal.c ****   /* Board specific initialization.*/
 146:lib/chibios/os/hal/src/hal.c ****   boardInit();
  61              		.loc 1 146 3 view .LVU11
  62 001e FFF7FEFF 		bl	boardInit
  63              	.LVL7:
 147:lib/chibios/os/hal/src/hal.c **** 
 148:lib/chibios/os/hal/src/hal.c **** /*
 149:lib/chibios/os/hal/src/hal.c ****  *  The ST driver is a special case, it is only initialized if the OSAL is
 150:lib/chibios/os/hal/src/hal.c ****  *  configured to require it.
 151:lib/chibios/os/hal/src/hal.c ****  */
 152:lib/chibios/os/hal/src/hal.c **** #if OSAL_ST_MODE != OSAL_ST_MODE_NONE
 153:lib/chibios/os/hal/src/hal.c ****   stInit();
  64              		.loc 1 153 3 view .LVU12
 154:lib/chibios/os/hal/src/hal.c **** #endif
 155:lib/chibios/os/hal/src/hal.c **** }
  65              		.loc 1 155 1 is_stmt 0 view .LVU13
  66 0022 BDE80840 		pop	{r3, lr}
  67              		.cfi_restore 14
  68              		.cfi_restore 3
  69              		.cfi_def_cfa_offset 0
 153:lib/chibios/os/hal/src/hal.c **** #endif
  70              		.loc 1 153 3 view .LVU14
  71 0026 FFF7FEBF 		b	stInit
  72              	.LVL8:
  73              		.cfi_endproc
  74              	.LFE282:
  76              		.text
  77              	.Letext0:
  78              		.file 2 "./lib/chibios/os/hal/include/hal_st.h"
  79              		.file 3 "./lib/chibios/os/hal/boards/ST_STM32F3_DISCOVERY/board.h"
  80              		.file 4 "./lib/chibios/os/hal/include/hal_usb.h"
  81              		.file 5 "./lib/chibios/os/hal/include/hal_pwm.h"
  82              		.file 6 "./lib/chibios/os/hal/include/hal_i2c.h"
  83              		.file 7 "./lib/chibios/os/hal/include/hal_gpt.h"
  84              		.file 8 "./lib/chibios/os/hal/include/hal_dac.h"
  85              		.file 9 "./lib/chibios/os/hal/ports/STM32/LLD/GPIOv2/hal_pal_lld.h"
  86              		.file 10 "./lib/chibios/os/hal/ports/STM32/STM32F3xx/hal_lld.h"
  87              		.file 11 "./lib/chibios/os/hal/osal/rt-nil/osal.h"