   1              		.cpu cortex-m4
   2              		.arch armv7e-m
   3              		.fpu fpv4-sp-d16
   4              		.eabi_attribute 27, 1
   5              		.eabi_attribute 28, 1
   6              		.eabi_attribute 20, 1
   7              		.eabi_attribute 21, 1
   8              		.eabi_attribute 23, 3
   9              		.eabi_attribute 24, 1
  10              		.eabi_attribute 25, 1
  11              		.eabi_attribute 26, 1
  12              		.eabi_attribute 30, 4
  13              		.eabi_attribute 34, 1
  14              		.eabi_attribute 18, 2
  15              		.file	"hal_pal.c"
  16              		.text
  17              	.Ltext0:
  18              		.cfi_sections	.debug_frame
  19              		.file 1 "lib/chibios/os/hal/src/hal_pal.c"
  20              		.section	.text.palReadBus,"ax",%progbits
  21              		.align	1
  22              		.global	palReadBus
  23              		.syntax unified
  24              		.thumb
  25              		.thumb_func
  27              	palReadBus:
  28              	.LVL0:
  29              	.LFB282:
   1:lib/chibios/os/hal/src/hal_pal.c **** /*
   2:lib/chibios/os/hal/src/hal_pal.c ****     ChibiOS - Copyright (C) 2006..2018 Giovanni Di Sirio
   3:lib/chibios/os/hal/src/hal_pal.c **** 
   4:lib/chibios/os/hal/src/hal_pal.c ****     Licensed under the Apache License, Version 2.0 (the "License");
   5:lib/chibios/os/hal/src/hal_pal.c ****     you may not use this file except in compliance with the License.
   6:lib/chibios/os/hal/src/hal_pal.c ****     You may obtain a copy of the License at
   7:lib/chibios/os/hal/src/hal_pal.c **** 
   8:lib/chibios/os/hal/src/hal_pal.c ****         http://www.apache.org/licenses/LICENSE-2.0
   9:lib/chibios/os/hal/src/hal_pal.c **** 
  10:lib/chibios/os/hal/src/hal_pal.c ****     Unless required by applicable law or agreed to in writing, software
  11:lib/chibios/os/hal/src/hal_pal.c ****     distributed under the License is distributed on an "AS IS" BASIS,
  12:lib/chibios/os/hal/src/hal_pal.c ****     WITHOUT WARRANTIES OR CONDITIONS OF ANY KIND, either express or implied.
  13:lib/chibios/os/hal/src/hal_pal.c ****     See the License for the specific language governing permissions and
  14:lib/chibios/os/hal/src/hal_pal.c ****     limitations under the License.
  15:lib/chibios/os/hal/src/hal_pal.c **** */
  16:lib/chibios/os/hal/src/hal_pal.c **** 
  17:lib/chibios/os/hal/src/hal_pal.c **** /**
  18:lib/chibios/os/hal/src/hal_pal.c ****  * @file    hal_pal.c
  19:lib/chibios/os/hal/src/hal_pal.c ****  * @brief   I/O Ports Abstraction Layer code.
  20:lib/chibios/os/hal/src/hal_pal.c ****  *
  21:lib/chibios/os/hal/src/hal_pal.c ****  * @addtogroup PAL
  22:lib/chibios/os/hal/src/hal_pal.c ****  * @{
  23:lib/chibios/os/hal/src/hal_pal.c ****  */
  24:lib/chibios/os/hal/src/hal_pal.c **** 
  25:lib/chibios/os/hal/src/hal_pal.c **** #include "hal.h"
  26:lib/chibios/os/hal/src/hal_pal.c **** 
  27:lib/chibios/os/hal/src/hal_pal.c **** #if (HAL_USE_PAL == TRUE) || defined(__DOXYGEN__)
  28:lib/chibios/os/hal/src/hal_pal.c **** 
  29:lib/chibios/os/hal/src/hal_pal.c **** /*===========================================================================*/
  30:lib/chibios/os/hal/src/hal_pal.c **** /* Driver local definitions.                                                 */
  31:lib/chibios/os/hal/src/hal_pal.c **** /*===========================================================================*/
  32:lib/chibios/os/hal/src/hal_pal.c **** 
  33:lib/chibios/os/hal/src/hal_pal.c **** /*===========================================================================*/
  34:lib/chibios/os/hal/src/hal_pal.c **** /* Driver exported variables.                                                */
  35:lib/chibios/os/hal/src/hal_pal.c **** /*===========================================================================*/
  36:lib/chibios/os/hal/src/hal_pal.c **** 
  37:lib/chibios/os/hal/src/hal_pal.c **** /*===========================================================================*/
  38:lib/chibios/os/hal/src/hal_pal.c **** /* Driver local variables and types.                                         */
  39:lib/chibios/os/hal/src/hal_pal.c **** /*===========================================================================*/
  40:lib/chibios/os/hal/src/hal_pal.c **** 
  41:lib/chibios/os/hal/src/hal_pal.c **** /*===========================================================================*/
  42:lib/chibios/os/hal/src/hal_pal.c **** /* Driver local functions.                                                   */
  43:lib/chibios/os/hal/src/hal_pal.c **** /*===========================================================================*/
  44:lib/chibios/os/hal/src/hal_pal.c **** 
  45:lib/chibios/os/hal/src/hal_pal.c **** /*===========================================================================*/
  46:lib/chibios/os/hal/src/hal_pal.c **** /* Driver exported functions.                                                */
  47:lib/chibios/os/hal/src/hal_pal.c **** /*===========================================================================*/
  48:lib/chibios/os/hal/src/hal_pal.c **** 
  49:lib/chibios/os/hal/src/hal_pal.c **** /**
  50:lib/chibios/os/hal/src/hal_pal.c ****  * @brief   Read from an I/O bus.
  51:lib/chibios/os/hal/src/hal_pal.c ****  * @note    The operation is not guaranteed to be atomic on all the
  52:lib/chibios/os/hal/src/hal_pal.c ****  *          architectures, for atomicity and/or portability reasons you may
  53:lib/chibios/os/hal/src/hal_pal.c ****  *          need to enclose port I/O operations between @p osalSysLock() and
  54:lib/chibios/os/hal/src/hal_pal.c ****  *          @p osalSysUnlock().
  55:lib/chibios/os/hal/src/hal_pal.c ****  * @note    The function internally uses the @p palReadGroup() macro. The use
  56:lib/chibios/os/hal/src/hal_pal.c ****  *          of this function is preferred when you value code size, readability
  57:lib/chibios/os/hal/src/hal_pal.c ****  *          and error checking over speed.
  58:lib/chibios/os/hal/src/hal_pal.c ****  * @note    The function can be called from any context.
  59:lib/chibios/os/hal/src/hal_pal.c ****  *
  60:lib/chibios/os/hal/src/hal_pal.c ****  * @param[in] bus       the I/O bus, pointer to a @p IOBus structure
  61:lib/chibios/os/hal/src/hal_pal.c ****  * @return              The bus logical states.
  62:lib/chibios/os/hal/src/hal_pal.c ****  *
  63:lib/chibios/os/hal/src/hal_pal.c ****  * @special
  64:lib/chibios/os/hal/src/hal_pal.c ****  */
  65:lib/chibios/os/hal/src/hal_pal.c **** ioportmask_t palReadBus(const IOBus *bus) {
  30              		.loc 1 65 43 view -0
  31              		.cfi_startproc
  32              		@ args = 0, pretend = 0, frame = 0
  33              		@ frame_needed = 0, uses_anonymous_args = 0
  34              		@ link register save eliminated.
  66:lib/chibios/os/hal/src/hal_pal.c **** 
  67:lib/chibios/os/hal/src/hal_pal.c ****   osalDbgCheck((bus != NULL) && (bus->offset < PAL_IOPORTS_WIDTH));
  35              		.loc 1 67 3 view .LVU1
  36              		.loc 1 67 3 view .LVU2
  37              		.loc 1 67 3 view .LVU3
  68:lib/chibios/os/hal/src/hal_pal.c **** 
  69:lib/chibios/os/hal/src/hal_pal.c ****   return palReadGroup(bus->portid, bus->mask, bus->offset);
  38              		.loc 1 69 3 view .LVU4
  39              		.loc 1 69 10 is_stmt 0 view .LVU5
  40 0000 0368     		ldr	r3, [r0]
  41 0002 8268     		ldr	r2, [r0, #8]
  42 0004 1B69     		ldr	r3, [r3, #16]
  43 0006 4068     		ldr	r0, [r0, #4]
  44              	.LVL1:
  45              		.loc 1 69 10 view .LVU6
  46 0008 D340     		lsrs	r3, r3, r2
  70:lib/chibios/os/hal/src/hal_pal.c **** }
  47              		.loc 1 70 1 view .LVU7
  48 000a 1840     		ands	r0, r0, r3
  49 000c 7047     		bx	lr
  50              		.cfi_endproc
  51              	.LFE282:
  53              		.section	.text.palWriteBus,"ax",%progbits
  54              		.align	1
  55              		.global	palWriteBus
  56              		.syntax unified
  57              		.thumb
  58              		.thumb_func
  60              	palWriteBus:
  61              	.LVL2:
  62              	.LFB283:
  71:lib/chibios/os/hal/src/hal_pal.c **** 
  72:lib/chibios/os/hal/src/hal_pal.c **** /**
  73:lib/chibios/os/hal/src/hal_pal.c ****  * @brief   Write to an I/O bus.
  74:lib/chibios/os/hal/src/hal_pal.c ****  * @note    The operation is not guaranteed to be atomic on all the
  75:lib/chibios/os/hal/src/hal_pal.c ****  *          architectures, for atomicity and/or portability reasons you may
  76:lib/chibios/os/hal/src/hal_pal.c ****  *          need to enclose port I/O operations between @p osalSysLock() and
  77:lib/chibios/os/hal/src/hal_pal.c ****  *          @p osalSysUnlock().
  78:lib/chibios/os/hal/src/hal_pal.c ****  * @note    The default implementation is non atomic and not necessarily
  79:lib/chibios/os/hal/src/hal_pal.c ****  *          optimal. Low level drivers may  optimize the function by using
  80:lib/chibios/os/hal/src/hal_pal.c ****  *          specific hardware or coding.
  81:lib/chibios/os/hal/src/hal_pal.c ****  * @note    The function can be called from any context.
  82:lib/chibios/os/hal/src/hal_pal.c ****  *
  83:lib/chibios/os/hal/src/hal_pal.c ****  * @param[in] bus       the I/O bus, pointer to a @p IOBus structure
  84:lib/chibios/os/hal/src/hal_pal.c ****  * @param[in] bits      the bits to be written on the I/O bus. Values exceeding
  85:lib/chibios/os/hal/src/hal_pal.c ****  *                      the bus width are masked so most significant bits are
  86:lib/chibios/os/hal/src/hal_pal.c ****  *                      lost.
  87:lib/chibios/os/hal/src/hal_pal.c ****  *
  88:lib/chibios/os/hal/src/hal_pal.c ****  * @special
  89:lib/chibios/os/hal/src/hal_pal.c ****  */
  90:lib/chibios/os/hal/src/hal_pal.c **** void palWriteBus(const IOBus *bus, ioportmask_t bits) {
  63              		.loc 1 90 55 is_stmt 1 view -0
  64              		.cfi_startproc
  65              		@ args = 0, pretend = 0, frame = 0
  66              		@ frame_needed = 0, uses_anonymous_args = 0
  91:lib/chibios/os/hal/src/hal_pal.c **** 
  92:lib/chibios/os/hal/src/hal_pal.c ****   osalDbgCheck((bus != NULL) && (bus->offset < PAL_IOPORTS_WIDTH));
  67              		.loc 1 92 3 view .LVU9
  68              		.loc 1 92 3 view .LVU10
  69              		.loc 1 92 3 view .LVU11
  70              	.LBB2:
  93:lib/chibios/os/hal/src/hal_pal.c **** 
  94:lib/chibios/os/hal/src/hal_pal.c ****   palWriteGroup(bus->portid, bus->mask, bus->offset, bits);
  71              		.loc 1 94 3 view .LVU12
  72              	.LBE2:
  90:lib/chibios/os/hal/src/hal_pal.c **** 
  73              		.loc 1 90 55 is_stmt 0 view .LVU13
  74 0000 30B5     		push	{r4, r5, lr}
  75              		.cfi_def_cfa_offset 12
  76              		.cfi_offset 4, -12
  77              		.cfi_offset 5, -8
  78              		.cfi_offset 14, -4
  79              	.LBB3:
  80              		.loc 1 94 3 view .LVU14
  81 0002 D0E90142 		ldrd	r4, r2, [r0, #4]
  82 0006 24EA0103 		bic	r3, r4, r1
  83 000a 02F11005 		add	r5, r2, #16
  84 000e 2140     		ands	r1, r1, r4
  85              	.LVL3:
  86              		.loc 1 94 3 view .LVU15
  87 0010 9140     		lsls	r1, r1, r2
  88 0012 AB40     		lsls	r3, r3, r5
  89 0014 0268     		ldr	r2, [r0]
  90 0016 0B43     		orrs	r3, r3, r1
  91              	.LVL4:
  92              		.loc 1 94 3 is_stmt 1 view .LVU16
  93 0018 9361     		str	r3, [r2, #24]
  94              	.LBE3:
  95              		.loc 1 94 59 view .LVU17
  95:lib/chibios/os/hal/src/hal_pal.c **** }
  96              		.loc 1 95 1 is_stmt 0 view .LVU18
  97 001a 30BD     		pop	{r4, r5, pc}
  98              		.cfi_endproc
  99              	.LFE283:
 101              		.section	.text.palSetBusMode,"ax",%progbits
 102              		.align	1
 103              		.global	palSetBusMode
 104              		.syntax unified
 105              		.thumb
 106              		.thumb_func
 108              	palSetBusMode:
 109              	.LVL5:
 110              	.LFB284:
  96:lib/chibios/os/hal/src/hal_pal.c **** 
  97:lib/chibios/os/hal/src/hal_pal.c **** /**
  98:lib/chibios/os/hal/src/hal_pal.c ****  * @brief   Programs a bus with the specified mode.
  99:lib/chibios/os/hal/src/hal_pal.c ****  * @note    The operation is not guaranteed to be atomic on all the
 100:lib/chibios/os/hal/src/hal_pal.c ****  *          architectures, for atomicity and/or portability reasons you may
 101:lib/chibios/os/hal/src/hal_pal.c ****  *          need to enclose port I/O operations between @p osalSysLock() and
 102:lib/chibios/os/hal/src/hal_pal.c ****  *          @p osalSysUnlock().
 103:lib/chibios/os/hal/src/hal_pal.c ****  * @note    The default implementation is non atomic and not necessarily
 104:lib/chibios/os/hal/src/hal_pal.c ****  *          optimal. Low level drivers may  optimize the function by using
 105:lib/chibios/os/hal/src/hal_pal.c ****  *          specific hardware or coding.
 106:lib/chibios/os/hal/src/hal_pal.c ****  * @note    The function can be called from any context.
 107:lib/chibios/os/hal/src/hal_pal.c ****  *
 108:lib/chibios/os/hal/src/hal_pal.c ****  * @param[in] bus       the I/O bus, pointer to a @p IOBus structure
 109:lib/chibios/os/hal/src/hal_pal.c ****  * @param[in] mode      the mode
 110:lib/chibios/os/hal/src/hal_pal.c ****  *
 111:lib/chibios/os/hal/src/hal_pal.c ****  * @special
 112:lib/chibios/os/hal/src/hal_pal.c ****  */
 113:lib/chibios/os/hal/src/hal_pal.c **** void palSetBusMode(const IOBus *bus, iomode_t mode) {
 111              		.loc 1 113 53 is_stmt 1 view -0
 112              		.cfi_startproc
 113              		@ args = 0, pretend = 0, frame = 0
 114              		@ frame_needed = 0, uses_anonymous_args = 0
 115              		@ link register save eliminated.
 114:lib/chibios/os/hal/src/hal_pal.c **** 
 115:lib/chibios/os/hal/src/hal_pal.c ****   osalDbgCheck((bus != NULL) && (bus->offset < PAL_IOPORTS_WIDTH));
 116              		.loc 1 115 3 view .LVU20
 117              		.loc 1 115 3 view .LVU21
 118              		.loc 1 115 3 view .LVU22
 116:lib/chibios/os/hal/src/hal_pal.c **** 
 117:lib/chibios/os/hal/src/hal_pal.c ****   palSetGroupMode(bus->portid, bus->mask, bus->offset, mode);
 119              		.loc 1 117 3 view .LVU23
 113:lib/chibios/os/hal/src/hal_pal.c **** 
 120              		.loc 1 113 53 is_stmt 0 view .LVU24
 121 0000 10B4     		push	{r4}
 122              		.cfi_def_cfa_offset 4
 123              		.cfi_offset 4, -4
 113:lib/chibios/os/hal/src/hal_pal.c **** 
 124              		.loc 1 113 53 view .LVU25
 125 0002 0A46     		mov	r2, r1
 126              		.loc 1 117 3 view .LVU26
 127 0004 D0E90141 		ldrd	r4, r1, [r0, #4]
 128              	.LVL6:
 129              		.loc 1 117 3 view .LVU27
 130 0008 0068     		ldr	r0, [r0]
 131              	.LVL7:
 132              		.loc 1 117 3 view .LVU28
 133 000a 04FA01F1 		lsl	r1, r4, r1
 118:lib/chibios/os/hal/src/hal_pal.c **** }
 134              		.loc 1 118 1 view .LVU29
 135 000e 5DF8044B 		ldr	r4, [sp], #4
 136              		.cfi_restore 4
 137              		.cfi_def_cfa_offset 0
 117:lib/chibios/os/hal/src/hal_pal.c **** }
 138              		.loc 1 117 3 view .LVU30
 139 0012 FFF7FEBF 		b	_pal_lld_setgroupmode
 140              	.LVL8:
 117:lib/chibios/os/hal/src/hal_pal.c **** }
 141              		.loc 1 117 3 view .LVU31
 142              		.cfi_endproc
 143              	.LFE284:
 145              		.text
 146              	.Letext0:
 147              		.file 2 "/usr/arm-none-eabi/include/machine/_default_types.h"
 148              		.file 3 "/usr/arm-none-eabi/include/sys/_stdint.h"
 149              		.file 4 "/usr/arm-none-eabi/include/stdint.h"
 150              		.file 5 "./lib/chibios/os/hal/ports/STM32/LLD/GPIOv2/stm32_gpio.h"
 151              		.file 6 "./lib/chibios/os/hal/ports/STM32/LLD/GPIOv2/hal_pal_lld.h"
 152              		.file 7 "./lib/chibios/os/hal/include/hal_pal.h"