   1              		.cpu cortex-m4
   2              		.arch armv7e-m
   3              		.fpu fpv4-sp-d16
   4              		.eabi_attribute 27, 1
   5              		.eabi_attribute 28, 1
   6              		.eabi_attribute 20, 1
   7              		.eabi_attribute 21, 1
   8              		.eabi_attribute 23, 3
   9              		.eabi_attribute 24, 1
  10              		.eabi_attribute 25, 1
  11              		.eabi_attribute 26, 1
  12              		.eabi_attribute 30, 4
  13              		.eabi_attribute 34, 1
  14              		.eabi_attribute 18, 2
  15              		.file	"chpipes.c"
  16              		.text
  17              	.Ltext0:
  18              		.cfi_sections	.debug_frame
  19              		.file 1 "lib/chibios/os/oslib/src/chpipes.c"
  20              		.section	.text.chPipeObjectInit,"ax",%progbits
  21              		.align	1
  22              		.global	chPipeObjectInit
  23              		.syntax unified
  24              		.thumb
  25              		.thumb_func
  27              	chPipeObjectInit:
  28              	.LVL0:
  29              	.LFB291:
   1:lib/chibios/os/oslib/src/chpipes.c **** /*
   2:lib/chibios/os/oslib/src/chpipes.c ****     ChibiOS - Copyright (C) 2006..2018 Giovanni Di Sirio.
   3:lib/chibios/os/oslib/src/chpipes.c **** 
   4:lib/chibios/os/oslib/src/chpipes.c ****     This file is part of ChibiOS.
   5:lib/chibios/os/oslib/src/chpipes.c **** 
   6:lib/chibios/os/oslib/src/chpipes.c ****     ChibiOS is free software; you can redistribute it and/or modify
   7:lib/chibios/os/oslib/src/chpipes.c ****     it under the terms of the GNU General Public License as published by
   8:lib/chibios/os/oslib/src/chpipes.c ****     the Free Software Foundation; either version 3 of the License, or
   9:lib/chibios/os/oslib/src/chpipes.c ****     (at your option) any later version.
  10:lib/chibios/os/oslib/src/chpipes.c **** 
  11:lib/chibios/os/oslib/src/chpipes.c ****     ChibiOS is distributed in the hope that it will be useful,
  12:lib/chibios/os/oslib/src/chpipes.c ****     but WITHOUT ANY WARRANTY; without even the implied warranty of
  13:lib/chibios/os/oslib/src/chpipes.c ****     MERCHANTABILITY or FITNESS FOR A PARTICULAR PURPOSE.  See the
  14:lib/chibios/os/oslib/src/chpipes.c ****     GNU General Public License for more details.
  15:lib/chibios/os/oslib/src/chpipes.c **** 
  16:lib/chibios/os/oslib/src/chpipes.c ****     You should have received a copy of the GNU General Public License
  17:lib/chibios/os/oslib/src/chpipes.c ****     along with this program.  If not, see <http://www.gnu.org/licenses/>.
  18:lib/chibios/os/oslib/src/chpipes.c **** */
  19:lib/chibios/os/oslib/src/chpipes.c **** 
  20:lib/chibios/os/oslib/src/chpipes.c **** /**
  21:lib/chibios/os/oslib/src/chpipes.c ****  * @file    oslib/src/chpipes.c
  22:lib/chibios/os/oslib/src/chpipes.c ****  * @brief   Pipes code.
  23:lib/chibios/os/oslib/src/chpipes.c ****  * @details Byte pipes.
  24:lib/chibios/os/oslib/src/chpipes.c ****  *          <h2>Operation mode</h2>
  25:lib/chibios/os/oslib/src/chpipes.c ****  *          A pipe is an asynchronous communication mechanism.<br>
  26:lib/chibios/os/oslib/src/chpipes.c ****  *          Operations defined for mailboxes:
  27:lib/chibios/os/oslib/src/chpipes.c ****  *          - <b>Write</b>: Writes a buffer of data in the pipe in FIFO order.
  28:lib/chibios/os/oslib/src/chpipes.c ****  *          - <b>Read</b>: A buffer of data is read from the read and removed.
  29:lib/chibios/os/oslib/src/chpipes.c ****  *          - <b>Reset</b>: The pipe is emptied and all the stored data
  30:lib/chibios/os/oslib/src/chpipes.c ****  *            is lost.
  31:lib/chibios/os/oslib/src/chpipes.c ****  *          .
  32:lib/chibios/os/oslib/src/chpipes.c ****  * @pre     In order to use the pipes APIs the @p CH_CFG_USE_PIPES
  33:lib/chibios/os/oslib/src/chpipes.c ****  *          option must be enabled in @p chconf.h.
  34:lib/chibios/os/oslib/src/chpipes.c ****  * @note    Compatible with RT and NIL.
  35:lib/chibios/os/oslib/src/chpipes.c ****  *
  36:lib/chibios/os/oslib/src/chpipes.c ****  * @addtogroup oslib_pipes
  37:lib/chibios/os/oslib/src/chpipes.c ****  * @{
  38:lib/chibios/os/oslib/src/chpipes.c ****  */
  39:lib/chibios/os/oslib/src/chpipes.c **** 
  40:lib/chibios/os/oslib/src/chpipes.c **** #include <string.h>
  41:lib/chibios/os/oslib/src/chpipes.c **** 
  42:lib/chibios/os/oslib/src/chpipes.c **** #include "ch.h"
  43:lib/chibios/os/oslib/src/chpipes.c **** 
  44:lib/chibios/os/oslib/src/chpipes.c **** #if (CH_CFG_USE_PIPES == TRUE) || defined(__DOXYGEN__)
  45:lib/chibios/os/oslib/src/chpipes.c **** 
  46:lib/chibios/os/oslib/src/chpipes.c **** /*===========================================================================*/
  47:lib/chibios/os/oslib/src/chpipes.c **** /* Module local definitions.                                                 */
  48:lib/chibios/os/oslib/src/chpipes.c **** /*===========================================================================*/
  49:lib/chibios/os/oslib/src/chpipes.c **** 
  50:lib/chibios/os/oslib/src/chpipes.c **** /*
  51:lib/chibios/os/oslib/src/chpipes.c ****  * Defaults on the best synchronization mechanism available.
  52:lib/chibios/os/oslib/src/chpipes.c ****  */
  53:lib/chibios/os/oslib/src/chpipes.c **** #if (CH_CFG_USE_MUTEXES == TRUE) || defined(__DOXYGEN__)
  54:lib/chibios/os/oslib/src/chpipes.c **** #define PC_INIT(p)       chMtxObjectInit(&(p)->cmtx)
  55:lib/chibios/os/oslib/src/chpipes.c **** #define PC_LOCK(p)       chMtxLock(&(p)->cmtx)
  56:lib/chibios/os/oslib/src/chpipes.c **** #define PC_UNLOCK(p)     chMtxUnlock(&(p)->cmtx)
  57:lib/chibios/os/oslib/src/chpipes.c **** #define PW_INIT(p)       chMtxObjectInit(&(p)->wmtx)
  58:lib/chibios/os/oslib/src/chpipes.c **** #define PW_LOCK(p)       chMtxLock(&(p)->wmtx)
  59:lib/chibios/os/oslib/src/chpipes.c **** #define PW_UNLOCK(p)     chMtxUnlock(&(p)->wmtx)
  60:lib/chibios/os/oslib/src/chpipes.c **** #define PR_INIT(p)       chMtxObjectInit(&(p)->rmtx)
  61:lib/chibios/os/oslib/src/chpipes.c **** #define PR_LOCK(p)       chMtxLock(&(p)->rmtx)
  62:lib/chibios/os/oslib/src/chpipes.c **** #define PR_UNLOCK(p)     chMtxUnlock(&(p)->rmtx)
  63:lib/chibios/os/oslib/src/chpipes.c **** #else
  64:lib/chibios/os/oslib/src/chpipes.c **** #define PC_INIT(p)       chSemObjectInit(&(p)->csem, (cnt_t)1)
  65:lib/chibios/os/oslib/src/chpipes.c **** #define PC_LOCK(p)       (void) chSemWait(&(p)->csem)
  66:lib/chibios/os/oslib/src/chpipes.c **** #define PC_UNLOCK(p)     chSemSignal(&(p)->csem)
  67:lib/chibios/os/oslib/src/chpipes.c **** #define PW_INIT(p)       chSemObjectInit(&(p)->wsem, (cnt_t)1)
  68:lib/chibios/os/oslib/src/chpipes.c **** #define PW_LOCK(p)       (void) chSemWait(&(p)->wsem)
  69:lib/chibios/os/oslib/src/chpipes.c **** #define PW_UNLOCK(p)     chSemSignal(&(p)->wsem)
  70:lib/chibios/os/oslib/src/chpipes.c **** #define PR_INIT(p)       chSemObjectInit(&(p)->rsem, (cnt_t)1)
  71:lib/chibios/os/oslib/src/chpipes.c **** #define PR_LOCK(p)       (void) chSemWait(&(p)->rsem)
  72:lib/chibios/os/oslib/src/chpipes.c **** #define PR_UNLOCK(p)     chSemSignal(&(p)->rsem)
  73:lib/chibios/os/oslib/src/chpipes.c **** #endif
  74:lib/chibios/os/oslib/src/chpipes.c **** 
  75:lib/chibios/os/oslib/src/chpipes.c **** /*===========================================================================*/
  76:lib/chibios/os/oslib/src/chpipes.c **** /* Module exported variables.                                                */
  77:lib/chibios/os/oslib/src/chpipes.c **** /*===========================================================================*/
  78:lib/chibios/os/oslib/src/chpipes.c **** 
  79:lib/chibios/os/oslib/src/chpipes.c **** /*===========================================================================*/
  80:lib/chibios/os/oslib/src/chpipes.c **** /* Module local types.                                                       */
  81:lib/chibios/os/oslib/src/chpipes.c **** /*===========================================================================*/
  82:lib/chibios/os/oslib/src/chpipes.c **** 
  83:lib/chibios/os/oslib/src/chpipes.c **** /*===========================================================================*/
  84:lib/chibios/os/oslib/src/chpipes.c **** /* Module local variables.                                                   */
  85:lib/chibios/os/oslib/src/chpipes.c **** /*===========================================================================*/
  86:lib/chibios/os/oslib/src/chpipes.c **** 
  87:lib/chibios/os/oslib/src/chpipes.c **** /*===========================================================================*/
  88:lib/chibios/os/oslib/src/chpipes.c **** /* Module local functions.                                                   */
  89:lib/chibios/os/oslib/src/chpipes.c **** /*===========================================================================*/
  90:lib/chibios/os/oslib/src/chpipes.c **** 
  91:lib/chibios/os/oslib/src/chpipes.c **** /**
  92:lib/chibios/os/oslib/src/chpipes.c ****  * @brief   Non-blocking pipe write.
  93:lib/chibios/os/oslib/src/chpipes.c ****  * @details The function writes data from a buffer to a pipe. The
  94:lib/chibios/os/oslib/src/chpipes.c ****  *          operation completes when the specified amount of data has been
  95:lib/chibios/os/oslib/src/chpipes.c ****  *          transferred or when the pipe buffer has been filled.
  96:lib/chibios/os/oslib/src/chpipes.c ****  *
  97:lib/chibios/os/oslib/src/chpipes.c ****  * @param[in] pp        the pointer to an initialized @p pipe_t object
  98:lib/chibios/os/oslib/src/chpipes.c ****  * @param[in] bp        pointer to the data buffer
  99:lib/chibios/os/oslib/src/chpipes.c ****  * @param[in] n         the maximum amount of data to be transferred, the
 100:lib/chibios/os/oslib/src/chpipes.c ****  *                      value 0 is reserved
 101:lib/chibios/os/oslib/src/chpipes.c ****  * @return              The number of bytes effectively transferred.
 102:lib/chibios/os/oslib/src/chpipes.c ****  *
 103:lib/chibios/os/oslib/src/chpipes.c ****  * @notapi
 104:lib/chibios/os/oslib/src/chpipes.c ****  */
 105:lib/chibios/os/oslib/src/chpipes.c **** static size_t pipe_write(pipe_t *pp, const uint8_t *bp, size_t n) {
 106:lib/chibios/os/oslib/src/chpipes.c ****   size_t s1, s2;
 107:lib/chibios/os/oslib/src/chpipes.c **** 
 108:lib/chibios/os/oslib/src/chpipes.c ****   PC_LOCK(pp);
 109:lib/chibios/os/oslib/src/chpipes.c **** 
 110:lib/chibios/os/oslib/src/chpipes.c ****   /* Number of bytes that can be written in a single atomic operation.*/
 111:lib/chibios/os/oslib/src/chpipes.c ****   if (n > chPipeGetFreeCount(pp)) {
 112:lib/chibios/os/oslib/src/chpipes.c ****     n = chPipeGetFreeCount(pp);
 113:lib/chibios/os/oslib/src/chpipes.c ****   }
 114:lib/chibios/os/oslib/src/chpipes.c ****   pp->cnt += n;
 115:lib/chibios/os/oslib/src/chpipes.c **** 
 116:lib/chibios/os/oslib/src/chpipes.c ****   /* Number of bytes before buffer limit.*/
 117:lib/chibios/os/oslib/src/chpipes.c ****   /*lint -save -e9033 [10.8] Checked to be safe.*/
 118:lib/chibios/os/oslib/src/chpipes.c ****   s1 = (size_t)(pp->top - pp->wrptr);
 119:lib/chibios/os/oslib/src/chpipes.c ****   /*lint -restore*/
 120:lib/chibios/os/oslib/src/chpipes.c **** 
 121:lib/chibios/os/oslib/src/chpipes.c ****   if (n < s1) {
 122:lib/chibios/os/oslib/src/chpipes.c ****     memcpy((void *)pp->wrptr, (const void *)bp, n);
 123:lib/chibios/os/oslib/src/chpipes.c ****     pp->wrptr += n;
 124:lib/chibios/os/oslib/src/chpipes.c ****   }
 125:lib/chibios/os/oslib/src/chpipes.c ****   else if (n > s1) {
 126:lib/chibios/os/oslib/src/chpipes.c ****     memcpy((void *)pp->wrptr, (const void *)bp, s1);
 127:lib/chibios/os/oslib/src/chpipes.c ****     bp += s1;
 128:lib/chibios/os/oslib/src/chpipes.c ****     s2 = n - s1;
 129:lib/chibios/os/oslib/src/chpipes.c ****     memcpy((void *)pp->buffer, (const void *)bp, s2);
 130:lib/chibios/os/oslib/src/chpipes.c ****     pp->wrptr = pp->buffer + s2;
 131:lib/chibios/os/oslib/src/chpipes.c ****   }
 132:lib/chibios/os/oslib/src/chpipes.c ****   else {
 133:lib/chibios/os/oslib/src/chpipes.c ****     memcpy((void *)pp->wrptr, (const void *)bp, n);
 134:lib/chibios/os/oslib/src/chpipes.c ****     pp->wrptr = pp->buffer;
 135:lib/chibios/os/oslib/src/chpipes.c ****   }
 136:lib/chibios/os/oslib/src/chpipes.c **** 
 137:lib/chibios/os/oslib/src/chpipes.c ****   PC_UNLOCK(pp);
 138:lib/chibios/os/oslib/src/chpipes.c **** 
 139:lib/chibios/os/oslib/src/chpipes.c ****   return n;
 140:lib/chibios/os/oslib/src/chpipes.c **** }
 141:lib/chibios/os/oslib/src/chpipes.c **** 
 142:lib/chibios/os/oslib/src/chpipes.c **** /**
 143:lib/chibios/os/oslib/src/chpipes.c ****  * @brief   Non-blocking pipe read.
 144:lib/chibios/os/oslib/src/chpipes.c ****  * @details The function reads data from a pipe into a buffer. The
 145:lib/chibios/os/oslib/src/chpipes.c ****  *          operation completes when the specified amount of data has been
 146:lib/chibios/os/oslib/src/chpipes.c ****  *          transferred or when the pipe buffer has been emptied.
 147:lib/chibios/os/oslib/src/chpipes.c ****  *
 148:lib/chibios/os/oslib/src/chpipes.c ****  * @param[in] pp        the pointer to an initialized @p pipe_t object
 149:lib/chibios/os/oslib/src/chpipes.c ****  * @param[out] bp       pointer to the data buffer
 150:lib/chibios/os/oslib/src/chpipes.c ****  * @param[in] n         the maximum amount of data to be transferred, the
 151:lib/chibios/os/oslib/src/chpipes.c ****  *                      value 0 is reserved
 152:lib/chibios/os/oslib/src/chpipes.c ****  * @return              The number of bytes effectively transferred.
 153:lib/chibios/os/oslib/src/chpipes.c ****  *
 154:lib/chibios/os/oslib/src/chpipes.c ****  * @notapi
 155:lib/chibios/os/oslib/src/chpipes.c ****  */
 156:lib/chibios/os/oslib/src/chpipes.c **** static size_t pipe_read(pipe_t *pp, uint8_t *bp, size_t n) {
 157:lib/chibios/os/oslib/src/chpipes.c ****   size_t s1, s2;
 158:lib/chibios/os/oslib/src/chpipes.c **** 
 159:lib/chibios/os/oslib/src/chpipes.c ****   PC_LOCK(pp);
 160:lib/chibios/os/oslib/src/chpipes.c **** 
 161:lib/chibios/os/oslib/src/chpipes.c ****   /* Number of bytes that can be read in a single atomic operation.*/
 162:lib/chibios/os/oslib/src/chpipes.c ****   if (n > chPipeGetUsedCount(pp)) {
 163:lib/chibios/os/oslib/src/chpipes.c ****     n = chPipeGetUsedCount(pp);
 164:lib/chibios/os/oslib/src/chpipes.c ****   }
 165:lib/chibios/os/oslib/src/chpipes.c ****   pp->cnt -= n;
 166:lib/chibios/os/oslib/src/chpipes.c **** 
 167:lib/chibios/os/oslib/src/chpipes.c ****   /* Number of bytes before buffer limit.*/
 168:lib/chibios/os/oslib/src/chpipes.c ****   /*lint -save -e9033 [10.8] Checked to be safe.*/
 169:lib/chibios/os/oslib/src/chpipes.c ****   s1 = (size_t)(pp->top - pp->rdptr);
 170:lib/chibios/os/oslib/src/chpipes.c ****   /*lint -restore*/
 171:lib/chibios/os/oslib/src/chpipes.c **** 
 172:lib/chibios/os/oslib/src/chpipes.c ****   if (n < s1) {
 173:lib/chibios/os/oslib/src/chpipes.c ****     memcpy((void *)bp, (void *)pp->rdptr, n);
 174:lib/chibios/os/oslib/src/chpipes.c ****     pp->rdptr += n;
 175:lib/chibios/os/oslib/src/chpipes.c ****   }
 176:lib/chibios/os/oslib/src/chpipes.c ****   else if (n > s1) {
 177:lib/chibios/os/oslib/src/chpipes.c ****     memcpy((void *)bp, (void *)pp->rdptr, s1);
 178:lib/chibios/os/oslib/src/chpipes.c ****     bp += s1;
 179:lib/chibios/os/oslib/src/chpipes.c ****     s2 = n - s1;
 180:lib/chibios/os/oslib/src/chpipes.c ****     memcpy((void *)bp, (void *)pp->buffer, s2);
 181:lib/chibios/os/oslib/src/chpipes.c ****     pp->rdptr = pp->buffer + s2;
 182:lib/chibios/os/oslib/src/chpipes.c ****   }
 183:lib/chibios/os/oslib/src/chpipes.c ****   else {
 184:lib/chibios/os/oslib/src/chpipes.c ****     memcpy((void *)bp, (void *)pp->rdptr, n);
 185:lib/chibios/os/oslib/src/chpipes.c ****     pp->rdptr = pp->buffer;
 186:lib/chibios/os/oslib/src/chpipes.c ****   }
 187:lib/chibios/os/oslib/src/chpipes.c **** 
 188:lib/chibios/os/oslib/src/chpipes.c ****   PC_UNLOCK(pp);
 189:lib/chibios/os/oslib/src/chpipes.c **** 
 190:lib/chibios/os/oslib/src/chpipes.c ****   return n;
 191:lib/chibios/os/oslib/src/chpipes.c **** }
 192:lib/chibios/os/oslib/src/chpipes.c **** 
 193:lib/chibios/os/oslib/src/chpipes.c **** /*===========================================================================*/
 194:lib/chibios/os/oslib/src/chpipes.c **** /* Module exported functions.                                                */
 195:lib/chibios/os/oslib/src/chpipes.c **** /*===========================================================================*/
 196:lib/chibios/os/oslib/src/chpipes.c **** 
 197:lib/chibios/os/oslib/src/chpipes.c **** /**
 198:lib/chibios/os/oslib/src/chpipes.c ****  * @brief   Initializes a @p mailbox_t object.
 199:lib/chibios/os/oslib/src/chpipes.c ****  *
 200:lib/chibios/os/oslib/src/chpipes.c ****  * @param[out] pp       the pointer to the @p pipe_t structure to be
 201:lib/chibios/os/oslib/src/chpipes.c ****  *                      initialized
 202:lib/chibios/os/oslib/src/chpipes.c ****  * @param[in] buf       pointer to the pipe buffer as an array of @p uint8_t
 203:lib/chibios/os/oslib/src/chpipes.c ****  * @param[in] n         number of elements in the buffer array
 204:lib/chibios/os/oslib/src/chpipes.c ****  *
 205:lib/chibios/os/oslib/src/chpipes.c ****  * @init
 206:lib/chibios/os/oslib/src/chpipes.c ****  */
 207:lib/chibios/os/oslib/src/chpipes.c **** void chPipeObjectInit(pipe_t *pp, uint8_t *buf, size_t n) {
  30              		.loc 1 207 59 view -0
  31              		.cfi_startproc
  32              		@ args = 0, pretend = 0, frame = 0
  33              		@ frame_needed = 0, uses_anonymous_args = 0
 208:lib/chibios/os/oslib/src/chpipes.c **** 
 209:lib/chibios/os/oslib/src/chpipes.c ****   chDbgCheck((pp != NULL) && (buf != NULL) && (n > (size_t)0));
  34              		.loc 1 209 3 view .LVU1
  35              		.loc 1 209 3 view .LVU2
  36              		.loc 1 209 3 view .LVU3
 210:lib/chibios/os/oslib/src/chpipes.c **** 
 211:lib/chibios/os/oslib/src/chpipes.c ****   pp->buffer = buf;
  37              		.loc 1 211 3 view .LVU4
 207:lib/chibios/os/oslib/src/chpipes.c **** 
  38              		.loc 1 207 59 is_stmt 0 view .LVU5
  39 0000 10B5     		push	{r4, lr}
  40              		.cfi_def_cfa_offset 8
  41              		.cfi_offset 4, -8
  42              		.cfi_offset 14, -4
 212:lib/chibios/os/oslib/src/chpipes.c ****   pp->rdptr  = buf;
 213:lib/chibios/os/oslib/src/chpipes.c ****   pp->wrptr  = buf;
 214:lib/chibios/os/oslib/src/chpipes.c ****   pp->top    = &buf[n];
 215:lib/chibios/os/oslib/src/chpipes.c ****   pp->cnt    = (size_t)0;
  43              		.loc 1 215 14 view .LVU6
  44 0002 0023     		movs	r3, #0
 211:lib/chibios/os/oslib/src/chpipes.c ****   pp->rdptr  = buf;
  45              		.loc 1 211 14 view .LVU7
  46 0004 0160     		str	r1, [r0]
 212:lib/chibios/os/oslib/src/chpipes.c ****   pp->rdptr  = buf;
  47              		.loc 1 212 3 is_stmt 1 view .LVU8
 213:lib/chibios/os/oslib/src/chpipes.c ****   pp->top    = &buf[n];
  48              		.loc 1 213 14 is_stmt 0 view .LVU9
  49 0006 C0E90211 		strd	r1, r1, [r0, #8]
 214:lib/chibios/os/oslib/src/chpipes.c ****   pp->cnt    = (size_t)0;
  50              		.loc 1 214 3 is_stmt 1 view .LVU10
 214:lib/chibios/os/oslib/src/chpipes.c ****   pp->cnt    = (size_t)0;
  51              		.loc 1 214 16 is_stmt 0 view .LVU11
  52 000a 1144     		add	r1, r1, r2
  53              	.LVL1:
 207:lib/chibios/os/oslib/src/chpipes.c **** 
  54              		.loc 1 207 59 view .LVU12
  55 000c 0446     		mov	r4, r0
 214:lib/chibios/os/oslib/src/chpipes.c ****   pp->cnt    = (size_t)0;
  56              		.loc 1 214 14 view .LVU13
  57 000e 4160     		str	r1, [r0, #4]
  58              		.loc 1 215 3 is_stmt 1 view .LVU14
  59              		.loc 1 215 14 is_stmt 0 view .LVU15
  60 0010 0361     		str	r3, [r0, #16]
 216:lib/chibios/os/oslib/src/chpipes.c ****   pp->reset  = false;
  61              		.loc 1 216 3 is_stmt 1 view .LVU16
  62              		.loc 1 216 14 is_stmt 0 view .LVU17
  63 0012 0375     		strb	r3, [r0, #20]
 217:lib/chibios/os/oslib/src/chpipes.c ****   pp->wtr    = NULL;
  64              		.loc 1 217 3 is_stmt 1 view .LVU18
 218:lib/chibios/os/oslib/src/chpipes.c ****   pp->rtr    = NULL;
  65              		.loc 1 218 14 is_stmt 0 view .LVU19
  66 0014 C0E90633 		strd	r3, r3, [r0, #24]
 219:lib/chibios/os/oslib/src/chpipes.c ****   PC_INIT(pp);
  67              		.loc 1 219 3 is_stmt 1 view .LVU20
  68 0018 2030     		adds	r0, r0, #32
  69              	.LVL2:
  70              		.loc 1 219 3 is_stmt 0 view .LVU21
  71 001a FFF7FEFF 		bl	chMtxObjectInit
  72              	.LVL3:
 220:lib/chibios/os/oslib/src/chpipes.c ****   PW_INIT(pp);
  73              		.loc 1 220 3 is_stmt 1 view .LVU22
  74 001e 04F13000 		add	r0, r4, #48
  75 0022 FFF7FEFF 		bl	chMtxObjectInit
  76              	.LVL4:
 221:lib/chibios/os/oslib/src/chpipes.c ****   PR_INIT(pp);
  77              		.loc 1 221 3 view .LVU23
  78 0026 04F14000 		add	r0, r4, #64
 222:lib/chibios/os/oslib/src/chpipes.c **** }
  79              		.loc 1 222 1 is_stmt 0 view .LVU24
  80 002a BDE81040 		pop	{r4, lr}
  81              		.cfi_restore 14
  82              		.cfi_restore 4
  83              		.cfi_def_cfa_offset 0
  84              	.LVL5:
 221:lib/chibios/os/oslib/src/chpipes.c ****   PR_INIT(pp);
  85              		.loc 1 221 3 view .LVU25
  86 002e FFF7FEBF 		b	chMtxObjectInit
  87              	.LVL6:
 221:lib/chibios/os/oslib/src/chpipes.c ****   PR_INIT(pp);
  88              		.loc 1 221 3 view .LVU26
  89              		.cfi_endproc
  90              	.LFE291:
  92              		.section	.text.chPipeReset,"ax",%progbits
  93              		.align	1
  94              		.global	chPipeReset
  95              		.syntax unified
  96              		.thumb
  97              		.thumb_func
  99              	chPipeReset:
 100              	.LVL7:
 101              	.LFB292:
 223:lib/chibios/os/oslib/src/chpipes.c **** 
 224:lib/chibios/os/oslib/src/chpipes.c **** /**
 225:lib/chibios/os/oslib/src/chpipes.c ****  * @brief   Resets a @p pipe_t object.
 226:lib/chibios/os/oslib/src/chpipes.c ****  * @details All the waiting threads are resumed with status @p MSG_RESET and
 227:lib/chibios/os/oslib/src/chpipes.c ****  *          the queued data is lost.
 228:lib/chibios/os/oslib/src/chpipes.c ****  * @post    The pipe is in reset state, all operations will fail and
 229:lib/chibios/os/oslib/src/chpipes.c ****  *          return @p MSG_RESET until the mailbox is enabled again using
 230:lib/chibios/os/oslib/src/chpipes.c ****  *          @p chPipeResumeX().
 231:lib/chibios/os/oslib/src/chpipes.c ****  *
 232:lib/chibios/os/oslib/src/chpipes.c ****  * @param[in] pp        the pointer to an initialized @p pipe_t object
 233:lib/chibios/os/oslib/src/chpipes.c ****  *
 234:lib/chibios/os/oslib/src/chpipes.c ****  * @api
 235:lib/chibios/os/oslib/src/chpipes.c ****  */
 236:lib/chibios/os/oslib/src/chpipes.c **** void chPipeReset(pipe_t *pp) {
 102              		.loc 1 236 30 is_stmt 1 view -0
 103              		.cfi_startproc
 104              		@ args = 0, pretend = 0, frame = 0
 105              		@ frame_needed = 0, uses_anonymous_args = 0
 237:lib/chibios/os/oslib/src/chpipes.c **** 
 238:lib/chibios/os/oslib/src/chpipes.c ****   chDbgCheck(pp != NULL);
 106              		.loc 1 238 3 view .LVU28
 107              		.loc 1 238 3 view .LVU29
 108              		.loc 1 238 3 view .LVU30
 239:lib/chibios/os/oslib/src/chpipes.c **** 
 240:lib/chibios/os/oslib/src/chpipes.c ****   PC_LOCK(pp);
 109              		.loc 1 240 3 view .LVU31
 236:lib/chibios/os/oslib/src/chpipes.c **** 
 110              		.loc 1 236 30 is_stmt 0 view .LVU32
 111 0000 70B5     		push	{r4, r5, r6, lr}
 112              		.cfi_def_cfa_offset 16
 113              		.cfi_offset 4, -16
 114              		.cfi_offset 5, -12
 115              		.cfi_offset 6, -8
 116              		.cfi_offset 14, -4
 236:lib/chibios/os/oslib/src/chpipes.c **** 
 117              		.loc 1 236 30 view .LVU33
 118 0002 0446     		mov	r4, r0
 119              		.loc 1 240 3 view .LVU34
 120 0004 00F12005 		add	r5, r0, #32
 121 0008 2846     		mov	r0, r5
 122              	.LVL8:
 123              		.loc 1 240 3 view .LVU35
 124 000a FFF7FEFF 		bl	chMtxLock
 125              	.LVL9:
 241:lib/chibios/os/oslib/src/chpipes.c **** 
 242:lib/chibios/os/oslib/src/chpipes.c ****   pp->wrptr = pp->buffer;
 126              		.loc 1 242 3 is_stmt 1 view .LVU36
 127              		.loc 1 242 17 is_stmt 0 view .LVU37
 128 000e 2368     		ldr	r3, [r4]
 243:lib/chibios/os/oslib/src/chpipes.c ****   pp->rdptr = pp->buffer;
 244:lib/chibios/os/oslib/src/chpipes.c ****   pp->cnt   = (size_t)0;
 129              		.loc 1 244 13 view .LVU38
 130 0010 0026     		movs	r6, #0
 243:lib/chibios/os/oslib/src/chpipes.c ****   pp->rdptr = pp->buffer;
 131              		.loc 1 243 13 view .LVU39
 132 0012 C4E90233 		strd	r3, r3, [r4, #8]
 133              		.loc 1 244 3 is_stmt 1 view .LVU40
 245:lib/chibios/os/oslib/src/chpipes.c ****   pp->reset = true;
 134              		.loc 1 245 13 is_stmt 0 view .LVU41
 135 0016 0123     		movs	r3, #1
 136 0018 2375     		strb	r3, [r4, #20]
 244:lib/chibios/os/oslib/src/chpipes.c ****   pp->reset = true;
 137              		.loc 1 244 13 view .LVU42
 138 001a 2661     		str	r6, [r4, #16]
 139              		.loc 1 245 3 is_stmt 1 view .LVU43
 246:lib/chibios/os/oslib/src/chpipes.c **** 
 247:lib/chibios/os/oslib/src/chpipes.c ****   chSysLock();
 140              		.loc 1 247 3 view .LVU44
 141              	.LBB56:
 142              	.LBI56:
 143              		.file 2 "./lib/chibios/os/rt/include/chsys.h"
   1:./lib/chibios/os/rt/include/chsys.h **** /*
   2:./lib/chibios/os/rt/include/chsys.h ****     ChibiOS - Copyright (C) 2006..2018 Giovanni Di Sirio.
   3:./lib/chibios/os/rt/include/chsys.h **** 
   4:./lib/chibios/os/rt/include/chsys.h ****     This file is part of ChibiOS.
   5:./lib/chibios/os/rt/include/chsys.h **** 
   6:./lib/chibios/os/rt/include/chsys.h ****     ChibiOS is free software; you can redistribute it and/or modify
   7:./lib/chibios/os/rt/include/chsys.h ****     it under the terms of the GNU General Public License as published by
   8:./lib/chibios/os/rt/include/chsys.h ****     the Free Software Foundation; either version 3 of the License, or
   9:./lib/chibios/os/rt/include/chsys.h ****     (at your option) any later version.
  10:./lib/chibios/os/rt/include/chsys.h **** 
  11:./lib/chibios/os/rt/include/chsys.h ****     ChibiOS is distributed in the hope that it will be useful,
  12:./lib/chibios/os/rt/include/chsys.h ****     but WITHOUT ANY WARRANTY; without even the implied warranty of
  13:./lib/chibios/os/rt/include/chsys.h ****     MERCHANTABILITY or FITNESS FOR A PARTICULAR PURPOSE.  See the
  14:./lib/chibios/os/rt/include/chsys.h ****     GNU General Public License for more details.
  15:./lib/chibios/os/rt/include/chsys.h **** 
  16:./lib/chibios/os/rt/include/chsys.h ****     You should have received a copy of the GNU General Public License
  17:./lib/chibios/os/rt/include/chsys.h ****     along with this program.  If not, see <http://www.gnu.org/licenses/>.
  18:./lib/chibios/os/rt/include/chsys.h **** */
  19:./lib/chibios/os/rt/include/chsys.h **** 
  20:./lib/chibios/os/rt/include/chsys.h **** /**
  21:./lib/chibios/os/rt/include/chsys.h ****  * @file    rt/include/chsys.h
  22:./lib/chibios/os/rt/include/chsys.h ****  * @brief   System related macros and structures.
  23:./lib/chibios/os/rt/include/chsys.h ****  *
  24:./lib/chibios/os/rt/include/chsys.h ****  * @addtogroup system
  25:./lib/chibios/os/rt/include/chsys.h ****  * @{
  26:./lib/chibios/os/rt/include/chsys.h ****  */
  27:./lib/chibios/os/rt/include/chsys.h **** 
  28:./lib/chibios/os/rt/include/chsys.h **** #ifndef CHSYS_H
  29:./lib/chibios/os/rt/include/chsys.h **** #define CHSYS_H
  30:./lib/chibios/os/rt/include/chsys.h **** 
  31:./lib/chibios/os/rt/include/chsys.h **** /*lint -sem(chSysHalt, r_no)*/
  32:./lib/chibios/os/rt/include/chsys.h **** 
  33:./lib/chibios/os/rt/include/chsys.h **** /*===========================================================================*/
  34:./lib/chibios/os/rt/include/chsys.h **** /* Module constants.                                                         */
  35:./lib/chibios/os/rt/include/chsys.h **** /*===========================================================================*/
  36:./lib/chibios/os/rt/include/chsys.h **** 
  37:./lib/chibios/os/rt/include/chsys.h **** /**
  38:./lib/chibios/os/rt/include/chsys.h ****  * @name    Masks of executable integrity checks.
  39:./lib/chibios/os/rt/include/chsys.h ****  * @{
  40:./lib/chibios/os/rt/include/chsys.h ****  */
  41:./lib/chibios/os/rt/include/chsys.h **** #define CH_INTEGRITY_RLIST                  1U
  42:./lib/chibios/os/rt/include/chsys.h **** #define CH_INTEGRITY_VTLIST                 2U
  43:./lib/chibios/os/rt/include/chsys.h **** #define CH_INTEGRITY_REGISTRY               4U
  44:./lib/chibios/os/rt/include/chsys.h **** #define CH_INTEGRITY_PORT                   8U
  45:./lib/chibios/os/rt/include/chsys.h **** /** @} */
  46:./lib/chibios/os/rt/include/chsys.h **** 
  47:./lib/chibios/os/rt/include/chsys.h **** /*===========================================================================*/
  48:./lib/chibios/os/rt/include/chsys.h **** /* Module pre-compile time settings.                                         */
  49:./lib/chibios/os/rt/include/chsys.h **** /*===========================================================================*/
  50:./lib/chibios/os/rt/include/chsys.h **** 
  51:./lib/chibios/os/rt/include/chsys.h **** /*===========================================================================*/
  52:./lib/chibios/os/rt/include/chsys.h **** /* Derived constants and error checks.                                       */
  53:./lib/chibios/os/rt/include/chsys.h **** /*===========================================================================*/
  54:./lib/chibios/os/rt/include/chsys.h **** 
  55:./lib/chibios/os/rt/include/chsys.h **** /*===========================================================================*/
  56:./lib/chibios/os/rt/include/chsys.h **** /* Module data structures and types.                                         */
  57:./lib/chibios/os/rt/include/chsys.h **** /*===========================================================================*/
  58:./lib/chibios/os/rt/include/chsys.h **** 
  59:./lib/chibios/os/rt/include/chsys.h **** /*===========================================================================*/
  60:./lib/chibios/os/rt/include/chsys.h **** /* Module macros.                                                            */
  61:./lib/chibios/os/rt/include/chsys.h **** /*===========================================================================*/
  62:./lib/chibios/os/rt/include/chsys.h **** 
  63:./lib/chibios/os/rt/include/chsys.h **** /**
  64:./lib/chibios/os/rt/include/chsys.h ****  * @name    ISRs abstraction macros
  65:./lib/chibios/os/rt/include/chsys.h ****  * @{
  66:./lib/chibios/os/rt/include/chsys.h ****  */
  67:./lib/chibios/os/rt/include/chsys.h **** /**
  68:./lib/chibios/os/rt/include/chsys.h ****  * @brief   Priority level validation macro.
  69:./lib/chibios/os/rt/include/chsys.h ****  * @details This macro determines if the passed value is a valid priority
  70:./lib/chibios/os/rt/include/chsys.h ****  *          level for the underlying architecture.
  71:./lib/chibios/os/rt/include/chsys.h ****  *
  72:./lib/chibios/os/rt/include/chsys.h ****  * @param[in] prio      the priority level
  73:./lib/chibios/os/rt/include/chsys.h ****  * @return              Priority range result.
  74:./lib/chibios/os/rt/include/chsys.h ****  * @retval false        if the priority is invalid or if the architecture
  75:./lib/chibios/os/rt/include/chsys.h ****  *                      does not support priorities.
  76:./lib/chibios/os/rt/include/chsys.h ****  * @retval true         if the priority is valid.
  77:./lib/chibios/os/rt/include/chsys.h ****  */
  78:./lib/chibios/os/rt/include/chsys.h **** #if defined(PORT_IRQ_IS_VALID_PRIORITY) || defined(__DOXYGEN__)
  79:./lib/chibios/os/rt/include/chsys.h **** #define CH_IRQ_IS_VALID_PRIORITY(prio)                                      \
  80:./lib/chibios/os/rt/include/chsys.h ****   PORT_IRQ_IS_VALID_PRIORITY(prio)
  81:./lib/chibios/os/rt/include/chsys.h **** #else
  82:./lib/chibios/os/rt/include/chsys.h **** #define CH_IRQ_IS_VALID_PRIORITY(prio) false
  83:./lib/chibios/os/rt/include/chsys.h **** #endif
  84:./lib/chibios/os/rt/include/chsys.h **** 
  85:./lib/chibios/os/rt/include/chsys.h **** /**
  86:./lib/chibios/os/rt/include/chsys.h ****  * @brief   Priority level validation macro.
  87:./lib/chibios/os/rt/include/chsys.h ****  * @details This macro determines if the passed value is a valid priority
  88:./lib/chibios/os/rt/include/chsys.h ****  *          level that cannot preempt the kernel critical zone.
  89:./lib/chibios/os/rt/include/chsys.h ****  *
  90:./lib/chibios/os/rt/include/chsys.h ****  * @param[in] prio      the priority level
  91:./lib/chibios/os/rt/include/chsys.h ****  * @return              Priority range result.
  92:./lib/chibios/os/rt/include/chsys.h ****  * @retval false        if the priority is invalid or if the architecture
  93:./lib/chibios/os/rt/include/chsys.h ****  *                      does not support priorities.
  94:./lib/chibios/os/rt/include/chsys.h ****  * @retval true         if the priority is valid.
  95:./lib/chibios/os/rt/include/chsys.h ****  */
  96:./lib/chibios/os/rt/include/chsys.h **** #if defined(PORT_IRQ_IS_VALID_KERNEL_PRIORITY) || defined(__DOXYGEN__)
  97:./lib/chibios/os/rt/include/chsys.h **** #define CH_IRQ_IS_VALID_KERNEL_PRIORITY(prio)                               \
  98:./lib/chibios/os/rt/include/chsys.h ****   PORT_IRQ_IS_VALID_KERNEL_PRIORITY(prio)
  99:./lib/chibios/os/rt/include/chsys.h **** #else
 100:./lib/chibios/os/rt/include/chsys.h **** #define CH_IRQ_IS_VALID_KERNEL_PRIORITY(prio) false
 101:./lib/chibios/os/rt/include/chsys.h **** #endif
 102:./lib/chibios/os/rt/include/chsys.h **** 
 103:./lib/chibios/os/rt/include/chsys.h **** /**
 104:./lib/chibios/os/rt/include/chsys.h ****  * @brief   IRQ handler enter code.
 105:./lib/chibios/os/rt/include/chsys.h ****  * @note    Usually IRQ handlers functions are also declared naked.
 106:./lib/chibios/os/rt/include/chsys.h ****  * @note    On some architectures this macro can be empty.
 107:./lib/chibios/os/rt/include/chsys.h ****  *
 108:./lib/chibios/os/rt/include/chsys.h ****  * @special
 109:./lib/chibios/os/rt/include/chsys.h ****  */
 110:./lib/chibios/os/rt/include/chsys.h **** #define CH_IRQ_PROLOGUE()                                                   \
 111:./lib/chibios/os/rt/include/chsys.h ****   PORT_IRQ_PROLOGUE();                                                      \
 112:./lib/chibios/os/rt/include/chsys.h ****   CH_CFG_IRQ_PROLOGUE_HOOK();                                               \
 113:./lib/chibios/os/rt/include/chsys.h ****   _stats_increase_irq();                                                    \
 114:./lib/chibios/os/rt/include/chsys.h ****   _trace_isr_enter(__func__);                                               \
 115:./lib/chibios/os/rt/include/chsys.h ****   _dbg_check_enter_isr()
 116:./lib/chibios/os/rt/include/chsys.h **** 
 117:./lib/chibios/os/rt/include/chsys.h **** /**
 118:./lib/chibios/os/rt/include/chsys.h ****  * @brief   IRQ handler exit code.
 119:./lib/chibios/os/rt/include/chsys.h ****  * @note    Usually IRQ handlers function are also declared naked.
 120:./lib/chibios/os/rt/include/chsys.h ****  * @note    This macro usually performs the final reschedule by using
 121:./lib/chibios/os/rt/include/chsys.h ****  *          @p chSchIsPreemptionRequired() and @p chSchDoReschedule().
 122:./lib/chibios/os/rt/include/chsys.h ****  *
 123:./lib/chibios/os/rt/include/chsys.h ****  * @special
 124:./lib/chibios/os/rt/include/chsys.h ****  */
 125:./lib/chibios/os/rt/include/chsys.h **** #define CH_IRQ_EPILOGUE()                                                   \
 126:./lib/chibios/os/rt/include/chsys.h ****   _dbg_check_leave_isr();                                                   \
 127:./lib/chibios/os/rt/include/chsys.h ****   _trace_isr_leave(__func__);                                               \
 128:./lib/chibios/os/rt/include/chsys.h ****   CH_CFG_IRQ_EPILOGUE_HOOK();                                               \
 129:./lib/chibios/os/rt/include/chsys.h ****   PORT_IRQ_EPILOGUE()
 130:./lib/chibios/os/rt/include/chsys.h **** 
 131:./lib/chibios/os/rt/include/chsys.h **** /**
 132:./lib/chibios/os/rt/include/chsys.h ****  * @brief   Standard normal IRQ handler declaration.
 133:./lib/chibios/os/rt/include/chsys.h ****  * @note    @p id can be a function name or a vector number depending on the
 134:./lib/chibios/os/rt/include/chsys.h ****  *          port implementation.
 135:./lib/chibios/os/rt/include/chsys.h ****  *
 136:./lib/chibios/os/rt/include/chsys.h ****  * @special
 137:./lib/chibios/os/rt/include/chsys.h ****  */
 138:./lib/chibios/os/rt/include/chsys.h **** #define CH_IRQ_HANDLER(id) PORT_IRQ_HANDLER(id)
 139:./lib/chibios/os/rt/include/chsys.h **** /** @} */
 140:./lib/chibios/os/rt/include/chsys.h **** 
 141:./lib/chibios/os/rt/include/chsys.h **** /**
 142:./lib/chibios/os/rt/include/chsys.h ****  * @name    Fast ISRs abstraction macros
 143:./lib/chibios/os/rt/include/chsys.h ****  * @{
 144:./lib/chibios/os/rt/include/chsys.h ****  */
 145:./lib/chibios/os/rt/include/chsys.h **** /**
 146:./lib/chibios/os/rt/include/chsys.h ****  * @brief   Standard fast IRQ handler declaration.
 147:./lib/chibios/os/rt/include/chsys.h ****  * @note    @p id can be a function name or a vector number depending on the
 148:./lib/chibios/os/rt/include/chsys.h ****  *          port implementation.
 149:./lib/chibios/os/rt/include/chsys.h ****  * @note    Not all architectures support fast interrupts.
 150:./lib/chibios/os/rt/include/chsys.h ****  *
 151:./lib/chibios/os/rt/include/chsys.h ****  * @special
 152:./lib/chibios/os/rt/include/chsys.h ****  */
 153:./lib/chibios/os/rt/include/chsys.h **** #define CH_FAST_IRQ_HANDLER(id) PORT_FAST_IRQ_HANDLER(id)
 154:./lib/chibios/os/rt/include/chsys.h **** /** @} */
 155:./lib/chibios/os/rt/include/chsys.h **** 
 156:./lib/chibios/os/rt/include/chsys.h **** /**
 157:./lib/chibios/os/rt/include/chsys.h ****  * @name    Time conversion utilities for the realtime counter
 158:./lib/chibios/os/rt/include/chsys.h ****  * @{
 159:./lib/chibios/os/rt/include/chsys.h ****  */
 160:./lib/chibios/os/rt/include/chsys.h **** /**
 161:./lib/chibios/os/rt/include/chsys.h ****  * @brief   Seconds to realtime counter.
 162:./lib/chibios/os/rt/include/chsys.h ****  * @details Converts from seconds to realtime counter cycles.
 163:./lib/chibios/os/rt/include/chsys.h ****  * @note    The macro assumes that @p freq >= @p 1.
 164:./lib/chibios/os/rt/include/chsys.h ****  *
 165:./lib/chibios/os/rt/include/chsys.h ****  * @param[in] freq      clock frequency, in Hz, of the realtime counter
 166:./lib/chibios/os/rt/include/chsys.h ****  * @param[in] sec       number of seconds
 167:./lib/chibios/os/rt/include/chsys.h ****  * @return              The number of cycles.
 168:./lib/chibios/os/rt/include/chsys.h ****  *
 169:./lib/chibios/os/rt/include/chsys.h ****  * @api
 170:./lib/chibios/os/rt/include/chsys.h ****  */
 171:./lib/chibios/os/rt/include/chsys.h **** #define S2RTC(freq, sec) ((freq) * (sec))
 172:./lib/chibios/os/rt/include/chsys.h **** 
 173:./lib/chibios/os/rt/include/chsys.h **** /**
 174:./lib/chibios/os/rt/include/chsys.h ****  * @brief   Milliseconds to realtime counter.
 175:./lib/chibios/os/rt/include/chsys.h ****  * @details Converts from milliseconds to realtime counter cycles.
 176:./lib/chibios/os/rt/include/chsys.h ****  * @note    The result is rounded upward to the next millisecond boundary.
 177:./lib/chibios/os/rt/include/chsys.h ****  * @note    The macro assumes that @p freq >= @p 1000.
 178:./lib/chibios/os/rt/include/chsys.h ****  *
 179:./lib/chibios/os/rt/include/chsys.h ****  * @param[in] freq      clock frequency, in Hz, of the realtime counter
 180:./lib/chibios/os/rt/include/chsys.h ****  * @param[in] msec      number of milliseconds
 181:./lib/chibios/os/rt/include/chsys.h ****  * @return              The number of cycles.
 182:./lib/chibios/os/rt/include/chsys.h ****  *
 183:./lib/chibios/os/rt/include/chsys.h ****  * @api
 184:./lib/chibios/os/rt/include/chsys.h ****  */
 185:./lib/chibios/os/rt/include/chsys.h **** #define MS2RTC(freq, msec) (rtcnt_t)((((freq) + 999UL) / 1000UL) * (msec))
 186:./lib/chibios/os/rt/include/chsys.h **** 
 187:./lib/chibios/os/rt/include/chsys.h **** /**
 188:./lib/chibios/os/rt/include/chsys.h ****  * @brief   Microseconds to realtime counter.
 189:./lib/chibios/os/rt/include/chsys.h ****  * @details Converts from microseconds to realtime counter cycles.
 190:./lib/chibios/os/rt/include/chsys.h ****  * @note    The result is rounded upward to the next microsecond boundary.
 191:./lib/chibios/os/rt/include/chsys.h ****  * @note    The macro assumes that @p freq >= @p 1000000.
 192:./lib/chibios/os/rt/include/chsys.h ****  *
 193:./lib/chibios/os/rt/include/chsys.h ****  * @param[in] freq      clock frequency, in Hz, of the realtime counter
 194:./lib/chibios/os/rt/include/chsys.h ****  * @param[in] usec      number of microseconds
 195:./lib/chibios/os/rt/include/chsys.h ****  * @return              The number of cycles.
 196:./lib/chibios/os/rt/include/chsys.h ****  *
 197:./lib/chibios/os/rt/include/chsys.h ****  * @api
 198:./lib/chibios/os/rt/include/chsys.h ****  */
 199:./lib/chibios/os/rt/include/chsys.h **** #define US2RTC(freq, usec) (rtcnt_t)((((freq) + 999999UL) / 1000000UL) * (usec))
 200:./lib/chibios/os/rt/include/chsys.h **** 
 201:./lib/chibios/os/rt/include/chsys.h **** /**
 202:./lib/chibios/os/rt/include/chsys.h ****  * @brief   Realtime counter cycles to seconds.
 203:./lib/chibios/os/rt/include/chsys.h ****  * @details Converts from realtime counter cycles number to seconds.
 204:./lib/chibios/os/rt/include/chsys.h ****  * @note    The result is rounded up to the next second boundary.
 205:./lib/chibios/os/rt/include/chsys.h ****  * @note    The macro assumes that @p freq >= @p 1.
 206:./lib/chibios/os/rt/include/chsys.h ****  *
 207:./lib/chibios/os/rt/include/chsys.h ****  * @param[in] freq      clock frequency, in Hz, of the realtime counter
 208:./lib/chibios/os/rt/include/chsys.h ****  * @param[in] n         number of cycles
 209:./lib/chibios/os/rt/include/chsys.h ****  * @return              The number of seconds.
 210:./lib/chibios/os/rt/include/chsys.h ****  *
 211:./lib/chibios/os/rt/include/chsys.h ****  * @api
 212:./lib/chibios/os/rt/include/chsys.h ****  */
 213:./lib/chibios/os/rt/include/chsys.h **** #define RTC2S(freq, n) ((((n) - 1UL) / (freq)) + 1UL)
 214:./lib/chibios/os/rt/include/chsys.h **** 
 215:./lib/chibios/os/rt/include/chsys.h **** /**
 216:./lib/chibios/os/rt/include/chsys.h ****  * @brief   Realtime counter cycles to milliseconds.
 217:./lib/chibios/os/rt/include/chsys.h ****  * @details Converts from realtime counter cycles number to milliseconds.
 218:./lib/chibios/os/rt/include/chsys.h ****  * @note    The result is rounded up to the next millisecond boundary.
 219:./lib/chibios/os/rt/include/chsys.h ****  * @note    The macro assumes that @p freq >= @p 1000.
 220:./lib/chibios/os/rt/include/chsys.h ****  *
 221:./lib/chibios/os/rt/include/chsys.h ****  * @param[in] freq      clock frequency, in Hz, of the realtime counter
 222:./lib/chibios/os/rt/include/chsys.h ****  * @param[in] n         number of cycles
 223:./lib/chibios/os/rt/include/chsys.h ****  * @return              The number of milliseconds.
 224:./lib/chibios/os/rt/include/chsys.h ****  *
 225:./lib/chibios/os/rt/include/chsys.h ****  * @api
 226:./lib/chibios/os/rt/include/chsys.h ****  */
 227:./lib/chibios/os/rt/include/chsys.h **** #define RTC2MS(freq, n) ((((n) - 1UL) / ((freq) / 1000UL)) + 1UL)
 228:./lib/chibios/os/rt/include/chsys.h **** 
 229:./lib/chibios/os/rt/include/chsys.h **** /**
 230:./lib/chibios/os/rt/include/chsys.h ****  * @brief   Realtime counter cycles to microseconds.
 231:./lib/chibios/os/rt/include/chsys.h ****  * @details Converts from realtime counter cycles number to microseconds.
 232:./lib/chibios/os/rt/include/chsys.h ****  * @note    The result is rounded up to the next microsecond boundary.
 233:./lib/chibios/os/rt/include/chsys.h ****  * @note    The macro assumes that @p freq >= @p 1000000.
 234:./lib/chibios/os/rt/include/chsys.h ****  *
 235:./lib/chibios/os/rt/include/chsys.h ****  * @param[in] freq      clock frequency, in Hz, of the realtime counter
 236:./lib/chibios/os/rt/include/chsys.h ****  * @param[in] n         number of cycles
 237:./lib/chibios/os/rt/include/chsys.h ****  * @return              The number of microseconds.
 238:./lib/chibios/os/rt/include/chsys.h ****  *
 239:./lib/chibios/os/rt/include/chsys.h ****  * @api
 240:./lib/chibios/os/rt/include/chsys.h ****  */
 241:./lib/chibios/os/rt/include/chsys.h **** #define RTC2US(freq, n) ((((n) - 1UL) / ((freq) / 1000000UL)) + 1UL)
 242:./lib/chibios/os/rt/include/chsys.h **** /** @} */
 243:./lib/chibios/os/rt/include/chsys.h **** 
 244:./lib/chibios/os/rt/include/chsys.h **** /**
 245:./lib/chibios/os/rt/include/chsys.h ****  * @brief   Returns the current value of the system real time counter.
 246:./lib/chibios/os/rt/include/chsys.h ****  * @note    This function is only available if the port layer supports the
 247:./lib/chibios/os/rt/include/chsys.h ****  *          option @p PORT_SUPPORTS_RT.
 248:./lib/chibios/os/rt/include/chsys.h ****  *
 249:./lib/chibios/os/rt/include/chsys.h ****  * @return              The value of the system realtime counter of
 250:./lib/chibios/os/rt/include/chsys.h ****  *                      type rtcnt_t.
 251:./lib/chibios/os/rt/include/chsys.h ****  *
 252:./lib/chibios/os/rt/include/chsys.h ****  * @xclass
 253:./lib/chibios/os/rt/include/chsys.h ****  */
 254:./lib/chibios/os/rt/include/chsys.h **** #if (PORT_SUPPORTS_RT == TRUE) || defined(__DOXYGEN__)
 255:./lib/chibios/os/rt/include/chsys.h **** #define chSysGetRealtimeCounterX() (rtcnt_t)port_rt_get_counter_value()
 256:./lib/chibios/os/rt/include/chsys.h **** #endif
 257:./lib/chibios/os/rt/include/chsys.h **** 
 258:./lib/chibios/os/rt/include/chsys.h **** /**
 259:./lib/chibios/os/rt/include/chsys.h ****  * @brief   Performs a context switch.
 260:./lib/chibios/os/rt/include/chsys.h ****  * @note    Not a user function, it is meant to be invoked by the scheduler
 261:./lib/chibios/os/rt/include/chsys.h ****  *          itself or from within the port layer.
 262:./lib/chibios/os/rt/include/chsys.h ****  *
 263:./lib/chibios/os/rt/include/chsys.h ****  * @param[in] ntp       the thread to be switched in
 264:./lib/chibios/os/rt/include/chsys.h ****  * @param[in] otp       the thread to be switched out
 265:./lib/chibios/os/rt/include/chsys.h ****  *
 266:./lib/chibios/os/rt/include/chsys.h ****  * @special
 267:./lib/chibios/os/rt/include/chsys.h ****  */
 268:./lib/chibios/os/rt/include/chsys.h **** #define chSysSwitch(ntp, otp) {                                             \
 269:./lib/chibios/os/rt/include/chsys.h ****                                                                             \
 270:./lib/chibios/os/rt/include/chsys.h ****   _trace_switch(ntp, otp);                                                  \
 271:./lib/chibios/os/rt/include/chsys.h ****   _stats_ctxswc(ntp, otp);                                                  \
 272:./lib/chibios/os/rt/include/chsys.h ****   CH_CFG_CONTEXT_SWITCH_HOOK(ntp, otp);                                     \
 273:./lib/chibios/os/rt/include/chsys.h ****   port_switch(ntp, otp);                                                    \
 274:./lib/chibios/os/rt/include/chsys.h **** }
 275:./lib/chibios/os/rt/include/chsys.h **** 
 276:./lib/chibios/os/rt/include/chsys.h **** /*===========================================================================*/
 277:./lib/chibios/os/rt/include/chsys.h **** /* External declarations.                                                    */
 278:./lib/chibios/os/rt/include/chsys.h **** /*===========================================================================*/
 279:./lib/chibios/os/rt/include/chsys.h **** 
 280:./lib/chibios/os/rt/include/chsys.h **** #if !defined(__DOXYGEN__)
 281:./lib/chibios/os/rt/include/chsys.h **** extern stkalign_t ch_idle_thread_wa[];
 282:./lib/chibios/os/rt/include/chsys.h **** #endif
 283:./lib/chibios/os/rt/include/chsys.h **** 
 284:./lib/chibios/os/rt/include/chsys.h **** #ifdef __cplusplus
 285:./lib/chibios/os/rt/include/chsys.h **** extern "C" {
 286:./lib/chibios/os/rt/include/chsys.h **** #endif
 287:./lib/chibios/os/rt/include/chsys.h ****   void chSysInit(void);
 288:./lib/chibios/os/rt/include/chsys.h ****   bool chSysIntegrityCheckI(unsigned testmask);
 289:./lib/chibios/os/rt/include/chsys.h ****   void chSysTimerHandlerI(void);
 290:./lib/chibios/os/rt/include/chsys.h ****   syssts_t chSysGetStatusAndLockX(void);
 291:./lib/chibios/os/rt/include/chsys.h ****   void chSysRestoreStatusX(syssts_t sts);
 292:./lib/chibios/os/rt/include/chsys.h **** #if PORT_SUPPORTS_RT == TRUE
 293:./lib/chibios/os/rt/include/chsys.h ****   bool chSysIsCounterWithinX(rtcnt_t cnt, rtcnt_t start, rtcnt_t end);
 294:./lib/chibios/os/rt/include/chsys.h ****   void chSysPolledDelayX(rtcnt_t cycles);
 295:./lib/chibios/os/rt/include/chsys.h **** #endif
 296:./lib/chibios/os/rt/include/chsys.h **** #ifdef __cplusplus
 297:./lib/chibios/os/rt/include/chsys.h **** }
 298:./lib/chibios/os/rt/include/chsys.h **** #endif
 299:./lib/chibios/os/rt/include/chsys.h **** 
 300:./lib/chibios/os/rt/include/chsys.h **** /*===========================================================================*/
 301:./lib/chibios/os/rt/include/chsys.h **** /* Module inline functions.                                                  */
 302:./lib/chibios/os/rt/include/chsys.h **** /*===========================================================================*/
 303:./lib/chibios/os/rt/include/chsys.h **** 
 304:./lib/chibios/os/rt/include/chsys.h **** /**
 305:./lib/chibios/os/rt/include/chsys.h ****  * @brief   Raises the system interrupt priority mask to the maximum level.
 306:./lib/chibios/os/rt/include/chsys.h ****  * @details All the maskable interrupt sources are disabled regardless their
 307:./lib/chibios/os/rt/include/chsys.h ****  *          hardware priority.
 308:./lib/chibios/os/rt/include/chsys.h ****  * @note    Do not invoke this API from within a kernel lock.
 309:./lib/chibios/os/rt/include/chsys.h ****  *
 310:./lib/chibios/os/rt/include/chsys.h ****  * @special
 311:./lib/chibios/os/rt/include/chsys.h ****  */
 312:./lib/chibios/os/rt/include/chsys.h **** static inline void chSysDisable(void) {
 313:./lib/chibios/os/rt/include/chsys.h **** 
 314:./lib/chibios/os/rt/include/chsys.h ****   port_disable();
 315:./lib/chibios/os/rt/include/chsys.h ****   _dbg_check_disable();
 316:./lib/chibios/os/rt/include/chsys.h **** }
 317:./lib/chibios/os/rt/include/chsys.h **** 
 318:./lib/chibios/os/rt/include/chsys.h **** /**
 319:./lib/chibios/os/rt/include/chsys.h ****  * @brief   Raises the system interrupt priority mask to system level.
 320:./lib/chibios/os/rt/include/chsys.h ****  * @details The interrupt sources that should not be able to preempt the kernel
 321:./lib/chibios/os/rt/include/chsys.h ****  *          are disabled, interrupt sources with higher priority are still
 322:./lib/chibios/os/rt/include/chsys.h ****  *          enabled.
 323:./lib/chibios/os/rt/include/chsys.h ****  * @note    Do not invoke this API from within a kernel lock.
 324:./lib/chibios/os/rt/include/chsys.h ****  * @note    This API is no replacement for @p chSysLock(), the @p chSysLock()
 325:./lib/chibios/os/rt/include/chsys.h ****  *          could do more than just disable the interrupts.
 326:./lib/chibios/os/rt/include/chsys.h ****  *
 327:./lib/chibios/os/rt/include/chsys.h ****  * @special
 328:./lib/chibios/os/rt/include/chsys.h ****  */
 329:./lib/chibios/os/rt/include/chsys.h **** static inline void chSysSuspend(void) {
 330:./lib/chibios/os/rt/include/chsys.h **** 
 331:./lib/chibios/os/rt/include/chsys.h ****   port_suspend();
 332:./lib/chibios/os/rt/include/chsys.h ****   _dbg_check_suspend();
 333:./lib/chibios/os/rt/include/chsys.h **** }
 334:./lib/chibios/os/rt/include/chsys.h **** 
 335:./lib/chibios/os/rt/include/chsys.h **** /**
 336:./lib/chibios/os/rt/include/chsys.h ****  * @brief   Lowers the system interrupt priority mask to user level.
 337:./lib/chibios/os/rt/include/chsys.h ****  * @details All the interrupt sources are enabled.
 338:./lib/chibios/os/rt/include/chsys.h ****  * @note    Do not invoke this API from within a kernel lock.
 339:./lib/chibios/os/rt/include/chsys.h ****  * @note    This API is no replacement for @p chSysUnlock(), the
 340:./lib/chibios/os/rt/include/chsys.h ****  *          @p chSysUnlock() could do more than just enable the interrupts.
 341:./lib/chibios/os/rt/include/chsys.h ****  *
 342:./lib/chibios/os/rt/include/chsys.h ****  * @special
 343:./lib/chibios/os/rt/include/chsys.h ****  */
 344:./lib/chibios/os/rt/include/chsys.h **** static inline void chSysEnable(void) {
 345:./lib/chibios/os/rt/include/chsys.h **** 
 346:./lib/chibios/os/rt/include/chsys.h ****   _dbg_check_enable();
 347:./lib/chibios/os/rt/include/chsys.h ****   port_enable();
 348:./lib/chibios/os/rt/include/chsys.h **** }
 349:./lib/chibios/os/rt/include/chsys.h **** 
 350:./lib/chibios/os/rt/include/chsys.h **** /**
 351:./lib/chibios/os/rt/include/chsys.h ****  * @brief   Enters the kernel lock state.
 352:./lib/chibios/os/rt/include/chsys.h ****  *
 353:./lib/chibios/os/rt/include/chsys.h ****  * @special
 354:./lib/chibios/os/rt/include/chsys.h ****  */
 355:./lib/chibios/os/rt/include/chsys.h **** static inline void chSysLock(void) {
 144              		.loc 2 355 20 view .LVU45
 356:./lib/chibios/os/rt/include/chsys.h **** 
 357:./lib/chibios/os/rt/include/chsys.h ****   port_lock();
 145              		.loc 2 357 3 view .LVU46
 146              	.LBB57:
 147              	.LBI57:
 148              		.file 3 "./lib/chibios/os/common/ports/ARMCMx/chcore_v7m.h"
   1:./lib/chibios/os/common/ports/ARMCMx/chcore_v7m.h **** /*
   2:./lib/chibios/os/common/ports/ARMCMx/chcore_v7m.h ****     ChibiOS - Copyright (C) 2006..2018 Giovanni Di Sirio.
   3:./lib/chibios/os/common/ports/ARMCMx/chcore_v7m.h **** 
   4:./lib/chibios/os/common/ports/ARMCMx/chcore_v7m.h ****     This file is part of ChibiOS.
   5:./lib/chibios/os/common/ports/ARMCMx/chcore_v7m.h **** 
   6:./lib/chibios/os/common/ports/ARMCMx/chcore_v7m.h ****     ChibiOS is free software; you can redistribute it and/or modify
   7:./lib/chibios/os/common/ports/ARMCMx/chcore_v7m.h ****     it under the terms of the GNU General Public License as published by
   8:./lib/chibios/os/common/ports/ARMCMx/chcore_v7m.h ****     the Free Software Foundation; either version 3 of the License, or
   9:./lib/chibios/os/common/ports/ARMCMx/chcore_v7m.h ****     (at your option) any later version.
  10:./lib/chibios/os/common/ports/ARMCMx/chcore_v7m.h **** 
  11:./lib/chibios/os/common/ports/ARMCMx/chcore_v7m.h ****     ChibiOS is distributed in the hope that it will be useful,
  12:./lib/chibios/os/common/ports/ARMCMx/chcore_v7m.h ****     but WITHOUT ANY WARRANTY; without even the implied warranty of
  13:./lib/chibios/os/common/ports/ARMCMx/chcore_v7m.h ****     MERCHANTABILITY or FITNESS FOR A PARTICULAR PURPOSE.  See the
  14:./lib/chibios/os/common/ports/ARMCMx/chcore_v7m.h ****     GNU General Public License for more details.
  15:./lib/chibios/os/common/ports/ARMCMx/chcore_v7m.h **** 
  16:./lib/chibios/os/common/ports/ARMCMx/chcore_v7m.h ****     You should have received a copy of the GNU General Public License
  17:./lib/chibios/os/common/ports/ARMCMx/chcore_v7m.h ****     along with this program.  If not, see <http://www.gnu.org/licenses/>.
  18:./lib/chibios/os/common/ports/ARMCMx/chcore_v7m.h **** */
  19:./lib/chibios/os/common/ports/ARMCMx/chcore_v7m.h **** 
  20:./lib/chibios/os/common/ports/ARMCMx/chcore_v7m.h **** /**
  21:./lib/chibios/os/common/ports/ARMCMx/chcore_v7m.h ****  * @file    chcore_v7m.h
  22:./lib/chibios/os/common/ports/ARMCMx/chcore_v7m.h ****  * @brief   ARMv7-M architecture port macros and structures.
  23:./lib/chibios/os/common/ports/ARMCMx/chcore_v7m.h ****  *
  24:./lib/chibios/os/common/ports/ARMCMx/chcore_v7m.h ****  * @addtogroup ARMCMx_V7M_CORE
  25:./lib/chibios/os/common/ports/ARMCMx/chcore_v7m.h ****  * @{
  26:./lib/chibios/os/common/ports/ARMCMx/chcore_v7m.h ****  */
  27:./lib/chibios/os/common/ports/ARMCMx/chcore_v7m.h **** 
  28:./lib/chibios/os/common/ports/ARMCMx/chcore_v7m.h **** #ifndef CHCORE_V7M_H
  29:./lib/chibios/os/common/ports/ARMCMx/chcore_v7m.h **** #define CHCORE_V7M_H
  30:./lib/chibios/os/common/ports/ARMCMx/chcore_v7m.h **** 
  31:./lib/chibios/os/common/ports/ARMCMx/chcore_v7m.h **** /*===========================================================================*/
  32:./lib/chibios/os/common/ports/ARMCMx/chcore_v7m.h **** /* Module constants.                                                         */
  33:./lib/chibios/os/common/ports/ARMCMx/chcore_v7m.h **** /*===========================================================================*/
  34:./lib/chibios/os/common/ports/ARMCMx/chcore_v7m.h **** 
  35:./lib/chibios/os/common/ports/ARMCMx/chcore_v7m.h **** /**
  36:./lib/chibios/os/common/ports/ARMCMx/chcore_v7m.h ****  * @name    Port Capabilities and Constants
  37:./lib/chibios/os/common/ports/ARMCMx/chcore_v7m.h ****  * @{
  38:./lib/chibios/os/common/ports/ARMCMx/chcore_v7m.h ****  */
  39:./lib/chibios/os/common/ports/ARMCMx/chcore_v7m.h **** /**
  40:./lib/chibios/os/common/ports/ARMCMx/chcore_v7m.h ****  * @brief   This port supports a realtime counter.
  41:./lib/chibios/os/common/ports/ARMCMx/chcore_v7m.h ****  */
  42:./lib/chibios/os/common/ports/ARMCMx/chcore_v7m.h **** #define PORT_SUPPORTS_RT                TRUE
  43:./lib/chibios/os/common/ports/ARMCMx/chcore_v7m.h **** 
  44:./lib/chibios/os/common/ports/ARMCMx/chcore_v7m.h **** /**
  45:./lib/chibios/os/common/ports/ARMCMx/chcore_v7m.h ****  * @brief   Natural alignment constant.
  46:./lib/chibios/os/common/ports/ARMCMx/chcore_v7m.h ****  * @note    It is the minimum alignment for pointer-size variables.
  47:./lib/chibios/os/common/ports/ARMCMx/chcore_v7m.h ****  */
  48:./lib/chibios/os/common/ports/ARMCMx/chcore_v7m.h **** #define PORT_NATURAL_ALIGN              sizeof (void *)
  49:./lib/chibios/os/common/ports/ARMCMx/chcore_v7m.h **** 
  50:./lib/chibios/os/common/ports/ARMCMx/chcore_v7m.h **** /**
  51:./lib/chibios/os/common/ports/ARMCMx/chcore_v7m.h ****  * @brief   Stack alignment constant.
  52:./lib/chibios/os/common/ports/ARMCMx/chcore_v7m.h ****  * @note    It is the alignment required for the stack pointer.
  53:./lib/chibios/os/common/ports/ARMCMx/chcore_v7m.h ****  */
  54:./lib/chibios/os/common/ports/ARMCMx/chcore_v7m.h **** #define PORT_STACK_ALIGN                sizeof (stkalign_t)
  55:./lib/chibios/os/common/ports/ARMCMx/chcore_v7m.h **** 
  56:./lib/chibios/os/common/ports/ARMCMx/chcore_v7m.h **** /**
  57:./lib/chibios/os/common/ports/ARMCMx/chcore_v7m.h ****  * @brief   Working Areas alignment constant.
  58:./lib/chibios/os/common/ports/ARMCMx/chcore_v7m.h ****  * @note    It is the alignment to be enforced for thread working areas.
  59:./lib/chibios/os/common/ports/ARMCMx/chcore_v7m.h ****  */
  60:./lib/chibios/os/common/ports/ARMCMx/chcore_v7m.h **** #define PORT_WORKING_AREA_ALIGN         ((PORT_ENABLE_GUARD_PAGES == TRUE) ?\
  61:./lib/chibios/os/common/ports/ARMCMx/chcore_v7m.h ****                                          32U : PORT_STACK_ALIGN)
  62:./lib/chibios/os/common/ports/ARMCMx/chcore_v7m.h **** /** @} */
  63:./lib/chibios/os/common/ports/ARMCMx/chcore_v7m.h **** 
  64:./lib/chibios/os/common/ports/ARMCMx/chcore_v7m.h **** /**
  65:./lib/chibios/os/common/ports/ARMCMx/chcore_v7m.h ****  * @brief   Disabled value for BASEPRI register.
  66:./lib/chibios/os/common/ports/ARMCMx/chcore_v7m.h ****  */
  67:./lib/chibios/os/common/ports/ARMCMx/chcore_v7m.h **** #define CORTEX_BASEPRI_DISABLED         0U
  68:./lib/chibios/os/common/ports/ARMCMx/chcore_v7m.h **** 
  69:./lib/chibios/os/common/ports/ARMCMx/chcore_v7m.h **** /*===========================================================================*/
  70:./lib/chibios/os/common/ports/ARMCMx/chcore_v7m.h **** /* Module pre-compile time settings.                                         */
  71:./lib/chibios/os/common/ports/ARMCMx/chcore_v7m.h **** /*===========================================================================*/
  72:./lib/chibios/os/common/ports/ARMCMx/chcore_v7m.h **** 
  73:./lib/chibios/os/common/ports/ARMCMx/chcore_v7m.h **** /**
  74:./lib/chibios/os/common/ports/ARMCMx/chcore_v7m.h ****  * @brief   Implements a syscall interface on SVC.
  75:./lib/chibios/os/common/ports/ARMCMx/chcore_v7m.h ****  */
  76:./lib/chibios/os/common/ports/ARMCMx/chcore_v7m.h **** #if !defined(PORT_USE_SYSCALL) || defined(__DOXYGEN__)
  77:./lib/chibios/os/common/ports/ARMCMx/chcore_v7m.h **** #define PORT_USE_SYSCALL                FALSE
  78:./lib/chibios/os/common/ports/ARMCMx/chcore_v7m.h **** #endif
  79:./lib/chibios/os/common/ports/ARMCMx/chcore_v7m.h **** 
  80:./lib/chibios/os/common/ports/ARMCMx/chcore_v7m.h **** /**
  81:./lib/chibios/os/common/ports/ARMCMx/chcore_v7m.h ****  * @brief   Number of MPU regions to be saved/restored during context switch.
  82:./lib/chibios/os/common/ports/ARMCMx/chcore_v7m.h ****  * @note    The first region is always region zero.
  83:./lib/chibios/os/common/ports/ARMCMx/chcore_v7m.h ****  * @note    The use of this option has an overhead of 8 bytes for each
  84:./lib/chibios/os/common/ports/ARMCMx/chcore_v7m.h ****  *          region for each thread.
  85:./lib/chibios/os/common/ports/ARMCMx/chcore_v7m.h ****  * @note    Allowed values are 0..4, zero means none.
  86:./lib/chibios/os/common/ports/ARMCMx/chcore_v7m.h ****  */
  87:./lib/chibios/os/common/ports/ARMCMx/chcore_v7m.h **** #if !defined(PORT_SWITCHED_REGIONS_NUMBER) || defined(__DOXYGEN__)
  88:./lib/chibios/os/common/ports/ARMCMx/chcore_v7m.h **** #define PORT_SWITCHED_REGIONS_NUMBER    0
  89:./lib/chibios/os/common/ports/ARMCMx/chcore_v7m.h **** #endif
  90:./lib/chibios/os/common/ports/ARMCMx/chcore_v7m.h **** 
  91:./lib/chibios/os/common/ports/ARMCMx/chcore_v7m.h **** /**
  92:./lib/chibios/os/common/ports/ARMCMx/chcore_v7m.h ****  * @brief   Enables stack overflow guard pages using MPU.
  93:./lib/chibios/os/common/ports/ARMCMx/chcore_v7m.h ****  * @note    This option can only be enabled if also option
  94:./lib/chibios/os/common/ports/ARMCMx/chcore_v7m.h ****  *          @p CH_DBG_ENABLE_STACK_CHECK is enabled.
  95:./lib/chibios/os/common/ports/ARMCMx/chcore_v7m.h ****  * @note    The use of this option has an overhead of 32 bytes for each
  96:./lib/chibios/os/common/ports/ARMCMx/chcore_v7m.h ****  *          thread.
  97:./lib/chibios/os/common/ports/ARMCMx/chcore_v7m.h ****  */
  98:./lib/chibios/os/common/ports/ARMCMx/chcore_v7m.h **** #if !defined(PORT_ENABLE_GUARD_PAGES) || defined(__DOXYGEN__)
  99:./lib/chibios/os/common/ports/ARMCMx/chcore_v7m.h **** #define PORT_ENABLE_GUARD_PAGES         FALSE
 100:./lib/chibios/os/common/ports/ARMCMx/chcore_v7m.h **** #endif
 101:./lib/chibios/os/common/ports/ARMCMx/chcore_v7m.h **** 
 102:./lib/chibios/os/common/ports/ARMCMx/chcore_v7m.h **** /**
 103:./lib/chibios/os/common/ports/ARMCMx/chcore_v7m.h ****  * @brief   MPU region to be used to stack guards.
 104:./lib/chibios/os/common/ports/ARMCMx/chcore_v7m.h ****  * @note    Make sure this region is not included in the
 105:./lib/chibios/os/common/ports/ARMCMx/chcore_v7m.h ****  *          @p PORT_SWITCHED_REGIONS_NUMBER regions range.
 106:./lib/chibios/os/common/ports/ARMCMx/chcore_v7m.h ****  */
 107:./lib/chibios/os/common/ports/ARMCMx/chcore_v7m.h **** #if !defined(PORT_USE_GUARD_MPU_REGION) || defined(__DOXYGEN__)
 108:./lib/chibios/os/common/ports/ARMCMx/chcore_v7m.h **** #define PORT_USE_GUARD_MPU_REGION       MPU_REGION_7
 109:./lib/chibios/os/common/ports/ARMCMx/chcore_v7m.h **** #endif
 110:./lib/chibios/os/common/ports/ARMCMx/chcore_v7m.h **** 
 111:./lib/chibios/os/common/ports/ARMCMx/chcore_v7m.h **** /**
 112:./lib/chibios/os/common/ports/ARMCMx/chcore_v7m.h ****  * @brief   Stack size for the system idle thread.
 113:./lib/chibios/os/common/ports/ARMCMx/chcore_v7m.h ****  * @details This size depends on the idle thread implementation, usually
 114:./lib/chibios/os/common/ports/ARMCMx/chcore_v7m.h ****  *          the idle thread should take no more space than those reserved
 115:./lib/chibios/os/common/ports/ARMCMx/chcore_v7m.h ****  *          by @p PORT_INT_REQUIRED_STACK.
 116:./lib/chibios/os/common/ports/ARMCMx/chcore_v7m.h ****  * @note    In this port it is set to 16 because the idle thread does have
 117:./lib/chibios/os/common/ports/ARMCMx/chcore_v7m.h ****  *          a stack frame when compiling without optimizations. You may
 118:./lib/chibios/os/common/ports/ARMCMx/chcore_v7m.h ****  *          reduce this value to zero when compiling with optimizations.
 119:./lib/chibios/os/common/ports/ARMCMx/chcore_v7m.h ****  */
 120:./lib/chibios/os/common/ports/ARMCMx/chcore_v7m.h **** #if !defined(PORT_IDLE_THREAD_STACK_SIZE) || defined(__DOXYGEN__)
 121:./lib/chibios/os/common/ports/ARMCMx/chcore_v7m.h **** #define PORT_IDLE_THREAD_STACK_SIZE     16
 122:./lib/chibios/os/common/ports/ARMCMx/chcore_v7m.h **** #endif
 123:./lib/chibios/os/common/ports/ARMCMx/chcore_v7m.h **** 
 124:./lib/chibios/os/common/ports/ARMCMx/chcore_v7m.h **** /**
 125:./lib/chibios/os/common/ports/ARMCMx/chcore_v7m.h ****  * @brief   Per-thread stack overhead for interrupts servicing.
 126:./lib/chibios/os/common/ports/ARMCMx/chcore_v7m.h ****  * @details This constant is used in the calculation of the correct working
 127:./lib/chibios/os/common/ports/ARMCMx/chcore_v7m.h ****  *          area size.
 128:./lib/chibios/os/common/ports/ARMCMx/chcore_v7m.h ****  * @note    In this port this value is conservatively set to 64 because the
 129:./lib/chibios/os/common/ports/ARMCMx/chcore_v7m.h ****  *          function @p chSchDoReschedule() can have a stack frame, especially
 130:./lib/chibios/os/common/ports/ARMCMx/chcore_v7m.h ****  *          with compiler optimizations disabled. The value can be reduced
 131:./lib/chibios/os/common/ports/ARMCMx/chcore_v7m.h ****  *          when compiler optimizations are enabled.
 132:./lib/chibios/os/common/ports/ARMCMx/chcore_v7m.h ****  */
 133:./lib/chibios/os/common/ports/ARMCMx/chcore_v7m.h **** #if !defined(PORT_INT_REQUIRED_STACK) || defined(__DOXYGEN__)
 134:./lib/chibios/os/common/ports/ARMCMx/chcore_v7m.h **** #define PORT_INT_REQUIRED_STACK         64
 135:./lib/chibios/os/common/ports/ARMCMx/chcore_v7m.h **** #endif
 136:./lib/chibios/os/common/ports/ARMCMx/chcore_v7m.h **** 
 137:./lib/chibios/os/common/ports/ARMCMx/chcore_v7m.h **** /**
 138:./lib/chibios/os/common/ports/ARMCMx/chcore_v7m.h ****  * @brief   Enables the use of the WFI instruction in the idle thread loop.
 139:./lib/chibios/os/common/ports/ARMCMx/chcore_v7m.h ****  */
 140:./lib/chibios/os/common/ports/ARMCMx/chcore_v7m.h **** #if !defined(CORTEX_ENABLE_WFI_IDLE)
 141:./lib/chibios/os/common/ports/ARMCMx/chcore_v7m.h **** #define CORTEX_ENABLE_WFI_IDLE          FALSE
 142:./lib/chibios/os/common/ports/ARMCMx/chcore_v7m.h **** #endif
 143:./lib/chibios/os/common/ports/ARMCMx/chcore_v7m.h **** 
 144:./lib/chibios/os/common/ports/ARMCMx/chcore_v7m.h **** /**
 145:./lib/chibios/os/common/ports/ARMCMx/chcore_v7m.h ****  * @brief   FPU support in context switch.
 146:./lib/chibios/os/common/ports/ARMCMx/chcore_v7m.h ****  * @details Activating this option activates the FPU support in the kernel.
 147:./lib/chibios/os/common/ports/ARMCMx/chcore_v7m.h ****  */
 148:./lib/chibios/os/common/ports/ARMCMx/chcore_v7m.h **** #if !defined(CORTEX_USE_FPU)
 149:./lib/chibios/os/common/ports/ARMCMx/chcore_v7m.h **** #define CORTEX_USE_FPU                  CORTEX_HAS_FPU
 150:./lib/chibios/os/common/ports/ARMCMx/chcore_v7m.h **** #elif (CORTEX_USE_FPU == TRUE) && (CORTEX_HAS_FPU == FALSE)
 151:./lib/chibios/os/common/ports/ARMCMx/chcore_v7m.h **** /* This setting requires an FPU presence check in case it is externally
 152:./lib/chibios/os/common/ports/ARMCMx/chcore_v7m.h ****    redefined.*/
 153:./lib/chibios/os/common/ports/ARMCMx/chcore_v7m.h **** #error "the selected core does not have an FPU"
 154:./lib/chibios/os/common/ports/ARMCMx/chcore_v7m.h **** #endif
 155:./lib/chibios/os/common/ports/ARMCMx/chcore_v7m.h **** 
 156:./lib/chibios/os/common/ports/ARMCMx/chcore_v7m.h **** /**
 157:./lib/chibios/os/common/ports/ARMCMx/chcore_v7m.h ****  * @brief   Simplified priority handling flag.
 158:./lib/chibios/os/common/ports/ARMCMx/chcore_v7m.h ****  * @details Activating this option makes the Kernel work in compact mode.
 159:./lib/chibios/os/common/ports/ARMCMx/chcore_v7m.h ****  *          In compact mode interrupts are disabled globally instead of
 160:./lib/chibios/os/common/ports/ARMCMx/chcore_v7m.h ****  *          raising the priority mask to some intermediate level.
 161:./lib/chibios/os/common/ports/ARMCMx/chcore_v7m.h ****  */
 162:./lib/chibios/os/common/ports/ARMCMx/chcore_v7m.h **** #if !defined(CORTEX_SIMPLIFIED_PRIORITY)
 163:./lib/chibios/os/common/ports/ARMCMx/chcore_v7m.h **** #define CORTEX_SIMPLIFIED_PRIORITY      FALSE
 164:./lib/chibios/os/common/ports/ARMCMx/chcore_v7m.h **** #endif
 165:./lib/chibios/os/common/ports/ARMCMx/chcore_v7m.h **** 
 166:./lib/chibios/os/common/ports/ARMCMx/chcore_v7m.h **** /**
 167:./lib/chibios/os/common/ports/ARMCMx/chcore_v7m.h ****  * @brief   SVCALL handler priority.
 168:./lib/chibios/os/common/ports/ARMCMx/chcore_v7m.h ****  * @note    The default SVCALL handler priority is defaulted to
 169:./lib/chibios/os/common/ports/ARMCMx/chcore_v7m.h ****  *          @p CORTEX_MAXIMUM_PRIORITY+1, this reserves the
 170:./lib/chibios/os/common/ports/ARMCMx/chcore_v7m.h ****  *          @p CORTEX_MAXIMUM_PRIORITY priority level as fast interrupts
 171:./lib/chibios/os/common/ports/ARMCMx/chcore_v7m.h ****  *          priority level.
 172:./lib/chibios/os/common/ports/ARMCMx/chcore_v7m.h ****  */
 173:./lib/chibios/os/common/ports/ARMCMx/chcore_v7m.h **** #if !defined(CORTEX_PRIORITY_SVCALL)
 174:./lib/chibios/os/common/ports/ARMCMx/chcore_v7m.h **** #define CORTEX_PRIORITY_SVCALL          (CORTEX_MAXIMUM_PRIORITY + 1U)
 175:./lib/chibios/os/common/ports/ARMCMx/chcore_v7m.h **** #elif !PORT_IRQ_IS_VALID_PRIORITY(CORTEX_PRIORITY_SVCALL)
 176:./lib/chibios/os/common/ports/ARMCMx/chcore_v7m.h **** /* If it is externally redefined then better perform a validity check on it.*/
 177:./lib/chibios/os/common/ports/ARMCMx/chcore_v7m.h **** #error "invalid priority level specified for CORTEX_PRIORITY_SVCALL"
 178:./lib/chibios/os/common/ports/ARMCMx/chcore_v7m.h **** #endif
 179:./lib/chibios/os/common/ports/ARMCMx/chcore_v7m.h **** 
 180:./lib/chibios/os/common/ports/ARMCMx/chcore_v7m.h **** /**
 181:./lib/chibios/os/common/ports/ARMCMx/chcore_v7m.h ****  * @brief   NVIC PRIGROUP initialization expression.
 182:./lib/chibios/os/common/ports/ARMCMx/chcore_v7m.h ****  * @details The default assigns all available priority bits as preemption
 183:./lib/chibios/os/common/ports/ARMCMx/chcore_v7m.h ****  *          priority with no sub-priority.
 184:./lib/chibios/os/common/ports/ARMCMx/chcore_v7m.h ****  */
 185:./lib/chibios/os/common/ports/ARMCMx/chcore_v7m.h **** #if !defined(CORTEX_PRIGROUP_INIT) || defined(__DOXYGEN__)
 186:./lib/chibios/os/common/ports/ARMCMx/chcore_v7m.h **** #define CORTEX_PRIGROUP_INIT            (7 - CORTEX_PRIORITY_BITS)
 187:./lib/chibios/os/common/ports/ARMCMx/chcore_v7m.h **** #endif
 188:./lib/chibios/os/common/ports/ARMCMx/chcore_v7m.h **** 
 189:./lib/chibios/os/common/ports/ARMCMx/chcore_v7m.h **** /*===========================================================================*/
 190:./lib/chibios/os/common/ports/ARMCMx/chcore_v7m.h **** /* Derived constants and error checks.                                       */
 191:./lib/chibios/os/common/ports/ARMCMx/chcore_v7m.h **** /*===========================================================================*/
 192:./lib/chibios/os/common/ports/ARMCMx/chcore_v7m.h **** 
 193:./lib/chibios/os/common/ports/ARMCMx/chcore_v7m.h **** #if (PORT_SWITCHED_REGIONS_NUMBER < 0) || (PORT_SWITCHED_REGIONS_NUMBER > 4)
 194:./lib/chibios/os/common/ports/ARMCMx/chcore_v7m.h **** #error "invalid PORT_SWITCHED_REGIONS_NUMBER value"
 195:./lib/chibios/os/common/ports/ARMCMx/chcore_v7m.h **** #endif
 196:./lib/chibios/os/common/ports/ARMCMx/chcore_v7m.h **** 
 197:./lib/chibios/os/common/ports/ARMCMx/chcore_v7m.h **** #if !defined(_FROM_ASM_)
 198:./lib/chibios/os/common/ports/ARMCMx/chcore_v7m.h **** /**
 199:./lib/chibios/os/common/ports/ARMCMx/chcore_v7m.h ****  * @brief   MPU guard page size.
 200:./lib/chibios/os/common/ports/ARMCMx/chcore_v7m.h ****  */
 201:./lib/chibios/os/common/ports/ARMCMx/chcore_v7m.h **** #if (PORT_ENABLE_GUARD_PAGES == TRUE) || defined(__DOXYGEN__)
 202:./lib/chibios/os/common/ports/ARMCMx/chcore_v7m.h ****   #if CH_DBG_ENABLE_STACK_CHECK == FALSE
 203:./lib/chibios/os/common/ports/ARMCMx/chcore_v7m.h ****     #error "PORT_ENABLE_GUARD_PAGES requires CH_DBG_ENABLE_STACK_CHECK"
 204:./lib/chibios/os/common/ports/ARMCMx/chcore_v7m.h ****   #endif
 205:./lib/chibios/os/common/ports/ARMCMx/chcore_v7m.h ****   #if __MPU_PRESENT == 0
 206:./lib/chibios/os/common/ports/ARMCMx/chcore_v7m.h ****     #error "MPU not present in current device"
 207:./lib/chibios/os/common/ports/ARMCMx/chcore_v7m.h ****   #endif
 208:./lib/chibios/os/common/ports/ARMCMx/chcore_v7m.h ****   #define PORT_GUARD_PAGE_SIZE          32U
 209:./lib/chibios/os/common/ports/ARMCMx/chcore_v7m.h **** #else
 210:./lib/chibios/os/common/ports/ARMCMx/chcore_v7m.h ****   #define PORT_GUARD_PAGE_SIZE          0U
 211:./lib/chibios/os/common/ports/ARMCMx/chcore_v7m.h **** #endif
 212:./lib/chibios/os/common/ports/ARMCMx/chcore_v7m.h **** #endif /* !defined(_FROM_ASM_) */
 213:./lib/chibios/os/common/ports/ARMCMx/chcore_v7m.h **** 
 214:./lib/chibios/os/common/ports/ARMCMx/chcore_v7m.h **** /**
 215:./lib/chibios/os/common/ports/ARMCMx/chcore_v7m.h ****  * @name    Architecture and Compiler
 216:./lib/chibios/os/common/ports/ARMCMx/chcore_v7m.h ****  * @{
 217:./lib/chibios/os/common/ports/ARMCMx/chcore_v7m.h ****  */
 218:./lib/chibios/os/common/ports/ARMCMx/chcore_v7m.h **** #if (CORTEX_MODEL == 3) || defined(__DOXYGEN__)
 219:./lib/chibios/os/common/ports/ARMCMx/chcore_v7m.h **** 
 220:./lib/chibios/os/common/ports/ARMCMx/chcore_v7m.h ****   #if !defined(CH_CUSTOMER_LIC_PORT_CM3)
 221:./lib/chibios/os/common/ports/ARMCMx/chcore_v7m.h ****     #error "CH_CUSTOMER_LIC_PORT_CM3 not defined"
 222:./lib/chibios/os/common/ports/ARMCMx/chcore_v7m.h ****   #endif
 223:./lib/chibios/os/common/ports/ARMCMx/chcore_v7m.h **** 
 224:./lib/chibios/os/common/ports/ARMCMx/chcore_v7m.h ****   #if CH_CUSTOMER_LIC_PORT_CM3 == FALSE
 225:./lib/chibios/os/common/ports/ARMCMx/chcore_v7m.h ****     #error "ChibiOS Cortex-M3 port not licensed"
 226:./lib/chibios/os/common/ports/ARMCMx/chcore_v7m.h ****   #endif
 227:./lib/chibios/os/common/ports/ARMCMx/chcore_v7m.h **** 
 228:./lib/chibios/os/common/ports/ARMCMx/chcore_v7m.h **** /**
 229:./lib/chibios/os/common/ports/ARMCMx/chcore_v7m.h ****  * @brief   Macro defining the specific ARM architecture.
 230:./lib/chibios/os/common/ports/ARMCMx/chcore_v7m.h ****  */
 231:./lib/chibios/os/common/ports/ARMCMx/chcore_v7m.h **** #define PORT_ARCHITECTURE_ARM_v7M
 232:./lib/chibios/os/common/ports/ARMCMx/chcore_v7m.h **** 
 233:./lib/chibios/os/common/ports/ARMCMx/chcore_v7m.h **** /**
 234:./lib/chibios/os/common/ports/ARMCMx/chcore_v7m.h ****  * @brief   Name of the implemented architecture.
 235:./lib/chibios/os/common/ports/ARMCMx/chcore_v7m.h ****  */
 236:./lib/chibios/os/common/ports/ARMCMx/chcore_v7m.h **** #define PORT_ARCHITECTURE_NAME          "ARMv7-M"
 237:./lib/chibios/os/common/ports/ARMCMx/chcore_v7m.h **** 
 238:./lib/chibios/os/common/ports/ARMCMx/chcore_v7m.h **** /**
 239:./lib/chibios/os/common/ports/ARMCMx/chcore_v7m.h ****  * @brief   Name of the architecture variant.
 240:./lib/chibios/os/common/ports/ARMCMx/chcore_v7m.h ****  */
 241:./lib/chibios/os/common/ports/ARMCMx/chcore_v7m.h **** #if (PORT_ENABLE_GUARD_PAGES == FALSE) || defined(__DOXYGEN__)
 242:./lib/chibios/os/common/ports/ARMCMx/chcore_v7m.h ****   #define PORT_CORE_VARIANT_NAME        "Cortex-M3"
 243:./lib/chibios/os/common/ports/ARMCMx/chcore_v7m.h **** #else
 244:./lib/chibios/os/common/ports/ARMCMx/chcore_v7m.h ****   #define PORT_CORE_VARIANT_NAME        "Cortex-M3 (MPU)"
 245:./lib/chibios/os/common/ports/ARMCMx/chcore_v7m.h **** #endif
 246:./lib/chibios/os/common/ports/ARMCMx/chcore_v7m.h **** 
 247:./lib/chibios/os/common/ports/ARMCMx/chcore_v7m.h **** #elif (CORTEX_MODEL == 4)
 248:./lib/chibios/os/common/ports/ARMCMx/chcore_v7m.h **** 
 249:./lib/chibios/os/common/ports/ARMCMx/chcore_v7m.h ****   #if !defined(CH_CUSTOMER_LIC_PORT_CM4)
 250:./lib/chibios/os/common/ports/ARMCMx/chcore_v7m.h ****     #error "CH_CUSTOMER_LIC_PORT_CM4 not defined"
 251:./lib/chibios/os/common/ports/ARMCMx/chcore_v7m.h ****   #endif
 252:./lib/chibios/os/common/ports/ARMCMx/chcore_v7m.h **** 
 253:./lib/chibios/os/common/ports/ARMCMx/chcore_v7m.h ****   #if CH_CUSTOMER_LIC_PORT_CM4 == FALSE
 254:./lib/chibios/os/common/ports/ARMCMx/chcore_v7m.h ****   #error "ChibiOS Cortex-M4 port not licensed"
 255:./lib/chibios/os/common/ports/ARMCMx/chcore_v7m.h ****   #endif
 256:./lib/chibios/os/common/ports/ARMCMx/chcore_v7m.h **** 
 257:./lib/chibios/os/common/ports/ARMCMx/chcore_v7m.h ****   #define PORT_ARCHITECTURE_ARM_v7ME
 258:./lib/chibios/os/common/ports/ARMCMx/chcore_v7m.h ****   #define PORT_ARCHITECTURE_NAME        "ARMv7E-M"
 259:./lib/chibios/os/common/ports/ARMCMx/chcore_v7m.h ****   #if CORTEX_USE_FPU
 260:./lib/chibios/os/common/ports/ARMCMx/chcore_v7m.h ****     #if PORT_ENABLE_GUARD_PAGES == FALSE
 261:./lib/chibios/os/common/ports/ARMCMx/chcore_v7m.h ****       #define PORT_CORE_VARIANT_NAME    "Cortex-M4F"
 262:./lib/chibios/os/common/ports/ARMCMx/chcore_v7m.h ****     #else
 263:./lib/chibios/os/common/ports/ARMCMx/chcore_v7m.h ****       #define PORT_CORE_VARIANT_NAME    "Cortex-M4F (MPU)"
 264:./lib/chibios/os/common/ports/ARMCMx/chcore_v7m.h ****     #endif
 265:./lib/chibios/os/common/ports/ARMCMx/chcore_v7m.h ****   #else
 266:./lib/chibios/os/common/ports/ARMCMx/chcore_v7m.h ****     #if PORT_ENABLE_GUARD_PAGES == FALSE
 267:./lib/chibios/os/common/ports/ARMCMx/chcore_v7m.h ****       #define PORT_CORE_VARIANT_NAME    "Cortex-M4"
 268:./lib/chibios/os/common/ports/ARMCMx/chcore_v7m.h ****     #else
 269:./lib/chibios/os/common/ports/ARMCMx/chcore_v7m.h ****       #define PORT_CORE_VARIANT_NAME    "Cortex-M4 (MPU)"
 270:./lib/chibios/os/common/ports/ARMCMx/chcore_v7m.h ****     #endif
 271:./lib/chibios/os/common/ports/ARMCMx/chcore_v7m.h ****   #endif
 272:./lib/chibios/os/common/ports/ARMCMx/chcore_v7m.h **** 
 273:./lib/chibios/os/common/ports/ARMCMx/chcore_v7m.h **** #elif (CORTEX_MODEL == 7)
 274:./lib/chibios/os/common/ports/ARMCMx/chcore_v7m.h **** 
 275:./lib/chibios/os/common/ports/ARMCMx/chcore_v7m.h ****   #if !defined(CH_CUSTOMER_LIC_PORT_CM7)
 276:./lib/chibios/os/common/ports/ARMCMx/chcore_v7m.h ****     #error "CH_CUSTOMER_LIC_PORT_CM7 not defined"
 277:./lib/chibios/os/common/ports/ARMCMx/chcore_v7m.h ****   #endif
 278:./lib/chibios/os/common/ports/ARMCMx/chcore_v7m.h **** 
 279:./lib/chibios/os/common/ports/ARMCMx/chcore_v7m.h ****   #if CH_CUSTOMER_LIC_PORT_CM7 == FALSE
 280:./lib/chibios/os/common/ports/ARMCMx/chcore_v7m.h ****     #error "ChibiOS Cortex-M7 port not licensed"
 281:./lib/chibios/os/common/ports/ARMCMx/chcore_v7m.h ****   #endif
 282:./lib/chibios/os/common/ports/ARMCMx/chcore_v7m.h **** 
 283:./lib/chibios/os/common/ports/ARMCMx/chcore_v7m.h **** #define PORT_ARCHITECTURE_ARM_v7ME
 284:./lib/chibios/os/common/ports/ARMCMx/chcore_v7m.h ****   #define PORT_ARCHITECTURE_NAME        "ARMv7E-M"
 285:./lib/chibios/os/common/ports/ARMCMx/chcore_v7m.h ****   #if CORTEX_USE_FPU
 286:./lib/chibios/os/common/ports/ARMCMx/chcore_v7m.h ****     #if PORT_ENABLE_GUARD_PAGES == FALSE
 287:./lib/chibios/os/common/ports/ARMCMx/chcore_v7m.h ****       #define PORT_CORE_VARIANT_NAME    "Cortex-M7F"
 288:./lib/chibios/os/common/ports/ARMCMx/chcore_v7m.h ****     #else
 289:./lib/chibios/os/common/ports/ARMCMx/chcore_v7m.h ****       #define PORT_CORE_VARIANT_NAME    "Cortex-M7F (MPU)"
 290:./lib/chibios/os/common/ports/ARMCMx/chcore_v7m.h ****     #endif
 291:./lib/chibios/os/common/ports/ARMCMx/chcore_v7m.h ****   #else
 292:./lib/chibios/os/common/ports/ARMCMx/chcore_v7m.h ****     #if PORT_ENABLE_GUARD_PAGES == FALSE
 293:./lib/chibios/os/common/ports/ARMCMx/chcore_v7m.h ****       #define PORT_CORE_VARIANT_NAME    "Cortex-M7"
 294:./lib/chibios/os/common/ports/ARMCMx/chcore_v7m.h ****     #else
 295:./lib/chibios/os/common/ports/ARMCMx/chcore_v7m.h ****       #define PORT_CORE_VARIANT_NAME    "Cortex-M7 (MPU)"
 296:./lib/chibios/os/common/ports/ARMCMx/chcore_v7m.h ****     #endif
 297:./lib/chibios/os/common/ports/ARMCMx/chcore_v7m.h ****   #endif
 298:./lib/chibios/os/common/ports/ARMCMx/chcore_v7m.h **** #endif
 299:./lib/chibios/os/common/ports/ARMCMx/chcore_v7m.h **** 
 300:./lib/chibios/os/common/ports/ARMCMx/chcore_v7m.h **** /**
 301:./lib/chibios/os/common/ports/ARMCMx/chcore_v7m.h ****  * @brief   Port-specific information string.
 302:./lib/chibios/os/common/ports/ARMCMx/chcore_v7m.h ****  */
 303:./lib/chibios/os/common/ports/ARMCMx/chcore_v7m.h **** #if (CORTEX_SIMPLIFIED_PRIORITY == FALSE) || defined(__DOXYGEN__)
 304:./lib/chibios/os/common/ports/ARMCMx/chcore_v7m.h **** #define PORT_INFO                       "Advanced kernel mode"
 305:./lib/chibios/os/common/ports/ARMCMx/chcore_v7m.h **** #else
 306:./lib/chibios/os/common/ports/ARMCMx/chcore_v7m.h **** #define PORT_INFO                       "Compact kernel mode"
 307:./lib/chibios/os/common/ports/ARMCMx/chcore_v7m.h **** #endif
 308:./lib/chibios/os/common/ports/ARMCMx/chcore_v7m.h **** /** @} */
 309:./lib/chibios/os/common/ports/ARMCMx/chcore_v7m.h **** 
 310:./lib/chibios/os/common/ports/ARMCMx/chcore_v7m.h **** #if (CORTEX_SIMPLIFIED_PRIORITY == FALSE) || defined(__DOXYGEN__)
 311:./lib/chibios/os/common/ports/ARMCMx/chcore_v7m.h **** /**
 312:./lib/chibios/os/common/ports/ARMCMx/chcore_v7m.h ****  * @brief   Maximum usable priority for normal ISRs.
 313:./lib/chibios/os/common/ports/ARMCMx/chcore_v7m.h ****  */
 314:./lib/chibios/os/common/ports/ARMCMx/chcore_v7m.h **** #define CORTEX_MAX_KERNEL_PRIORITY      (CORTEX_PRIORITY_SVCALL + 1U)
 315:./lib/chibios/os/common/ports/ARMCMx/chcore_v7m.h **** 
 316:./lib/chibios/os/common/ports/ARMCMx/chcore_v7m.h **** /**
 317:./lib/chibios/os/common/ports/ARMCMx/chcore_v7m.h ****  * @brief   BASEPRI level within kernel lock.
 318:./lib/chibios/os/common/ports/ARMCMx/chcore_v7m.h ****  */
 319:./lib/chibios/os/common/ports/ARMCMx/chcore_v7m.h **** #define CORTEX_BASEPRI_KERNEL                                               \
 320:./lib/chibios/os/common/ports/ARMCMx/chcore_v7m.h ****   CORTEX_PRIO_MASK(CORTEX_MAX_KERNEL_PRIORITY)
 321:./lib/chibios/os/common/ports/ARMCMx/chcore_v7m.h **** #else
 322:./lib/chibios/os/common/ports/ARMCMx/chcore_v7m.h **** 
 323:./lib/chibios/os/common/ports/ARMCMx/chcore_v7m.h **** #define CORTEX_MAX_KERNEL_PRIORITY      0U
 324:./lib/chibios/os/common/ports/ARMCMx/chcore_v7m.h **** #endif
 325:./lib/chibios/os/common/ports/ARMCMx/chcore_v7m.h **** 
 326:./lib/chibios/os/common/ports/ARMCMx/chcore_v7m.h **** /**
 327:./lib/chibios/os/common/ports/ARMCMx/chcore_v7m.h ****  * @brief   PendSV priority level.
 328:./lib/chibios/os/common/ports/ARMCMx/chcore_v7m.h ****  * @note    This priority is enforced to be equal to
 329:./lib/chibios/os/common/ports/ARMCMx/chcore_v7m.h ****  *          @p CORTEX_MAX_KERNEL_PRIORITY, this handler always have the
 330:./lib/chibios/os/common/ports/ARMCMx/chcore_v7m.h ****  *          highest priority that cannot preempt the kernel.
 331:./lib/chibios/os/common/ports/ARMCMx/chcore_v7m.h ****  */
 332:./lib/chibios/os/common/ports/ARMCMx/chcore_v7m.h **** #define CORTEX_PRIORITY_PENDSV          CORTEX_MAX_KERNEL_PRIORITY
 333:./lib/chibios/os/common/ports/ARMCMx/chcore_v7m.h **** 
 334:./lib/chibios/os/common/ports/ARMCMx/chcore_v7m.h **** /*===========================================================================*/
 335:./lib/chibios/os/common/ports/ARMCMx/chcore_v7m.h **** /* Module data structures and types.                                         */
 336:./lib/chibios/os/common/ports/ARMCMx/chcore_v7m.h **** /*===========================================================================*/
 337:./lib/chibios/os/common/ports/ARMCMx/chcore_v7m.h **** 
 338:./lib/chibios/os/common/ports/ARMCMx/chcore_v7m.h **** /* The following code is not processed when the file is included from an
 339:./lib/chibios/os/common/ports/ARMCMx/chcore_v7m.h ****    asm module.*/
 340:./lib/chibios/os/common/ports/ARMCMx/chcore_v7m.h **** #if !defined(_FROM_ASM_)
 341:./lib/chibios/os/common/ports/ARMCMx/chcore_v7m.h **** 
 342:./lib/chibios/os/common/ports/ARMCMx/chcore_v7m.h **** /* The documentation of the following declarations is in chconf.h in order
 343:./lib/chibios/os/common/ports/ARMCMx/chcore_v7m.h ****    to not have duplicated structure names into the documentation.*/
 344:./lib/chibios/os/common/ports/ARMCMx/chcore_v7m.h **** #if !defined(__DOXYGEN__)
 345:./lib/chibios/os/common/ports/ARMCMx/chcore_v7m.h **** struct port_extctx {
 346:./lib/chibios/os/common/ports/ARMCMx/chcore_v7m.h ****   uint32_t      r0;
 347:./lib/chibios/os/common/ports/ARMCMx/chcore_v7m.h ****   uint32_t      r1;
 348:./lib/chibios/os/common/ports/ARMCMx/chcore_v7m.h ****   uint32_t      r2;
 349:./lib/chibios/os/common/ports/ARMCMx/chcore_v7m.h ****   uint32_t      r3;
 350:./lib/chibios/os/common/ports/ARMCMx/chcore_v7m.h ****   uint32_t      r12;
 351:./lib/chibios/os/common/ports/ARMCMx/chcore_v7m.h ****   uint32_t      lr_thd;
 352:./lib/chibios/os/common/ports/ARMCMx/chcore_v7m.h ****   uint32_t      pc;
 353:./lib/chibios/os/common/ports/ARMCMx/chcore_v7m.h ****   uint32_t      xpsr;
 354:./lib/chibios/os/common/ports/ARMCMx/chcore_v7m.h **** #if CORTEX_USE_FPU
 355:./lib/chibios/os/common/ports/ARMCMx/chcore_v7m.h ****   uint32_t      s0;
 356:./lib/chibios/os/common/ports/ARMCMx/chcore_v7m.h ****   uint32_t      s1;
 357:./lib/chibios/os/common/ports/ARMCMx/chcore_v7m.h ****   uint32_t      s2;
 358:./lib/chibios/os/common/ports/ARMCMx/chcore_v7m.h ****   uint32_t      s3;
 359:./lib/chibios/os/common/ports/ARMCMx/chcore_v7m.h ****   uint32_t      s4;
 360:./lib/chibios/os/common/ports/ARMCMx/chcore_v7m.h ****   uint32_t      s5;
 361:./lib/chibios/os/common/ports/ARMCMx/chcore_v7m.h ****   uint32_t      s6;
 362:./lib/chibios/os/common/ports/ARMCMx/chcore_v7m.h ****   uint32_t      s7;
 363:./lib/chibios/os/common/ports/ARMCMx/chcore_v7m.h ****   uint32_t      s8;
 364:./lib/chibios/os/common/ports/ARMCMx/chcore_v7m.h ****   uint32_t      s9;
 365:./lib/chibios/os/common/ports/ARMCMx/chcore_v7m.h ****   uint32_t      s10;
 366:./lib/chibios/os/common/ports/ARMCMx/chcore_v7m.h ****   uint32_t      s11;
 367:./lib/chibios/os/common/ports/ARMCMx/chcore_v7m.h ****   uint32_t      s12;
 368:./lib/chibios/os/common/ports/ARMCMx/chcore_v7m.h ****   uint32_t      s13;
 369:./lib/chibios/os/common/ports/ARMCMx/chcore_v7m.h ****   uint32_t      s14;
 370:./lib/chibios/os/common/ports/ARMCMx/chcore_v7m.h ****   uint32_t      s15;
 371:./lib/chibios/os/common/ports/ARMCMx/chcore_v7m.h ****   uint32_t      fpscr;
 372:./lib/chibios/os/common/ports/ARMCMx/chcore_v7m.h ****   uint32_t      reserved;
 373:./lib/chibios/os/common/ports/ARMCMx/chcore_v7m.h **** #endif /* CORTEX_USE_FPU */
 374:./lib/chibios/os/common/ports/ARMCMx/chcore_v7m.h **** };
 375:./lib/chibios/os/common/ports/ARMCMx/chcore_v7m.h **** 
 376:./lib/chibios/os/common/ports/ARMCMx/chcore_v7m.h **** #if (PORT_USE_SYSCALL == TRUE) || defined(__DOXYGEN__)
 377:./lib/chibios/os/common/ports/ARMCMx/chcore_v7m.h **** /**
 378:./lib/chibios/os/common/ports/ARMCMx/chcore_v7m.h ****  * @brief   Link context structure.
 379:./lib/chibios/os/common/ports/ARMCMx/chcore_v7m.h ****  * @details This structure is used when there is the need to save extra
 380:./lib/chibios/os/common/ports/ARMCMx/chcore_v7m.h ****  *          context information that is not part of the registers stacked
 381:./lib/chibios/os/common/ports/ARMCMx/chcore_v7m.h ****  *          in HW.
 382:./lib/chibios/os/common/ports/ARMCMx/chcore_v7m.h ****  */
 383:./lib/chibios/os/common/ports/ARMCMx/chcore_v7m.h **** struct port_linkctx {
 384:./lib/chibios/os/common/ports/ARMCMx/chcore_v7m.h ****   uint32_t              control;
 385:./lib/chibios/os/common/ports/ARMCMx/chcore_v7m.h ****   struct port_extctx    *ectxp;
 386:./lib/chibios/os/common/ports/ARMCMx/chcore_v7m.h **** };
 387:./lib/chibios/os/common/ports/ARMCMx/chcore_v7m.h **** #endif
 388:./lib/chibios/os/common/ports/ARMCMx/chcore_v7m.h **** 
 389:./lib/chibios/os/common/ports/ARMCMx/chcore_v7m.h **** struct port_intctx {
 390:./lib/chibios/os/common/ports/ARMCMx/chcore_v7m.h **** #if (PORT_SWITCHED_REGIONS_NUMBER > 0) || defined(__DOXYGEN__)
 391:./lib/chibios/os/common/ports/ARMCMx/chcore_v7m.h ****   struct {
 392:./lib/chibios/os/common/ports/ARMCMx/chcore_v7m.h ****     uint32_t    rbar;
 393:./lib/chibios/os/common/ports/ARMCMx/chcore_v7m.h ****     uint32_t    rasr;
 394:./lib/chibios/os/common/ports/ARMCMx/chcore_v7m.h ****   } regions[PORT_SWITCHED_REGIONS_NUMBER];
 395:./lib/chibios/os/common/ports/ARMCMx/chcore_v7m.h **** #endif
 396:./lib/chibios/os/common/ports/ARMCMx/chcore_v7m.h **** #if CORTEX_USE_FPU
 397:./lib/chibios/os/common/ports/ARMCMx/chcore_v7m.h ****   uint32_t      s16;
 398:./lib/chibios/os/common/ports/ARMCMx/chcore_v7m.h ****   uint32_t      s17;
 399:./lib/chibios/os/common/ports/ARMCMx/chcore_v7m.h ****   uint32_t      s18;
 400:./lib/chibios/os/common/ports/ARMCMx/chcore_v7m.h ****   uint32_t      s19;
 401:./lib/chibios/os/common/ports/ARMCMx/chcore_v7m.h ****   uint32_t      s20;
 402:./lib/chibios/os/common/ports/ARMCMx/chcore_v7m.h ****   uint32_t      s21;
 403:./lib/chibios/os/common/ports/ARMCMx/chcore_v7m.h ****   uint32_t      s22;
 404:./lib/chibios/os/common/ports/ARMCMx/chcore_v7m.h ****   uint32_t      s23;
 405:./lib/chibios/os/common/ports/ARMCMx/chcore_v7m.h ****   uint32_t      s24;
 406:./lib/chibios/os/common/ports/ARMCMx/chcore_v7m.h ****   uint32_t      s25;
 407:./lib/chibios/os/common/ports/ARMCMx/chcore_v7m.h ****   uint32_t      s26;
 408:./lib/chibios/os/common/ports/ARMCMx/chcore_v7m.h ****   uint32_t      s27;
 409:./lib/chibios/os/common/ports/ARMCMx/chcore_v7m.h ****   uint32_t      s28;
 410:./lib/chibios/os/common/ports/ARMCMx/chcore_v7m.h ****   uint32_t      s29;
 411:./lib/chibios/os/common/ports/ARMCMx/chcore_v7m.h ****   uint32_t      s30;
 412:./lib/chibios/os/common/ports/ARMCMx/chcore_v7m.h ****   uint32_t      s31;
 413:./lib/chibios/os/common/ports/ARMCMx/chcore_v7m.h **** #endif /* CORTEX_USE_FPU */
 414:./lib/chibios/os/common/ports/ARMCMx/chcore_v7m.h ****   uint32_t      r4;
 415:./lib/chibios/os/common/ports/ARMCMx/chcore_v7m.h ****   uint32_t      r5;
 416:./lib/chibios/os/common/ports/ARMCMx/chcore_v7m.h ****   uint32_t      r6;
 417:./lib/chibios/os/common/ports/ARMCMx/chcore_v7m.h ****   uint32_t      r7;
 418:./lib/chibios/os/common/ports/ARMCMx/chcore_v7m.h ****   uint32_t      r8;
 419:./lib/chibios/os/common/ports/ARMCMx/chcore_v7m.h ****   uint32_t      r9;
 420:./lib/chibios/os/common/ports/ARMCMx/chcore_v7m.h ****   uint32_t      r10;
 421:./lib/chibios/os/common/ports/ARMCMx/chcore_v7m.h ****   uint32_t      r11;
 422:./lib/chibios/os/common/ports/ARMCMx/chcore_v7m.h ****   uint32_t      lr;
 423:./lib/chibios/os/common/ports/ARMCMx/chcore_v7m.h **** };
 424:./lib/chibios/os/common/ports/ARMCMx/chcore_v7m.h **** 
 425:./lib/chibios/os/common/ports/ARMCMx/chcore_v7m.h **** struct port_context {
 426:./lib/chibios/os/common/ports/ARMCMx/chcore_v7m.h ****   struct port_intctx    *sp;
 427:./lib/chibios/os/common/ports/ARMCMx/chcore_v7m.h **** #if (PORT_USE_SYSCALL == TRUE) || defined(__DOXYGEN__)
 428:./lib/chibios/os/common/ports/ARMCMx/chcore_v7m.h ****   struct {
 429:./lib/chibios/os/common/ports/ARMCMx/chcore_v7m.h ****     uint32_t            psp;
 430:./lib/chibios/os/common/ports/ARMCMx/chcore_v7m.h ****     const void          *p;
 431:./lib/chibios/os/common/ports/ARMCMx/chcore_v7m.h ****   } syscall;
 432:./lib/chibios/os/common/ports/ARMCMx/chcore_v7m.h **** #endif
 433:./lib/chibios/os/common/ports/ARMCMx/chcore_v7m.h **** };
 434:./lib/chibios/os/common/ports/ARMCMx/chcore_v7m.h **** #endif /* !defined(__DOXYGEN__) */
 435:./lib/chibios/os/common/ports/ARMCMx/chcore_v7m.h **** 
 436:./lib/chibios/os/common/ports/ARMCMx/chcore_v7m.h **** /*===========================================================================*/
 437:./lib/chibios/os/common/ports/ARMCMx/chcore_v7m.h **** /* Module macros.                                                            */
 438:./lib/chibios/os/common/ports/ARMCMx/chcore_v7m.h **** /*===========================================================================*/
 439:./lib/chibios/os/common/ports/ARMCMx/chcore_v7m.h **** 
 440:./lib/chibios/os/common/ports/ARMCMx/chcore_v7m.h **** /* By default threads have no syscall context information.*/
 441:./lib/chibios/os/common/ports/ARMCMx/chcore_v7m.h **** #if (PORT_USE_SYSCALL == TRUE) || defined(__DOXYGEN__)
 442:./lib/chibios/os/common/ports/ARMCMx/chcore_v7m.h **** #define __PORT_SETUP_CONTEXT_SYSCALL(tp, wtop)                              \
 443:./lib/chibios/os/common/ports/ARMCMx/chcore_v7m.h ****   (tp)->ctx.syscall.psp = (uint32_t)(wtop);                                 \
 444:./lib/chibios/os/common/ports/ARMCMx/chcore_v7m.h ****   (tp)->ctx.syscall.p   = NULL;
 445:./lib/chibios/os/common/ports/ARMCMx/chcore_v7m.h **** #else
 446:./lib/chibios/os/common/ports/ARMCMx/chcore_v7m.h **** #define __PORT_SETUP_CONTEXT_SYSCALL(tp, wtop)
 447:./lib/chibios/os/common/ports/ARMCMx/chcore_v7m.h **** #endif
 448:./lib/chibios/os/common/ports/ARMCMx/chcore_v7m.h **** 
 449:./lib/chibios/os/common/ports/ARMCMx/chcore_v7m.h **** /* By default threads have all regions disabled.*/
 450:./lib/chibios/os/common/ports/ARMCMx/chcore_v7m.h **** #if (PORT_SWITCHED_REGIONS_NUMBER == 0) || defined(__DOXYGEN__)
 451:./lib/chibios/os/common/ports/ARMCMx/chcore_v7m.h **** #define __PORT_SETUP_CONTEXT_MPU(tp)
 452:./lib/chibios/os/common/ports/ARMCMx/chcore_v7m.h **** #elif (PORT_SWITCHED_REGIONS_NUMBER == 1) || defined(__DOXYGEN__)
 453:./lib/chibios/os/common/ports/ARMCMx/chcore_v7m.h **** #define __PORT_SETUP_CONTEXT_MPU(tp)                                        \
 454:./lib/chibios/os/common/ports/ARMCMx/chcore_v7m.h ****   (tp)->ctx.sp->regions[0].rbar  = 0U;                                      \
 455:./lib/chibios/os/common/ports/ARMCMx/chcore_v7m.h ****   (tp)->ctx.sp->regions[0].rasr  = 0U
 456:./lib/chibios/os/common/ports/ARMCMx/chcore_v7m.h **** #elif (PORT_SWITCHED_REGIONS_NUMBER == 2) || defined(__DOXYGEN__)
 457:./lib/chibios/os/common/ports/ARMCMx/chcore_v7m.h **** #define __PORT_SETUP_CONTEXT_MPU(tp)                                        \
 458:./lib/chibios/os/common/ports/ARMCMx/chcore_v7m.h ****   (tp)->ctx.sp->regions[0].rbar  = 0U;                                      \
 459:./lib/chibios/os/common/ports/ARMCMx/chcore_v7m.h ****   (tp)->ctx.sp->regions[0].rasr  = 0U;                                      \
 460:./lib/chibios/os/common/ports/ARMCMx/chcore_v7m.h ****   (tp)->ctx.sp->regions[1].rbar  = 0U;                                      \
 461:./lib/chibios/os/common/ports/ARMCMx/chcore_v7m.h ****   (tp)->ctx.sp->regions[1].rasr  = 0U
 462:./lib/chibios/os/common/ports/ARMCMx/chcore_v7m.h **** #elif (PORT_SWITCHED_REGIONS_NUMBER == 3) || defined(__DOXYGEN__)
 463:./lib/chibios/os/common/ports/ARMCMx/chcore_v7m.h **** #define __PORT_SETUP_CONTEXT_MPU(tp)                                        \
 464:./lib/chibios/os/common/ports/ARMCMx/chcore_v7m.h ****   (tp)->ctx.sp->regions[0].rbar  = 0U;                                      \
 465:./lib/chibios/os/common/ports/ARMCMx/chcore_v7m.h ****   (tp)->ctx.sp->regions[0].rasr  = 0U;                                      \
 466:./lib/chibios/os/common/ports/ARMCMx/chcore_v7m.h ****   (tp)->ctx.sp->regions[1].rbar  = 0U;                                      \
 467:./lib/chibios/os/common/ports/ARMCMx/chcore_v7m.h ****   (tp)->ctx.sp->regions[1].rasr  = 0U;                                      \
 468:./lib/chibios/os/common/ports/ARMCMx/chcore_v7m.h ****   (tp)->ctx.sp->regions[2].rbar  = 0U;                                      \
 469:./lib/chibios/os/common/ports/ARMCMx/chcore_v7m.h ****   (tp)->ctx.sp->regions[2].rasr  = 0U
 470:./lib/chibios/os/common/ports/ARMCMx/chcore_v7m.h **** #elif (PORT_SWITCHED_REGIONS_NUMBER == 4) || defined(__DOXYGEN__)
 471:./lib/chibios/os/common/ports/ARMCMx/chcore_v7m.h **** #define __PORT_SETUP_CONTEXT_MPU(tp)                                        \
 472:./lib/chibios/os/common/ports/ARMCMx/chcore_v7m.h ****   (tp)->ctx.sp->regions[0].rbar  = 0U;                                      \
 473:./lib/chibios/os/common/ports/ARMCMx/chcore_v7m.h ****   (tp)->ctx.sp->regions[0].rasr  = 0U;                                      \
 474:./lib/chibios/os/common/ports/ARMCMx/chcore_v7m.h ****   (tp)->ctx.sp->regions[1].rbar  = 0U;                                      \
 475:./lib/chibios/os/common/ports/ARMCMx/chcore_v7m.h ****   (tp)->ctx.sp->regions[1].rasr  = 0U;                                      \
 476:./lib/chibios/os/common/ports/ARMCMx/chcore_v7m.h ****   (tp)->ctx.sp->regions[2].rbar  = 0U;                                      \
 477:./lib/chibios/os/common/ports/ARMCMx/chcore_v7m.h ****   (tp)->ctx.sp->regions[2].rasr  = 0U;                                      \
 478:./lib/chibios/os/common/ports/ARMCMx/chcore_v7m.h ****   (tp)->ctx.sp->regions[3].rbar  = 0U;                                      \
 479:./lib/chibios/os/common/ports/ARMCMx/chcore_v7m.h ****   (tp)->ctx.sp->regions[3].rasr  = 0U
 480:./lib/chibios/os/common/ports/ARMCMx/chcore_v7m.h **** #else
 481:./lib/chibios/os/common/ports/ARMCMx/chcore_v7m.h **** #endif
 482:./lib/chibios/os/common/ports/ARMCMx/chcore_v7m.h **** 
 483:./lib/chibios/os/common/ports/ARMCMx/chcore_v7m.h **** /**
 484:./lib/chibios/os/common/ports/ARMCMx/chcore_v7m.h ****  * @brief   Platform dependent part of the @p chThdCreateI() API.
 485:./lib/chibios/os/common/ports/ARMCMx/chcore_v7m.h ****  * @details This code usually setup the context switching frame represented
 486:./lib/chibios/os/common/ports/ARMCMx/chcore_v7m.h ****  *          by an @p port_intctx structure.
 487:./lib/chibios/os/common/ports/ARMCMx/chcore_v7m.h ****  */
 488:./lib/chibios/os/common/ports/ARMCMx/chcore_v7m.h **** #define PORT_SETUP_CONTEXT(tp, wbase, wtop, pf, arg) {                      \
 489:./lib/chibios/os/common/ports/ARMCMx/chcore_v7m.h ****   (tp)->ctx.sp = (struct port_intctx *)((uint8_t *)(wtop) -                 \
 490:./lib/chibios/os/common/ports/ARMCMx/chcore_v7m.h ****                                         sizeof (struct port_intctx));       \
 491:./lib/chibios/os/common/ports/ARMCMx/chcore_v7m.h ****   (tp)->ctx.sp->r4 = (uint32_t)(pf);                                        \
 492:./lib/chibios/os/common/ports/ARMCMx/chcore_v7m.h ****   (tp)->ctx.sp->r5 = (uint32_t)(arg);                                       \
 493:./lib/chibios/os/common/ports/ARMCMx/chcore_v7m.h ****   (tp)->ctx.sp->lr = (uint32_t)_port_thread_start;                          \
 494:./lib/chibios/os/common/ports/ARMCMx/chcore_v7m.h ****   __PORT_SETUP_CONTEXT_MPU(tp);                                             \
 495:./lib/chibios/os/common/ports/ARMCMx/chcore_v7m.h ****   __PORT_SETUP_CONTEXT_SYSCALL(tp, wtop);                                   \
 496:./lib/chibios/os/common/ports/ARMCMx/chcore_v7m.h **** }
 497:./lib/chibios/os/common/ports/ARMCMx/chcore_v7m.h **** 
 498:./lib/chibios/os/common/ports/ARMCMx/chcore_v7m.h **** //  __PORT_SETUP_CONTEXT_MPU(tp)
 499:./lib/chibios/os/common/ports/ARMCMx/chcore_v7m.h **** 
 500:./lib/chibios/os/common/ports/ARMCMx/chcore_v7m.h **** /**
 501:./lib/chibios/os/common/ports/ARMCMx/chcore_v7m.h ****  * @brief   Computes the thread working area global size.
 502:./lib/chibios/os/common/ports/ARMCMx/chcore_v7m.h ****  * @note    There is no need to perform alignments in this macro.
 503:./lib/chibios/os/common/ports/ARMCMx/chcore_v7m.h ****  */
 504:./lib/chibios/os/common/ports/ARMCMx/chcore_v7m.h **** #define PORT_WA_SIZE(n) ((size_t)PORT_GUARD_PAGE_SIZE +                     \
 505:./lib/chibios/os/common/ports/ARMCMx/chcore_v7m.h ****                          sizeof (struct port_intctx) +                      \
 506:./lib/chibios/os/common/ports/ARMCMx/chcore_v7m.h ****                          sizeof (struct port_extctx) +                      \
 507:./lib/chibios/os/common/ports/ARMCMx/chcore_v7m.h ****                          (size_t)(n) +                                      \
 508:./lib/chibios/os/common/ports/ARMCMx/chcore_v7m.h ****                          (size_t)PORT_INT_REQUIRED_STACK)
 509:./lib/chibios/os/common/ports/ARMCMx/chcore_v7m.h **** 
 510:./lib/chibios/os/common/ports/ARMCMx/chcore_v7m.h **** /**
 511:./lib/chibios/os/common/ports/ARMCMx/chcore_v7m.h ****  * @brief   Static working area allocation.
 512:./lib/chibios/os/common/ports/ARMCMx/chcore_v7m.h ****  * @details This macro is used to allocate a static thread working area
 513:./lib/chibios/os/common/ports/ARMCMx/chcore_v7m.h ****  *          aligned as both position and size.
 514:./lib/chibios/os/common/ports/ARMCMx/chcore_v7m.h ****  *
 515:./lib/chibios/os/common/ports/ARMCMx/chcore_v7m.h ****  * @param[in] s         the name to be assigned to the stack array
 516:./lib/chibios/os/common/ports/ARMCMx/chcore_v7m.h ****  * @param[in] n         the stack size to be assigned to the thread
 517:./lib/chibios/os/common/ports/ARMCMx/chcore_v7m.h ****  */
 518:./lib/chibios/os/common/ports/ARMCMx/chcore_v7m.h **** #if (PORT_ENABLE_GUARD_PAGES == FALSE) || defined(__DOXYGEN__)
 519:./lib/chibios/os/common/ports/ARMCMx/chcore_v7m.h **** #define PORT_WORKING_AREA(s, n)                                             \
 520:./lib/chibios/os/common/ports/ARMCMx/chcore_v7m.h ****   stkalign_t s[THD_WORKING_AREA_SIZE(n) / sizeof (stkalign_t)]
 521:./lib/chibios/os/common/ports/ARMCMx/chcore_v7m.h **** #else
 522:./lib/chibios/os/common/ports/ARMCMx/chcore_v7m.h **** #define PORT_WORKING_AREA(s, n)                                             \
 523:./lib/chibios/os/common/ports/ARMCMx/chcore_v7m.h ****   ALIGNED_VAR(32) stkalign_t s[THD_WORKING_AREA_SIZE(n) / sizeof (stkalign_t)]
 524:./lib/chibios/os/common/ports/ARMCMx/chcore_v7m.h **** #endif
 525:./lib/chibios/os/common/ports/ARMCMx/chcore_v7m.h **** 
 526:./lib/chibios/os/common/ports/ARMCMx/chcore_v7m.h **** /**
 527:./lib/chibios/os/common/ports/ARMCMx/chcore_v7m.h ****  * @brief   IRQ prologue code.
 528:./lib/chibios/os/common/ports/ARMCMx/chcore_v7m.h ****  * @details This macro must be inserted at the start of all IRQ handlers
 529:./lib/chibios/os/common/ports/ARMCMx/chcore_v7m.h ****  *          enabled to invoke system APIs.
 530:./lib/chibios/os/common/ports/ARMCMx/chcore_v7m.h ****  */
 531:./lib/chibios/os/common/ports/ARMCMx/chcore_v7m.h **** #define PORT_IRQ_PROLOGUE()
 532:./lib/chibios/os/common/ports/ARMCMx/chcore_v7m.h **** 
 533:./lib/chibios/os/common/ports/ARMCMx/chcore_v7m.h **** /**
 534:./lib/chibios/os/common/ports/ARMCMx/chcore_v7m.h ****  * @brief   IRQ epilogue code.
 535:./lib/chibios/os/common/ports/ARMCMx/chcore_v7m.h ****  * @details This macro must be inserted at the end of all IRQ handlers
 536:./lib/chibios/os/common/ports/ARMCMx/chcore_v7m.h ****  *          enabled to invoke system APIs.
 537:./lib/chibios/os/common/ports/ARMCMx/chcore_v7m.h ****  */
 538:./lib/chibios/os/common/ports/ARMCMx/chcore_v7m.h **** #define PORT_IRQ_EPILOGUE() _port_irq_epilogue()
 539:./lib/chibios/os/common/ports/ARMCMx/chcore_v7m.h **** 
 540:./lib/chibios/os/common/ports/ARMCMx/chcore_v7m.h **** /**
 541:./lib/chibios/os/common/ports/ARMCMx/chcore_v7m.h ****  * @brief   IRQ handler function declaration.
 542:./lib/chibios/os/common/ports/ARMCMx/chcore_v7m.h ****  * @note    @p id can be a function name or a vector number depending on the
 543:./lib/chibios/os/common/ports/ARMCMx/chcore_v7m.h ****  *          port implementation.
 544:./lib/chibios/os/common/ports/ARMCMx/chcore_v7m.h ****  */
 545:./lib/chibios/os/common/ports/ARMCMx/chcore_v7m.h **** #ifdef __cplusplus
 546:./lib/chibios/os/common/ports/ARMCMx/chcore_v7m.h **** #define PORT_IRQ_HANDLER(id) extern "C" void id(void)
 547:./lib/chibios/os/common/ports/ARMCMx/chcore_v7m.h **** #else
 548:./lib/chibios/os/common/ports/ARMCMx/chcore_v7m.h **** #define PORT_IRQ_HANDLER(id) void id(void)
 549:./lib/chibios/os/common/ports/ARMCMx/chcore_v7m.h **** #endif
 550:./lib/chibios/os/common/ports/ARMCMx/chcore_v7m.h **** 
 551:./lib/chibios/os/common/ports/ARMCMx/chcore_v7m.h **** /**
 552:./lib/chibios/os/common/ports/ARMCMx/chcore_v7m.h ****  * @brief   Fast IRQ handler function declaration.
 553:./lib/chibios/os/common/ports/ARMCMx/chcore_v7m.h ****  * @note    @p id can be a function name or a vector number depending on the
 554:./lib/chibios/os/common/ports/ARMCMx/chcore_v7m.h ****  *          port implementation.
 555:./lib/chibios/os/common/ports/ARMCMx/chcore_v7m.h ****  */
 556:./lib/chibios/os/common/ports/ARMCMx/chcore_v7m.h **** #ifdef __cplusplus
 557:./lib/chibios/os/common/ports/ARMCMx/chcore_v7m.h **** #define PORT_FAST_IRQ_HANDLER(id) extern "C" void id(void)
 558:./lib/chibios/os/common/ports/ARMCMx/chcore_v7m.h **** #else
 559:./lib/chibios/os/common/ports/ARMCMx/chcore_v7m.h **** #define PORT_FAST_IRQ_HANDLER(id) void id(void)
 560:./lib/chibios/os/common/ports/ARMCMx/chcore_v7m.h **** #endif
 561:./lib/chibios/os/common/ports/ARMCMx/chcore_v7m.h **** 
 562:./lib/chibios/os/common/ports/ARMCMx/chcore_v7m.h **** /**
 563:./lib/chibios/os/common/ports/ARMCMx/chcore_v7m.h ****  * @brief   Performs a context switch between two threads.
 564:./lib/chibios/os/common/ports/ARMCMx/chcore_v7m.h ****  * @details This is the most critical code in any port, this function
 565:./lib/chibios/os/common/ports/ARMCMx/chcore_v7m.h ****  *          is responsible for the context switch between 2 threads.
 566:./lib/chibios/os/common/ports/ARMCMx/chcore_v7m.h ****  * @note    The implementation of this code affects <b>directly</b> the context
 567:./lib/chibios/os/common/ports/ARMCMx/chcore_v7m.h ****  *          switch performance so optimize here as much as you can.
 568:./lib/chibios/os/common/ports/ARMCMx/chcore_v7m.h ****  *
 569:./lib/chibios/os/common/ports/ARMCMx/chcore_v7m.h ****  * @param[in] ntp       the thread to be switched in
 570:./lib/chibios/os/common/ports/ARMCMx/chcore_v7m.h ****  * @param[in] otp       the thread to be switched out
 571:./lib/chibios/os/common/ports/ARMCMx/chcore_v7m.h ****  */
 572:./lib/chibios/os/common/ports/ARMCMx/chcore_v7m.h **** #if (CH_DBG_ENABLE_STACK_CHECK == FALSE) || defined(__DOXYGEN__)
 573:./lib/chibios/os/common/ports/ARMCMx/chcore_v7m.h **** #define port_switch(ntp, otp) _port_switch(ntp, otp)
 574:./lib/chibios/os/common/ports/ARMCMx/chcore_v7m.h **** #else
 575:./lib/chibios/os/common/ports/ARMCMx/chcore_v7m.h **** #if PORT_ENABLE_GUARD_PAGES == FALSE
 576:./lib/chibios/os/common/ports/ARMCMx/chcore_v7m.h **** #define port_switch(ntp, otp) {                                             \
 577:./lib/chibios/os/common/ports/ARMCMx/chcore_v7m.h ****   struct port_intctx *r13 = (struct port_intctx *)__get_PSP();              \
 578:./lib/chibios/os/common/ports/ARMCMx/chcore_v7m.h ****   if ((stkalign_t *)(r13 - 1) < (otp)->wabase) {                            \
 579:./lib/chibios/os/common/ports/ARMCMx/chcore_v7m.h ****     chSysHalt("stack overflow");                                            \
 580:./lib/chibios/os/common/ports/ARMCMx/chcore_v7m.h ****   }                                                                         \
 581:./lib/chibios/os/common/ports/ARMCMx/chcore_v7m.h ****   _port_switch(ntp, otp);                                                   \
 582:./lib/chibios/os/common/ports/ARMCMx/chcore_v7m.h **** }
 583:./lib/chibios/os/common/ports/ARMCMx/chcore_v7m.h **** #else
 584:./lib/chibios/os/common/ports/ARMCMx/chcore_v7m.h **** #define port_switch(ntp, otp) {                                             \
 585:./lib/chibios/os/common/ports/ARMCMx/chcore_v7m.h ****   _port_switch(ntp, otp);                                                   \
 586:./lib/chibios/os/common/ports/ARMCMx/chcore_v7m.h ****                                                                             \
 587:./lib/chibios/os/common/ports/ARMCMx/chcore_v7m.h ****   /* Setting up the guard page for the switched-in thread.*/                \
 588:./lib/chibios/os/common/ports/ARMCMx/chcore_v7m.h ****   mpuSetRegionAddress(PORT_USE_GUARD_MPU_REGION,                            \
 589:./lib/chibios/os/common/ports/ARMCMx/chcore_v7m.h ****                       chThdGetSelfX()->wabase);                             \
 590:./lib/chibios/os/common/ports/ARMCMx/chcore_v7m.h **** }
 591:./lib/chibios/os/common/ports/ARMCMx/chcore_v7m.h **** #endif
 592:./lib/chibios/os/common/ports/ARMCMx/chcore_v7m.h **** #endif
 593:./lib/chibios/os/common/ports/ARMCMx/chcore_v7m.h **** 
 594:./lib/chibios/os/common/ports/ARMCMx/chcore_v7m.h **** /*===========================================================================*/
 595:./lib/chibios/os/common/ports/ARMCMx/chcore_v7m.h **** /* External declarations.                                                    */
 596:./lib/chibios/os/common/ports/ARMCMx/chcore_v7m.h **** /*===========================================================================*/
 597:./lib/chibios/os/common/ports/ARMCMx/chcore_v7m.h **** 
 598:./lib/chibios/os/common/ports/ARMCMx/chcore_v7m.h **** #ifdef __cplusplus
 599:./lib/chibios/os/common/ports/ARMCMx/chcore_v7m.h **** extern "C" {
 600:./lib/chibios/os/common/ports/ARMCMx/chcore_v7m.h **** #endif
 601:./lib/chibios/os/common/ports/ARMCMx/chcore_v7m.h ****   void port_init(void);
 602:./lib/chibios/os/common/ports/ARMCMx/chcore_v7m.h ****   void _port_irq_epilogue(void);
 603:./lib/chibios/os/common/ports/ARMCMx/chcore_v7m.h ****   void _port_switch(thread_t *ntp, thread_t *otp);
 604:./lib/chibios/os/common/ports/ARMCMx/chcore_v7m.h ****   void _port_thread_start(void);
 605:./lib/chibios/os/common/ports/ARMCMx/chcore_v7m.h ****   void _port_switch_from_isr(void);
 606:./lib/chibios/os/common/ports/ARMCMx/chcore_v7m.h ****   void _port_exit_from_isr(void);
 607:./lib/chibios/os/common/ports/ARMCMx/chcore_v7m.h **** #if PORT_USE_SYSCALL == TRUE
 608:./lib/chibios/os/common/ports/ARMCMx/chcore_v7m.h ****   void port_unprivileged_jump(uint32_t pc, uint32_t psp);
 609:./lib/chibios/os/common/ports/ARMCMx/chcore_v7m.h **** #endif
 610:./lib/chibios/os/common/ports/ARMCMx/chcore_v7m.h **** #ifdef __cplusplus
 611:./lib/chibios/os/common/ports/ARMCMx/chcore_v7m.h **** }
 612:./lib/chibios/os/common/ports/ARMCMx/chcore_v7m.h **** #endif
 613:./lib/chibios/os/common/ports/ARMCMx/chcore_v7m.h **** 
 614:./lib/chibios/os/common/ports/ARMCMx/chcore_v7m.h **** /*===========================================================================*/
 615:./lib/chibios/os/common/ports/ARMCMx/chcore_v7m.h **** /* Module inline functions.                                                  */
 616:./lib/chibios/os/common/ports/ARMCMx/chcore_v7m.h **** /*===========================================================================*/
 617:./lib/chibios/os/common/ports/ARMCMx/chcore_v7m.h **** 
 618:./lib/chibios/os/common/ports/ARMCMx/chcore_v7m.h **** /**
 619:./lib/chibios/os/common/ports/ARMCMx/chcore_v7m.h ****  * @brief   Returns a word encoding the current interrupts status.
 620:./lib/chibios/os/common/ports/ARMCMx/chcore_v7m.h ****  *
 621:./lib/chibios/os/common/ports/ARMCMx/chcore_v7m.h ****  * @return              The interrupts status.
 622:./lib/chibios/os/common/ports/ARMCMx/chcore_v7m.h ****  */
 623:./lib/chibios/os/common/ports/ARMCMx/chcore_v7m.h **** __STATIC_FORCEINLINE syssts_t port_get_irq_status(void) {
 624:./lib/chibios/os/common/ports/ARMCMx/chcore_v7m.h ****   syssts_t sts;
 625:./lib/chibios/os/common/ports/ARMCMx/chcore_v7m.h **** 
 626:./lib/chibios/os/common/ports/ARMCMx/chcore_v7m.h **** #if CORTEX_SIMPLIFIED_PRIORITY == FALSE
 627:./lib/chibios/os/common/ports/ARMCMx/chcore_v7m.h ****   sts = (syssts_t)__get_BASEPRI();
 628:./lib/chibios/os/common/ports/ARMCMx/chcore_v7m.h **** #else /* CORTEX_SIMPLIFIED_PRIORITY */
 629:./lib/chibios/os/common/ports/ARMCMx/chcore_v7m.h ****   sts = (syssts_t)__get_PRIMASK();
 630:./lib/chibios/os/common/ports/ARMCMx/chcore_v7m.h **** #endif /* CORTEX_SIMPLIFIED_PRIORITY */
 631:./lib/chibios/os/common/ports/ARMCMx/chcore_v7m.h ****   return sts;
 632:./lib/chibios/os/common/ports/ARMCMx/chcore_v7m.h **** }
 633:./lib/chibios/os/common/ports/ARMCMx/chcore_v7m.h **** 
 634:./lib/chibios/os/common/ports/ARMCMx/chcore_v7m.h **** /**
 635:./lib/chibios/os/common/ports/ARMCMx/chcore_v7m.h ****  * @brief   Checks the interrupt status.
 636:./lib/chibios/os/common/ports/ARMCMx/chcore_v7m.h ****  *
 637:./lib/chibios/os/common/ports/ARMCMx/chcore_v7m.h ****  * @param[in] sts       the interrupt status word
 638:./lib/chibios/os/common/ports/ARMCMx/chcore_v7m.h ****  *
 639:./lib/chibios/os/common/ports/ARMCMx/chcore_v7m.h ****  * @return              The interrupt status.
 640:./lib/chibios/os/common/ports/ARMCMx/chcore_v7m.h ****  * @retval false        the word specified a disabled interrupts status.
 641:./lib/chibios/os/common/ports/ARMCMx/chcore_v7m.h ****  * @retval true         the word specified an enabled interrupts status.
 642:./lib/chibios/os/common/ports/ARMCMx/chcore_v7m.h ****  */
 643:./lib/chibios/os/common/ports/ARMCMx/chcore_v7m.h **** __STATIC_FORCEINLINE bool port_irq_enabled(syssts_t sts) {
 644:./lib/chibios/os/common/ports/ARMCMx/chcore_v7m.h **** 
 645:./lib/chibios/os/common/ports/ARMCMx/chcore_v7m.h **** #if CORTEX_SIMPLIFIED_PRIORITY == FALSE
 646:./lib/chibios/os/common/ports/ARMCMx/chcore_v7m.h ****   return sts == (syssts_t)CORTEX_BASEPRI_DISABLED;
 647:./lib/chibios/os/common/ports/ARMCMx/chcore_v7m.h **** #else /* CORTEX_SIMPLIFIED_PRIORITY */
 648:./lib/chibios/os/common/ports/ARMCMx/chcore_v7m.h ****   return (sts & (syssts_t)1) == (syssts_t)0;
 649:./lib/chibios/os/common/ports/ARMCMx/chcore_v7m.h **** #endif /* CORTEX_SIMPLIFIED_PRIORITY */
 650:./lib/chibios/os/common/ports/ARMCMx/chcore_v7m.h **** }
 651:./lib/chibios/os/common/ports/ARMCMx/chcore_v7m.h **** 
 652:./lib/chibios/os/common/ports/ARMCMx/chcore_v7m.h **** /**
 653:./lib/chibios/os/common/ports/ARMCMx/chcore_v7m.h ****  * @brief   Determines the current execution context.
 654:./lib/chibios/os/common/ports/ARMCMx/chcore_v7m.h ****  *
 655:./lib/chibios/os/common/ports/ARMCMx/chcore_v7m.h ****  * @return              The execution context.
 656:./lib/chibios/os/common/ports/ARMCMx/chcore_v7m.h ****  * @retval false        not running in ISR mode.
 657:./lib/chibios/os/common/ports/ARMCMx/chcore_v7m.h ****  * @retval true         running in ISR mode.
 658:./lib/chibios/os/common/ports/ARMCMx/chcore_v7m.h ****  */
 659:./lib/chibios/os/common/ports/ARMCMx/chcore_v7m.h **** __STATIC_FORCEINLINE bool port_is_isr_context(void) {
 660:./lib/chibios/os/common/ports/ARMCMx/chcore_v7m.h **** 
 661:./lib/chibios/os/common/ports/ARMCMx/chcore_v7m.h ****   return (bool)((__get_IPSR() & 0x1FFU) != 0U);
 662:./lib/chibios/os/common/ports/ARMCMx/chcore_v7m.h **** }
 663:./lib/chibios/os/common/ports/ARMCMx/chcore_v7m.h **** 
 664:./lib/chibios/os/common/ports/ARMCMx/chcore_v7m.h **** /**
 665:./lib/chibios/os/common/ports/ARMCMx/chcore_v7m.h ****  * @brief   Kernel-lock action.
 666:./lib/chibios/os/common/ports/ARMCMx/chcore_v7m.h ****  * @details In this port this function raises the base priority to kernel
 667:./lib/chibios/os/common/ports/ARMCMx/chcore_v7m.h ****  *          level.
 668:./lib/chibios/os/common/ports/ARMCMx/chcore_v7m.h ****  */
 669:./lib/chibios/os/common/ports/ARMCMx/chcore_v7m.h **** __STATIC_FORCEINLINE void port_lock(void) {
 149              		.loc 3 669 27 view .LVU47
 670:./lib/chibios/os/common/ports/ARMCMx/chcore_v7m.h **** 
 671:./lib/chibios/os/common/ports/ARMCMx/chcore_v7m.h **** #if CORTEX_SIMPLIFIED_PRIORITY == FALSE
 672:./lib/chibios/os/common/ports/ARMCMx/chcore_v7m.h **** #if defined(__CM7_REV)
 673:./lib/chibios/os/common/ports/ARMCMx/chcore_v7m.h **** #if __CM7_REV <= 1
 674:./lib/chibios/os/common/ports/ARMCMx/chcore_v7m.h ****   __disable_irq();
 675:./lib/chibios/os/common/ports/ARMCMx/chcore_v7m.h **** #endif
 676:./lib/chibios/os/common/ports/ARMCMx/chcore_v7m.h **** #endif
 677:./lib/chibios/os/common/ports/ARMCMx/chcore_v7m.h ****   __set_BASEPRI(CORTEX_BASEPRI_KERNEL);
 150              		.loc 3 677 3 view .LVU48
 151              	.LVL10:
 152              	.LBB58:
 153              	.LBI58:
 154              		.file 4 "./lib/chibios/os/common/ext/ARM/CMSIS/Core/Include/cmsis_gcc.h"
   1:./lib/chibios/os/common/ext/ARM/CMSIS/Core/Include/cmsis_gcc.h **** /**************************************************************************//**
   2:./lib/chibios/os/common/ext/ARM/CMSIS/Core/Include/cmsis_gcc.h ****  * @file     cmsis_gcc.h
   3:./lib/chibios/os/common/ext/ARM/CMSIS/Core/Include/cmsis_gcc.h ****  * @brief    CMSIS compiler GCC header file
   4:./lib/chibios/os/common/ext/ARM/CMSIS/Core/Include/cmsis_gcc.h ****  * @version  V5.0.4
   5:./lib/chibios/os/common/ext/ARM/CMSIS/Core/Include/cmsis_gcc.h ****  * @date     09. April 2018
   6:./lib/chibios/os/common/ext/ARM/CMSIS/Core/Include/cmsis_gcc.h ****  ******************************************************************************/
   7:./lib/chibios/os/common/ext/ARM/CMSIS/Core/Include/cmsis_gcc.h **** /*
   8:./lib/chibios/os/common/ext/ARM/CMSIS/Core/Include/cmsis_gcc.h ****  * Copyright (c) 2009-2018 Arm Limited. All rights reserved.
   9:./lib/chibios/os/common/ext/ARM/CMSIS/Core/Include/cmsis_gcc.h ****  *
  10:./lib/chibios/os/common/ext/ARM/CMSIS/Core/Include/cmsis_gcc.h ****  * SPDX-License-Identifier: Apache-2.0
  11:./lib/chibios/os/common/ext/ARM/CMSIS/Core/Include/cmsis_gcc.h ****  *
  12:./lib/chibios/os/common/ext/ARM/CMSIS/Core/Include/cmsis_gcc.h ****  * Licensed under the Apache License, Version 2.0 (the License); you may
  13:./lib/chibios/os/common/ext/ARM/CMSIS/Core/Include/cmsis_gcc.h ****  * not use this file except in compliance with the License.
  14:./lib/chibios/os/common/ext/ARM/CMSIS/Core/Include/cmsis_gcc.h ****  * You may obtain a copy of the License at
  15:./lib/chibios/os/common/ext/ARM/CMSIS/Core/Include/cmsis_gcc.h ****  *
  16:./lib/chibios/os/common/ext/ARM/CMSIS/Core/Include/cmsis_gcc.h ****  * www.apache.org/licenses/LICENSE-2.0
  17:./lib/chibios/os/common/ext/ARM/CMSIS/Core/Include/cmsis_gcc.h ****  *
  18:./lib/chibios/os/common/ext/ARM/CMSIS/Core/Include/cmsis_gcc.h ****  * Unless required by applicable law or agreed to in writing, software
  19:./lib/chibios/os/common/ext/ARM/CMSIS/Core/Include/cmsis_gcc.h ****  * distributed under the License is distributed on an AS IS BASIS, WITHOUT
  20:./lib/chibios/os/common/ext/ARM/CMSIS/Core/Include/cmsis_gcc.h ****  * WARRANTIES OR CONDITIONS OF ANY KIND, either express or implied.
  21:./lib/chibios/os/common/ext/ARM/CMSIS/Core/Include/cmsis_gcc.h ****  * See the License for the specific language governing permissions and
  22:./lib/chibios/os/common/ext/ARM/CMSIS/Core/Include/cmsis_gcc.h ****  * limitations under the License.
  23:./lib/chibios/os/common/ext/ARM/CMSIS/Core/Include/cmsis_gcc.h ****  */
  24:./lib/chibios/os/common/ext/ARM/CMSIS/Core/Include/cmsis_gcc.h **** 
  25:./lib/chibios/os/common/ext/ARM/CMSIS/Core/Include/cmsis_gcc.h **** #ifndef __CMSIS_GCC_H
  26:./lib/chibios/os/common/ext/ARM/CMSIS/Core/Include/cmsis_gcc.h **** #define __CMSIS_GCC_H
  27:./lib/chibios/os/common/ext/ARM/CMSIS/Core/Include/cmsis_gcc.h **** 
  28:./lib/chibios/os/common/ext/ARM/CMSIS/Core/Include/cmsis_gcc.h **** /* ignore some GCC warnings */
  29:./lib/chibios/os/common/ext/ARM/CMSIS/Core/Include/cmsis_gcc.h **** #pragma GCC diagnostic push
  30:./lib/chibios/os/common/ext/ARM/CMSIS/Core/Include/cmsis_gcc.h **** #pragma GCC diagnostic ignored "-Wsign-conversion"
  31:./lib/chibios/os/common/ext/ARM/CMSIS/Core/Include/cmsis_gcc.h **** #pragma GCC diagnostic ignored "-Wconversion"
  32:./lib/chibios/os/common/ext/ARM/CMSIS/Core/Include/cmsis_gcc.h **** #pragma GCC diagnostic ignored "-Wunused-parameter"
  33:./lib/chibios/os/common/ext/ARM/CMSIS/Core/Include/cmsis_gcc.h **** 
  34:./lib/chibios/os/common/ext/ARM/CMSIS/Core/Include/cmsis_gcc.h **** /* Fallback for __has_builtin */
  35:./lib/chibios/os/common/ext/ARM/CMSIS/Core/Include/cmsis_gcc.h **** #ifndef __has_builtin
  36:./lib/chibios/os/common/ext/ARM/CMSIS/Core/Include/cmsis_gcc.h ****   #define __has_builtin(x) (0)
  37:./lib/chibios/os/common/ext/ARM/CMSIS/Core/Include/cmsis_gcc.h **** #endif
  38:./lib/chibios/os/common/ext/ARM/CMSIS/Core/Include/cmsis_gcc.h **** 
  39:./lib/chibios/os/common/ext/ARM/CMSIS/Core/Include/cmsis_gcc.h **** /* CMSIS compiler specific defines */
  40:./lib/chibios/os/common/ext/ARM/CMSIS/Core/Include/cmsis_gcc.h **** #ifndef   __ASM
  41:./lib/chibios/os/common/ext/ARM/CMSIS/Core/Include/cmsis_gcc.h ****   #define __ASM                                  __asm
  42:./lib/chibios/os/common/ext/ARM/CMSIS/Core/Include/cmsis_gcc.h **** #endif
  43:./lib/chibios/os/common/ext/ARM/CMSIS/Core/Include/cmsis_gcc.h **** #ifndef   __INLINE
  44:./lib/chibios/os/common/ext/ARM/CMSIS/Core/Include/cmsis_gcc.h ****   #define __INLINE                               inline
  45:./lib/chibios/os/common/ext/ARM/CMSIS/Core/Include/cmsis_gcc.h **** #endif
  46:./lib/chibios/os/common/ext/ARM/CMSIS/Core/Include/cmsis_gcc.h **** #ifndef   __STATIC_INLINE
  47:./lib/chibios/os/common/ext/ARM/CMSIS/Core/Include/cmsis_gcc.h ****   #define __STATIC_INLINE                        static inline
  48:./lib/chibios/os/common/ext/ARM/CMSIS/Core/Include/cmsis_gcc.h **** #endif
  49:./lib/chibios/os/common/ext/ARM/CMSIS/Core/Include/cmsis_gcc.h **** #ifndef   __STATIC_FORCEINLINE                 
  50:./lib/chibios/os/common/ext/ARM/CMSIS/Core/Include/cmsis_gcc.h ****   #define __STATIC_FORCEINLINE                   __attribute__((always_inline)) static inline
  51:./lib/chibios/os/common/ext/ARM/CMSIS/Core/Include/cmsis_gcc.h **** #endif                                           
  52:./lib/chibios/os/common/ext/ARM/CMSIS/Core/Include/cmsis_gcc.h **** #ifndef   __NO_RETURN
  53:./lib/chibios/os/common/ext/ARM/CMSIS/Core/Include/cmsis_gcc.h ****   #define __NO_RETURN                            __attribute__((__noreturn__))
  54:./lib/chibios/os/common/ext/ARM/CMSIS/Core/Include/cmsis_gcc.h **** #endif
  55:./lib/chibios/os/common/ext/ARM/CMSIS/Core/Include/cmsis_gcc.h **** #ifndef   __USED
  56:./lib/chibios/os/common/ext/ARM/CMSIS/Core/Include/cmsis_gcc.h ****   #define __USED                                 __attribute__((used))
  57:./lib/chibios/os/common/ext/ARM/CMSIS/Core/Include/cmsis_gcc.h **** #endif
  58:./lib/chibios/os/common/ext/ARM/CMSIS/Core/Include/cmsis_gcc.h **** #ifndef   __WEAK
  59:./lib/chibios/os/common/ext/ARM/CMSIS/Core/Include/cmsis_gcc.h ****   #define __WEAK                                 __attribute__((weak))
  60:./lib/chibios/os/common/ext/ARM/CMSIS/Core/Include/cmsis_gcc.h **** #endif
  61:./lib/chibios/os/common/ext/ARM/CMSIS/Core/Include/cmsis_gcc.h **** #ifndef   __PACKED
  62:./lib/chibios/os/common/ext/ARM/CMSIS/Core/Include/cmsis_gcc.h ****   #define __PACKED                               __attribute__((packed, aligned(1)))
  63:./lib/chibios/os/common/ext/ARM/CMSIS/Core/Include/cmsis_gcc.h **** #endif
  64:./lib/chibios/os/common/ext/ARM/CMSIS/Core/Include/cmsis_gcc.h **** #ifndef   __PACKED_STRUCT
  65:./lib/chibios/os/common/ext/ARM/CMSIS/Core/Include/cmsis_gcc.h ****   #define __PACKED_STRUCT                        struct __attribute__((packed, aligned(1)))
  66:./lib/chibios/os/common/ext/ARM/CMSIS/Core/Include/cmsis_gcc.h **** #endif
  67:./lib/chibios/os/common/ext/ARM/CMSIS/Core/Include/cmsis_gcc.h **** #ifndef   __PACKED_UNION
  68:./lib/chibios/os/common/ext/ARM/CMSIS/Core/Include/cmsis_gcc.h ****   #define __PACKED_UNION                         union __attribute__((packed, aligned(1)))
  69:./lib/chibios/os/common/ext/ARM/CMSIS/Core/Include/cmsis_gcc.h **** #endif
  70:./lib/chibios/os/common/ext/ARM/CMSIS/Core/Include/cmsis_gcc.h **** #ifndef   __UNALIGNED_UINT32        /* deprecated */
  71:./lib/chibios/os/common/ext/ARM/CMSIS/Core/Include/cmsis_gcc.h ****   #pragma GCC diagnostic push
  72:./lib/chibios/os/common/ext/ARM/CMSIS/Core/Include/cmsis_gcc.h ****   #pragma GCC diagnostic ignored "-Wpacked"
  73:./lib/chibios/os/common/ext/ARM/CMSIS/Core/Include/cmsis_gcc.h ****   #pragma GCC diagnostic ignored "-Wattributes"
  74:./lib/chibios/os/common/ext/ARM/CMSIS/Core/Include/cmsis_gcc.h ****   struct __attribute__((packed)) T_UINT32 { uint32_t v; };
  75:./lib/chibios/os/common/ext/ARM/CMSIS/Core/Include/cmsis_gcc.h ****   #pragma GCC diagnostic pop
  76:./lib/chibios/os/common/ext/ARM/CMSIS/Core/Include/cmsis_gcc.h ****   #define __UNALIGNED_UINT32(x)                  (((struct T_UINT32 *)(x))->v)
  77:./lib/chibios/os/common/ext/ARM/CMSIS/Core/Include/cmsis_gcc.h **** #endif
  78:./lib/chibios/os/common/ext/ARM/CMSIS/Core/Include/cmsis_gcc.h **** #ifndef   __UNALIGNED_UINT16_WRITE
  79:./lib/chibios/os/common/ext/ARM/CMSIS/Core/Include/cmsis_gcc.h ****   #pragma GCC diagnostic push
  80:./lib/chibios/os/common/ext/ARM/CMSIS/Core/Include/cmsis_gcc.h ****   #pragma GCC diagnostic ignored "-Wpacked"
  81:./lib/chibios/os/common/ext/ARM/CMSIS/Core/Include/cmsis_gcc.h ****   #pragma GCC diagnostic ignored "-Wattributes"
  82:./lib/chibios/os/common/ext/ARM/CMSIS/Core/Include/cmsis_gcc.h ****   __PACKED_STRUCT T_UINT16_WRITE { uint16_t v; };
  83:./lib/chibios/os/common/ext/ARM/CMSIS/Core/Include/cmsis_gcc.h ****   #pragma GCC diagnostic pop
  84:./lib/chibios/os/common/ext/ARM/CMSIS/Core/Include/cmsis_gcc.h ****   #define __UNALIGNED_UINT16_WRITE(addr, val)    (void)((((struct T_UINT16_WRITE *)(void *)(addr))-
  85:./lib/chibios/os/common/ext/ARM/CMSIS/Core/Include/cmsis_gcc.h **** #endif
  86:./lib/chibios/os/common/ext/ARM/CMSIS/Core/Include/cmsis_gcc.h **** #ifndef   __UNALIGNED_UINT16_READ
  87:./lib/chibios/os/common/ext/ARM/CMSIS/Core/Include/cmsis_gcc.h ****   #pragma GCC diagnostic push
  88:./lib/chibios/os/common/ext/ARM/CMSIS/Core/Include/cmsis_gcc.h ****   #pragma GCC diagnostic ignored "-Wpacked"
  89:./lib/chibios/os/common/ext/ARM/CMSIS/Core/Include/cmsis_gcc.h ****   #pragma GCC diagnostic ignored "-Wattributes"
  90:./lib/chibios/os/common/ext/ARM/CMSIS/Core/Include/cmsis_gcc.h ****   __PACKED_STRUCT T_UINT16_READ { uint16_t v; };
  91:./lib/chibios/os/common/ext/ARM/CMSIS/Core/Include/cmsis_gcc.h ****   #pragma GCC diagnostic pop
  92:./lib/chibios/os/common/ext/ARM/CMSIS/Core/Include/cmsis_gcc.h ****   #define __UNALIGNED_UINT16_READ(addr)          (((const struct T_UINT16_READ *)(const void *)(add
  93:./lib/chibios/os/common/ext/ARM/CMSIS/Core/Include/cmsis_gcc.h **** #endif
  94:./lib/chibios/os/common/ext/ARM/CMSIS/Core/Include/cmsis_gcc.h **** #ifndef   __UNALIGNED_UINT32_WRITE
  95:./lib/chibios/os/common/ext/ARM/CMSIS/Core/Include/cmsis_gcc.h ****   #pragma GCC diagnostic push
  96:./lib/chibios/os/common/ext/ARM/CMSIS/Core/Include/cmsis_gcc.h ****   #pragma GCC diagnostic ignored "-Wpacked"
  97:./lib/chibios/os/common/ext/ARM/CMSIS/Core/Include/cmsis_gcc.h ****   #pragma GCC diagnostic ignored "-Wattributes"
  98:./lib/chibios/os/common/ext/ARM/CMSIS/Core/Include/cmsis_gcc.h ****   __PACKED_STRUCT T_UINT32_WRITE { uint32_t v; };
  99:./lib/chibios/os/common/ext/ARM/CMSIS/Core/Include/cmsis_gcc.h ****   #pragma GCC diagnostic pop
 100:./lib/chibios/os/common/ext/ARM/CMSIS/Core/Include/cmsis_gcc.h ****   #define __UNALIGNED_UINT32_WRITE(addr, val)    (void)((((struct T_UINT32_WRITE *)(void *)(addr))-
 101:./lib/chibios/os/common/ext/ARM/CMSIS/Core/Include/cmsis_gcc.h **** #endif
 102:./lib/chibios/os/common/ext/ARM/CMSIS/Core/Include/cmsis_gcc.h **** #ifndef   __UNALIGNED_UINT32_READ
 103:./lib/chibios/os/common/ext/ARM/CMSIS/Core/Include/cmsis_gcc.h ****   #pragma GCC diagnostic push
 104:./lib/chibios/os/common/ext/ARM/CMSIS/Core/Include/cmsis_gcc.h ****   #pragma GCC diagnostic ignored "-Wpacked"
 105:./lib/chibios/os/common/ext/ARM/CMSIS/Core/Include/cmsis_gcc.h ****   #pragma GCC diagnostic ignored "-Wattributes"
 106:./lib/chibios/os/common/ext/ARM/CMSIS/Core/Include/cmsis_gcc.h ****   __PACKED_STRUCT T_UINT32_READ { uint32_t v; };
 107:./lib/chibios/os/common/ext/ARM/CMSIS/Core/Include/cmsis_gcc.h ****   #pragma GCC diagnostic pop
 108:./lib/chibios/os/common/ext/ARM/CMSIS/Core/Include/cmsis_gcc.h ****   #define __UNALIGNED_UINT32_READ(addr)          (((const struct T_UINT32_READ *)(const void *)(add
 109:./lib/chibios/os/common/ext/ARM/CMSIS/Core/Include/cmsis_gcc.h **** #endif
 110:./lib/chibios/os/common/ext/ARM/CMSIS/Core/Include/cmsis_gcc.h **** #ifndef   __ALIGNED
 111:./lib/chibios/os/common/ext/ARM/CMSIS/Core/Include/cmsis_gcc.h ****   #define __ALIGNED(x)                           __attribute__((aligned(x)))
 112:./lib/chibios/os/common/ext/ARM/CMSIS/Core/Include/cmsis_gcc.h **** #endif
 113:./lib/chibios/os/common/ext/ARM/CMSIS/Core/Include/cmsis_gcc.h **** #ifndef   __RESTRICT
 114:./lib/chibios/os/common/ext/ARM/CMSIS/Core/Include/cmsis_gcc.h ****   #define __RESTRICT                             __restrict
 115:./lib/chibios/os/common/ext/ARM/CMSIS/Core/Include/cmsis_gcc.h **** #endif
 116:./lib/chibios/os/common/ext/ARM/CMSIS/Core/Include/cmsis_gcc.h **** 
 117:./lib/chibios/os/common/ext/ARM/CMSIS/Core/Include/cmsis_gcc.h **** 
 118:./lib/chibios/os/common/ext/ARM/CMSIS/Core/Include/cmsis_gcc.h **** /* ###########################  Core Function Access  ########################### */
 119:./lib/chibios/os/common/ext/ARM/CMSIS/Core/Include/cmsis_gcc.h **** /** \ingroup  CMSIS_Core_FunctionInterface
 120:./lib/chibios/os/common/ext/ARM/CMSIS/Core/Include/cmsis_gcc.h ****     \defgroup CMSIS_Core_RegAccFunctions CMSIS Core Register Access Functions
 121:./lib/chibios/os/common/ext/ARM/CMSIS/Core/Include/cmsis_gcc.h ****   @{
 122:./lib/chibios/os/common/ext/ARM/CMSIS/Core/Include/cmsis_gcc.h ****  */
 123:./lib/chibios/os/common/ext/ARM/CMSIS/Core/Include/cmsis_gcc.h **** 
 124:./lib/chibios/os/common/ext/ARM/CMSIS/Core/Include/cmsis_gcc.h **** /**
 125:./lib/chibios/os/common/ext/ARM/CMSIS/Core/Include/cmsis_gcc.h ****   \brief   Enable IRQ Interrupts
 126:./lib/chibios/os/common/ext/ARM/CMSIS/Core/Include/cmsis_gcc.h ****   \details Enables IRQ interrupts by clearing the I-bit in the CPSR.
 127:./lib/chibios/os/common/ext/ARM/CMSIS/Core/Include/cmsis_gcc.h ****            Can only be executed in Privileged modes.
 128:./lib/chibios/os/common/ext/ARM/CMSIS/Core/Include/cmsis_gcc.h ****  */
 129:./lib/chibios/os/common/ext/ARM/CMSIS/Core/Include/cmsis_gcc.h **** __STATIC_FORCEINLINE void __enable_irq(void)
 130:./lib/chibios/os/common/ext/ARM/CMSIS/Core/Include/cmsis_gcc.h **** {
 131:./lib/chibios/os/common/ext/ARM/CMSIS/Core/Include/cmsis_gcc.h ****   __ASM volatile ("cpsie i" : : : "memory");
 132:./lib/chibios/os/common/ext/ARM/CMSIS/Core/Include/cmsis_gcc.h **** }
 133:./lib/chibios/os/common/ext/ARM/CMSIS/Core/Include/cmsis_gcc.h **** 
 134:./lib/chibios/os/common/ext/ARM/CMSIS/Core/Include/cmsis_gcc.h **** 
 135:./lib/chibios/os/common/ext/ARM/CMSIS/Core/Include/cmsis_gcc.h **** /**
 136:./lib/chibios/os/common/ext/ARM/CMSIS/Core/Include/cmsis_gcc.h ****   \brief   Disable IRQ Interrupts
 137:./lib/chibios/os/common/ext/ARM/CMSIS/Core/Include/cmsis_gcc.h ****   \details Disables IRQ interrupts by setting the I-bit in the CPSR.
 138:./lib/chibios/os/common/ext/ARM/CMSIS/Core/Include/cmsis_gcc.h ****            Can only be executed in Privileged modes.
 139:./lib/chibios/os/common/ext/ARM/CMSIS/Core/Include/cmsis_gcc.h ****  */
 140:./lib/chibios/os/common/ext/ARM/CMSIS/Core/Include/cmsis_gcc.h **** __STATIC_FORCEINLINE void __disable_irq(void)
 141:./lib/chibios/os/common/ext/ARM/CMSIS/Core/Include/cmsis_gcc.h **** {
 142:./lib/chibios/os/common/ext/ARM/CMSIS/Core/Include/cmsis_gcc.h ****   __ASM volatile ("cpsid i" : : : "memory");
 143:./lib/chibios/os/common/ext/ARM/CMSIS/Core/Include/cmsis_gcc.h **** }
 144:./lib/chibios/os/common/ext/ARM/CMSIS/Core/Include/cmsis_gcc.h **** 
 145:./lib/chibios/os/common/ext/ARM/CMSIS/Core/Include/cmsis_gcc.h **** 
 146:./lib/chibios/os/common/ext/ARM/CMSIS/Core/Include/cmsis_gcc.h **** /**
 147:./lib/chibios/os/common/ext/ARM/CMSIS/Core/Include/cmsis_gcc.h ****   \brief   Get Control Register
 148:./lib/chibios/os/common/ext/ARM/CMSIS/Core/Include/cmsis_gcc.h ****   \details Returns the content of the Control Register.
 149:./lib/chibios/os/common/ext/ARM/CMSIS/Core/Include/cmsis_gcc.h ****   \return               Control Register value
 150:./lib/chibios/os/common/ext/ARM/CMSIS/Core/Include/cmsis_gcc.h ****  */
 151:./lib/chibios/os/common/ext/ARM/CMSIS/Core/Include/cmsis_gcc.h **** __STATIC_FORCEINLINE uint32_t __get_CONTROL(void)
 152:./lib/chibios/os/common/ext/ARM/CMSIS/Core/Include/cmsis_gcc.h **** {
 153:./lib/chibios/os/common/ext/ARM/CMSIS/Core/Include/cmsis_gcc.h ****   uint32_t result;
 154:./lib/chibios/os/common/ext/ARM/CMSIS/Core/Include/cmsis_gcc.h **** 
 155:./lib/chibios/os/common/ext/ARM/CMSIS/Core/Include/cmsis_gcc.h ****   __ASM volatile ("MRS %0, control" : "=r" (result) );
 156:./lib/chibios/os/common/ext/ARM/CMSIS/Core/Include/cmsis_gcc.h ****   return(result);
 157:./lib/chibios/os/common/ext/ARM/CMSIS/Core/Include/cmsis_gcc.h **** }
 158:./lib/chibios/os/common/ext/ARM/CMSIS/Core/Include/cmsis_gcc.h **** 
 159:./lib/chibios/os/common/ext/ARM/CMSIS/Core/Include/cmsis_gcc.h **** 
 160:./lib/chibios/os/common/ext/ARM/CMSIS/Core/Include/cmsis_gcc.h **** #if (defined (__ARM_FEATURE_CMSE ) && (__ARM_FEATURE_CMSE == 3))
 161:./lib/chibios/os/common/ext/ARM/CMSIS/Core/Include/cmsis_gcc.h **** /**
 162:./lib/chibios/os/common/ext/ARM/CMSIS/Core/Include/cmsis_gcc.h ****   \brief   Get Control Register (non-secure)
 163:./lib/chibios/os/common/ext/ARM/CMSIS/Core/Include/cmsis_gcc.h ****   \details Returns the content of the non-secure Control Register when in secure mode.
 164:./lib/chibios/os/common/ext/ARM/CMSIS/Core/Include/cmsis_gcc.h ****   \return               non-secure Control Register value
 165:./lib/chibios/os/common/ext/ARM/CMSIS/Core/Include/cmsis_gcc.h ****  */
 166:./lib/chibios/os/common/ext/ARM/CMSIS/Core/Include/cmsis_gcc.h **** __STATIC_FORCEINLINE uint32_t __TZ_get_CONTROL_NS(void)
 167:./lib/chibios/os/common/ext/ARM/CMSIS/Core/Include/cmsis_gcc.h **** {
 168:./lib/chibios/os/common/ext/ARM/CMSIS/Core/Include/cmsis_gcc.h ****   uint32_t result;
 169:./lib/chibios/os/common/ext/ARM/CMSIS/Core/Include/cmsis_gcc.h **** 
 170:./lib/chibios/os/common/ext/ARM/CMSIS/Core/Include/cmsis_gcc.h ****   __ASM volatile ("MRS %0, control_ns" : "=r" (result) );
 171:./lib/chibios/os/common/ext/ARM/CMSIS/Core/Include/cmsis_gcc.h ****   return(result);
 172:./lib/chibios/os/common/ext/ARM/CMSIS/Core/Include/cmsis_gcc.h **** }
 173:./lib/chibios/os/common/ext/ARM/CMSIS/Core/Include/cmsis_gcc.h **** #endif
 174:./lib/chibios/os/common/ext/ARM/CMSIS/Core/Include/cmsis_gcc.h **** 
 175:./lib/chibios/os/common/ext/ARM/CMSIS/Core/Include/cmsis_gcc.h **** 
 176:./lib/chibios/os/common/ext/ARM/CMSIS/Core/Include/cmsis_gcc.h **** /**
 177:./lib/chibios/os/common/ext/ARM/CMSIS/Core/Include/cmsis_gcc.h ****   \brief   Set Control Register
 178:./lib/chibios/os/common/ext/ARM/CMSIS/Core/Include/cmsis_gcc.h ****   \details Writes the given value to the Control Register.
 179:./lib/chibios/os/common/ext/ARM/CMSIS/Core/Include/cmsis_gcc.h ****   \param [in]    control  Control Register value to set
 180:./lib/chibios/os/common/ext/ARM/CMSIS/Core/Include/cmsis_gcc.h ****  */
 181:./lib/chibios/os/common/ext/ARM/CMSIS/Core/Include/cmsis_gcc.h **** __STATIC_FORCEINLINE void __set_CONTROL(uint32_t control)
 182:./lib/chibios/os/common/ext/ARM/CMSIS/Core/Include/cmsis_gcc.h **** {
 183:./lib/chibios/os/common/ext/ARM/CMSIS/Core/Include/cmsis_gcc.h ****   __ASM volatile ("MSR control, %0" : : "r" (control) : "memory");
 184:./lib/chibios/os/common/ext/ARM/CMSIS/Core/Include/cmsis_gcc.h **** }
 185:./lib/chibios/os/common/ext/ARM/CMSIS/Core/Include/cmsis_gcc.h **** 
 186:./lib/chibios/os/common/ext/ARM/CMSIS/Core/Include/cmsis_gcc.h **** 
 187:./lib/chibios/os/common/ext/ARM/CMSIS/Core/Include/cmsis_gcc.h **** #if (defined (__ARM_FEATURE_CMSE ) && (__ARM_FEATURE_CMSE == 3))
 188:./lib/chibios/os/common/ext/ARM/CMSIS/Core/Include/cmsis_gcc.h **** /**
 189:./lib/chibios/os/common/ext/ARM/CMSIS/Core/Include/cmsis_gcc.h ****   \brief   Set Control Register (non-secure)
 190:./lib/chibios/os/common/ext/ARM/CMSIS/Core/Include/cmsis_gcc.h ****   \details Writes the given value to the non-secure Control Register when in secure state.
 191:./lib/chibios/os/common/ext/ARM/CMSIS/Core/Include/cmsis_gcc.h ****   \param [in]    control  Control Register value to set
 192:./lib/chibios/os/common/ext/ARM/CMSIS/Core/Include/cmsis_gcc.h ****  */
 193:./lib/chibios/os/common/ext/ARM/CMSIS/Core/Include/cmsis_gcc.h **** __STATIC_FORCEINLINE void __TZ_set_CONTROL_NS(uint32_t control)
 194:./lib/chibios/os/common/ext/ARM/CMSIS/Core/Include/cmsis_gcc.h **** {
 195:./lib/chibios/os/common/ext/ARM/CMSIS/Core/Include/cmsis_gcc.h ****   __ASM volatile ("MSR control_ns, %0" : : "r" (control) : "memory");
 196:./lib/chibios/os/common/ext/ARM/CMSIS/Core/Include/cmsis_gcc.h **** }
 197:./lib/chibios/os/common/ext/ARM/CMSIS/Core/Include/cmsis_gcc.h **** #endif
 198:./lib/chibios/os/common/ext/ARM/CMSIS/Core/Include/cmsis_gcc.h **** 
 199:./lib/chibios/os/common/ext/ARM/CMSIS/Core/Include/cmsis_gcc.h **** 
 200:./lib/chibios/os/common/ext/ARM/CMSIS/Core/Include/cmsis_gcc.h **** /**
 201:./lib/chibios/os/common/ext/ARM/CMSIS/Core/Include/cmsis_gcc.h ****   \brief   Get IPSR Register
 202:./lib/chibios/os/common/ext/ARM/CMSIS/Core/Include/cmsis_gcc.h ****   \details Returns the content of the IPSR Register.
 203:./lib/chibios/os/common/ext/ARM/CMSIS/Core/Include/cmsis_gcc.h ****   \return               IPSR Register value
 204:./lib/chibios/os/common/ext/ARM/CMSIS/Core/Include/cmsis_gcc.h ****  */
 205:./lib/chibios/os/common/ext/ARM/CMSIS/Core/Include/cmsis_gcc.h **** __STATIC_FORCEINLINE uint32_t __get_IPSR(void)
 206:./lib/chibios/os/common/ext/ARM/CMSIS/Core/Include/cmsis_gcc.h **** {
 207:./lib/chibios/os/common/ext/ARM/CMSIS/Core/Include/cmsis_gcc.h ****   uint32_t result;
 208:./lib/chibios/os/common/ext/ARM/CMSIS/Core/Include/cmsis_gcc.h **** 
 209:./lib/chibios/os/common/ext/ARM/CMSIS/Core/Include/cmsis_gcc.h ****   __ASM volatile ("MRS %0, ipsr" : "=r" (result) );
 210:./lib/chibios/os/common/ext/ARM/CMSIS/Core/Include/cmsis_gcc.h ****   return(result);
 211:./lib/chibios/os/common/ext/ARM/CMSIS/Core/Include/cmsis_gcc.h **** }
 212:./lib/chibios/os/common/ext/ARM/CMSIS/Core/Include/cmsis_gcc.h **** 
 213:./lib/chibios/os/common/ext/ARM/CMSIS/Core/Include/cmsis_gcc.h **** 
 214:./lib/chibios/os/common/ext/ARM/CMSIS/Core/Include/cmsis_gcc.h **** /**
 215:./lib/chibios/os/common/ext/ARM/CMSIS/Core/Include/cmsis_gcc.h ****   \brief   Get APSR Register
 216:./lib/chibios/os/common/ext/ARM/CMSIS/Core/Include/cmsis_gcc.h ****   \details Returns the content of the APSR Register.
 217:./lib/chibios/os/common/ext/ARM/CMSIS/Core/Include/cmsis_gcc.h ****   \return               APSR Register value
 218:./lib/chibios/os/common/ext/ARM/CMSIS/Core/Include/cmsis_gcc.h ****  */
 219:./lib/chibios/os/common/ext/ARM/CMSIS/Core/Include/cmsis_gcc.h **** __STATIC_FORCEINLINE uint32_t __get_APSR(void)
 220:./lib/chibios/os/common/ext/ARM/CMSIS/Core/Include/cmsis_gcc.h **** {
 221:./lib/chibios/os/common/ext/ARM/CMSIS/Core/Include/cmsis_gcc.h ****   uint32_t result;
 222:./lib/chibios/os/common/ext/ARM/CMSIS/Core/Include/cmsis_gcc.h **** 
 223:./lib/chibios/os/common/ext/ARM/CMSIS/Core/Include/cmsis_gcc.h ****   __ASM volatile ("MRS %0, apsr" : "=r" (result) );
 224:./lib/chibios/os/common/ext/ARM/CMSIS/Core/Include/cmsis_gcc.h ****   return(result);
 225:./lib/chibios/os/common/ext/ARM/CMSIS/Core/Include/cmsis_gcc.h **** }
 226:./lib/chibios/os/common/ext/ARM/CMSIS/Core/Include/cmsis_gcc.h **** 
 227:./lib/chibios/os/common/ext/ARM/CMSIS/Core/Include/cmsis_gcc.h **** 
 228:./lib/chibios/os/common/ext/ARM/CMSIS/Core/Include/cmsis_gcc.h **** /**
 229:./lib/chibios/os/common/ext/ARM/CMSIS/Core/Include/cmsis_gcc.h ****   \brief   Get xPSR Register
 230:./lib/chibios/os/common/ext/ARM/CMSIS/Core/Include/cmsis_gcc.h ****   \details Returns the content of the xPSR Register.
 231:./lib/chibios/os/common/ext/ARM/CMSIS/Core/Include/cmsis_gcc.h ****   \return               xPSR Register value
 232:./lib/chibios/os/common/ext/ARM/CMSIS/Core/Include/cmsis_gcc.h ****  */
 233:./lib/chibios/os/common/ext/ARM/CMSIS/Core/Include/cmsis_gcc.h **** __STATIC_FORCEINLINE uint32_t __get_xPSR(void)
 234:./lib/chibios/os/common/ext/ARM/CMSIS/Core/Include/cmsis_gcc.h **** {
 235:./lib/chibios/os/common/ext/ARM/CMSIS/Core/Include/cmsis_gcc.h ****   uint32_t result;
 236:./lib/chibios/os/common/ext/ARM/CMSIS/Core/Include/cmsis_gcc.h **** 
 237:./lib/chibios/os/common/ext/ARM/CMSIS/Core/Include/cmsis_gcc.h ****   __ASM volatile ("MRS %0, xpsr" : "=r" (result) );
 238:./lib/chibios/os/common/ext/ARM/CMSIS/Core/Include/cmsis_gcc.h ****   return(result);
 239:./lib/chibios/os/common/ext/ARM/CMSIS/Core/Include/cmsis_gcc.h **** }
 240:./lib/chibios/os/common/ext/ARM/CMSIS/Core/Include/cmsis_gcc.h **** 
 241:./lib/chibios/os/common/ext/ARM/CMSIS/Core/Include/cmsis_gcc.h **** 
 242:./lib/chibios/os/common/ext/ARM/CMSIS/Core/Include/cmsis_gcc.h **** /**
 243:./lib/chibios/os/common/ext/ARM/CMSIS/Core/Include/cmsis_gcc.h ****   \brief   Get Process Stack Pointer
 244:./lib/chibios/os/common/ext/ARM/CMSIS/Core/Include/cmsis_gcc.h ****   \details Returns the current value of the Process Stack Pointer (PSP).
 245:./lib/chibios/os/common/ext/ARM/CMSIS/Core/Include/cmsis_gcc.h ****   \return               PSP Register value
 246:./lib/chibios/os/common/ext/ARM/CMSIS/Core/Include/cmsis_gcc.h ****  */
 247:./lib/chibios/os/common/ext/ARM/CMSIS/Core/Include/cmsis_gcc.h **** __STATIC_FORCEINLINE uint32_t __get_PSP(void)
 248:./lib/chibios/os/common/ext/ARM/CMSIS/Core/Include/cmsis_gcc.h **** {
 249:./lib/chibios/os/common/ext/ARM/CMSIS/Core/Include/cmsis_gcc.h ****   uint32_t result;
 250:./lib/chibios/os/common/ext/ARM/CMSIS/Core/Include/cmsis_gcc.h **** 
 251:./lib/chibios/os/common/ext/ARM/CMSIS/Core/Include/cmsis_gcc.h ****   __ASM volatile ("MRS %0, psp"  : "=r" (result) );
 252:./lib/chibios/os/common/ext/ARM/CMSIS/Core/Include/cmsis_gcc.h ****   return(result);
 253:./lib/chibios/os/common/ext/ARM/CMSIS/Core/Include/cmsis_gcc.h **** }
 254:./lib/chibios/os/common/ext/ARM/CMSIS/Core/Include/cmsis_gcc.h **** 
 255:./lib/chibios/os/common/ext/ARM/CMSIS/Core/Include/cmsis_gcc.h **** 
 256:./lib/chibios/os/common/ext/ARM/CMSIS/Core/Include/cmsis_gcc.h **** #if (defined (__ARM_FEATURE_CMSE ) && (__ARM_FEATURE_CMSE == 3))
 257:./lib/chibios/os/common/ext/ARM/CMSIS/Core/Include/cmsis_gcc.h **** /**
 258:./lib/chibios/os/common/ext/ARM/CMSIS/Core/Include/cmsis_gcc.h ****   \brief   Get Process Stack Pointer (non-secure)
 259:./lib/chibios/os/common/ext/ARM/CMSIS/Core/Include/cmsis_gcc.h ****   \details Returns the current value of the non-secure Process Stack Pointer (PSP) when in secure s
 260:./lib/chibios/os/common/ext/ARM/CMSIS/Core/Include/cmsis_gcc.h ****   \return               PSP Register value
 261:./lib/chibios/os/common/ext/ARM/CMSIS/Core/Include/cmsis_gcc.h ****  */
 262:./lib/chibios/os/common/ext/ARM/CMSIS/Core/Include/cmsis_gcc.h **** __STATIC_FORCEINLINE uint32_t __TZ_get_PSP_NS(void)
 263:./lib/chibios/os/common/ext/ARM/CMSIS/Core/Include/cmsis_gcc.h **** {
 264:./lib/chibios/os/common/ext/ARM/CMSIS/Core/Include/cmsis_gcc.h ****   uint32_t result;
 265:./lib/chibios/os/common/ext/ARM/CMSIS/Core/Include/cmsis_gcc.h **** 
 266:./lib/chibios/os/common/ext/ARM/CMSIS/Core/Include/cmsis_gcc.h ****   __ASM volatile ("MRS %0, psp_ns"  : "=r" (result) );
 267:./lib/chibios/os/common/ext/ARM/CMSIS/Core/Include/cmsis_gcc.h ****   return(result);
 268:./lib/chibios/os/common/ext/ARM/CMSIS/Core/Include/cmsis_gcc.h **** }
 269:./lib/chibios/os/common/ext/ARM/CMSIS/Core/Include/cmsis_gcc.h **** #endif
 270:./lib/chibios/os/common/ext/ARM/CMSIS/Core/Include/cmsis_gcc.h **** 
 271:./lib/chibios/os/common/ext/ARM/CMSIS/Core/Include/cmsis_gcc.h **** 
 272:./lib/chibios/os/common/ext/ARM/CMSIS/Core/Include/cmsis_gcc.h **** /**
 273:./lib/chibios/os/common/ext/ARM/CMSIS/Core/Include/cmsis_gcc.h ****   \brief   Set Process Stack Pointer
 274:./lib/chibios/os/common/ext/ARM/CMSIS/Core/Include/cmsis_gcc.h ****   \details Assigns the given value to the Process Stack Pointer (PSP).
 275:./lib/chibios/os/common/ext/ARM/CMSIS/Core/Include/cmsis_gcc.h ****   \param [in]    topOfProcStack  Process Stack Pointer value to set
 276:./lib/chibios/os/common/ext/ARM/CMSIS/Core/Include/cmsis_gcc.h ****  */
 277:./lib/chibios/os/common/ext/ARM/CMSIS/Core/Include/cmsis_gcc.h **** __STATIC_FORCEINLINE void __set_PSP(uint32_t topOfProcStack)
 278:./lib/chibios/os/common/ext/ARM/CMSIS/Core/Include/cmsis_gcc.h **** {
 279:./lib/chibios/os/common/ext/ARM/CMSIS/Core/Include/cmsis_gcc.h ****   __ASM volatile ("MSR psp, %0" : : "r" (topOfProcStack) : );
 280:./lib/chibios/os/common/ext/ARM/CMSIS/Core/Include/cmsis_gcc.h **** }
 281:./lib/chibios/os/common/ext/ARM/CMSIS/Core/Include/cmsis_gcc.h **** 
 282:./lib/chibios/os/common/ext/ARM/CMSIS/Core/Include/cmsis_gcc.h **** 
 283:./lib/chibios/os/common/ext/ARM/CMSIS/Core/Include/cmsis_gcc.h **** #if (defined (__ARM_FEATURE_CMSE ) && (__ARM_FEATURE_CMSE == 3))
 284:./lib/chibios/os/common/ext/ARM/CMSIS/Core/Include/cmsis_gcc.h **** /**
 285:./lib/chibios/os/common/ext/ARM/CMSIS/Core/Include/cmsis_gcc.h ****   \brief   Set Process Stack Pointer (non-secure)
 286:./lib/chibios/os/common/ext/ARM/CMSIS/Core/Include/cmsis_gcc.h ****   \details Assigns the given value to the non-secure Process Stack Pointer (PSP) when in secure sta
 287:./lib/chibios/os/common/ext/ARM/CMSIS/Core/Include/cmsis_gcc.h ****   \param [in]    topOfProcStack  Process Stack Pointer value to set
 288:./lib/chibios/os/common/ext/ARM/CMSIS/Core/Include/cmsis_gcc.h ****  */
 289:./lib/chibios/os/common/ext/ARM/CMSIS/Core/Include/cmsis_gcc.h **** __STATIC_FORCEINLINE void __TZ_set_PSP_NS(uint32_t topOfProcStack)
 290:./lib/chibios/os/common/ext/ARM/CMSIS/Core/Include/cmsis_gcc.h **** {
 291:./lib/chibios/os/common/ext/ARM/CMSIS/Core/Include/cmsis_gcc.h ****   __ASM volatile ("MSR psp_ns, %0" : : "r" (topOfProcStack) : );
 292:./lib/chibios/os/common/ext/ARM/CMSIS/Core/Include/cmsis_gcc.h **** }
 293:./lib/chibios/os/common/ext/ARM/CMSIS/Core/Include/cmsis_gcc.h **** #endif
 294:./lib/chibios/os/common/ext/ARM/CMSIS/Core/Include/cmsis_gcc.h **** 
 295:./lib/chibios/os/common/ext/ARM/CMSIS/Core/Include/cmsis_gcc.h **** 
 296:./lib/chibios/os/common/ext/ARM/CMSIS/Core/Include/cmsis_gcc.h **** /**
 297:./lib/chibios/os/common/ext/ARM/CMSIS/Core/Include/cmsis_gcc.h ****   \brief   Get Main Stack Pointer
 298:./lib/chibios/os/common/ext/ARM/CMSIS/Core/Include/cmsis_gcc.h ****   \details Returns the current value of the Main Stack Pointer (MSP).
 299:./lib/chibios/os/common/ext/ARM/CMSIS/Core/Include/cmsis_gcc.h ****   \return               MSP Register value
 300:./lib/chibios/os/common/ext/ARM/CMSIS/Core/Include/cmsis_gcc.h ****  */
 301:./lib/chibios/os/common/ext/ARM/CMSIS/Core/Include/cmsis_gcc.h **** __STATIC_FORCEINLINE uint32_t __get_MSP(void)
 302:./lib/chibios/os/common/ext/ARM/CMSIS/Core/Include/cmsis_gcc.h **** {
 303:./lib/chibios/os/common/ext/ARM/CMSIS/Core/Include/cmsis_gcc.h ****   uint32_t result;
 304:./lib/chibios/os/common/ext/ARM/CMSIS/Core/Include/cmsis_gcc.h **** 
 305:./lib/chibios/os/common/ext/ARM/CMSIS/Core/Include/cmsis_gcc.h ****   __ASM volatile ("MRS %0, msp" : "=r" (result) );
 306:./lib/chibios/os/common/ext/ARM/CMSIS/Core/Include/cmsis_gcc.h ****   return(result);
 307:./lib/chibios/os/common/ext/ARM/CMSIS/Core/Include/cmsis_gcc.h **** }
 308:./lib/chibios/os/common/ext/ARM/CMSIS/Core/Include/cmsis_gcc.h **** 
 309:./lib/chibios/os/common/ext/ARM/CMSIS/Core/Include/cmsis_gcc.h **** 
 310:./lib/chibios/os/common/ext/ARM/CMSIS/Core/Include/cmsis_gcc.h **** #if (defined (__ARM_FEATURE_CMSE ) && (__ARM_FEATURE_CMSE == 3))
 311:./lib/chibios/os/common/ext/ARM/CMSIS/Core/Include/cmsis_gcc.h **** /**
 312:./lib/chibios/os/common/ext/ARM/CMSIS/Core/Include/cmsis_gcc.h ****   \brief   Get Main Stack Pointer (non-secure)
 313:./lib/chibios/os/common/ext/ARM/CMSIS/Core/Include/cmsis_gcc.h ****   \details Returns the current value of the non-secure Main Stack Pointer (MSP) when in secure stat
 314:./lib/chibios/os/common/ext/ARM/CMSIS/Core/Include/cmsis_gcc.h ****   \return               MSP Register value
 315:./lib/chibios/os/common/ext/ARM/CMSIS/Core/Include/cmsis_gcc.h ****  */
 316:./lib/chibios/os/common/ext/ARM/CMSIS/Core/Include/cmsis_gcc.h **** __STATIC_FORCEINLINE uint32_t __TZ_get_MSP_NS(void)
 317:./lib/chibios/os/common/ext/ARM/CMSIS/Core/Include/cmsis_gcc.h **** {
 318:./lib/chibios/os/common/ext/ARM/CMSIS/Core/Include/cmsis_gcc.h ****   uint32_t result;
 319:./lib/chibios/os/common/ext/ARM/CMSIS/Core/Include/cmsis_gcc.h **** 
 320:./lib/chibios/os/common/ext/ARM/CMSIS/Core/Include/cmsis_gcc.h ****   __ASM volatile ("MRS %0, msp_ns" : "=r" (result) );
 321:./lib/chibios/os/common/ext/ARM/CMSIS/Core/Include/cmsis_gcc.h ****   return(result);
 322:./lib/chibios/os/common/ext/ARM/CMSIS/Core/Include/cmsis_gcc.h **** }
 323:./lib/chibios/os/common/ext/ARM/CMSIS/Core/Include/cmsis_gcc.h **** #endif
 324:./lib/chibios/os/common/ext/ARM/CMSIS/Core/Include/cmsis_gcc.h **** 
 325:./lib/chibios/os/common/ext/ARM/CMSIS/Core/Include/cmsis_gcc.h **** 
 326:./lib/chibios/os/common/ext/ARM/CMSIS/Core/Include/cmsis_gcc.h **** /**
 327:./lib/chibios/os/common/ext/ARM/CMSIS/Core/Include/cmsis_gcc.h ****   \brief   Set Main Stack Pointer
 328:./lib/chibios/os/common/ext/ARM/CMSIS/Core/Include/cmsis_gcc.h ****   \details Assigns the given value to the Main Stack Pointer (MSP).
 329:./lib/chibios/os/common/ext/ARM/CMSIS/Core/Include/cmsis_gcc.h ****   \param [in]    topOfMainStack  Main Stack Pointer value to set
 330:./lib/chibios/os/common/ext/ARM/CMSIS/Core/Include/cmsis_gcc.h ****  */
 331:./lib/chibios/os/common/ext/ARM/CMSIS/Core/Include/cmsis_gcc.h **** __STATIC_FORCEINLINE void __set_MSP(uint32_t topOfMainStack)
 332:./lib/chibios/os/common/ext/ARM/CMSIS/Core/Include/cmsis_gcc.h **** {
 333:./lib/chibios/os/common/ext/ARM/CMSIS/Core/Include/cmsis_gcc.h ****   __ASM volatile ("MSR msp, %0" : : "r" (topOfMainStack) : );
 334:./lib/chibios/os/common/ext/ARM/CMSIS/Core/Include/cmsis_gcc.h **** }
 335:./lib/chibios/os/common/ext/ARM/CMSIS/Core/Include/cmsis_gcc.h **** 
 336:./lib/chibios/os/common/ext/ARM/CMSIS/Core/Include/cmsis_gcc.h **** 
 337:./lib/chibios/os/common/ext/ARM/CMSIS/Core/Include/cmsis_gcc.h **** #if (defined (__ARM_FEATURE_CMSE ) && (__ARM_FEATURE_CMSE == 3))
 338:./lib/chibios/os/common/ext/ARM/CMSIS/Core/Include/cmsis_gcc.h **** /**
 339:./lib/chibios/os/common/ext/ARM/CMSIS/Core/Include/cmsis_gcc.h ****   \brief   Set Main Stack Pointer (non-secure)
 340:./lib/chibios/os/common/ext/ARM/CMSIS/Core/Include/cmsis_gcc.h ****   \details Assigns the given value to the non-secure Main Stack Pointer (MSP) when in secure state.
 341:./lib/chibios/os/common/ext/ARM/CMSIS/Core/Include/cmsis_gcc.h ****   \param [in]    topOfMainStack  Main Stack Pointer value to set
 342:./lib/chibios/os/common/ext/ARM/CMSIS/Core/Include/cmsis_gcc.h ****  */
 343:./lib/chibios/os/common/ext/ARM/CMSIS/Core/Include/cmsis_gcc.h **** __STATIC_FORCEINLINE void __TZ_set_MSP_NS(uint32_t topOfMainStack)
 344:./lib/chibios/os/common/ext/ARM/CMSIS/Core/Include/cmsis_gcc.h **** {
 345:./lib/chibios/os/common/ext/ARM/CMSIS/Core/Include/cmsis_gcc.h ****   __ASM volatile ("MSR msp_ns, %0" : : "r" (topOfMainStack) : );
 346:./lib/chibios/os/common/ext/ARM/CMSIS/Core/Include/cmsis_gcc.h **** }
 347:./lib/chibios/os/common/ext/ARM/CMSIS/Core/Include/cmsis_gcc.h **** #endif
 348:./lib/chibios/os/common/ext/ARM/CMSIS/Core/Include/cmsis_gcc.h **** 
 349:./lib/chibios/os/common/ext/ARM/CMSIS/Core/Include/cmsis_gcc.h **** 
 350:./lib/chibios/os/common/ext/ARM/CMSIS/Core/Include/cmsis_gcc.h **** #if (defined (__ARM_FEATURE_CMSE ) && (__ARM_FEATURE_CMSE == 3))
 351:./lib/chibios/os/common/ext/ARM/CMSIS/Core/Include/cmsis_gcc.h **** /**
 352:./lib/chibios/os/common/ext/ARM/CMSIS/Core/Include/cmsis_gcc.h ****   \brief   Get Stack Pointer (non-secure)
 353:./lib/chibios/os/common/ext/ARM/CMSIS/Core/Include/cmsis_gcc.h ****   \details Returns the current value of the non-secure Stack Pointer (SP) when in secure state.
 354:./lib/chibios/os/common/ext/ARM/CMSIS/Core/Include/cmsis_gcc.h ****   \return               SP Register value
 355:./lib/chibios/os/common/ext/ARM/CMSIS/Core/Include/cmsis_gcc.h ****  */
 356:./lib/chibios/os/common/ext/ARM/CMSIS/Core/Include/cmsis_gcc.h **** __STATIC_FORCEINLINE uint32_t __TZ_get_SP_NS(void)
 357:./lib/chibios/os/common/ext/ARM/CMSIS/Core/Include/cmsis_gcc.h **** {
 358:./lib/chibios/os/common/ext/ARM/CMSIS/Core/Include/cmsis_gcc.h ****   uint32_t result;
 359:./lib/chibios/os/common/ext/ARM/CMSIS/Core/Include/cmsis_gcc.h **** 
 360:./lib/chibios/os/common/ext/ARM/CMSIS/Core/Include/cmsis_gcc.h ****   __ASM volatile ("MRS %0, sp_ns" : "=r" (result) );
 361:./lib/chibios/os/common/ext/ARM/CMSIS/Core/Include/cmsis_gcc.h ****   return(result);
 362:./lib/chibios/os/common/ext/ARM/CMSIS/Core/Include/cmsis_gcc.h **** }
 363:./lib/chibios/os/common/ext/ARM/CMSIS/Core/Include/cmsis_gcc.h **** 
 364:./lib/chibios/os/common/ext/ARM/CMSIS/Core/Include/cmsis_gcc.h **** 
 365:./lib/chibios/os/common/ext/ARM/CMSIS/Core/Include/cmsis_gcc.h **** /**
 366:./lib/chibios/os/common/ext/ARM/CMSIS/Core/Include/cmsis_gcc.h ****   \brief   Set Stack Pointer (non-secure)
 367:./lib/chibios/os/common/ext/ARM/CMSIS/Core/Include/cmsis_gcc.h ****   \details Assigns the given value to the non-secure Stack Pointer (SP) when in secure state.
 368:./lib/chibios/os/common/ext/ARM/CMSIS/Core/Include/cmsis_gcc.h ****   \param [in]    topOfStack  Stack Pointer value to set
 369:./lib/chibios/os/common/ext/ARM/CMSIS/Core/Include/cmsis_gcc.h ****  */
 370:./lib/chibios/os/common/ext/ARM/CMSIS/Core/Include/cmsis_gcc.h **** __STATIC_FORCEINLINE void __TZ_set_SP_NS(uint32_t topOfStack)
 371:./lib/chibios/os/common/ext/ARM/CMSIS/Core/Include/cmsis_gcc.h **** {
 372:./lib/chibios/os/common/ext/ARM/CMSIS/Core/Include/cmsis_gcc.h ****   __ASM volatile ("MSR sp_ns, %0" : : "r" (topOfStack) : );
 373:./lib/chibios/os/common/ext/ARM/CMSIS/Core/Include/cmsis_gcc.h **** }
 374:./lib/chibios/os/common/ext/ARM/CMSIS/Core/Include/cmsis_gcc.h **** #endif
 375:./lib/chibios/os/common/ext/ARM/CMSIS/Core/Include/cmsis_gcc.h **** 
 376:./lib/chibios/os/common/ext/ARM/CMSIS/Core/Include/cmsis_gcc.h **** 
 377:./lib/chibios/os/common/ext/ARM/CMSIS/Core/Include/cmsis_gcc.h **** /**
 378:./lib/chibios/os/common/ext/ARM/CMSIS/Core/Include/cmsis_gcc.h ****   \brief   Get Priority Mask
 379:./lib/chibios/os/common/ext/ARM/CMSIS/Core/Include/cmsis_gcc.h ****   \details Returns the current state of the priority mask bit from the Priority Mask Register.
 380:./lib/chibios/os/common/ext/ARM/CMSIS/Core/Include/cmsis_gcc.h ****   \return               Priority Mask value
 381:./lib/chibios/os/common/ext/ARM/CMSIS/Core/Include/cmsis_gcc.h ****  */
 382:./lib/chibios/os/common/ext/ARM/CMSIS/Core/Include/cmsis_gcc.h **** __STATIC_FORCEINLINE uint32_t __get_PRIMASK(void)
 383:./lib/chibios/os/common/ext/ARM/CMSIS/Core/Include/cmsis_gcc.h **** {
 384:./lib/chibios/os/common/ext/ARM/CMSIS/Core/Include/cmsis_gcc.h ****   uint32_t result;
 385:./lib/chibios/os/common/ext/ARM/CMSIS/Core/Include/cmsis_gcc.h **** 
 386:./lib/chibios/os/common/ext/ARM/CMSIS/Core/Include/cmsis_gcc.h ****   __ASM volatile ("MRS %0, primask" : "=r" (result) :: "memory");
 387:./lib/chibios/os/common/ext/ARM/CMSIS/Core/Include/cmsis_gcc.h ****   return(result);
 388:./lib/chibios/os/common/ext/ARM/CMSIS/Core/Include/cmsis_gcc.h **** }
 389:./lib/chibios/os/common/ext/ARM/CMSIS/Core/Include/cmsis_gcc.h **** 
 390:./lib/chibios/os/common/ext/ARM/CMSIS/Core/Include/cmsis_gcc.h **** 
 391:./lib/chibios/os/common/ext/ARM/CMSIS/Core/Include/cmsis_gcc.h **** #if (defined (__ARM_FEATURE_CMSE ) && (__ARM_FEATURE_CMSE == 3))
 392:./lib/chibios/os/common/ext/ARM/CMSIS/Core/Include/cmsis_gcc.h **** /**
 393:./lib/chibios/os/common/ext/ARM/CMSIS/Core/Include/cmsis_gcc.h ****   \brief   Get Priority Mask (non-secure)
 394:./lib/chibios/os/common/ext/ARM/CMSIS/Core/Include/cmsis_gcc.h ****   \details Returns the current state of the non-secure priority mask bit from the Priority Mask Reg
 395:./lib/chibios/os/common/ext/ARM/CMSIS/Core/Include/cmsis_gcc.h ****   \return               Priority Mask value
 396:./lib/chibios/os/common/ext/ARM/CMSIS/Core/Include/cmsis_gcc.h ****  */
 397:./lib/chibios/os/common/ext/ARM/CMSIS/Core/Include/cmsis_gcc.h **** __STATIC_FORCEINLINE uint32_t __TZ_get_PRIMASK_NS(void)
 398:./lib/chibios/os/common/ext/ARM/CMSIS/Core/Include/cmsis_gcc.h **** {
 399:./lib/chibios/os/common/ext/ARM/CMSIS/Core/Include/cmsis_gcc.h ****   uint32_t result;
 400:./lib/chibios/os/common/ext/ARM/CMSIS/Core/Include/cmsis_gcc.h **** 
 401:./lib/chibios/os/common/ext/ARM/CMSIS/Core/Include/cmsis_gcc.h ****   __ASM volatile ("MRS %0, primask_ns" : "=r" (result) :: "memory");
 402:./lib/chibios/os/common/ext/ARM/CMSIS/Core/Include/cmsis_gcc.h ****   return(result);
 403:./lib/chibios/os/common/ext/ARM/CMSIS/Core/Include/cmsis_gcc.h **** }
 404:./lib/chibios/os/common/ext/ARM/CMSIS/Core/Include/cmsis_gcc.h **** #endif
 405:./lib/chibios/os/common/ext/ARM/CMSIS/Core/Include/cmsis_gcc.h **** 
 406:./lib/chibios/os/common/ext/ARM/CMSIS/Core/Include/cmsis_gcc.h **** 
 407:./lib/chibios/os/common/ext/ARM/CMSIS/Core/Include/cmsis_gcc.h **** /**
 408:./lib/chibios/os/common/ext/ARM/CMSIS/Core/Include/cmsis_gcc.h ****   \brief   Set Priority Mask
 409:./lib/chibios/os/common/ext/ARM/CMSIS/Core/Include/cmsis_gcc.h ****   \details Assigns the given value to the Priority Mask Register.
 410:./lib/chibios/os/common/ext/ARM/CMSIS/Core/Include/cmsis_gcc.h ****   \param [in]    priMask  Priority Mask
 411:./lib/chibios/os/common/ext/ARM/CMSIS/Core/Include/cmsis_gcc.h ****  */
 412:./lib/chibios/os/common/ext/ARM/CMSIS/Core/Include/cmsis_gcc.h **** __STATIC_FORCEINLINE void __set_PRIMASK(uint32_t priMask)
 413:./lib/chibios/os/common/ext/ARM/CMSIS/Core/Include/cmsis_gcc.h **** {
 414:./lib/chibios/os/common/ext/ARM/CMSIS/Core/Include/cmsis_gcc.h ****   __ASM volatile ("MSR primask, %0" : : "r" (priMask) : "memory");
 415:./lib/chibios/os/common/ext/ARM/CMSIS/Core/Include/cmsis_gcc.h **** }
 416:./lib/chibios/os/common/ext/ARM/CMSIS/Core/Include/cmsis_gcc.h **** 
 417:./lib/chibios/os/common/ext/ARM/CMSIS/Core/Include/cmsis_gcc.h **** 
 418:./lib/chibios/os/common/ext/ARM/CMSIS/Core/Include/cmsis_gcc.h **** #if (defined (__ARM_FEATURE_CMSE ) && (__ARM_FEATURE_CMSE == 3))
 419:./lib/chibios/os/common/ext/ARM/CMSIS/Core/Include/cmsis_gcc.h **** /**
 420:./lib/chibios/os/common/ext/ARM/CMSIS/Core/Include/cmsis_gcc.h ****   \brief   Set Priority Mask (non-secure)
 421:./lib/chibios/os/common/ext/ARM/CMSIS/Core/Include/cmsis_gcc.h ****   \details Assigns the given value to the non-secure Priority Mask Register when in secure state.
 422:./lib/chibios/os/common/ext/ARM/CMSIS/Core/Include/cmsis_gcc.h ****   \param [in]    priMask  Priority Mask
 423:./lib/chibios/os/common/ext/ARM/CMSIS/Core/Include/cmsis_gcc.h ****  */
 424:./lib/chibios/os/common/ext/ARM/CMSIS/Core/Include/cmsis_gcc.h **** __STATIC_FORCEINLINE void __TZ_set_PRIMASK_NS(uint32_t priMask)
 425:./lib/chibios/os/common/ext/ARM/CMSIS/Core/Include/cmsis_gcc.h **** {
 426:./lib/chibios/os/common/ext/ARM/CMSIS/Core/Include/cmsis_gcc.h ****   __ASM volatile ("MSR primask_ns, %0" : : "r" (priMask) : "memory");
 427:./lib/chibios/os/common/ext/ARM/CMSIS/Core/Include/cmsis_gcc.h **** }
 428:./lib/chibios/os/common/ext/ARM/CMSIS/Core/Include/cmsis_gcc.h **** #endif
 429:./lib/chibios/os/common/ext/ARM/CMSIS/Core/Include/cmsis_gcc.h **** 
 430:./lib/chibios/os/common/ext/ARM/CMSIS/Core/Include/cmsis_gcc.h **** 
 431:./lib/chibios/os/common/ext/ARM/CMSIS/Core/Include/cmsis_gcc.h **** #if ((defined (__ARM_ARCH_7M__      ) && (__ARM_ARCH_7M__      == 1)) || \
 432:./lib/chibios/os/common/ext/ARM/CMSIS/Core/Include/cmsis_gcc.h ****      (defined (__ARM_ARCH_7EM__     ) && (__ARM_ARCH_7EM__     == 1)) || \
 433:./lib/chibios/os/common/ext/ARM/CMSIS/Core/Include/cmsis_gcc.h ****      (defined (__ARM_ARCH_8M_MAIN__ ) && (__ARM_ARCH_8M_MAIN__ == 1))    )
 434:./lib/chibios/os/common/ext/ARM/CMSIS/Core/Include/cmsis_gcc.h **** /**
 435:./lib/chibios/os/common/ext/ARM/CMSIS/Core/Include/cmsis_gcc.h ****   \brief   Enable FIQ
 436:./lib/chibios/os/common/ext/ARM/CMSIS/Core/Include/cmsis_gcc.h ****   \details Enables FIQ interrupts by clearing the F-bit in the CPSR.
 437:./lib/chibios/os/common/ext/ARM/CMSIS/Core/Include/cmsis_gcc.h ****            Can only be executed in Privileged modes.
 438:./lib/chibios/os/common/ext/ARM/CMSIS/Core/Include/cmsis_gcc.h ****  */
 439:./lib/chibios/os/common/ext/ARM/CMSIS/Core/Include/cmsis_gcc.h **** __STATIC_FORCEINLINE void __enable_fault_irq(void)
 440:./lib/chibios/os/common/ext/ARM/CMSIS/Core/Include/cmsis_gcc.h **** {
 441:./lib/chibios/os/common/ext/ARM/CMSIS/Core/Include/cmsis_gcc.h ****   __ASM volatile ("cpsie f" : : : "memory");
 442:./lib/chibios/os/common/ext/ARM/CMSIS/Core/Include/cmsis_gcc.h **** }
 443:./lib/chibios/os/common/ext/ARM/CMSIS/Core/Include/cmsis_gcc.h **** 
 444:./lib/chibios/os/common/ext/ARM/CMSIS/Core/Include/cmsis_gcc.h **** 
 445:./lib/chibios/os/common/ext/ARM/CMSIS/Core/Include/cmsis_gcc.h **** /**
 446:./lib/chibios/os/common/ext/ARM/CMSIS/Core/Include/cmsis_gcc.h ****   \brief   Disable FIQ
 447:./lib/chibios/os/common/ext/ARM/CMSIS/Core/Include/cmsis_gcc.h ****   \details Disables FIQ interrupts by setting the F-bit in the CPSR.
 448:./lib/chibios/os/common/ext/ARM/CMSIS/Core/Include/cmsis_gcc.h ****            Can only be executed in Privileged modes.
 449:./lib/chibios/os/common/ext/ARM/CMSIS/Core/Include/cmsis_gcc.h ****  */
 450:./lib/chibios/os/common/ext/ARM/CMSIS/Core/Include/cmsis_gcc.h **** __STATIC_FORCEINLINE void __disable_fault_irq(void)
 451:./lib/chibios/os/common/ext/ARM/CMSIS/Core/Include/cmsis_gcc.h **** {
 452:./lib/chibios/os/common/ext/ARM/CMSIS/Core/Include/cmsis_gcc.h ****   __ASM volatile ("cpsid f" : : : "memory");
 453:./lib/chibios/os/common/ext/ARM/CMSIS/Core/Include/cmsis_gcc.h **** }
 454:./lib/chibios/os/common/ext/ARM/CMSIS/Core/Include/cmsis_gcc.h **** 
 455:./lib/chibios/os/common/ext/ARM/CMSIS/Core/Include/cmsis_gcc.h **** 
 456:./lib/chibios/os/common/ext/ARM/CMSIS/Core/Include/cmsis_gcc.h **** /**
 457:./lib/chibios/os/common/ext/ARM/CMSIS/Core/Include/cmsis_gcc.h ****   \brief   Get Base Priority
 458:./lib/chibios/os/common/ext/ARM/CMSIS/Core/Include/cmsis_gcc.h ****   \details Returns the current value of the Base Priority register.
 459:./lib/chibios/os/common/ext/ARM/CMSIS/Core/Include/cmsis_gcc.h ****   \return               Base Priority register value
 460:./lib/chibios/os/common/ext/ARM/CMSIS/Core/Include/cmsis_gcc.h ****  */
 461:./lib/chibios/os/common/ext/ARM/CMSIS/Core/Include/cmsis_gcc.h **** __STATIC_FORCEINLINE uint32_t __get_BASEPRI(void)
 462:./lib/chibios/os/common/ext/ARM/CMSIS/Core/Include/cmsis_gcc.h **** {
 463:./lib/chibios/os/common/ext/ARM/CMSIS/Core/Include/cmsis_gcc.h ****   uint32_t result;
 464:./lib/chibios/os/common/ext/ARM/CMSIS/Core/Include/cmsis_gcc.h **** 
 465:./lib/chibios/os/common/ext/ARM/CMSIS/Core/Include/cmsis_gcc.h ****   __ASM volatile ("MRS %0, basepri" : "=r" (result) );
 466:./lib/chibios/os/common/ext/ARM/CMSIS/Core/Include/cmsis_gcc.h ****   return(result);
 467:./lib/chibios/os/common/ext/ARM/CMSIS/Core/Include/cmsis_gcc.h **** }
 468:./lib/chibios/os/common/ext/ARM/CMSIS/Core/Include/cmsis_gcc.h **** 
 469:./lib/chibios/os/common/ext/ARM/CMSIS/Core/Include/cmsis_gcc.h **** 
 470:./lib/chibios/os/common/ext/ARM/CMSIS/Core/Include/cmsis_gcc.h **** #if (defined (__ARM_FEATURE_CMSE ) && (__ARM_FEATURE_CMSE == 3))
 471:./lib/chibios/os/common/ext/ARM/CMSIS/Core/Include/cmsis_gcc.h **** /**
 472:./lib/chibios/os/common/ext/ARM/CMSIS/Core/Include/cmsis_gcc.h ****   \brief   Get Base Priority (non-secure)
 473:./lib/chibios/os/common/ext/ARM/CMSIS/Core/Include/cmsis_gcc.h ****   \details Returns the current value of the non-secure Base Priority register when in secure state.
 474:./lib/chibios/os/common/ext/ARM/CMSIS/Core/Include/cmsis_gcc.h ****   \return               Base Priority register value
 475:./lib/chibios/os/common/ext/ARM/CMSIS/Core/Include/cmsis_gcc.h ****  */
 476:./lib/chibios/os/common/ext/ARM/CMSIS/Core/Include/cmsis_gcc.h **** __STATIC_FORCEINLINE uint32_t __TZ_get_BASEPRI_NS(void)
 477:./lib/chibios/os/common/ext/ARM/CMSIS/Core/Include/cmsis_gcc.h **** {
 478:./lib/chibios/os/common/ext/ARM/CMSIS/Core/Include/cmsis_gcc.h ****   uint32_t result;
 479:./lib/chibios/os/common/ext/ARM/CMSIS/Core/Include/cmsis_gcc.h **** 
 480:./lib/chibios/os/common/ext/ARM/CMSIS/Core/Include/cmsis_gcc.h ****   __ASM volatile ("MRS %0, basepri_ns" : "=r" (result) );
 481:./lib/chibios/os/common/ext/ARM/CMSIS/Core/Include/cmsis_gcc.h ****   return(result);
 482:./lib/chibios/os/common/ext/ARM/CMSIS/Core/Include/cmsis_gcc.h **** }
 483:./lib/chibios/os/common/ext/ARM/CMSIS/Core/Include/cmsis_gcc.h **** #endif
 484:./lib/chibios/os/common/ext/ARM/CMSIS/Core/Include/cmsis_gcc.h **** 
 485:./lib/chibios/os/common/ext/ARM/CMSIS/Core/Include/cmsis_gcc.h **** 
 486:./lib/chibios/os/common/ext/ARM/CMSIS/Core/Include/cmsis_gcc.h **** /**
 487:./lib/chibios/os/common/ext/ARM/CMSIS/Core/Include/cmsis_gcc.h ****   \brief   Set Base Priority
 488:./lib/chibios/os/common/ext/ARM/CMSIS/Core/Include/cmsis_gcc.h ****   \details Assigns the given value to the Base Priority register.
 489:./lib/chibios/os/common/ext/ARM/CMSIS/Core/Include/cmsis_gcc.h ****   \param [in]    basePri  Base Priority value to set
 490:./lib/chibios/os/common/ext/ARM/CMSIS/Core/Include/cmsis_gcc.h ****  */
 491:./lib/chibios/os/common/ext/ARM/CMSIS/Core/Include/cmsis_gcc.h **** __STATIC_FORCEINLINE void __set_BASEPRI(uint32_t basePri)
 155              		.loc 4 491 27 view .LVU49
 156              	.LBB59:
 492:./lib/chibios/os/common/ext/ARM/CMSIS/Core/Include/cmsis_gcc.h **** {
 493:./lib/chibios/os/common/ext/ARM/CMSIS/Core/Include/cmsis_gcc.h ****   __ASM volatile ("MSR basepri, %0" : : "r" (basePri) : "memory");
 157              		.loc 4 493 3 view .LVU50
 158 001c 2023     		movs	r3, #32
 159              		.syntax unified
 160              	@ 493 "./lib/chibios/os/common/ext/ARM/CMSIS/Core/Include/cmsis_gcc.h" 1
 161 001e 83F31188 		MSR basepri, r3
 162              	@ 0 "" 2
 163              	.LVL11:
 164              		.loc 4 493 3 is_stmt 0 view .LVU51
 165              		.thumb
 166              		.syntax unified
 167              	.LBE59:
 168              	.LBE58:
 169              	.LBE57:
 358:./lib/chibios/os/rt/include/chsys.h ****   _stats_start_measure_crit_thd();
 170              		.loc 2 358 34 is_stmt 1 view .LVU52
 359:./lib/chibios/os/rt/include/chsys.h ****   _dbg_check_lock();
 171              		.loc 2 359 20 view .LVU53
 172              	.LBE56:
 248:lib/chibios/os/oslib/src/chpipes.c ****   chThdResumeI(&pp->wtr, MSG_RESET);
 173              		.loc 1 248 3 view .LVU54
 174 0022 6FF00101 		mvn	r1, #1
 175 0026 04F11800 		add	r0, r4, #24
 176 002a FFF7FEFF 		bl	chThdResumeI
 177              	.LVL12:
 249:lib/chibios/os/oslib/src/chpipes.c ****   chThdResumeI(&pp->rtr, MSG_RESET);
 178              		.loc 1 249 3 view .LVU55
 179 002e 6FF00101 		mvn	r1, #1
 180 0032 04F11C00 		add	r0, r4, #28
 181 0036 FFF7FEFF 		bl	chThdResumeI
 182              	.LVL13:
 250:lib/chibios/os/oslib/src/chpipes.c ****   chSchRescheduleS();
 183              		.loc 1 250 3 view .LVU56
 184 003a FFF7FEFF 		bl	chSchRescheduleS
 185              	.LVL14:
 251:lib/chibios/os/oslib/src/chpipes.c ****   chSysUnlock();
 186              		.loc 1 251 3 view .LVU57
 187              	.LBB60:
 188              	.LBI60:
 360:./lib/chibios/os/rt/include/chsys.h **** }
 361:./lib/chibios/os/rt/include/chsys.h **** 
 362:./lib/chibios/os/rt/include/chsys.h **** /**
 363:./lib/chibios/os/rt/include/chsys.h ****  * @brief   Leaves the kernel lock state.
 364:./lib/chibios/os/rt/include/chsys.h ****  *
 365:./lib/chibios/os/rt/include/chsys.h ****  * @special
 366:./lib/chibios/os/rt/include/chsys.h ****  */
 367:./lib/chibios/os/rt/include/chsys.h **** static inline void chSysUnlock(void) {
 189              		.loc 2 367 20 view .LVU58
 190              	.LBB61:
 368:./lib/chibios/os/rt/include/chsys.h **** 
 369:./lib/chibios/os/rt/include/chsys.h ****   _dbg_check_unlock();
 191              		.loc 2 369 22 view .LVU59
 370:./lib/chibios/os/rt/include/chsys.h ****   _stats_stop_measure_crit_thd();
 192              		.loc 2 370 33 view .LVU60
 371:./lib/chibios/os/rt/include/chsys.h **** 
 372:./lib/chibios/os/rt/include/chsys.h ****   /* The following condition can be triggered by the use of i-class functions
 373:./lib/chibios/os/rt/include/chsys.h ****      in a critical section not followed by a chSchRescheduleS(), this means
 374:./lib/chibios/os/rt/include/chsys.h ****      that the current thread has a lower priority than the next thread in
 375:./lib/chibios/os/rt/include/chsys.h ****      the ready list.*/
 376:./lib/chibios/os/rt/include/chsys.h ****   chDbgAssert((ch.rlist.pqueue.next == &ch.rlist.pqueue) ||
 193              		.loc 2 376 3 view .LVU61
 194              		.loc 2 376 3 view .LVU62
 195              		.loc 2 376 3 view .LVU63
 377:./lib/chibios/os/rt/include/chsys.h ****               (ch.rlist.current->hdr.pqueue.prio >= ch.rlist.pqueue.next->prio),
 378:./lib/chibios/os/rt/include/chsys.h ****               "priority order violation");
 379:./lib/chibios/os/rt/include/chsys.h **** 
 380:./lib/chibios/os/rt/include/chsys.h ****   port_unlock();
 196              		.loc 2 380 3 view .LVU64
 197              	.LBB62:
 198              	.LBI62:
 678:./lib/chibios/os/common/ports/ARMCMx/chcore_v7m.h **** #if defined(__CM7_REV)
 679:./lib/chibios/os/common/ports/ARMCMx/chcore_v7m.h **** #if __CM7_REV <= 1
 680:./lib/chibios/os/common/ports/ARMCMx/chcore_v7m.h ****   __enable_irq();
 681:./lib/chibios/os/common/ports/ARMCMx/chcore_v7m.h **** #endif
 682:./lib/chibios/os/common/ports/ARMCMx/chcore_v7m.h **** #endif
 683:./lib/chibios/os/common/ports/ARMCMx/chcore_v7m.h **** #else /* CORTEX_SIMPLIFIED_PRIORITY */
 684:./lib/chibios/os/common/ports/ARMCMx/chcore_v7m.h ****   __disable_irq();
 685:./lib/chibios/os/common/ports/ARMCMx/chcore_v7m.h **** #endif /* CORTEX_SIMPLIFIED_PRIORITY */
 686:./lib/chibios/os/common/ports/ARMCMx/chcore_v7m.h **** }
 687:./lib/chibios/os/common/ports/ARMCMx/chcore_v7m.h **** 
 688:./lib/chibios/os/common/ports/ARMCMx/chcore_v7m.h **** /**
 689:./lib/chibios/os/common/ports/ARMCMx/chcore_v7m.h ****  * @brief   Kernel-unlock action.
 690:./lib/chibios/os/common/ports/ARMCMx/chcore_v7m.h ****  * @details In this port this function lowers the base priority to user
 691:./lib/chibios/os/common/ports/ARMCMx/chcore_v7m.h ****  *          level.
 692:./lib/chibios/os/common/ports/ARMCMx/chcore_v7m.h ****  */
 693:./lib/chibios/os/common/ports/ARMCMx/chcore_v7m.h **** __STATIC_FORCEINLINE void port_unlock(void) {
 199              		.loc 3 693 27 view .LVU65
 694:./lib/chibios/os/common/ports/ARMCMx/chcore_v7m.h **** 
 695:./lib/chibios/os/common/ports/ARMCMx/chcore_v7m.h **** #if CORTEX_SIMPLIFIED_PRIORITY == FALSE
 696:./lib/chibios/os/common/ports/ARMCMx/chcore_v7m.h ****   __set_BASEPRI(CORTEX_BASEPRI_DISABLED);
 200              		.loc 3 696 3 view .LVU66
 201              	.LBB63:
 202              	.LBI63:
 491:./lib/chibios/os/common/ext/ARM/CMSIS/Core/Include/cmsis_gcc.h **** {
 203              		.loc 4 491 27 view .LVU67
 204              	.LBB64:
 205              		.loc 4 493 3 view .LVU68
 206              		.syntax unified
 207              	@ 493 "./lib/chibios/os/common/ext/ARM/CMSIS/Core/Include/cmsis_gcc.h" 1
 208 003e 86F31188 		MSR basepri, r6
 209              	@ 0 "" 2
 210              	.LVL15:
 211              		.loc 4 493 3 is_stmt 0 view .LVU69
 212              		.thumb
 213              		.syntax unified
 214              	.LBE64:
 215              	.LBE63:
 216              	.LBE62:
 217              	.LBE61:
 218              	.LBE60:
 252:lib/chibios/os/oslib/src/chpipes.c **** 
 253:lib/chibios/os/oslib/src/chpipes.c ****   PC_UNLOCK(pp);
 219              		.loc 1 253 3 is_stmt 1 view .LVU70
 220 0042 2846     		mov	r0, r5
 254:lib/chibios/os/oslib/src/chpipes.c **** }
 221              		.loc 1 254 1 is_stmt 0 view .LVU71
 222 0044 BDE87040 		pop	{r4, r5, r6, lr}
 223              		.cfi_restore 14
 224              		.cfi_restore 6
 225              		.cfi_restore 5
 226              		.cfi_restore 4
 227              		.cfi_def_cfa_offset 0
 228              	.LVL16:
 253:lib/chibios/os/oslib/src/chpipes.c **** }
 229              		.loc 1 253 3 view .LVU72
 230 0048 FFF7FEBF 		b	chMtxUnlock
 231              	.LVL17:
 253:lib/chibios/os/oslib/src/chpipes.c **** }
 232              		.loc 1 253 3 view .LVU73
 233              		.cfi_endproc
 234              	.LFE292:
 236              		.section	.text.chPipeWriteTimeout,"ax",%progbits
 237              		.align	1
 238              		.global	chPipeWriteTimeout
 239              		.syntax unified
 240              		.thumb
 241              		.thumb_func
 243              	chPipeWriteTimeout:
 244              	.LVL18:
 245              	.LFB293:
 255:lib/chibios/os/oslib/src/chpipes.c **** 
 256:lib/chibios/os/oslib/src/chpipes.c **** /**
 257:lib/chibios/os/oslib/src/chpipes.c ****  * @brief   Pipe write with timeout.
 258:lib/chibios/os/oslib/src/chpipes.c ****  * @details The function writes data from a buffer to a pipe. The
 259:lib/chibios/os/oslib/src/chpipes.c ****  *          operation completes when the specified amount of data has been
 260:lib/chibios/os/oslib/src/chpipes.c ****  *          transferred or after the specified timeout or if the pipe has
 261:lib/chibios/os/oslib/src/chpipes.c ****  *          been reset.
 262:lib/chibios/os/oslib/src/chpipes.c ****  *
 263:lib/chibios/os/oslib/src/chpipes.c ****  * @param[in] pp        the pointer to an initialized @p pipe_t object
 264:lib/chibios/os/oslib/src/chpipes.c ****  * @param[in] bp        pointer to the data buffer
 265:lib/chibios/os/oslib/src/chpipes.c ****  * @param[in] n         the number of bytes to be written, the value 0 is
 266:lib/chibios/os/oslib/src/chpipes.c ****  *                      reserved
 267:lib/chibios/os/oslib/src/chpipes.c ****  * @param[in] timeout   the number of ticks before the operation timeouts,
 268:lib/chibios/os/oslib/src/chpipes.c ****  *                      the following special values are allowed:
 269:lib/chibios/os/oslib/src/chpipes.c ****  *                      - @a TIME_IMMEDIATE immediate timeout.
 270:lib/chibios/os/oslib/src/chpipes.c ****  *                      - @a TIME_INFINITE no timeout.
 271:lib/chibios/os/oslib/src/chpipes.c ****  *                      .
 272:lib/chibios/os/oslib/src/chpipes.c ****  * @return              The number of bytes effectively transferred. A number
 273:lib/chibios/os/oslib/src/chpipes.c ****  *                      lower than @p n means that a timeout occurred or the
 274:lib/chibios/os/oslib/src/chpipes.c ****  *                      pipe went in reset state.
 275:lib/chibios/os/oslib/src/chpipes.c ****  *
 276:lib/chibios/os/oslib/src/chpipes.c ****  * @api
 277:lib/chibios/os/oslib/src/chpipes.c ****  */
 278:lib/chibios/os/oslib/src/chpipes.c **** size_t chPipeWriteTimeout(pipe_t *pp, const uint8_t *bp,
 279:lib/chibios/os/oslib/src/chpipes.c ****                           size_t n, sysinterval_t timeout) {
 246              		.loc 1 279 60 is_stmt 1 view -0
 247              		.cfi_startproc
 248              		@ args = 0, pretend = 0, frame = 8
 249              		@ frame_needed = 0, uses_anonymous_args = 0
 280:lib/chibios/os/oslib/src/chpipes.c ****   size_t max = n;
 250              		.loc 1 280 3 view .LVU75
 279:lib/chibios/os/oslib/src/chpipes.c ****   size_t max = n;
 251              		.loc 1 279 60 is_stmt 0 view .LVU76
 252 0000 2DE9F74F 		push	{r0, r1, r2, r4, r5, r6, r7, r8, r9, r10, fp, lr}
 253              		.cfi_def_cfa_offset 48
 254              		.cfi_offset 4, -36
 255              		.cfi_offset 5, -32
 256              		.cfi_offset 6, -28
 257              		.cfi_offset 7, -24
 258              		.cfi_offset 8, -20
 259              		.cfi_offset 9, -16
 260              		.cfi_offset 10, -12
 261              		.cfi_offset 11, -8
 262              		.cfi_offset 14, -4
 279:lib/chibios/os/oslib/src/chpipes.c ****   size_t max = n;
 263              		.loc 1 279 60 view .LVU77
 264 0004 0093     		str	r3, [sp]
 281:lib/chibios/os/oslib/src/chpipes.c **** 
 282:lib/chibios/os/oslib/src/chpipes.c ****   chDbgCheck(n > 0U);
 283:lib/chibios/os/oslib/src/chpipes.c **** 
 284:lib/chibios/os/oslib/src/chpipes.c ****   /* If the pipe is in reset state then returns immediately.*/
 285:lib/chibios/os/oslib/src/chpipes.c ****   if (pp->reset) {
 265              		.loc 1 285 6 view .LVU78
 266 0006 037D     		ldrb	r3, [r0, #20]	@ zero_extendqisi2
 267              	.LVL19:
 279:lib/chibios/os/oslib/src/chpipes.c ****   size_t max = n;
 268              		.loc 1 279 60 view .LVU79
 269 0008 0446     		mov	r4, r0
 270 000a 0E46     		mov	r6, r1
 271 000c 1746     		mov	r7, r2
 272              	.LVL20:
 282:lib/chibios/os/oslib/src/chpipes.c **** 
 273              		.loc 1 282 3 is_stmt 1 view .LVU80
 282:lib/chibios/os/oslib/src/chpipes.c **** 
 274              		.loc 1 282 3 view .LVU81
 282:lib/chibios/os/oslib/src/chpipes.c **** 
 275              		.loc 1 282 3 view .LVU82
 276              		.loc 1 285 3 view .LVU83
 277              		.loc 1 285 6 is_stmt 0 view .LVU84
 278 000e 002B     		cmp	r3, #0
 279 0010 5ED1     		bne	.L12
 286:lib/chibios/os/oslib/src/chpipes.c ****     return (size_t)0;
 287:lib/chibios/os/oslib/src/chpipes.c ****   }
 288:lib/chibios/os/oslib/src/chpipes.c **** 
 289:lib/chibios/os/oslib/src/chpipes.c ****   PW_LOCK(pp);
 280              		.loc 1 289 3 is_stmt 1 view .LVU85
 281 0012 00F1300A 		add	r10, r0, #48
 282 0016 5046     		mov	r0, r10
 283              	.LVL21:
 284              		.loc 1 289 3 is_stmt 0 view .LVU86
 285 0018 FFF7FEFF 		bl	chMtxLock
 286              	.LVL22:
 290:lib/chibios/os/oslib/src/chpipes.c **** 
 291:lib/chibios/os/oslib/src/chpipes.c ****   while (n > 0U) {
 287              		.loc 1 291 3 is_stmt 1 view .LVU87
 288              		.loc 1 291 9 is_stmt 0 view .LVU88
 289 001c B846     		mov	r8, r7
 290              	.LBB84:
 291              	.LBB85:
 292              	.LBB86:
 108:lib/chibios/os/oslib/src/chpipes.c **** 
 293              		.loc 1 108 3 view .LVU89
 294 001e 04F12009 		add	r9, r4, #32
 295              	.LVL23:
 296              	.L5:
 108:lib/chibios/os/oslib/src/chpipes.c **** 
 297              		.loc 1 108 3 view .LVU90
 298              	.LBE86:
 299              	.LBE85:
 300              	.LBE84:
 301              		.loc 1 291 12 is_stmt 1 view .LVU91
 302 0022 B8F1000F 		cmp	r8, #0
 303 0026 28D0     		beq	.L10
 304              	.LBB118:
 305              	.LBB104:
 292:lib/chibios/os/oslib/src/chpipes.c ****     size_t done;
 293:lib/chibios/os/oslib/src/chpipes.c **** 
 294:lib/chibios/os/oslib/src/chpipes.c ****     done = pipe_write(pp, bp, n);
 295:lib/chibios/os/oslib/src/chpipes.c ****     if (done == (size_t)0) {
 296:lib/chibios/os/oslib/src/chpipes.c ****       msg_t msg;
 297:lib/chibios/os/oslib/src/chpipes.c **** 
 298:lib/chibios/os/oslib/src/chpipes.c ****       chSysLock();
 299:lib/chibios/os/oslib/src/chpipes.c ****       msg = chThdSuspendTimeoutS(&pp->wtr, timeout);
 306              		.loc 1 299 13 is_stmt 0 view .LVU92
 307 0028 04F1180B 		add	fp, r4, #24
 308              	.LVL24:
 309              	.L11:
 310              		.loc 1 299 13 view .LVU93
 311              	.LBE104:
 292:lib/chibios/os/oslib/src/chpipes.c ****     size_t done;
 312              		.loc 1 292 5 is_stmt 1 view .LVU94
 294:lib/chibios/os/oslib/src/chpipes.c ****     if (done == (size_t)0) {
 313              		.loc 1 294 5 view .LVU95
 314              	.LBB114:
 315              	.LBI85:
 105:lib/chibios/os/oslib/src/chpipes.c ****   size_t s1, s2;
 316              		.loc 1 105 15 view .LVU96
 317              	.LBB101:
 106:lib/chibios/os/oslib/src/chpipes.c **** 
 318              		.loc 1 106 3 view .LVU97
 108:lib/chibios/os/oslib/src/chpipes.c **** 
 319              		.loc 1 108 3 view .LVU98
 320 002c 4846     		mov	r0, r9
 321 002e FFF7FEFF 		bl	chMtxLock
 322              	.LVL25:
 111:lib/chibios/os/oslib/src/chpipes.c ****     n = chPipeGetFreeCount(pp);
 323              		.loc 1 111 3 view .LVU99
 324              	.LBB87:
 325              	.LBI87:
 326              		.file 5 "./lib/chibios/os/oslib/include/chpipes.h"
   1:./lib/chibios/os/oslib/include/chpipes.h **** /*
   2:./lib/chibios/os/oslib/include/chpipes.h ****     ChibiOS - Copyright (C) 2006..2018 Giovanni Di Sirio.
   3:./lib/chibios/os/oslib/include/chpipes.h **** 
   4:./lib/chibios/os/oslib/include/chpipes.h ****     This file is part of ChibiOS.
   5:./lib/chibios/os/oslib/include/chpipes.h **** 
   6:./lib/chibios/os/oslib/include/chpipes.h ****     ChibiOS is free software; you can redistribute it and/or modify
   7:./lib/chibios/os/oslib/include/chpipes.h ****     it under the terms of the GNU General Public License as published by
   8:./lib/chibios/os/oslib/include/chpipes.h ****     the Free Software Foundation; either version 3 of the License, or
   9:./lib/chibios/os/oslib/include/chpipes.h ****     (at your option) any later version.
  10:./lib/chibios/os/oslib/include/chpipes.h **** 
  11:./lib/chibios/os/oslib/include/chpipes.h ****     ChibiOS is distributed in the hope that it will be useful,
  12:./lib/chibios/os/oslib/include/chpipes.h ****     but WITHOUT ANY WARRANTY; without even the implied warranty of
  13:./lib/chibios/os/oslib/include/chpipes.h ****     MERCHANTABILITY or FITNESS FOR A PARTICULAR PURPOSE.  See the
  14:./lib/chibios/os/oslib/include/chpipes.h ****     GNU General Public License for more details.
  15:./lib/chibios/os/oslib/include/chpipes.h **** 
  16:./lib/chibios/os/oslib/include/chpipes.h ****     You should have received a copy of the GNU General Public License
  17:./lib/chibios/os/oslib/include/chpipes.h ****     along with this program.  If not, see <http://www.gnu.org/licenses/>.
  18:./lib/chibios/os/oslib/include/chpipes.h **** */
  19:./lib/chibios/os/oslib/include/chpipes.h **** 
  20:./lib/chibios/os/oslib/include/chpipes.h **** /**
  21:./lib/chibios/os/oslib/include/chpipes.h ****  * @file    oslib/include/chpipes.h
  22:./lib/chibios/os/oslib/include/chpipes.h ****  * @brief   Pipes macros and structures.
  23:./lib/chibios/os/oslib/include/chpipes.h ****  *
  24:./lib/chibios/os/oslib/include/chpipes.h ****  * @addtogroup oslib_pipes
  25:./lib/chibios/os/oslib/include/chpipes.h ****  * @{
  26:./lib/chibios/os/oslib/include/chpipes.h ****  */
  27:./lib/chibios/os/oslib/include/chpipes.h **** 
  28:./lib/chibios/os/oslib/include/chpipes.h **** #ifndef CHPIPES_H
  29:./lib/chibios/os/oslib/include/chpipes.h **** #define CHPIPES_H
  30:./lib/chibios/os/oslib/include/chpipes.h **** 
  31:./lib/chibios/os/oslib/include/chpipes.h **** #if (CH_CFG_USE_PIPES == TRUE) || defined(__DOXYGEN__)
  32:./lib/chibios/os/oslib/include/chpipes.h **** 
  33:./lib/chibios/os/oslib/include/chpipes.h **** /*===========================================================================*/
  34:./lib/chibios/os/oslib/include/chpipes.h **** /* Module constants.                                                         */
  35:./lib/chibios/os/oslib/include/chpipes.h **** /*===========================================================================*/
  36:./lib/chibios/os/oslib/include/chpipes.h **** 
  37:./lib/chibios/os/oslib/include/chpipes.h **** /*===========================================================================*/
  38:./lib/chibios/os/oslib/include/chpipes.h **** /* Module pre-compile time settings.                                         */
  39:./lib/chibios/os/oslib/include/chpipes.h **** /*===========================================================================*/
  40:./lib/chibios/os/oslib/include/chpipes.h **** 
  41:./lib/chibios/os/oslib/include/chpipes.h **** /*===========================================================================*/
  42:./lib/chibios/os/oslib/include/chpipes.h **** /* Derived constants and error checks.                                       */
  43:./lib/chibios/os/oslib/include/chpipes.h **** /*===========================================================================*/
  44:./lib/chibios/os/oslib/include/chpipes.h **** 
  45:./lib/chibios/os/oslib/include/chpipes.h **** /*===========================================================================*/
  46:./lib/chibios/os/oslib/include/chpipes.h **** /* Module data structures and types.                                         */
  47:./lib/chibios/os/oslib/include/chpipes.h **** /*===========================================================================*/
  48:./lib/chibios/os/oslib/include/chpipes.h **** 
  49:./lib/chibios/os/oslib/include/chpipes.h **** /**
  50:./lib/chibios/os/oslib/include/chpipes.h ****  * @brief   Structure representing a pipe object.
  51:./lib/chibios/os/oslib/include/chpipes.h ****  */
  52:./lib/chibios/os/oslib/include/chpipes.h **** typedef struct {
  53:./lib/chibios/os/oslib/include/chpipes.h ****   uint8_t               *buffer;        /**< @brief Pointer to the pipe
  54:./lib/chibios/os/oslib/include/chpipes.h ****                                                     buffer.                 */
  55:./lib/chibios/os/oslib/include/chpipes.h ****   uint8_t               *top;           /**< @brief Pointer to the location
  56:./lib/chibios/os/oslib/include/chpipes.h ****                                                     after the buffer.       */
  57:./lib/chibios/os/oslib/include/chpipes.h ****   uint8_t               *wrptr;         /**< @brief Write pointer.          */
  58:./lib/chibios/os/oslib/include/chpipes.h ****   uint8_t               *rdptr;         /**< @brief Read pointer.           */
  59:./lib/chibios/os/oslib/include/chpipes.h ****   size_t                cnt;            /**< @brief Bytes in the pipe.      */
  60:./lib/chibios/os/oslib/include/chpipes.h ****   bool                  reset;          /**< @brief True if in reset state. */
  61:./lib/chibios/os/oslib/include/chpipes.h ****   thread_reference_t    wtr;            /**< @brief Waiting writer.         */
  62:./lib/chibios/os/oslib/include/chpipes.h ****   thread_reference_t    rtr;            /**< @brief Waiting reader.         */
  63:./lib/chibios/os/oslib/include/chpipes.h **** #if (CH_CFG_USE_MUTEXES == TRUE) || defined(__DOXYGEN__)
  64:./lib/chibios/os/oslib/include/chpipes.h ****   mutex_t               cmtx;           /**< @brief Common access mutex.    */
  65:./lib/chibios/os/oslib/include/chpipes.h ****   mutex_t               wmtx;           /**< @brief Write access mutex.     */
  66:./lib/chibios/os/oslib/include/chpipes.h ****   mutex_t               rmtx;           /**< @brief Read access mutex.      */
  67:./lib/chibios/os/oslib/include/chpipes.h **** #else
  68:./lib/chibios/os/oslib/include/chpipes.h ****   semaphore_t           csem;           /**< @brief Common access semaphore.*/
  69:./lib/chibios/os/oslib/include/chpipes.h ****   semaphore_t           wsem;           /**< @brief Write access semaphore. */
  70:./lib/chibios/os/oslib/include/chpipes.h ****   semaphore_t           rsem;           /**< @brief Read access semaphore.  */
  71:./lib/chibios/os/oslib/include/chpipes.h **** #endif
  72:./lib/chibios/os/oslib/include/chpipes.h **** } pipe_t;
  73:./lib/chibios/os/oslib/include/chpipes.h **** 
  74:./lib/chibios/os/oslib/include/chpipes.h **** /*===========================================================================*/
  75:./lib/chibios/os/oslib/include/chpipes.h **** /* Module macros.                                                            */
  76:./lib/chibios/os/oslib/include/chpipes.h **** /*===========================================================================*/
  77:./lib/chibios/os/oslib/include/chpipes.h **** 
  78:./lib/chibios/os/oslib/include/chpipes.h **** /**
  79:./lib/chibios/os/oslib/include/chpipes.h ****  * @brief   Data part of a static pipe initializer.
  80:./lib/chibios/os/oslib/include/chpipes.h ****  * @details This macro should be used when statically initializing a
  81:./lib/chibios/os/oslib/include/chpipes.h ****  *          pipe that is part of a bigger structure.
  82:./lib/chibios/os/oslib/include/chpipes.h ****  *
  83:./lib/chibios/os/oslib/include/chpipes.h ****  * @param[in] name      the name of the pipe variable
  84:./lib/chibios/os/oslib/include/chpipes.h ****  * @param[in] buffer    pointer to the pipe buffer array of @p uint8_t
  85:./lib/chibios/os/oslib/include/chpipes.h ****  * @param[in] size      number of @p uint8_t elements in the buffer array
  86:./lib/chibios/os/oslib/include/chpipes.h ****  */
  87:./lib/chibios/os/oslib/include/chpipes.h **** #if (CH_CFG_USE_MUTEXES == TRUE) || defined(__DOXYGEN__)
  88:./lib/chibios/os/oslib/include/chpipes.h **** #define _PIPE_DATA(name, buffer, size) {                                    \
  89:./lib/chibios/os/oslib/include/chpipes.h ****   (uint8_t *)(buffer),                                                      \
  90:./lib/chibios/os/oslib/include/chpipes.h ****   (uint8_t *)(buffer) + size,                                               \
  91:./lib/chibios/os/oslib/include/chpipes.h ****   (uint8_t *)(buffer),                                                      \
  92:./lib/chibios/os/oslib/include/chpipes.h ****   (uint8_t *)(buffer),                                                      \
  93:./lib/chibios/os/oslib/include/chpipes.h ****   (size_t)0,                                                                \
  94:./lib/chibios/os/oslib/include/chpipes.h ****   false,                                                                    \
  95:./lib/chibios/os/oslib/include/chpipes.h ****   NULL,                                                                     \
  96:./lib/chibios/os/oslib/include/chpipes.h ****   NULL,                                                                     \
  97:./lib/chibios/os/oslib/include/chpipes.h ****   _MUTEX_DATA(name.cmtx),                                                   \
  98:./lib/chibios/os/oslib/include/chpipes.h ****   _MUTEX_DATA(name.wmtx),                                                   \
  99:./lib/chibios/os/oslib/include/chpipes.h ****   _MUTEX_DATA(name.rmtx),                                                   \
 100:./lib/chibios/os/oslib/include/chpipes.h **** }
 101:./lib/chibios/os/oslib/include/chpipes.h **** #else /* CH_CFG_USE_MUTEXES == FALSE */
 102:./lib/chibios/os/oslib/include/chpipes.h **** #define _PIPE_DATA(name, buffer, size) {                                    \
 103:./lib/chibios/os/oslib/include/chpipes.h ****   (uint8_t *)(buffer),                                                      \
 104:./lib/chibios/os/oslib/include/chpipes.h ****   (uint8_t *)(buffer) + size,                                               \
 105:./lib/chibios/os/oslib/include/chpipes.h ****   (uint8_t *)(buffer),                                                      \
 106:./lib/chibios/os/oslib/include/chpipes.h ****   (uint8_t *)(buffer),                                                      \
 107:./lib/chibios/os/oslib/include/chpipes.h ****   (size_t)0,                                                                \
 108:./lib/chibios/os/oslib/include/chpipes.h ****   false,                                                                    \
 109:./lib/chibios/os/oslib/include/chpipes.h ****   NULL,                                                                     \
 110:./lib/chibios/os/oslib/include/chpipes.h ****   NULL,                                                                     \
 111:./lib/chibios/os/oslib/include/chpipes.h ****   _SEMAPHORE_DATA(name.csem, (cnt_t)1),                                     \
 112:./lib/chibios/os/oslib/include/chpipes.h ****   _SEMAPHORE_DATA(name.wsem, (cnt_t)1),                                     \
 113:./lib/chibios/os/oslib/include/chpipes.h ****   _SEMAPHORE_DATA(name.rsem, (cnt_t)1),                                     \
 114:./lib/chibios/os/oslib/include/chpipes.h **** }
 115:./lib/chibios/os/oslib/include/chpipes.h **** #endif /* CH_CFG_USE_MUTEXES == FALSE */
 116:./lib/chibios/os/oslib/include/chpipes.h **** 
 117:./lib/chibios/os/oslib/include/chpipes.h **** /**
 118:./lib/chibios/os/oslib/include/chpipes.h ****  * @brief   Static pipe initializer.
 119:./lib/chibios/os/oslib/include/chpipes.h ****  * @details Statically initialized pipes require no explicit
 120:./lib/chibios/os/oslib/include/chpipes.h ****  *          initialization using @p chPipeObjectInit().
 121:./lib/chibios/os/oslib/include/chpipes.h ****  *
 122:./lib/chibios/os/oslib/include/chpipes.h ****  * @param[in] name      the name of the pipe variable
 123:./lib/chibios/os/oslib/include/chpipes.h ****  * @param[in] buffer    pointer to the pipe buffer array of @p uint8_t
 124:./lib/chibios/os/oslib/include/chpipes.h ****  * @param[in] size      number of @p uint8_t elements in the buffer array
 125:./lib/chibios/os/oslib/include/chpipes.h ****  */
 126:./lib/chibios/os/oslib/include/chpipes.h **** #define PIPE_DECL(name, buffer, size)                                       \
 127:./lib/chibios/os/oslib/include/chpipes.h ****   pipe_t name = _PIPE_DATA(name, buffer, size)
 128:./lib/chibios/os/oslib/include/chpipes.h **** 
 129:./lib/chibios/os/oslib/include/chpipes.h **** /*===========================================================================*/
 130:./lib/chibios/os/oslib/include/chpipes.h **** /* External declarations.                                                    */
 131:./lib/chibios/os/oslib/include/chpipes.h **** /*===========================================================================*/
 132:./lib/chibios/os/oslib/include/chpipes.h **** 
 133:./lib/chibios/os/oslib/include/chpipes.h **** #ifdef __cplusplus
 134:./lib/chibios/os/oslib/include/chpipes.h **** extern "C" {
 135:./lib/chibios/os/oslib/include/chpipes.h **** #endif
 136:./lib/chibios/os/oslib/include/chpipes.h ****   void chPipeObjectInit(pipe_t *pp, uint8_t *buf, size_t n);
 137:./lib/chibios/os/oslib/include/chpipes.h ****   void chPipeReset(pipe_t *pp);
 138:./lib/chibios/os/oslib/include/chpipes.h ****   size_t chPipeWriteTimeout(pipe_t *pp, const uint8_t *bp,
 139:./lib/chibios/os/oslib/include/chpipes.h ****                             size_t n, sysinterval_t timeout);
 140:./lib/chibios/os/oslib/include/chpipes.h ****   size_t chPipeReadTimeout(pipe_t *pp, uint8_t *bp,
 141:./lib/chibios/os/oslib/include/chpipes.h ****                            size_t n, sysinterval_t timeout);
 142:./lib/chibios/os/oslib/include/chpipes.h **** #ifdef __cplusplus
 143:./lib/chibios/os/oslib/include/chpipes.h **** }
 144:./lib/chibios/os/oslib/include/chpipes.h **** #endif
 145:./lib/chibios/os/oslib/include/chpipes.h **** 
 146:./lib/chibios/os/oslib/include/chpipes.h **** /*===========================================================================*/
 147:./lib/chibios/os/oslib/include/chpipes.h **** /* Module inline functions.                                                  */
 148:./lib/chibios/os/oslib/include/chpipes.h **** /*===========================================================================*/
 149:./lib/chibios/os/oslib/include/chpipes.h **** 
 150:./lib/chibios/os/oslib/include/chpipes.h **** /**
 151:./lib/chibios/os/oslib/include/chpipes.h ****  * @brief   Returns the pipe buffer size as number of bytes.
 152:./lib/chibios/os/oslib/include/chpipes.h ****  *
 153:./lib/chibios/os/oslib/include/chpipes.h ****  * @param[in] pp        the pointer to an initialized @p pipe_t object
 154:./lib/chibios/os/oslib/include/chpipes.h ****  * @return              The size of the pipe.
 155:./lib/chibios/os/oslib/include/chpipes.h ****  *
 156:./lib/chibios/os/oslib/include/chpipes.h ****  * @api
 157:./lib/chibios/os/oslib/include/chpipes.h ****  */
 158:./lib/chibios/os/oslib/include/chpipes.h **** static inline size_t chPipeGetSize(const pipe_t *pp) {
 159:./lib/chibios/os/oslib/include/chpipes.h **** 
 160:./lib/chibios/os/oslib/include/chpipes.h ****   /*lint -save -e9033 [10.8] Perfectly safe pointers
 161:./lib/chibios/os/oslib/include/chpipes.h ****     arithmetic.*/
 162:./lib/chibios/os/oslib/include/chpipes.h ****   return (size_t)(pp->top - pp->buffer);
 163:./lib/chibios/os/oslib/include/chpipes.h ****   /*lint -restore*/
 164:./lib/chibios/os/oslib/include/chpipes.h **** }
 165:./lib/chibios/os/oslib/include/chpipes.h **** 
 166:./lib/chibios/os/oslib/include/chpipes.h **** /**
 167:./lib/chibios/os/oslib/include/chpipes.h ****  * @brief   Returns the number of used byte slots into a pipe.
 168:./lib/chibios/os/oslib/include/chpipes.h ****  *
 169:./lib/chibios/os/oslib/include/chpipes.h ****  * @param[in] pp        the pointer to an initialized @p pipe_t object
 170:./lib/chibios/os/oslib/include/chpipes.h ****  * @return              The number of queued bytes.
 171:./lib/chibios/os/oslib/include/chpipes.h ****  *
 172:./lib/chibios/os/oslib/include/chpipes.h ****  * @api
 173:./lib/chibios/os/oslib/include/chpipes.h ****  */
 174:./lib/chibios/os/oslib/include/chpipes.h **** static inline size_t chPipeGetUsedCount(const pipe_t *pp) {
 175:./lib/chibios/os/oslib/include/chpipes.h **** 
 176:./lib/chibios/os/oslib/include/chpipes.h ****   return pp->cnt;
 177:./lib/chibios/os/oslib/include/chpipes.h **** }
 178:./lib/chibios/os/oslib/include/chpipes.h **** 
 179:./lib/chibios/os/oslib/include/chpipes.h **** /**
 180:./lib/chibios/os/oslib/include/chpipes.h ****  * @brief   Returns the number of free byte slots into a pipe.
 181:./lib/chibios/os/oslib/include/chpipes.h ****  *
 182:./lib/chibios/os/oslib/include/chpipes.h ****  * @param[in] pp        the pointer to an initialized @p pipe_t object
 183:./lib/chibios/os/oslib/include/chpipes.h ****  * @return              The number of empty byte slots.
 184:./lib/chibios/os/oslib/include/chpipes.h ****  *
 185:./lib/chibios/os/oslib/include/chpipes.h ****  * @api
 186:./lib/chibios/os/oslib/include/chpipes.h ****  */
 187:./lib/chibios/os/oslib/include/chpipes.h **** static inline size_t chPipeGetFreeCount(const pipe_t *pp) {
 327              		.loc 5 187 22 view .LVU100
 328              	.LBB88:
 188:./lib/chibios/os/oslib/include/chpipes.h **** 
 189:./lib/chibios/os/oslib/include/chpipes.h ****   return chPipeGetSize(pp) - chPipeGetUsedCount(pp);
 329              		.loc 5 189 3 view .LVU101
 330              	.LBB89:
 331              	.LBI89:
 158:./lib/chibios/os/oslib/include/chpipes.h **** 
 332              		.loc 5 158 22 view .LVU102
 333              	.LBB90:
 162:./lib/chibios/os/oslib/include/chpipes.h ****   /*lint -restore*/
 334              		.loc 5 162 3 view .LVU103
 162:./lib/chibios/os/oslib/include/chpipes.h ****   /*lint -restore*/
 335              		.loc 5 162 21 is_stmt 0 view .LVU104
 336 0032 6368     		ldr	r3, [r4, #4]
 337              	.LVL26:
 162:./lib/chibios/os/oslib/include/chpipes.h ****   /*lint -restore*/
 338              		.loc 5 162 21 view .LVU105
 339              	.LBE90:
 340              	.LBE89:
 341              	.LBB93:
 342              	.LBI93:
 174:./lib/chibios/os/oslib/include/chpipes.h **** 
 343              		.loc 5 174 22 is_stmt 1 view .LVU106
 344              	.LBB94:
 176:./lib/chibios/os/oslib/include/chpipes.h **** }
 345              		.loc 5 176 3 view .LVU107
 346              	.LBE94:
 347              	.LBE93:
 348              	.LBB96:
 349              	.LBB91:
 162:./lib/chibios/os/oslib/include/chpipes.h ****   /*lint -restore*/
 350              		.loc 5 162 27 is_stmt 0 view .LVU108
 351 0034 2568     		ldr	r5, [r4]
 352              	.LBE91:
 353              	.LBE96:
 354              	.LBB97:
 355              	.LBB95:
 176:./lib/chibios/os/oslib/include/chpipes.h **** }
 356              		.loc 5 176 12 view .LVU109
 357 0036 2269     		ldr	r2, [r4, #16]
 358              	.LVL27:
 176:./lib/chibios/os/oslib/include/chpipes.h **** }
 359              		.loc 5 176 12 view .LVU110
 360              	.LBE95:
 361              	.LBE97:
 362              	.LBE88:
 363              	.LBE87:
 118:lib/chibios/os/oslib/src/chpipes.c ****   /*lint -restore*/
 364              		.loc 1 118 29 view .LVU111
 365 0038 A068     		ldr	r0, [r4, #8]
 366              	.LBB100:
 367              	.LBB99:
 368              	.LBB98:
 369              	.LBB92:
 162:./lib/chibios/os/oslib/include/chpipes.h ****   /*lint -restore*/
 370              		.loc 5 162 27 view .LVU112
 371 003a 5D1B     		subs	r5, r3, r5
 372              	.LBE92:
 373              	.LBE98:
 374              		.loc 5 189 28 view .LVU113
 375 003c AD1A     		subs	r5, r5, r2
 376 003e 4545     		cmp	r5, r8
 377 0040 28BF     		it	cs
 378 0042 4546     		movcs	r5, r8
 379              	.LVL28:
 380              		.loc 5 189 28 view .LVU114
 381              	.LBE99:
 382              	.LBE100:
 114:lib/chibios/os/oslib/src/chpipes.c **** 
 383              		.loc 1 114 3 is_stmt 1 view .LVU115
 118:lib/chibios/os/oslib/src/chpipes.c ****   /*lint -restore*/
 384              		.loc 1 118 25 is_stmt 0 view .LVU116
 385 0044 1B1A     		subs	r3, r3, r0
 114:lib/chibios/os/oslib/src/chpipes.c **** 
 386              		.loc 1 114 11 view .LVU117
 387 0046 2A44     		add	r2, r2, r5
 121:lib/chibios/os/oslib/src/chpipes.c ****     memcpy((void *)pp->wrptr, (const void *)bp, n);
 388              		.loc 1 121 6 view .LVU118
 389 0048 9D42     		cmp	r5, r3
 114:lib/chibios/os/oslib/src/chpipes.c **** 
 390              		.loc 1 114 11 view .LVU119
 391 004a 2261     		str	r2, [r4, #16]
 118:lib/chibios/os/oslib/src/chpipes.c ****   /*lint -restore*/
 392              		.loc 1 118 3 is_stmt 1 view .LVU120
 393              	.LVL29:
 121:lib/chibios/os/oslib/src/chpipes.c ****     memcpy((void *)pp->wrptr, (const void *)bp, n);
 394              		.loc 1 121 3 view .LVU121
 121:lib/chibios/os/oslib/src/chpipes.c ****     memcpy((void *)pp->wrptr, (const void *)bp, n);
 395              		.loc 1 121 6 is_stmt 0 view .LVU122
 396 004c 1DD2     		bcs	.L6
 122:lib/chibios/os/oslib/src/chpipes.c ****     pp->wrptr += n;
 397              		.loc 1 122 5 is_stmt 1 view .LVU123
 398 004e 2A46     		mov	r2, r5
 399 0050 3146     		mov	r1, r6
 400 0052 FFF7FEFF 		bl	memcpy
 401              	.LVL30:
 123:lib/chibios/os/oslib/src/chpipes.c ****   }
 402              		.loc 1 123 5 view .LVU124
 123:lib/chibios/os/oslib/src/chpipes.c ****   }
 403              		.loc 1 123 15 is_stmt 0 view .LVU125
 404 0056 A368     		ldr	r3, [r4, #8]
 405 0058 2B44     		add	r3, r3, r5
 406              	.L7:
 123:lib/chibios/os/oslib/src/chpipes.c ****   }
 407              		.loc 1 123 15 view .LVU126
 408 005a A360     		str	r3, [r4, #8]
 137:lib/chibios/os/oslib/src/chpipes.c **** 
 409              		.loc 1 137 3 is_stmt 1 view .LVU127
 410 005c 4846     		mov	r0, r9
 411 005e FFF7FEFF 		bl	chMtxUnlock
 412              	.LVL31:
 139:lib/chibios/os/oslib/src/chpipes.c **** }
 413              		.loc 1 139 3 view .LVU128
 139:lib/chibios/os/oslib/src/chpipes.c **** }
 414              		.loc 1 139 3 is_stmt 0 view .LVU129
 415              	.LBE101:
 416              	.LBE114:
 295:lib/chibios/os/oslib/src/chpipes.c ****       msg_t msg;
 417              		.loc 1 295 5 is_stmt 1 view .LVU130
 295:lib/chibios/os/oslib/src/chpipes.c ****       msg_t msg;
 418              		.loc 1 295 8 is_stmt 0 view .LVU131
 419 0062 35BB     		cbnz	r5, .L9
 420              	.LBB115:
 296:lib/chibios/os/oslib/src/chpipes.c **** 
 421              		.loc 1 296 7 is_stmt 1 view .LVU132
 298:lib/chibios/os/oslib/src/chpipes.c ****       msg = chThdSuspendTimeoutS(&pp->wtr, timeout);
 422              		.loc 1 298 7 view .LVU133
 423              	.LBB105:
 424              	.LBI105:
 355:./lib/chibios/os/rt/include/chsys.h **** 
 425              		.loc 2 355 20 view .LVU134
 357:./lib/chibios/os/rt/include/chsys.h ****   _stats_start_measure_crit_thd();
 426              		.loc 2 357 3 view .LVU135
 427              	.LBB106:
 428              	.LBI106:
 669:./lib/chibios/os/common/ports/ARMCMx/chcore_v7m.h **** 
 429              		.loc 3 669 27 view .LVU136
 677:./lib/chibios/os/common/ports/ARMCMx/chcore_v7m.h **** #if defined(__CM7_REV)
 430              		.loc 3 677 3 view .LVU137
 431              	.LVL32:
 432              	.LBB107:
 433              	.LBI107:
 491:./lib/chibios/os/common/ext/ARM/CMSIS/Core/Include/cmsis_gcc.h **** {
 434              		.loc 4 491 27 view .LVU138
 435              	.LBB108:
 436              		.loc 4 493 3 view .LVU139
 437 0064 2023     		movs	r3, #32
 438              		.syntax unified
 439              	@ 493 "./lib/chibios/os/common/ext/ARM/CMSIS/Core/Include/cmsis_gcc.h" 1
 440 0066 83F31188 		MSR basepri, r3
 441              	@ 0 "" 2
 442              	.LVL33:
 443              		.loc 4 493 3 is_stmt 0 view .LVU140
 444              		.thumb
 445              		.syntax unified
 446              	.LBE108:
 447              	.LBE107:
 448              	.LBE106:
 358:./lib/chibios/os/rt/include/chsys.h ****   _dbg_check_lock();
 449              		.loc 2 358 34 is_stmt 1 view .LVU141
 359:./lib/chibios/os/rt/include/chsys.h **** }
 450              		.loc 2 359 20 view .LVU142
 451              	.LBE105:
 452              		.loc 1 299 7 view .LVU143
 453              		.loc 1 299 13 is_stmt 0 view .LVU144
 454 006a 0099     		ldr	r1, [sp]
 455 006c 5846     		mov	r0, fp
 456 006e FFF7FEFF 		bl	chThdSuspendTimeoutS
 457              	.LVL34:
 300:lib/chibios/os/oslib/src/chpipes.c ****       chSysUnlock();
 458              		.loc 1 300 7 is_stmt 1 view .LVU145
 459              	.LBB109:
 460              	.LBI109:
 367:./lib/chibios/os/rt/include/chsys.h **** 
 461              		.loc 2 367 20 view .LVU146
 462              	.LBB110:
 369:./lib/chibios/os/rt/include/chsys.h ****   _stats_stop_measure_crit_thd();
 463              		.loc 2 369 22 view .LVU147
 370:./lib/chibios/os/rt/include/chsys.h **** 
 464              		.loc 2 370 33 view .LVU148
 376:./lib/chibios/os/rt/include/chsys.h ****               (ch.rlist.current->hdr.pqueue.prio >= ch.rlist.pqueue.next->prio),
 465              		.loc 2 376 3 view .LVU149
 376:./lib/chibios/os/rt/include/chsys.h ****               (ch.rlist.current->hdr.pqueue.prio >= ch.rlist.pqueue.next->prio),
 466              		.loc 2 376 3 view .LVU150
 376:./lib/chibios/os/rt/include/chsys.h ****               (ch.rlist.current->hdr.pqueue.prio >= ch.rlist.pqueue.next->prio),
 467              		.loc 2 376 3 view .LVU151
 468              		.loc 2 380 3 view .LVU152
 469              	.LBB111:
 470              	.LBI111:
 693:./lib/chibios/os/common/ports/ARMCMx/chcore_v7m.h **** 
 471              		.loc 3 693 27 view .LVU153
 472              		.loc 3 696 3 view .LVU154
 473              	.LBB112:
 474              	.LBI112:
 491:./lib/chibios/os/common/ext/ARM/CMSIS/Core/Include/cmsis_gcc.h **** {
 475              		.loc 4 491 27 view .LVU155
 476              	.LBB113:
 477              		.loc 4 493 3 view .LVU156
 478              		.syntax unified
 479              	@ 493 "./lib/chibios/os/common/ext/ARM/CMSIS/Core/Include/cmsis_gcc.h" 1
 480 0072 85F31188 		MSR basepri, r5
 481              	@ 0 "" 2
 482              	.LVL35:
 483              		.loc 4 493 3 is_stmt 0 view .LVU157
 484              		.thumb
 485              		.syntax unified
 486              	.LBE113:
 487              	.LBE112:
 488              	.LBE111:
 489              	.LBE110:
 490              	.LBE109:
 301:lib/chibios/os/oslib/src/chpipes.c **** 
 302:lib/chibios/os/oslib/src/chpipes.c ****       /* Anything except MSG_OK causes the operation to stop.*/
 303:lib/chibios/os/oslib/src/chpipes.c ****       if (msg != MSG_OK) {
 491              		.loc 1 303 7 is_stmt 1 view .LVU158
 492              		.loc 1 303 10 is_stmt 0 view .LVU159
 493 0076 0028     		cmp	r0, #0
 494 0078 D8D0     		beq	.L11
 495              	.LVL36:
 496              	.L10:
 497              		.loc 1 303 10 view .LVU160
 498              	.LBE115:
 499              	.LBE118:
 304:lib/chibios/os/oslib/src/chpipes.c ****         break;
 305:lib/chibios/os/oslib/src/chpipes.c ****       }
 306:lib/chibios/os/oslib/src/chpipes.c ****     }
 307:lib/chibios/os/oslib/src/chpipes.c ****     else {
 308:lib/chibios/os/oslib/src/chpipes.c ****       n  -= done;
 309:lib/chibios/os/oslib/src/chpipes.c ****       bp += done;
 310:lib/chibios/os/oslib/src/chpipes.c **** 
 311:lib/chibios/os/oslib/src/chpipes.c ****       /* Resuming the reader, if present.*/
 312:lib/chibios/os/oslib/src/chpipes.c ****       chThdResume(&pp->rtr, MSG_OK);
 313:lib/chibios/os/oslib/src/chpipes.c ****     }
 314:lib/chibios/os/oslib/src/chpipes.c ****   }
 315:lib/chibios/os/oslib/src/chpipes.c **** 
 316:lib/chibios/os/oslib/src/chpipes.c ****   PW_UNLOCK(pp);
 500              		.loc 1 316 3 is_stmt 1 view .LVU161
 501 007a 5046     		mov	r0, r10
 502 007c FFF7FEFF 		bl	chMtxUnlock
 503              	.LVL37:
 317:lib/chibios/os/oslib/src/chpipes.c **** 
 318:lib/chibios/os/oslib/src/chpipes.c ****   return max - n;
 504              		.loc 1 318 3 view .LVU162
 505              		.loc 1 318 14 is_stmt 0 view .LVU163
 506 0080 A7EB0800 		sub	r0, r7, r8
 507              	.L3:
 319:lib/chibios/os/oslib/src/chpipes.c **** }
 508              		.loc 1 319 1 view .LVU164
 509 0084 03B0     		add	sp, sp, #12
 510              		.cfi_remember_state
 511              		.cfi_def_cfa_offset 36
 512              	.LVL38:
 513              		.loc 1 319 1 view .LVU165
 514              		@ sp needed
 515 0086 BDE8F08F 		pop	{r4, r5, r6, r7, r8, r9, r10, fp, pc}
 516              	.LVL39:
 517              	.L6:
 518              		.cfi_restore_state
 519              	.LBB119:
 520              	.LBB116:
 521              	.LBB102:
 125:lib/chibios/os/oslib/src/chpipes.c ****     memcpy((void *)pp->wrptr, (const void *)bp, s1);
 522              		.loc 1 125 8 is_stmt 1 view .LVU166
 125:lib/chibios/os/oslib/src/chpipes.c ****     memcpy((void *)pp->wrptr, (const void *)bp, s1);
 523              		.loc 1 125 11 is_stmt 0 view .LVU167
 524 008a 1BD9     		bls	.L8
 126:lib/chibios/os/oslib/src/chpipes.c ****     bp += s1;
 525              		.loc 1 126 5 is_stmt 1 view .LVU168
 526 008c 1A46     		mov	r2, r3
 527 008e 3146     		mov	r1, r6
 528 0090 0193     		str	r3, [sp, #4]
 529 0092 FFF7FEFF 		bl	memcpy
 530              	.LVL40:
 127:lib/chibios/os/oslib/src/chpipes.c ****     s2 = n - s1;
 531              		.loc 1 127 5 view .LVU169
 128:lib/chibios/os/oslib/src/chpipes.c ****     memcpy((void *)pp->buffer, (const void *)bp, s2);
 532              		.loc 1 128 5 view .LVU170
 128:lib/chibios/os/oslib/src/chpipes.c ****     memcpy((void *)pp->buffer, (const void *)bp, s2);
 533              		.loc 1 128 8 is_stmt 0 view .LVU171
 534 0096 019B     		ldr	r3, [sp, #4]
 129:lib/chibios/os/oslib/src/chpipes.c ****     pp->wrptr = pp->buffer + s2;
 535              		.loc 1 129 5 view .LVU172
 536 0098 2068     		ldr	r0, [r4]
 128:lib/chibios/os/oslib/src/chpipes.c ****     memcpy((void *)pp->buffer, (const void *)bp, s2);
 537              		.loc 1 128 8 view .LVU173
 538 009a A5EB030B 		sub	fp, r5, r3
 539              	.LVL41:
 129:lib/chibios/os/oslib/src/chpipes.c ****     pp->wrptr = pp->buffer + s2;
 540              		.loc 1 129 5 is_stmt 1 view .LVU174
 541 009e F118     		adds	r1, r6, r3
 542              	.LVL42:
 129:lib/chibios/os/oslib/src/chpipes.c ****     pp->wrptr = pp->buffer + s2;
 543              		.loc 1 129 5 is_stmt 0 view .LVU175
 544 00a0 5A46     		mov	r2, fp
 545 00a2 FFF7FEFF 		bl	memcpy
 546              	.LVL43:
 130:lib/chibios/os/oslib/src/chpipes.c ****   }
 547              		.loc 1 130 5 is_stmt 1 view .LVU176
 130:lib/chibios/os/oslib/src/chpipes.c ****   }
 548              		.loc 1 130 28 is_stmt 0 view .LVU177
 549 00a6 2368     		ldr	r3, [r4]
 550 00a8 5B44     		add	r3, r3, fp
 130:lib/chibios/os/oslib/src/chpipes.c ****   }
 551              		.loc 1 130 15 view .LVU178
 552 00aa A360     		str	r3, [r4, #8]
 137:lib/chibios/os/oslib/src/chpipes.c **** 
 553              		.loc 1 137 3 is_stmt 1 view .LVU179
 554 00ac 4846     		mov	r0, r9
 555 00ae FFF7FEFF 		bl	chMtxUnlock
 556              	.LVL44:
 139:lib/chibios/os/oslib/src/chpipes.c **** }
 557              		.loc 1 139 3 view .LVU180
 139:lib/chibios/os/oslib/src/chpipes.c **** }
 558              		.loc 1 139 3 is_stmt 0 view .LVU181
 559              	.LBE102:
 560              	.LBE116:
 295:lib/chibios/os/oslib/src/chpipes.c ****       msg_t msg;
 561              		.loc 1 295 5 is_stmt 1 view .LVU182
 562              	.L9:
 308:lib/chibios/os/oslib/src/chpipes.c ****       bp += done;
 563              		.loc 1 308 7 view .LVU183
 312:lib/chibios/os/oslib/src/chpipes.c ****     }
 564              		.loc 1 312 7 is_stmt 0 view .LVU184
 565 00b2 0021     		movs	r1, #0
 566 00b4 04F11C00 		add	r0, r4, #28
 308:lib/chibios/os/oslib/src/chpipes.c ****       bp += done;
 567              		.loc 1 308 10 view .LVU185
 568 00b8 A8EB0508 		sub	r8, r8, r5
 569              	.LVL45:
 309:lib/chibios/os/oslib/src/chpipes.c **** 
 570              		.loc 1 309 7 is_stmt 1 view .LVU186
 309:lib/chibios/os/oslib/src/chpipes.c **** 
 571              		.loc 1 309 10 is_stmt 0 view .LVU187
 572 00bc 2E44     		add	r6, r6, r5
 573              	.LVL46:
 312:lib/chibios/os/oslib/src/chpipes.c ****     }
 574              		.loc 1 312 7 is_stmt 1 view .LVU188
 575 00be FFF7FEFF 		bl	chThdResume
 576              	.LVL47:
 577 00c2 AEE7     		b	.L5
 578              	.LVL48:
 579              	.L8:
 580              	.LBB117:
 581              	.LBB103:
 133:lib/chibios/os/oslib/src/chpipes.c ****     pp->wrptr = pp->buffer;
 582              		.loc 1 133 5 view .LVU189
 583 00c4 2A46     		mov	r2, r5
 584 00c6 3146     		mov	r1, r6
 585 00c8 FFF7FEFF 		bl	memcpy
 586              	.LVL49:
 134:lib/chibios/os/oslib/src/chpipes.c ****   }
 587              		.loc 1 134 5 view .LVU190
 134:lib/chibios/os/oslib/src/chpipes.c ****   }
 588              		.loc 1 134 19 is_stmt 0 view .LVU191
 589 00cc 2368     		ldr	r3, [r4]
 590 00ce C4E7     		b	.L7
 591              	.LVL50:
 592              	.L12:
 134:lib/chibios/os/oslib/src/chpipes.c ****   }
 593              		.loc 1 134 19 view .LVU192
 594              	.LBE103:
 595              	.LBE117:
 596              	.LBE119:
 286:lib/chibios/os/oslib/src/chpipes.c ****   }
 597              		.loc 1 286 12 view .LVU193
 598 00d0 0020     		movs	r0, #0
 599              	.LVL51:
 286:lib/chibios/os/oslib/src/chpipes.c ****   }
 600              		.loc 1 286 12 view .LVU194
 601 00d2 D7E7     		b	.L3
 602              		.cfi_endproc
 603              	.LFE293:
 605              		.section	.text.chPipeReadTimeout,"ax",%progbits
 606              		.align	1
 607              		.global	chPipeReadTimeout
 608              		.syntax unified
 609              		.thumb
 610              		.thumb_func
 612              	chPipeReadTimeout:
 613              	.LVL52:
 614              	.LFB294:
 320:lib/chibios/os/oslib/src/chpipes.c **** 
 321:lib/chibios/os/oslib/src/chpipes.c **** /**
 322:lib/chibios/os/oslib/src/chpipes.c ****  * @brief   Pipe read with timeout.
 323:lib/chibios/os/oslib/src/chpipes.c ****  * @details The function reads data from a pipe into a buffer. The
 324:lib/chibios/os/oslib/src/chpipes.c ****  *          operation completes when the specified amount of data has been
 325:lib/chibios/os/oslib/src/chpipes.c ****  *          transferred or after the specified timeout or if the pipe has
 326:lib/chibios/os/oslib/src/chpipes.c ****  *          been reset.
 327:lib/chibios/os/oslib/src/chpipes.c ****  *
 328:lib/chibios/os/oslib/src/chpipes.c ****  * @param[in] pp        the pointer to an initialized @p pipe_t object
 329:lib/chibios/os/oslib/src/chpipes.c ****  * @param[out] bp       pointer to the data buffer
 330:lib/chibios/os/oslib/src/chpipes.c ****  * @param[in] n         the number of bytes to be read, the value 0 is
 331:lib/chibios/os/oslib/src/chpipes.c ****  *                      reserved
 332:lib/chibios/os/oslib/src/chpipes.c ****  * @param[in] timeout   the number of ticks before the operation timeouts,
 333:lib/chibios/os/oslib/src/chpipes.c ****  *                      the following special values are allowed:
 334:lib/chibios/os/oslib/src/chpipes.c ****  *                      - @a TIME_IMMEDIATE immediate timeout.
 335:lib/chibios/os/oslib/src/chpipes.c ****  *                      - @a TIME_INFINITE no timeout.
 336:lib/chibios/os/oslib/src/chpipes.c ****  *                      .
 337:lib/chibios/os/oslib/src/chpipes.c ****  * @return              The number of bytes effectively transferred. A number
 338:lib/chibios/os/oslib/src/chpipes.c ****  *                      lower than @p n means that a timeout occurred or the
 339:lib/chibios/os/oslib/src/chpipes.c ****  *                      pipe went in reset state.
 340:lib/chibios/os/oslib/src/chpipes.c ****  *
 341:lib/chibios/os/oslib/src/chpipes.c ****  * @api
 342:lib/chibios/os/oslib/src/chpipes.c ****  */
 343:lib/chibios/os/oslib/src/chpipes.c **** size_t chPipeReadTimeout(pipe_t *pp, uint8_t *bp,
 344:lib/chibios/os/oslib/src/chpipes.c ****                          size_t n, sysinterval_t timeout) {
 615              		.loc 1 344 59 is_stmt 1 view -0
 616              		.cfi_startproc
 617              		@ args = 0, pretend = 0, frame = 8
 618              		@ frame_needed = 0, uses_anonymous_args = 0
 345:lib/chibios/os/oslib/src/chpipes.c ****   size_t max = n;
 619              		.loc 1 345 3 view .LVU196
 344:lib/chibios/os/oslib/src/chpipes.c ****   size_t max = n;
 620              		.loc 1 344 59 is_stmt 0 view .LVU197
 621 0000 2DE9F74F 		push	{r0, r1, r2, r4, r5, r6, r7, r8, r9, r10, fp, lr}
 622              		.cfi_def_cfa_offset 48
 623              		.cfi_offset 4, -36
 624              		.cfi_offset 5, -32
 625              		.cfi_offset 6, -28
 626              		.cfi_offset 7, -24
 627              		.cfi_offset 8, -20
 628              		.cfi_offset 9, -16
 629              		.cfi_offset 10, -12
 630              		.cfi_offset 11, -8
 631              		.cfi_offset 14, -4
 344:lib/chibios/os/oslib/src/chpipes.c ****   size_t max = n;
 632              		.loc 1 344 59 view .LVU198
 633 0004 0093     		str	r3, [sp]
 346:lib/chibios/os/oslib/src/chpipes.c **** 
 347:lib/chibios/os/oslib/src/chpipes.c ****   chDbgCheck(n > 0U);
 348:lib/chibios/os/oslib/src/chpipes.c **** 
 349:lib/chibios/os/oslib/src/chpipes.c ****   /* If the pipe is in reset state then returns immediately.*/
 350:lib/chibios/os/oslib/src/chpipes.c ****   if (pp->reset) {
 634              		.loc 1 350 6 view .LVU199
 635 0006 037D     		ldrb	r3, [r0, #20]	@ zero_extendqisi2
 636              	.LVL53:
 344:lib/chibios/os/oslib/src/chpipes.c ****   size_t max = n;
 637              		.loc 1 344 59 view .LVU200
 638 0008 0446     		mov	r4, r0
 639 000a 0E46     		mov	r6, r1
 640 000c 1746     		mov	r7, r2
 641              	.LVL54:
 347:lib/chibios/os/oslib/src/chpipes.c **** 
 642              		.loc 1 347 3 is_stmt 1 view .LVU201
 347:lib/chibios/os/oslib/src/chpipes.c **** 
 643              		.loc 1 347 3 view .LVU202
 347:lib/chibios/os/oslib/src/chpipes.c **** 
 644              		.loc 1 347 3 view .LVU203
 645              		.loc 1 350 3 view .LVU204
 646              		.loc 1 350 6 is_stmt 0 view .LVU205
 647 000e 002B     		cmp	r3, #0
 648 0010 5CD1     		bne	.L23
 351:lib/chibios/os/oslib/src/chpipes.c ****     return (size_t)0;
 352:lib/chibios/os/oslib/src/chpipes.c ****   }
 353:lib/chibios/os/oslib/src/chpipes.c **** 
 354:lib/chibios/os/oslib/src/chpipes.c ****   PR_LOCK(pp);
 649              		.loc 1 354 3 is_stmt 1 view .LVU206
 650 0012 00F1400A 		add	r10, r0, #64
 651 0016 5046     		mov	r0, r10
 652              	.LVL55:
 653              		.loc 1 354 3 is_stmt 0 view .LVU207
 654 0018 FFF7FEFF 		bl	chMtxLock
 655              	.LVL56:
 355:lib/chibios/os/oslib/src/chpipes.c **** 
 356:lib/chibios/os/oslib/src/chpipes.c ****   while (n > 0U) {
 656              		.loc 1 356 3 is_stmt 1 view .LVU208
 657              		.loc 1 356 9 is_stmt 0 view .LVU209
 658 001c B846     		mov	r8, r7
 659              	.LBB135:
 660              	.LBB136:
 661              	.LBB137:
 159:lib/chibios/os/oslib/src/chpipes.c **** 
 662              		.loc 1 159 3 view .LVU210
 663 001e 04F12009 		add	r9, r4, #32
 664              	.LVL57:
 665              	.L16:
 159:lib/chibios/os/oslib/src/chpipes.c **** 
 666              		.loc 1 159 3 view .LVU211
 667              	.LBE137:
 668              	.LBE136:
 669              	.LBE135:
 670              		.loc 1 356 12 is_stmt 1 view .LVU212
 671 0022 B8F1000F 		cmp	r8, #0
 672 0026 26D0     		beq	.L21
 673              	.LBB157:
 674              	.LBB143:
 357:lib/chibios/os/oslib/src/chpipes.c ****     size_t done;
 358:lib/chibios/os/oslib/src/chpipes.c **** 
 359:lib/chibios/os/oslib/src/chpipes.c ****     done = pipe_read(pp, bp, n);
 360:lib/chibios/os/oslib/src/chpipes.c ****     if (done == (size_t)0) {
 361:lib/chibios/os/oslib/src/chpipes.c ****       msg_t msg;
 362:lib/chibios/os/oslib/src/chpipes.c **** 
 363:lib/chibios/os/oslib/src/chpipes.c ****       chSysLock();
 364:lib/chibios/os/oslib/src/chpipes.c ****       msg = chThdSuspendTimeoutS(&pp->rtr, timeout);
 675              		.loc 1 364 13 is_stmt 0 view .LVU213
 676 0028 04F11C0B 		add	fp, r4, #28
 677              	.LVL58:
 678              	.L22:
 679              		.loc 1 364 13 view .LVU214
 680              	.LBE143:
 357:lib/chibios/os/oslib/src/chpipes.c ****     size_t done;
 681              		.loc 1 357 5 is_stmt 1 view .LVU215
 359:lib/chibios/os/oslib/src/chpipes.c ****     if (done == (size_t)0) {
 682              		.loc 1 359 5 view .LVU216
 683              	.LBB153:
 684              	.LBI136:
 156:lib/chibios/os/oslib/src/chpipes.c ****   size_t s1, s2;
 685              		.loc 1 156 15 view .LVU217
 686              	.LBB140:
 157:lib/chibios/os/oslib/src/chpipes.c **** 
 687              		.loc 1 157 3 view .LVU218
 159:lib/chibios/os/oslib/src/chpipes.c **** 
 688              		.loc 1 159 3 view .LVU219
 689 002c 4846     		mov	r0, r9
 690 002e FFF7FEFF 		bl	chMtxLock
 691              	.LVL59:
 162:lib/chibios/os/oslib/src/chpipes.c ****     n = chPipeGetUsedCount(pp);
 692              		.loc 1 162 3 view .LVU220
 693              	.LBB138:
 694              	.LBI138:
 174:./lib/chibios/os/oslib/include/chpipes.h **** 
 695              		.loc 5 174 22 view .LVU221
 696              	.LBB139:
 176:./lib/chibios/os/oslib/include/chpipes.h **** }
 697              		.loc 5 176 3 view .LVU222
 176:./lib/chibios/os/oslib/include/chpipes.h **** }
 698              		.loc 5 176 12 is_stmt 0 view .LVU223
 699 0032 2369     		ldr	r3, [r4, #16]
 700              	.LVL60:
 176:./lib/chibios/os/oslib/include/chpipes.h **** }
 701              		.loc 5 176 12 view .LVU224
 702              	.LBE139:
 703              	.LBE138:
 169:lib/chibios/os/oslib/src/chpipes.c ****   /*lint -restore*/
 704              		.loc 1 169 29 view .LVU225
 705 0034 E168     		ldr	r1, [r4, #12]
 706 0036 4345     		cmp	r3, r8
 707 0038 1D46     		mov	r5, r3
 708 003a 28BF     		it	cs
 709 003c 4546     		movcs	r5, r8
 710              	.LVL61:
 165:lib/chibios/os/oslib/src/chpipes.c **** 
 711              		.loc 1 165 3 is_stmt 1 view .LVU226
 165:lib/chibios/os/oslib/src/chpipes.c **** 
 712              		.loc 1 165 11 is_stmt 0 view .LVU227
 713 003e 5B1B     		subs	r3, r3, r5
 714 0040 2361     		str	r3, [r4, #16]
 169:lib/chibios/os/oslib/src/chpipes.c ****   /*lint -restore*/
 715              		.loc 1 169 3 is_stmt 1 view .LVU228
 169:lib/chibios/os/oslib/src/chpipes.c ****   /*lint -restore*/
 716              		.loc 1 169 25 is_stmt 0 view .LVU229
 717 0042 6368     		ldr	r3, [r4, #4]
 718 0044 5B1A     		subs	r3, r3, r1
 719              	.LVL62:
 172:lib/chibios/os/oslib/src/chpipes.c ****     memcpy((void *)bp, (void *)pp->rdptr, n);
 720              		.loc 1 172 3 is_stmt 1 view .LVU230
 172:lib/chibios/os/oslib/src/chpipes.c ****     memcpy((void *)bp, (void *)pp->rdptr, n);
 721              		.loc 1 172 6 is_stmt 0 view .LVU231
 722 0046 9D42     		cmp	r5, r3
 723 0048 1DD2     		bcs	.L17
 173:lib/chibios/os/oslib/src/chpipes.c ****     pp->rdptr += n;
 724              		.loc 1 173 5 is_stmt 1 view .LVU232
 725 004a 2A46     		mov	r2, r5
 726 004c 3046     		mov	r0, r6
 727 004e FFF7FEFF 		bl	memcpy
 728              	.LVL63:
 174:lib/chibios/os/oslib/src/chpipes.c ****   }
 729              		.loc 1 174 5 view .LVU233
 174:lib/chibios/os/oslib/src/chpipes.c ****   }
 730              		.loc 1 174 15 is_stmt 0 view .LVU234
 731 0052 E368     		ldr	r3, [r4, #12]
 732 0054 2B44     		add	r3, r3, r5
 733              	.L18:
 174:lib/chibios/os/oslib/src/chpipes.c ****   }
 734              		.loc 1 174 15 view .LVU235
 735 0056 E360     		str	r3, [r4, #12]
 188:lib/chibios/os/oslib/src/chpipes.c **** 
 736              		.loc 1 188 3 is_stmt 1 view .LVU236
 737 0058 4846     		mov	r0, r9
 738 005a FFF7FEFF 		bl	chMtxUnlock
 739              	.LVL64:
 190:lib/chibios/os/oslib/src/chpipes.c **** }
 740              		.loc 1 190 3 view .LVU237
 190:lib/chibios/os/oslib/src/chpipes.c **** }
 741              		.loc 1 190 3 is_stmt 0 view .LVU238
 742              	.LBE140:
 743              	.LBE153:
 360:lib/chibios/os/oslib/src/chpipes.c ****       msg_t msg;
 744              		.loc 1 360 5 is_stmt 1 view .LVU239
 360:lib/chibios/os/oslib/src/chpipes.c ****       msg_t msg;
 745              		.loc 1 360 8 is_stmt 0 view .LVU240
 746 005e 35BB     		cbnz	r5, .L20
 747              	.LBB154:
 361:lib/chibios/os/oslib/src/chpipes.c **** 
 748              		.loc 1 361 7 is_stmt 1 view .LVU241
 363:lib/chibios/os/oslib/src/chpipes.c ****       msg = chThdSuspendTimeoutS(&pp->rtr, timeout);
 749              		.loc 1 363 7 view .LVU242
 750              	.LBB144:
 751              	.LBI144:
 355:./lib/chibios/os/rt/include/chsys.h **** 
 752              		.loc 2 355 20 view .LVU243
 357:./lib/chibios/os/rt/include/chsys.h ****   _stats_start_measure_crit_thd();
 753              		.loc 2 357 3 view .LVU244
 754              	.LBB145:
 755              	.LBI145:
 669:./lib/chibios/os/common/ports/ARMCMx/chcore_v7m.h **** 
 756              		.loc 3 669 27 view .LVU245
 677:./lib/chibios/os/common/ports/ARMCMx/chcore_v7m.h **** #if defined(__CM7_REV)
 757              		.loc 3 677 3 view .LVU246
 758              	.LVL65:
 759              	.LBB146:
 760              	.LBI146:
 491:./lib/chibios/os/common/ext/ARM/CMSIS/Core/Include/cmsis_gcc.h **** {
 761              		.loc 4 491 27 view .LVU247
 762              	.LBB147:
 763              		.loc 4 493 3 view .LVU248
 764 0060 2023     		movs	r3, #32
 765              		.syntax unified
 766              	@ 493 "./lib/chibios/os/common/ext/ARM/CMSIS/Core/Include/cmsis_gcc.h" 1
 767 0062 83F31188 		MSR basepri, r3
 768              	@ 0 "" 2
 769              	.LVL66:
 770              		.loc 4 493 3 is_stmt 0 view .LVU249
 771              		.thumb
 772              		.syntax unified
 773              	.LBE147:
 774              	.LBE146:
 775              	.LBE145:
 358:./lib/chibios/os/rt/include/chsys.h ****   _dbg_check_lock();
 776              		.loc 2 358 34 is_stmt 1 view .LVU250
 359:./lib/chibios/os/rt/include/chsys.h **** }
 777              		.loc 2 359 20 view .LVU251
 778              	.LBE144:
 779              		.loc 1 364 7 view .LVU252
 780              		.loc 1 364 13 is_stmt 0 view .LVU253
 781 0066 0099     		ldr	r1, [sp]
 782 0068 5846     		mov	r0, fp
 783 006a FFF7FEFF 		bl	chThdSuspendTimeoutS
 784              	.LVL67:
 365:lib/chibios/os/oslib/src/chpipes.c ****       chSysUnlock();
 785              		.loc 1 365 7 is_stmt 1 view .LVU254
 786              	.LBB148:
 787              	.LBI148:
 367:./lib/chibios/os/rt/include/chsys.h **** 
 788              		.loc 2 367 20 view .LVU255
 789              	.LBB149:
 369:./lib/chibios/os/rt/include/chsys.h ****   _stats_stop_measure_crit_thd();
 790              		.loc 2 369 22 view .LVU256
 370:./lib/chibios/os/rt/include/chsys.h **** 
 791              		.loc 2 370 33 view .LVU257
 376:./lib/chibios/os/rt/include/chsys.h ****               (ch.rlist.current->hdr.pqueue.prio >= ch.rlist.pqueue.next->prio),
 792              		.loc 2 376 3 view .LVU258
 376:./lib/chibios/os/rt/include/chsys.h ****               (ch.rlist.current->hdr.pqueue.prio >= ch.rlist.pqueue.next->prio),
 793              		.loc 2 376 3 view .LVU259
 376:./lib/chibios/os/rt/include/chsys.h ****               (ch.rlist.current->hdr.pqueue.prio >= ch.rlist.pqueue.next->prio),
 794              		.loc 2 376 3 view .LVU260
 795              		.loc 2 380 3 view .LVU261
 796              	.LBB150:
 797              	.LBI150:
 693:./lib/chibios/os/common/ports/ARMCMx/chcore_v7m.h **** 
 798              		.loc 3 693 27 view .LVU262
 799              		.loc 3 696 3 view .LVU263
 800              	.LBB151:
 801              	.LBI151:
 491:./lib/chibios/os/common/ext/ARM/CMSIS/Core/Include/cmsis_gcc.h **** {
 802              		.loc 4 491 27 view .LVU264
 803              	.LBB152:
 804              		.loc 4 493 3 view .LVU265
 805              		.syntax unified
 806              	@ 493 "./lib/chibios/os/common/ext/ARM/CMSIS/Core/Include/cmsis_gcc.h" 1
 807 006e 85F31188 		MSR basepri, r5
 808              	@ 0 "" 2
 809              	.LVL68:
 810              		.loc 4 493 3 is_stmt 0 view .LVU266
 811              		.thumb
 812              		.syntax unified
 813              	.LBE152:
 814              	.LBE151:
 815              	.LBE150:
 816              	.LBE149:
 817              	.LBE148:
 366:lib/chibios/os/oslib/src/chpipes.c **** 
 367:lib/chibios/os/oslib/src/chpipes.c ****       /* Anything except MSG_OK causes the operation to stop.*/
 368:lib/chibios/os/oslib/src/chpipes.c ****       if (msg != MSG_OK) {
 818              		.loc 1 368 7 is_stmt 1 view .LVU267
 819              		.loc 1 368 10 is_stmt 0 view .LVU268
 820 0072 0028     		cmp	r0, #0
 821 0074 DAD0     		beq	.L22
 822              	.LVL69:
 823              	.L21:
 824              		.loc 1 368 10 view .LVU269
 825              	.LBE154:
 826              	.LBE157:
 369:lib/chibios/os/oslib/src/chpipes.c ****         break;
 370:lib/chibios/os/oslib/src/chpipes.c ****       }
 371:lib/chibios/os/oslib/src/chpipes.c ****     }
 372:lib/chibios/os/oslib/src/chpipes.c ****     else {
 373:lib/chibios/os/oslib/src/chpipes.c ****       n  -= done;
 374:lib/chibios/os/oslib/src/chpipes.c ****       bp += done;
 375:lib/chibios/os/oslib/src/chpipes.c **** 
 376:lib/chibios/os/oslib/src/chpipes.c ****       /* Resuming the writer, if present.*/
 377:lib/chibios/os/oslib/src/chpipes.c ****       chThdResume(&pp->wtr, MSG_OK);
 378:lib/chibios/os/oslib/src/chpipes.c ****     }
 379:lib/chibios/os/oslib/src/chpipes.c ****   }
 380:lib/chibios/os/oslib/src/chpipes.c **** 
 381:lib/chibios/os/oslib/src/chpipes.c ****   PR_UNLOCK(pp);
 827              		.loc 1 381 3 is_stmt 1 view .LVU270
 828 0076 5046     		mov	r0, r10
 829 0078 FFF7FEFF 		bl	chMtxUnlock
 830              	.LVL70:
 382:lib/chibios/os/oslib/src/chpipes.c **** 
 383:lib/chibios/os/oslib/src/chpipes.c ****   return max - n;
 831              		.loc 1 383 3 view .LVU271
 832              		.loc 1 383 14 is_stmt 0 view .LVU272
 833 007c A7EB0800 		sub	r0, r7, r8
 834              	.L14:
 384:lib/chibios/os/oslib/src/chpipes.c **** }
 835              		.loc 1 384 1 view .LVU273
 836 0080 03B0     		add	sp, sp, #12
 837              		.cfi_remember_state
 838              		.cfi_def_cfa_offset 36
 839              	.LVL71:
 840              		.loc 1 384 1 view .LVU274
 841              		@ sp needed
 842 0082 BDE8F08F 		pop	{r4, r5, r6, r7, r8, r9, r10, fp, pc}
 843              	.LVL72:
 844              	.L17:
 845              		.cfi_restore_state
 846              	.LBB158:
 847              	.LBB155:
 848              	.LBB141:
 176:lib/chibios/os/oslib/src/chpipes.c ****     memcpy((void *)bp, (void *)pp->rdptr, s1);
 849              		.loc 1 176 8 is_stmt 1 view .LVU275
 176:lib/chibios/os/oslib/src/chpipes.c ****     memcpy((void *)bp, (void *)pp->rdptr, s1);
 850              		.loc 1 176 11 is_stmt 0 view .LVU276
 851 0086 1BD9     		bls	.L19
 177:lib/chibios/os/oslib/src/chpipes.c ****     bp += s1;
 852              		.loc 1 177 5 is_stmt 1 view .LVU277
 853 0088 1A46     		mov	r2, r3
 854 008a 3046     		mov	r0, r6
 855 008c 0193     		str	r3, [sp, #4]
 856 008e FFF7FEFF 		bl	memcpy
 857              	.LVL73:
 178:lib/chibios/os/oslib/src/chpipes.c ****     s2 = n - s1;
 858              		.loc 1 178 5 view .LVU278
 179:lib/chibios/os/oslib/src/chpipes.c ****     memcpy((void *)bp, (void *)pp->buffer, s2);
 859              		.loc 1 179 5 view .LVU279
 179:lib/chibios/os/oslib/src/chpipes.c ****     memcpy((void *)bp, (void *)pp->buffer, s2);
 860              		.loc 1 179 8 is_stmt 0 view .LVU280
 861 0092 019B     		ldr	r3, [sp, #4]
 180:lib/chibios/os/oslib/src/chpipes.c ****     pp->rdptr = pp->buffer + s2;
 862              		.loc 1 180 5 view .LVU281
 863 0094 2168     		ldr	r1, [r4]
 179:lib/chibios/os/oslib/src/chpipes.c ****     memcpy((void *)bp, (void *)pp->buffer, s2);
 864              		.loc 1 179 8 view .LVU282
 865 0096 A5EB030B 		sub	fp, r5, r3
 866              	.LVL74:
 180:lib/chibios/os/oslib/src/chpipes.c ****     pp->rdptr = pp->buffer + s2;
 867              		.loc 1 180 5 is_stmt 1 view .LVU283
 868 009a F018     		adds	r0, r6, r3
 869              	.LVL75:
 180:lib/chibios/os/oslib/src/chpipes.c ****     pp->rdptr = pp->buffer + s2;
 870              		.loc 1 180 5 is_stmt 0 view .LVU284
 871 009c 5A46     		mov	r2, fp
 872 009e FFF7FEFF 		bl	memcpy
 873              	.LVL76:
 181:lib/chibios/os/oslib/src/chpipes.c ****   }
 874              		.loc 1 181 5 is_stmt 1 view .LVU285
 181:lib/chibios/os/oslib/src/chpipes.c ****   }
 875              		.loc 1 181 28 is_stmt 0 view .LVU286
 876 00a2 2368     		ldr	r3, [r4]
 877 00a4 5B44     		add	r3, r3, fp
 181:lib/chibios/os/oslib/src/chpipes.c ****   }
 878              		.loc 1 181 15 view .LVU287
 879 00a6 E360     		str	r3, [r4, #12]
 188:lib/chibios/os/oslib/src/chpipes.c **** 
 880              		.loc 1 188 3 is_stmt 1 view .LVU288
 881 00a8 4846     		mov	r0, r9
 882 00aa FFF7FEFF 		bl	chMtxUnlock
 883              	.LVL77:
 190:lib/chibios/os/oslib/src/chpipes.c **** }
 884              		.loc 1 190 3 view .LVU289
 190:lib/chibios/os/oslib/src/chpipes.c **** }
 885              		.loc 1 190 3 is_stmt 0 view .LVU290
 886              	.LBE141:
 887              	.LBE155:
 360:lib/chibios/os/oslib/src/chpipes.c ****       msg_t msg;
 888              		.loc 1 360 5 is_stmt 1 view .LVU291
 889              	.L20:
 373:lib/chibios/os/oslib/src/chpipes.c ****       bp += done;
 890              		.loc 1 373 7 view .LVU292
 377:lib/chibios/os/oslib/src/chpipes.c ****     }
 891              		.loc 1 377 7 is_stmt 0 view .LVU293
 892 00ae 0021     		movs	r1, #0
 893 00b0 04F11800 		add	r0, r4, #24
 373:lib/chibios/os/oslib/src/chpipes.c ****       bp += done;
 894              		.loc 1 373 10 view .LVU294
 895 00b4 A8EB0508 		sub	r8, r8, r5
 896              	.LVL78:
 374:lib/chibios/os/oslib/src/chpipes.c **** 
 897              		.loc 1 374 7 is_stmt 1 view .LVU295
 374:lib/chibios/os/oslib/src/chpipes.c **** 
 898              		.loc 1 374 10 is_stmt 0 view .LVU296
 899 00b8 2E44     		add	r6, r6, r5
 900              	.LVL79:
 377:lib/chibios/os/oslib/src/chpipes.c ****     }
 901              		.loc 1 377 7 is_stmt 1 view .LVU297
 902 00ba FFF7FEFF 		bl	chThdResume
 903              	.LVL80:
 904 00be B0E7     		b	.L16
 905              	.LVL81:
 906              	.L19:
 907              	.LBB156:
 908              	.LBB142:
 184:lib/chibios/os/oslib/src/chpipes.c ****     pp->rdptr = pp->buffer;
 909              		.loc 1 184 5 view .LVU298
 910 00c0 2A46     		mov	r2, r5
 911 00c2 3046     		mov	r0, r6
 912 00c4 FFF7FEFF 		bl	memcpy
 913              	.LVL82:
 185:lib/chibios/os/oslib/src/chpipes.c ****   }
 914              		.loc 1 185 5 view .LVU299
 185:lib/chibios/os/oslib/src/chpipes.c ****   }
 915              		.loc 1 185 19 is_stmt 0 view .LVU300
 916 00c8 2368     		ldr	r3, [r4]
 917 00ca C4E7     		b	.L18
 918              	.LVL83:
 919              	.L23:
 185:lib/chibios/os/oslib/src/chpipes.c ****   }
 920              		.loc 1 185 19 view .LVU301
 921              	.LBE142:
 922              	.LBE156:
 923              	.LBE158:
 351:lib/chibios/os/oslib/src/chpipes.c ****   }
 924              		.loc 1 351 12 view .LVU302
 925 00cc 0020     		movs	r0, #0
 926              	.LVL84:
 351:lib/chibios/os/oslib/src/chpipes.c ****   }
 927              		.loc 1 351 12 view .LVU303
 928 00ce D7E7     		b	.L14
 929              		.cfi_endproc
 930              	.LFE294:
 932              		.text
 933              	.Letext0:
 934              		.file 6 "/usr/lib/gcc/arm-none-eabi/12.2.0/include/stddef.h"
 935              		.file 7 "/usr/arm-none-eabi/include/machine/_default_types.h"
 936              		.file 8 "/usr/arm-none-eabi/include/sys/_stdint.h"
 937              		.file 9 "./lib/chibios/os/common/ports/ARMCMx/compilers/GCC/chtypes.h"
 938              		.file 10 "./lib/chibios/os/rt/include/chsystypes.h"
 939              		.file 11 "./lib/chibios/os/rt/include/chschd.h"
 940              		.file 12 "./lib/chibios/os/rt/include/chlists.h"
 941              		.file 13 "./lib/chibios/os/rt/include/chtime.h"
 942              		.file 14 "./lib/chibios/os/common/ports/ARMCMx/chcore.h"
 943              		.file 15 "./lib/chibios/os/rt/include/chsem.h"
 944              		.file 16 "./lib/chibios/os/rt/include/chmtx.h"
 945              		.file 17 "/usr/arm-none-eabi/include/string.h"
 946              		.file 18 "./lib/chibios/os/rt/include/chthreads.h"
 947              		.file 19 "<built-in>"