   1              		.cpu cortex-m4
   2              		.eabi_attribute 27, 1
   3              		.eabi_attribute 28, 1
   4              		.eabi_attribute 20, 1
   5              		.eabi_attribute 21, 1
   6              		.eabi_attribute 23, 3
   7              		.eabi_attribute 24, 1
   8              		.eabi_attribute 25, 1
   9              		.eabi_attribute 26, 1
  10              		.eabi_attribute 30, 4
  11              		.eabi_attribute 34, 1
  12              		.eabi_attribute 18, 2
  13              		.file	"rgblight.c"
  14              		.text
  15              	.Ltext0:
  16              		.cfi_sections	.debug_frame
  17              		.section	.text.rgblight_set_clipping_range,"ax",%progbits
  18              		.align	1
  19              		.global	rgblight_set_clipping_range
  20              		.arch armv7e-m
  21              		.syntax unified
  22              		.thumb
  23              		.thumb_func
  24              		.fpu fpv4-sp-d16
  26              	rgblight_set_clipping_range:
  27              	.LVL0:
  28              	.LFB404:
  29              		.file 1 "quantum/rgblight/rgblight.c"
   1:quantum/rgblight/rgblight.c **** /* Copyright 2016-2017 Yang Liu
   2:quantum/rgblight/rgblight.c ****  *
   3:quantum/rgblight/rgblight.c ****  * This program is free software: you can redistribute it and/or modify
   4:quantum/rgblight/rgblight.c ****  * it under the terms of the GNU General Public License as published by
   5:quantum/rgblight/rgblight.c ****  * the Free Software Foundation, either version 2 of the License, or
   6:quantum/rgblight/rgblight.c ****  * (at your option) any later version.
   7:quantum/rgblight/rgblight.c ****  *
   8:quantum/rgblight/rgblight.c ****  * This program is distributed in the hope that it will be useful,
   9:quantum/rgblight/rgblight.c ****  * but WITHOUT ANY WARRANTY; without even the implied warranty of
  10:quantum/rgblight/rgblight.c ****  * MERCHANTABILITY or FITNESS FOR A PARTICULAR PURPOSE.  See the
  11:quantum/rgblight/rgblight.c ****  * GNU General Public License for more details.
  12:quantum/rgblight/rgblight.c ****  *
  13:quantum/rgblight/rgblight.c ****  * You should have received a copy of the GNU General Public License
  14:quantum/rgblight/rgblight.c ****  * along with this program.  If not, see <http://www.gnu.org/licenses/>.
  15:quantum/rgblight/rgblight.c ****  */
  16:quantum/rgblight/rgblight.c **** #include <math.h>
  17:quantum/rgblight/rgblight.c **** #include <string.h>
  18:quantum/rgblight/rgblight.c **** #include <stdlib.h>
  19:quantum/rgblight/rgblight.c **** #include "wait.h"
  20:quantum/rgblight/rgblight.c **** #include "progmem.h"
  21:quantum/rgblight/rgblight.c **** #include "sync_timer.h"
  22:quantum/rgblight/rgblight.c **** #include "rgblight.h"
  23:quantum/rgblight/rgblight.c **** #include "color.h"
  24:quantum/rgblight/rgblight.c **** #include "debug.h"
  25:quantum/rgblight/rgblight.c **** #include "led_tables.h"
  26:quantum/rgblight/rgblight.c **** #include <lib/lib8tion/lib8tion.h>
  27:quantum/rgblight/rgblight.c **** #ifdef EEPROM_ENABLE
  28:quantum/rgblight/rgblight.c **** #    include "eeprom.h"
  29:quantum/rgblight/rgblight.c **** #endif
  30:quantum/rgblight/rgblight.c **** #ifdef VELOCIKEY_ENABLE
  31:quantum/rgblight/rgblight.c **** #    include "velocikey.h"
  32:quantum/rgblight/rgblight.c **** #endif
  33:quantum/rgblight/rgblight.c **** 
  34:quantum/rgblight/rgblight.c **** #ifndef MIN
  35:quantum/rgblight/rgblight.c **** #    define MIN(a, b) (((a) < (b)) ? (a) : (b))
  36:quantum/rgblight/rgblight.c **** #endif
  37:quantum/rgblight/rgblight.c **** #ifndef MAX
  38:quantum/rgblight/rgblight.c **** #    define MAX(a, b) (((a) > (b)) ? (a) : (b))
  39:quantum/rgblight/rgblight.c **** #endif
  40:quantum/rgblight/rgblight.c **** 
  41:quantum/rgblight/rgblight.c **** #ifdef RGBLIGHT_SPLIT
  42:quantum/rgblight/rgblight.c **** /* for split keyboard */
  43:quantum/rgblight/rgblight.c **** #    define RGBLIGHT_SPLIT_SET_CHANGE_MODE rgblight_status.change_flags |= RGBLIGHT_STATUS_CHANGE_M
  44:quantum/rgblight/rgblight.c **** #    define RGBLIGHT_SPLIT_SET_CHANGE_HSVS rgblight_status.change_flags |= RGBLIGHT_STATUS_CHANGE_H
  45:quantum/rgblight/rgblight.c **** #    define RGBLIGHT_SPLIT_SET_CHANGE_MODEHSVS rgblight_status.change_flags |= (RGBLIGHT_STATUS_CHA
  46:quantum/rgblight/rgblight.c **** #    define RGBLIGHT_SPLIT_SET_CHANGE_LAYERS rgblight_status.change_flags |= RGBLIGHT_STATUS_CHANGE
  47:quantum/rgblight/rgblight.c **** #    define RGBLIGHT_SPLIT_SET_CHANGE_TIMER_ENABLE rgblight_status.change_flags |= RGBLIGHT_STATUS_
  48:quantum/rgblight/rgblight.c **** #    define RGBLIGHT_SPLIT_ANIMATION_TICK rgblight_status.change_flags |= RGBLIGHT_STATUS_ANIMATION
  49:quantum/rgblight/rgblight.c **** #else
  50:quantum/rgblight/rgblight.c **** #    define RGBLIGHT_SPLIT_SET_CHANGE_MODE
  51:quantum/rgblight/rgblight.c **** #    define RGBLIGHT_SPLIT_SET_CHANGE_HSVS
  52:quantum/rgblight/rgblight.c **** #    define RGBLIGHT_SPLIT_SET_CHANGE_MODEHSVS
  53:quantum/rgblight/rgblight.c **** #    define RGBLIGHT_SPLIT_SET_CHANGE_LAYERS
  54:quantum/rgblight/rgblight.c **** #    define RGBLIGHT_SPLIT_SET_CHANGE_TIMER_ENABLE
  55:quantum/rgblight/rgblight.c **** #    define RGBLIGHT_SPLIT_ANIMATION_TICK
  56:quantum/rgblight/rgblight.c **** #endif
  57:quantum/rgblight/rgblight.c **** 
  58:quantum/rgblight/rgblight.c **** #define _RGBM_SINGLE_STATIC(sym) RGBLIGHT_MODE_##sym,
  59:quantum/rgblight/rgblight.c **** #define _RGBM_SINGLE_DYNAMIC(sym)
  60:quantum/rgblight/rgblight.c **** #define _RGBM_MULTI_STATIC(sym) RGBLIGHT_MODE_##sym,
  61:quantum/rgblight/rgblight.c **** #define _RGBM_MULTI_DYNAMIC(sym)
  62:quantum/rgblight/rgblight.c **** #define _RGBM_TMP_STATIC(sym, msym) RGBLIGHT_MODE_##sym,
  63:quantum/rgblight/rgblight.c **** #define _RGBM_TMP_DYNAMIC(sym, msym)
  64:quantum/rgblight/rgblight.c **** static uint8_t static_effect_table[] = {
  65:quantum/rgblight/rgblight.c **** #include "rgblight_modes.h"
  66:quantum/rgblight/rgblight.c **** };
  67:quantum/rgblight/rgblight.c **** 
  68:quantum/rgblight/rgblight.c **** #define _RGBM_SINGLE_STATIC(sym) RGBLIGHT_MODE_##sym,
  69:quantum/rgblight/rgblight.c **** #define _RGBM_SINGLE_DYNAMIC(sym) RGBLIGHT_MODE_##sym,
  70:quantum/rgblight/rgblight.c **** #define _RGBM_MULTI_STATIC(sym) RGBLIGHT_MODE_##sym,
  71:quantum/rgblight/rgblight.c **** #define _RGBM_MULTI_DYNAMIC(sym) RGBLIGHT_MODE_##sym,
  72:quantum/rgblight/rgblight.c **** #define _RGBM_TMP_STATIC(sym, msym) RGBLIGHT_MODE_##msym,
  73:quantum/rgblight/rgblight.c **** #define _RGBM_TMP_DYNAMIC(sym, msym) RGBLIGHT_MODE_##msym,
  74:quantum/rgblight/rgblight.c **** static uint8_t mode_base_table[] = {
  75:quantum/rgblight/rgblight.c ****     0,  // RGBLIGHT_MODE_zero
  76:quantum/rgblight/rgblight.c **** #include "rgblight_modes.h"
  77:quantum/rgblight/rgblight.c **** };
  78:quantum/rgblight/rgblight.c **** 
  79:quantum/rgblight/rgblight.c **** #if !defined(RGBLIGHT_DEFAULT_MODE)
  80:quantum/rgblight/rgblight.c **** #    define RGBLIGHT_DEFAULT_MODE RGBLIGHT_MODE_STATIC_LIGHT
  81:quantum/rgblight/rgblight.c **** #endif
  82:quantum/rgblight/rgblight.c **** 
  83:quantum/rgblight/rgblight.c **** #if !defined(RGBLIGHT_DEFAULT_HUE)
  84:quantum/rgblight/rgblight.c **** #    define RGBLIGHT_DEFAULT_HUE 0
  85:quantum/rgblight/rgblight.c **** #endif
  86:quantum/rgblight/rgblight.c **** 
  87:quantum/rgblight/rgblight.c **** #if !defined(RGBLIGHT_DEFAULT_SAT)
  88:quantum/rgblight/rgblight.c **** #    define RGBLIGHT_DEFAULT_SAT UINT8_MAX
  89:quantum/rgblight/rgblight.c **** #endif
  90:quantum/rgblight/rgblight.c **** 
  91:quantum/rgblight/rgblight.c **** #if !defined(RGBLIGHT_DEFAULT_VAL)
  92:quantum/rgblight/rgblight.c **** #    define RGBLIGHT_DEFAULT_VAL RGBLIGHT_LIMIT_VAL
  93:quantum/rgblight/rgblight.c **** #endif
  94:quantum/rgblight/rgblight.c **** 
  95:quantum/rgblight/rgblight.c **** #if !defined(RGBLIGHT_DEFAULT_SPD)
  96:quantum/rgblight/rgblight.c **** #    define RGBLIGHT_DEFAULT_SPD 0
  97:quantum/rgblight/rgblight.c **** #endif
  98:quantum/rgblight/rgblight.c **** 
  99:quantum/rgblight/rgblight.c **** static inline int is_static_effect(uint8_t mode) { return memchr(static_effect_table, mode, sizeof(
 100:quantum/rgblight/rgblight.c **** 
 101:quantum/rgblight/rgblight.c **** #ifdef RGBLIGHT_LED_MAP
 102:quantum/rgblight/rgblight.c **** const uint8_t led_map[] PROGMEM = RGBLIGHT_LED_MAP;
 103:quantum/rgblight/rgblight.c **** #endif
 104:quantum/rgblight/rgblight.c **** 
 105:quantum/rgblight/rgblight.c **** #ifdef RGBLIGHT_EFFECT_STATIC_GRADIENT
 106:quantum/rgblight/rgblight.c **** __attribute__((weak)) const uint8_t RGBLED_GRADIENT_RANGES[] PROGMEM = {255, 170, 127, 85, 64};
 107:quantum/rgblight/rgblight.c **** #endif
 108:quantum/rgblight/rgblight.c **** 
 109:quantum/rgblight/rgblight.c **** rgblight_config_t rgblight_config;
 110:quantum/rgblight/rgblight.c **** rgblight_status_t rgblight_status         = {.timer_enabled = false};
 111:quantum/rgblight/rgblight.c **** bool              is_rgblight_initialized = false;
 112:quantum/rgblight/rgblight.c **** 
 113:quantum/rgblight/rgblight.c **** #ifdef RGBLIGHT_SLEEP
 114:quantum/rgblight/rgblight.c **** static bool is_suspended;
 115:quantum/rgblight/rgblight.c **** static bool pre_suspend_enabled;
 116:quantum/rgblight/rgblight.c **** #endif
 117:quantum/rgblight/rgblight.c **** 
 118:quantum/rgblight/rgblight.c **** #ifdef RGBLIGHT_USE_TIMER
 119:quantum/rgblight/rgblight.c **** animation_status_t animation_status = {};
 120:quantum/rgblight/rgblight.c **** #endif
 121:quantum/rgblight/rgblight.c **** 
 122:quantum/rgblight/rgblight.c **** #ifndef LED_ARRAY
 123:quantum/rgblight/rgblight.c **** LED_TYPE led[RGBLED_NUM];
 124:quantum/rgblight/rgblight.c **** #    define LED_ARRAY led
 125:quantum/rgblight/rgblight.c **** #endif
 126:quantum/rgblight/rgblight.c **** 
 127:quantum/rgblight/rgblight.c **** #ifdef RGBLIGHT_LAYERS
 128:quantum/rgblight/rgblight.c **** rgblight_segment_t const *const *rgblight_layers = NULL;
 129:quantum/rgblight/rgblight.c **** #endif
 130:quantum/rgblight/rgblight.c **** 
 131:quantum/rgblight/rgblight.c **** rgblight_ranges_t rgblight_ranges = {0, RGBLED_NUM, 0, RGBLED_NUM, RGBLED_NUM};
 132:quantum/rgblight/rgblight.c **** 
 133:quantum/rgblight/rgblight.c **** void rgblight_set_clipping_range(uint8_t start_pos, uint8_t num_leds) {
  30              		.loc 1 133 71 view -0
  31              		.cfi_startproc
  32              		@ args = 0, pretend = 0, frame = 0
  33              		@ frame_needed = 0, uses_anonymous_args = 0
  34              		@ link register save eliminated.
 134:quantum/rgblight/rgblight.c ****     rgblight_ranges.clipping_start_pos = start_pos;
  35              		.loc 1 134 5 view .LVU1
  36              		.loc 1 134 40 is_stmt 0 view .LVU2
  37 0000 014B     		ldr	r3, .L2
  38 0002 1870     		strb	r0, [r3]
 135:quantum/rgblight/rgblight.c ****     rgblight_ranges.clipping_num_leds  = num_leds;
  39              		.loc 1 135 5 is_stmt 1 view .LVU3
  40              		.loc 1 135 40 is_stmt 0 view .LVU4
  41 0004 5970     		strb	r1, [r3, #1]
 136:quantum/rgblight/rgblight.c **** }
  42              		.loc 1 136 1 view .LVU5
  43 0006 7047     		bx	lr
  44              	.L3:
  45              		.align	2
  46              	.L2:
  47 0008 00000000 		.word	.LANCHOR0
  48              		.cfi_endproc
  49              	.LFE404:
  51              		.section	.text.rgblight_set_effect_range,"ax",%progbits
  52              		.align	1
  53              		.global	rgblight_set_effect_range
  54              		.syntax unified
  55              		.thumb
  56              		.thumb_func
  57              		.fpu fpv4-sp-d16
  59              	rgblight_set_effect_range:
  60              	.LVL1:
  61              	.LFB405:
 137:quantum/rgblight/rgblight.c **** 
 138:quantum/rgblight/rgblight.c **** void rgblight_set_effect_range(uint8_t start_pos, uint8_t num_leds) {
  62              		.loc 1 138 69 is_stmt 1 view -0
  63              		.cfi_startproc
  64              		@ args = 0, pretend = 0, frame = 0
  65              		@ frame_needed = 0, uses_anonymous_args = 0
  66              		@ link register save eliminated.
 139:quantum/rgblight/rgblight.c ****     if (start_pos >= RGBLED_NUM) return;
  67              		.loc 1 139 5 view .LVU7
  68              		.loc 1 139 8 is_stmt 0 view .LVU8
  69 0000 0828     		cmp	r0, #8
  70 0002 06D8     		bhi	.L4
 140:quantum/rgblight/rgblight.c ****     if (start_pos + num_leds > RGBLED_NUM) return;
  71              		.loc 1 140 5 is_stmt 1 view .LVU9
  72              		.loc 1 140 19 is_stmt 0 view .LVU10
  73 0004 4218     		adds	r2, r0, r1
  74              		.loc 1 140 8 view .LVU11
  75 0006 092A     		cmp	r2, #9
 141:quantum/rgblight/rgblight.c ****     rgblight_ranges.effect_start_pos = start_pos;
  76              		.loc 1 141 5 is_stmt 1 view .LVU12
  77              		.loc 1 141 38 is_stmt 0 view .LVU13
  78 0008 DFBF     		itttt	le
  79 000a 024B     		ldrle	r3, .L6
  80 000c 9870     		strble	r0, [r3, #2]
 142:quantum/rgblight/rgblight.c ****     rgblight_ranges.effect_end_pos   = start_pos + num_leds;
  81              		.loc 1 142 5 is_stmt 1 view .LVU14
  82              		.loc 1 142 38 is_stmt 0 view .LVU15
  83 000e DA70     		strble	r2, [r3, #3]
 143:quantum/rgblight/rgblight.c ****     rgblight_ranges.effect_num_leds  = num_leds;
  84              		.loc 1 143 5 is_stmt 1 view .LVU16
  85              		.loc 1 143 38 is_stmt 0 view .LVU17
  86 0010 1971     		strble	r1, [r3, #4]
  87              	.L4:
 144:quantum/rgblight/rgblight.c **** }
  88              		.loc 1 144 1 view .LVU18
  89 0012 7047     		bx	lr
  90              	.L7:
  91              		.align	2
  92              	.L6:
  93 0014 00000000 		.word	.LANCHOR0
  94              		.cfi_endproc
  95              	.LFE405:
  97              		.section	.text.rgblight_hsv_to_rgb,"ax",%progbits
  98              		.align	1
  99              		.weak	rgblight_hsv_to_rgb
 100              		.syntax unified
 101              		.thumb
 102              		.thumb_func
 103              		.fpu fpv4-sp-d16
 105              	rgblight_hsv_to_rgb:
 106              	.LFB406:
 145:quantum/rgblight/rgblight.c **** 
 146:quantum/rgblight/rgblight.c **** __attribute__((weak)) RGB rgblight_hsv_to_rgb(HSV hsv) { return hsv_to_rgb(hsv); }
 107              		.loc 1 146 56 is_stmt 1 view -0
 108              		.cfi_startproc
 109              		@ args = 0, pretend = 0, frame = 16
 110              		@ frame_needed = 0, uses_anonymous_args = 0
 111              		@ link register save eliminated.
 112              		.loc 1 146 58 view .LVU20
 113              		.loc 1 146 56 is_stmt 0 view .LVU21
 114 0000 84B0     		sub	sp, sp, #16
 115              		.cfi_def_cfa_offset 16
 116              		.loc 1 146 82 view .LVU22
 117 0002 04B0     		add	sp, sp, #16
 118              		.cfi_def_cfa_offset 0
 119              		@ sp needed
 120              		.loc 1 146 65 view .LVU23
 121 0004 FFF7FEBF 		b	hsv_to_rgb
 122              	.LVL2:
 123              		.cfi_endproc
 124              	.LFE406:
 126              		.section	.text.sethsv_raw,"ax",%progbits
 127              		.align	1
 128              		.global	sethsv_raw
 129              		.syntax unified
 130              		.thumb
 131              		.thumb_func
 132              		.fpu fpv4-sp-d16
 134              	sethsv_raw:
 135              	.LVL3:
 136              	.LFB407:
 147:quantum/rgblight/rgblight.c **** 
 148:quantum/rgblight/rgblight.c **** void sethsv_raw(uint8_t hue, uint8_t sat, uint8_t val, LED_TYPE *led1) {
 137              		.loc 1 148 72 is_stmt 1 view -0
 138              		.cfi_startproc
 139              		@ args = 0, pretend = 0, frame = 8
 140              		@ frame_needed = 0, uses_anonymous_args = 0
 149:quantum/rgblight/rgblight.c ****     HSV hsv = {hue, sat, val};
 141              		.loc 1 149 5 view .LVU25
 148:quantum/rgblight/rgblight.c ****     HSV hsv = {hue, sat, val};
 142              		.loc 1 148 72 is_stmt 0 view .LVU26
 143 0000 13B5     		push	{r0, r1, r4, lr}
 144              		.cfi_def_cfa_offset 16
 145              		.cfi_offset 4, -8
 146              		.cfi_offset 14, -4
 147              		.loc 1 149 9 view .LVU27
 148 0002 8DF80220 		strb	r2, [sp, #2]
 150:quantum/rgblight/rgblight.c ****     RGB rgb = rgblight_hsv_to_rgb(hsv);
 149              		.loc 1 150 5 is_stmt 1 view .LVU28
 149:quantum/rgblight/rgblight.c ****     HSV hsv = {hue, sat, val};
 150              		.loc 1 149 9 is_stmt 0 view .LVU29
 151 0006 8DF80000 		strb	r0, [sp]
 152 000a 8DF80110 		strb	r1, [sp, #1]
 153              		.loc 1 150 15 view .LVU30
 154 000e 0098     		ldr	r0, [sp]
 155              	.LVL4:
 148:quantum/rgblight/rgblight.c ****     HSV hsv = {hue, sat, val};
 156              		.loc 1 148 72 view .LVU31
 157 0010 1C46     		mov	r4, r3
 158              		.loc 1 150 15 view .LVU32
 159 0012 FFF7FEFF 		bl	rgblight_hsv_to_rgb
 160              	.LVL5:
 151:quantum/rgblight/rgblight.c ****     setrgb(rgb.r, rgb.g, rgb.b, led1);
 161              		.loc 1 151 5 is_stmt 1 view .LVU33
 162 0016 C0F30743 		ubfx	r3, r0, #16, #8
 163              	.LVL6:
 164              	.LBB26:
 165              	.LBI26:
 152:quantum/rgblight/rgblight.c **** }
 153:quantum/rgblight/rgblight.c **** 
 154:quantum/rgblight/rgblight.c **** void sethsv(uint8_t hue, uint8_t sat, uint8_t val, LED_TYPE *led1) { sethsv_raw(hue, sat, val > RGB
 155:quantum/rgblight/rgblight.c **** 
 156:quantum/rgblight/rgblight.c **** void setrgb(uint8_t r, uint8_t g, uint8_t b, LED_TYPE *led1) {
 166              		.loc 1 156 6 view .LVU34
 167              	.LBB27:
 157:quantum/rgblight/rgblight.c ****     led1->r = r;
 168              		.loc 1 157 5 view .LVU35
 169              		.loc 1 157 13 is_stmt 0 view .LVU36
 170 001a C0F30722 		ubfx	r2, r0, #8, #8
 171 001e 6270     		strb	r2, [r4, #1]
 158:quantum/rgblight/rgblight.c ****     led1->g = g;
 172              		.loc 1 158 5 is_stmt 1 view .LVU37
 173              		.loc 1 158 13 is_stmt 0 view .LVU38
 174 0020 2070     		strb	r0, [r4]
 159:quantum/rgblight/rgblight.c ****     led1->b = b;
 175              		.loc 1 159 5 is_stmt 1 view .LVU39
 176              		.loc 1 159 13 is_stmt 0 view .LVU40
 177 0022 A370     		strb	r3, [r4, #2]
 178              	.LVL7:
 179              		.loc 1 159 13 view .LVU41
 180              	.LBE27:
 181              	.LBE26:
 152:quantum/rgblight/rgblight.c **** 
 182              		.loc 1 152 1 view .LVU42
 183 0024 02B0     		add	sp, sp, #8
 184              		.cfi_def_cfa_offset 8
 185              	.LVL8:
 152:quantum/rgblight/rgblight.c **** 
 186              		.loc 1 152 1 view .LVU43
 187              		@ sp needed
 188 0026 10BD     		pop	{r4, pc}
 152:quantum/rgblight/rgblight.c **** 
 189              		.loc 1 152 1 view .LVU44
 190              		.cfi_endproc
 191              	.LFE407:
 193              		.section	.text.sethsv,"ax",%progbits
 194              		.align	1
 195              		.global	sethsv
 196              		.syntax unified
 197              		.thumb
 198              		.thumb_func
 199              		.fpu fpv4-sp-d16
 201              	sethsv:
 202              	.LVL9:
 203              	.LFB408:
 154:quantum/rgblight/rgblight.c **** 
 204              		.loc 1 154 68 is_stmt 1 view -0
 205              		.cfi_startproc
 206              		@ args = 0, pretend = 0, frame = 0
 207              		@ frame_needed = 0, uses_anonymous_args = 0
 208              		@ link register save eliminated.
 154:quantum/rgblight/rgblight.c **** 
 209              		.loc 1 154 70 view .LVU46
 210 0000 FFF7FEBF 		b	sethsv_raw
 211              	.LVL10:
 154:quantum/rgblight/rgblight.c **** 
 212              		.loc 1 154 70 is_stmt 0 view .LVU47
 213              		.cfi_endproc
 214              	.LFE408:
 216              		.section	.text.setrgb,"ax",%progbits
 217              		.align	1
 218              		.global	setrgb
 219              		.syntax unified
 220              		.thumb
 221              		.thumb_func
 222              		.fpu fpv4-sp-d16
 224              	setrgb:
 225              	.LVL11:
 226              	.LFB409:
 156:quantum/rgblight/rgblight.c ****     led1->r = r;
 227              		.loc 1 156 62 is_stmt 1 view -0
 228              		.cfi_startproc
 229              		@ args = 0, pretend = 0, frame = 0
 230              		@ frame_needed = 0, uses_anonymous_args = 0
 231              		@ link register save eliminated.
 157:quantum/rgblight/rgblight.c ****     led1->g = g;
 232              		.loc 1 157 5 view .LVU49
 157:quantum/rgblight/rgblight.c ****     led1->g = g;
 233              		.loc 1 157 13 is_stmt 0 view .LVU50
 234 0000 5870     		strb	r0, [r3, #1]
 158:quantum/rgblight/rgblight.c ****     led1->b = b;
 235              		.loc 1 158 5 is_stmt 1 view .LVU51
 158:quantum/rgblight/rgblight.c ****     led1->b = b;
 236              		.loc 1 158 13 is_stmt 0 view .LVU52
 237 0002 1970     		strb	r1, [r3]
 238              		.loc 1 159 5 is_stmt 1 view .LVU53
 239              		.loc 1 159 13 is_stmt 0 view .LVU54
 240 0004 9A70     		strb	r2, [r3, #2]
 160:quantum/rgblight/rgblight.c **** #ifdef RGBW
 161:quantum/rgblight/rgblight.c ****     led1->w = 0;
 162:quantum/rgblight/rgblight.c **** #endif
 163:quantum/rgblight/rgblight.c **** }
 241              		.loc 1 163 1 view .LVU55
 242 0006 7047     		bx	lr
 243              		.cfi_endproc
 244              	.LFE409:
 246              		.section	.text.rgblight_check_config,"ax",%progbits
 247              		.align	1
 248              		.global	rgblight_check_config
 249              		.syntax unified
 250              		.thumb
 251              		.thumb_func
 252              		.fpu fpv4-sp-d16
 254              	rgblight_check_config:
 255              	.LFB410:
 164:quantum/rgblight/rgblight.c **** 
 165:quantum/rgblight/rgblight.c **** void rgblight_check_config(void) {
 256              		.loc 1 165 34 is_stmt 1 view -0
 257              		.cfi_startproc
 258              		@ args = 0, pretend = 0, frame = 0
 259              		@ frame_needed = 0, uses_anonymous_args = 0
 260              		@ link register save eliminated.
 166:quantum/rgblight/rgblight.c ****     /* Add some out of bound checks for RGB light config */
 167:quantum/rgblight/rgblight.c **** 
 168:quantum/rgblight/rgblight.c ****     if (rgblight_config.mode < RGBLIGHT_MODE_STATIC_LIGHT) {
 261              		.loc 1 168 5 view .LVU57
 262              		.loc 1 168 30 is_stmt 0 view .LVU58
 263 0000 064B     		ldr	r3, .L16
 264 0002 1A78     		ldrb	r2, [r3]	@ zero_extendqisi2
 265              		.loc 1 168 8 view .LVU59
 266 0004 12F0FE0F 		tst	r2, #254
 267 0008 05D1     		bne	.L13
 268              	.L15:
 169:quantum/rgblight/rgblight.c ****         rgblight_config.mode = RGBLIGHT_MODE_STATIC_LIGHT;
 269              		.loc 1 169 9 is_stmt 1 view .LVU60
 270              		.loc 1 169 30 is_stmt 0 view .LVU61
 271 000a 1A78     		ldrb	r2, [r3]	@ zero_extendqisi2
 272 000c 0121     		movs	r1, #1
 273 000e 61F34702 		bfi	r2, r1, #1, #7
 274 0012 1A70     		strb	r2, [r3]
 275 0014 7047     		bx	lr
 276              	.L13:
 277              	.LBB30:
 278              	.LBI30:
 165:quantum/rgblight/rgblight.c ****     /* Add some out of bound checks for RGB light config */
 279              		.loc 1 165 6 is_stmt 1 view .LVU62
 280              	.LBB31:
 170:quantum/rgblight/rgblight.c ****     } else if (rgblight_config.mode > RGBLIGHT_MODES) {
 281              		.loc 1 170 12 view .LVU63
 282              		.loc 1 170 15 is_stmt 0 view .LVU64
 283 0016 032A     		cmp	r2, #3
 284 0018 F7D8     		bhi	.L15
 285              	.LBE31:
 286              	.LBE30:
 171:quantum/rgblight/rgblight.c ****         rgblight_config.mode = RGBLIGHT_MODES;
 172:quantum/rgblight/rgblight.c ****     }
 173:quantum/rgblight/rgblight.c **** 
 174:quantum/rgblight/rgblight.c ****     if (rgblight_config.val > RGBLIGHT_LIMIT_VAL) {
 175:quantum/rgblight/rgblight.c ****         rgblight_config.val = RGBLIGHT_LIMIT_VAL;
 176:quantum/rgblight/rgblight.c ****     }
 177:quantum/rgblight/rgblight.c **** }
 287              		.loc 1 177 1 view .LVU65
 288 001a 7047     		bx	lr
 289              	.L17:
 290              		.align	2
 291              	.L16:
 292 001c 00000000 		.word	rgblight_config
 293              		.cfi_endproc
 294              	.LFE410:
 296              		.section	.text.eeconfig_read_rgblight,"ax",%progbits
 297              		.align	1
 298              		.global	eeconfig_read_rgblight
 299              		.syntax unified
 300              		.thumb
 301              		.thumb_func
 302              		.fpu fpv4-sp-d16
 304              	eeconfig_read_rgblight:
 305              	.LFB411:
 178:quantum/rgblight/rgblight.c **** 
 179:quantum/rgblight/rgblight.c **** uint32_t eeconfig_read_rgblight(void) {
 306              		.loc 1 179 39 is_stmt 1 view -0
 307              		.cfi_startproc
 308              		@ args = 0, pretend = 0, frame = 0
 309              		@ frame_needed = 0, uses_anonymous_args = 0
 310              		@ link register save eliminated.
 180:quantum/rgblight/rgblight.c **** #ifdef EEPROM_ENABLE
 181:quantum/rgblight/rgblight.c ****     return eeprom_read_dword(EECONFIG_RGBLIGHT);
 311              		.loc 1 181 5 view .LVU67
 312              		.loc 1 181 12 is_stmt 0 view .LVU68
 313 0000 0820     		movs	r0, #8
 314 0002 FFF7FEBF 		b	eeprom_read_dword
 315              	.LVL12:
 316              		.cfi_endproc
 317              	.LFE411:
 319              		.section	.text.eeconfig_update_rgblight,"ax",%progbits
 320              		.align	1
 321              		.global	eeconfig_update_rgblight
 322              		.syntax unified
 323              		.thumb
 324              		.thumb_func
 325              		.fpu fpv4-sp-d16
 327              	eeconfig_update_rgblight:
 328              	.LVL13:
 329              	.LFB412:
 182:quantum/rgblight/rgblight.c **** #else
 183:quantum/rgblight/rgblight.c ****     return 0;
 184:quantum/rgblight/rgblight.c **** #endif
 185:quantum/rgblight/rgblight.c **** }
 186:quantum/rgblight/rgblight.c **** 
 187:quantum/rgblight/rgblight.c **** void eeconfig_update_rgblight(uint32_t val) {
 330              		.loc 1 187 45 is_stmt 1 view -0
 331              		.cfi_startproc
 332              		@ args = 0, pretend = 0, frame = 8
 333              		@ frame_needed = 0, uses_anonymous_args = 0
 188:quantum/rgblight/rgblight.c **** #ifdef EEPROM_ENABLE
 189:quantum/rgblight/rgblight.c ****     rgblight_check_config();
 334              		.loc 1 189 5 view .LVU70
 187:quantum/rgblight/rgblight.c **** #ifdef EEPROM_ENABLE
 335              		.loc 1 187 45 is_stmt 0 view .LVU71
 336 0000 07B5     		push	{r0, r1, r2, lr}
 337              		.cfi_def_cfa_offset 16
 338              		.cfi_offset 14, -4
 187:quantum/rgblight/rgblight.c **** #ifdef EEPROM_ENABLE
 339              		.loc 1 187 45 view .LVU72
 340 0002 0190     		str	r0, [sp, #4]
 341              		.loc 1 189 5 view .LVU73
 342 0004 FFF7FEFF 		bl	rgblight_check_config
 343              	.LVL14:
 190:quantum/rgblight/rgblight.c ****     eeprom_update_dword(EECONFIG_RGBLIGHT, val);
 344              		.loc 1 190 5 is_stmt 1 view .LVU74
 345 0008 0199     		ldr	r1, [sp, #4]
 346 000a 0820     		movs	r0, #8
 347              	.LVL15:
 191:quantum/rgblight/rgblight.c **** #endif
 192:quantum/rgblight/rgblight.c **** }
 348              		.loc 1 192 1 is_stmt 0 view .LVU75
 349 000c 03B0     		add	sp, sp, #12
 350              		.cfi_def_cfa_offset 4
 351              		@ sp needed
 352 000e 5DF804EB 		ldr	lr, [sp], #4
 353              		.cfi_restore 14
 354              		.cfi_def_cfa_offset 0
 355              	.LVL16:
 190:quantum/rgblight/rgblight.c ****     eeprom_update_dword(EECONFIG_RGBLIGHT, val);
 356              		.loc 1 190 5 view .LVU76
 357 0012 FFF7FEBF 		b	eeprom_update_dword
 358              	.LVL17:
 359              		.cfi_endproc
 360              	.LFE412:
 362              		.section	.text.eeconfig_update_rgblight_current,"ax",%progbits
 363              		.align	1
 364              		.global	eeconfig_update_rgblight_current
 365              		.syntax unified
 366              		.thumb
 367              		.thumb_func
 368              		.fpu fpv4-sp-d16
 370              	eeconfig_update_rgblight_current:
 371              	.LFB413:
 193:quantum/rgblight/rgblight.c **** 
 194:quantum/rgblight/rgblight.c **** void eeconfig_update_rgblight_current(void) { eeconfig_update_rgblight(rgblight_config.raw); }
 372              		.loc 1 194 45 is_stmt 1 view -0
 373              		.cfi_startproc
 374              		@ args = 0, pretend = 0, frame = 0
 375              		@ frame_needed = 0, uses_anonymous_args = 0
 376              		@ link register save eliminated.
 377              		.loc 1 194 47 view .LVU78
 378 0000 014B     		ldr	r3, .L21
 379 0002 1868     		ldr	r0, [r3]
 380 0004 FFF7FEBF 		b	eeconfig_update_rgblight
 381              	.LVL18:
 382              	.L22:
 383              		.align	2
 384              	.L21:
 385 0008 00000000 		.word	rgblight_config
 386              		.cfi_endproc
 387              	.LFE413:
 389              		.section	.text.eeconfig_update_rgblight_default,"ax",%progbits
 390              		.align	1
 391              		.global	eeconfig_update_rgblight_default
 392              		.syntax unified
 393              		.thumb
 394              		.thumb_func
 395              		.fpu fpv4-sp-d16
 397              	eeconfig_update_rgblight_default:
 398              	.LFB414:
 195:quantum/rgblight/rgblight.c **** 
 196:quantum/rgblight/rgblight.c **** void eeconfig_update_rgblight_default(void) {
 399              		.loc 1 196 45 view -0
 400              		.cfi_startproc
 401              		@ args = 0, pretend = 0, frame = 0
 402              		@ frame_needed = 0, uses_anonymous_args = 0
 403              		@ link register save eliminated.
 197:quantum/rgblight/rgblight.c ****     rgblight_config.enable = 1;
 404              		.loc 1 197 5 view .LVU80
 198:quantum/rgblight/rgblight.c ****     rgblight_config.mode   = RGBLIGHT_DEFAULT_MODE;
 405              		.loc 1 198 5 view .LVU81
 199:quantum/rgblight/rgblight.c ****     rgblight_config.hue    = RGBLIGHT_DEFAULT_HUE;
 406              		.loc 1 199 5 view .LVU82
 200:quantum/rgblight/rgblight.c ****     rgblight_config.sat    = RGBLIGHT_DEFAULT_SAT;
 407              		.loc 1 200 5 view .LVU83
 201:quantum/rgblight/rgblight.c ****     rgblight_config.val    = RGBLIGHT_DEFAULT_VAL;
 408              		.loc 1 201 5 view .LVU84
 202:quantum/rgblight/rgblight.c ****     rgblight_config.speed  = RGBLIGHT_DEFAULT_SPD;
 409              		.loc 1 202 5 view .LVU85
 197:quantum/rgblight/rgblight.c ****     rgblight_config.mode   = RGBLIGHT_DEFAULT_MODE;
 410              		.loc 1 197 28 is_stmt 0 view .LVU86
 411 0000 034B     		ldr	r3, .L24
 412 0002 0448     		ldr	r0, .L24+4
 413 0004 1860     		str	r0, [r3]
 414              		.loc 1 202 28 view .LVU87
 415 0006 0022     		movs	r2, #0
 416 0008 1A71     		strb	r2, [r3, #4]
 203:quantum/rgblight/rgblight.c ****     RGBLIGHT_SPLIT_SET_CHANGE_MODEHSVS;
 417              		.loc 1 203 39 is_stmt 1 view .LVU88
 204:quantum/rgblight/rgblight.c ****     eeconfig_update_rgblight(rgblight_config.raw);
 418              		.loc 1 204 5 view .LVU89
 419 000a FFF7FEBF 		b	eeconfig_update_rgblight
 420              	.LVL19:
 421              	.L25:
 422 000e 00BF     		.align	2
 423              	.L24:
 424 0010 00000000 		.word	rgblight_config
 425 0014 0300FFFF 		.word	-65533
 426              		.cfi_endproc
 427              	.LFE414:
 429              		.section	.rodata.eeconfig_debug_rgblight.str1.1,"aMS",%progbits,1
 430              	.LC0:
 431 0000 7267626C 		.ascii	"rgblight_config EEPROM:\012\000"
 431      69676874 
 431      5F636F6E 
 431      66696720 
 431      45455052 
 432              	.LC1:
 433 0019 7267626C 		.ascii	"rgblight_config.enable = %d\012\000"
 433      69676874 
 433      5F636F6E 
 433      6669672E 
 433      656E6162 
 434              	.LC2:
 435 0036 7267686C 		.ascii	"rghlight_config.mode = %d\012\000"
 435      69676874 
 435      5F636F6E 
 435      6669672E 
 435      6D6F6465 
 436              	.LC3:
 437 0051 7267626C 		.ascii	"rgblight_config.hue = %d\012\000"
 437      69676874 
 437      5F636F6E 
 437      6669672E 
 437      68756520 
 438              	.LC4:
 439 006b 7267626C 		.ascii	"rgblight_config.sat = %d\012\000"
 439      69676874 
 439      5F636F6E 
 439      6669672E 
 439      73617420 
 440              	.LC5:
 441 0085 7267626C 		.ascii	"rgblight_config.val = %d\012\000"
 441      69676874 
 441      5F636F6E 
 441      6669672E 
 441      76616C20 
 442              	.LC6:
 443 009f 7267626C 		.ascii	"rgblight_config.speed = %d\012\000"
 443      69676874 
 443      5F636F6E 
 443      6669672E 
 443      73706565 
 444              		.section	.text.eeconfig_debug_rgblight,"ax",%progbits
 445              		.align	1
 446              		.global	eeconfig_debug_rgblight
 447              		.syntax unified
 448              		.thumb
 449              		.thumb_func
 450              		.fpu fpv4-sp-d16
 452              	eeconfig_debug_rgblight:
 453              	.LFB415:
 205:quantum/rgblight/rgblight.c **** }
 206:quantum/rgblight/rgblight.c **** 
 207:quantum/rgblight/rgblight.c **** void eeconfig_debug_rgblight(void) {
 454              		.loc 1 207 36 view -0
 455              		.cfi_startproc
 456              		@ args = 0, pretend = 0, frame = 0
 457              		@ frame_needed = 0, uses_anonymous_args = 0
 208:quantum/rgblight/rgblight.c ****     dprintf("rgblight_config EEPROM:\n");
 458              		.loc 1 208 5 view .LVU91
 459              		.loc 1 208 5 view .LVU92
 207:quantum/rgblight/rgblight.c ****     dprintf("rgblight_config EEPROM:\n");
 460              		.loc 1 207 36 is_stmt 0 view .LVU93
 461 0000 38B5     		push	{r3, r4, r5, lr}
 462              		.cfi_def_cfa_offset 16
 463              		.cfi_offset 3, -16
 464              		.cfi_offset 4, -12
 465              		.cfi_offset 5, -8
 466              		.cfi_offset 14, -4
 467              		.loc 1 208 5 view .LVU94
 468 0002 1C4C     		ldr	r4, .L55
 469 0004 2378     		ldrb	r3, [r4]	@ zero_extendqisi2
 470 0006 D907     		lsls	r1, r3, #31
 471 0008 32D5     		bpl	.L26
 472              		.loc 1 208 5 is_stmt 1 discriminator 1 view .LVU95
 473 000a 1B48     		ldr	r0, .L55+4
 474 000c FFF7FEFF 		bl	printf_
 475              	.LVL20:
 476              		.loc 1 208 5 discriminator 1 view .LVU96
 209:quantum/rgblight/rgblight.c ****     dprintf("rgblight_config.enable = %d\n", rgblight_config.enable);
 477              		.loc 1 209 5 discriminator 1 view .LVU97
 478              		.loc 1 209 5 discriminator 1 view .LVU98
 479 0010 2378     		ldrb	r3, [r4]	@ zero_extendqisi2
 480 0012 DA07     		lsls	r2, r3, #31
 481 0014 2CD5     		bpl	.L26
 482              		.loc 1 209 5 discriminator 1 view .LVU99
 483 0016 194D     		ldr	r5, .L55+8
 484 0018 1948     		ldr	r0, .L55+12
 485 001a 2978     		ldrb	r1, [r5]	@ zero_extendqisi2
 486 001c 01F00101 		and	r1, r1, #1
 487 0020 FFF7FEFF 		bl	printf_
 488              	.LVL21:
 489              		.loc 1 209 5 discriminator 1 view .LVU100
 210:quantum/rgblight/rgblight.c ****     dprintf("rghlight_config.mode = %d\n", rgblight_config.mode);
 490              		.loc 1 210 5 discriminator 1 view .LVU101
 491              		.loc 1 210 5 discriminator 1 view .LVU102
 492 0024 2378     		ldrb	r3, [r4]	@ zero_extendqisi2
 493 0026 DB07     		lsls	r3, r3, #31
 494 0028 22D5     		bpl	.L26
 495              		.loc 1 210 5 discriminator 1 view .LVU103
 496 002a 2978     		ldrb	r1, [r5]	@ zero_extendqisi2
 497 002c 1548     		ldr	r0, .L55+16
 498 002e 4908     		lsrs	r1, r1, #1
 499 0030 FFF7FEFF 		bl	printf_
 500              	.LVL22:
 501              		.loc 1 210 5 discriminator 1 view .LVU104
 211:quantum/rgblight/rgblight.c ****     dprintf("rgblight_config.hue = %d\n", rgblight_config.hue);
 502              		.loc 1 211 5 discriminator 1 view .LVU105
 503              		.loc 1 211 5 discriminator 1 view .LVU106
 504 0034 2378     		ldrb	r3, [r4]	@ zero_extendqisi2
 505 0036 D807     		lsls	r0, r3, #31
 506 0038 1AD5     		bpl	.L26
 507              		.loc 1 211 5 discriminator 1 view .LVU107
 508 003a 6978     		ldrb	r1, [r5, #1]	@ zero_extendqisi2
 509 003c 1248     		ldr	r0, .L55+20
 510 003e FFF7FEFF 		bl	printf_
 511              	.LVL23:
 512              		.loc 1 211 5 discriminator 1 view .LVU108
 212:quantum/rgblight/rgblight.c ****     dprintf("rgblight_config.sat = %d\n", rgblight_config.sat);
 513              		.loc 1 212 5 discriminator 1 view .LVU109
 514              		.loc 1 212 5 discriminator 1 view .LVU110
 515 0042 2378     		ldrb	r3, [r4]	@ zero_extendqisi2
 516 0044 D907     		lsls	r1, r3, #31
 517 0046 13D5     		bpl	.L26
 518              		.loc 1 212 5 discriminator 1 view .LVU111
 519 0048 A978     		ldrb	r1, [r5, #2]	@ zero_extendqisi2
 520 004a 1048     		ldr	r0, .L55+24
 521 004c FFF7FEFF 		bl	printf_
 522              	.LVL24:
 523              		.loc 1 212 5 discriminator 1 view .LVU112
 213:quantum/rgblight/rgblight.c ****     dprintf("rgblight_config.val = %d\n", rgblight_config.val);
 524              		.loc 1 213 5 discriminator 1 view .LVU113
 525              		.loc 1 213 5 discriminator 1 view .LVU114
 526 0050 2378     		ldrb	r3, [r4]	@ zero_extendqisi2
 527 0052 DA07     		lsls	r2, r3, #31
 528 0054 0CD5     		bpl	.L26
 529              		.loc 1 213 5 discriminator 1 view .LVU115
 530 0056 E978     		ldrb	r1, [r5, #3]	@ zero_extendqisi2
 531 0058 0D48     		ldr	r0, .L55+28
 532 005a FFF7FEFF 		bl	printf_
 533              	.LVL25:
 534              		.loc 1 213 5 discriminator 1 view .LVU116
 214:quantum/rgblight/rgblight.c ****     dprintf("rgblight_config.speed = %d\n", rgblight_config.speed);
 535              		.loc 1 214 5 discriminator 1 view .LVU117
 536              		.loc 1 214 5 discriminator 1 view .LVU118
 537 005e 2378     		ldrb	r3, [r4]	@ zero_extendqisi2
 538 0060 DB07     		lsls	r3, r3, #31
 539 0062 05D5     		bpl	.L26
 540              		.loc 1 214 5 discriminator 1 view .LVU119
 541 0064 2979     		ldrb	r1, [r5, #4]	@ zero_extendqisi2
 542 0066 0B48     		ldr	r0, .L55+32
 215:quantum/rgblight/rgblight.c **** }
 543              		.loc 1 215 1 is_stmt 0 discriminator 1 view .LVU120
 544 0068 BDE83840 		pop	{r3, r4, r5, lr}
 545              		.cfi_remember_state
 546              		.cfi_restore 14
 547              		.cfi_restore 5
 548              		.cfi_restore 4
 549              		.cfi_restore 3
 550              		.cfi_def_cfa_offset 0
 214:quantum/rgblight/rgblight.c ****     dprintf("rgblight_config.speed = %d\n", rgblight_config.speed);
 551              		.loc 1 214 5 discriminator 1 view .LVU121
 552 006c FFF7FEBF 		b	printf_
 553              	.LVL26:
 554              	.L26:
 555              		.cfi_restore_state
 556              		.loc 1 215 1 view .LVU122
 557 0070 38BD     		pop	{r3, r4, r5, pc}
 558              	.L56:
 559 0072 00BF     		.align	2
 560              	.L55:
 561 0074 00000000 		.word	debug_config
 562 0078 00000000 		.word	.LC0
 563 007c 00000000 		.word	rgblight_config
 564 0080 19000000 		.word	.LC1
 565 0084 36000000 		.word	.LC2
 566 0088 51000000 		.word	.LC3
 567 008c 6B000000 		.word	.LC4
 568 0090 85000000 		.word	.LC5
 569 0094 9F000000 		.word	.LC6
 570              		.cfi_endproc
 571              	.LFE415:
 573              		.section	.text.rgblight_read_dword,"ax",%progbits
 574              		.align	1
 575              		.global	rgblight_read_dword
 576              		.syntax unified
 577              		.thumb
 578              		.thumb_func
 579              		.fpu fpv4-sp-d16
 581              	rgblight_read_dword:
 582              	.LFB418:
 216:quantum/rgblight/rgblight.c **** 
 217:quantum/rgblight/rgblight.c **** void rgblight_init(void) {
 218:quantum/rgblight/rgblight.c ****     /* if already initialized, don't do it again.
 219:quantum/rgblight/rgblight.c ****        If you must do it again, extern this and set to false, first.
 220:quantum/rgblight/rgblight.c ****        This is a dirty, dirty hack until proper hooks can be added for keyboard startup. */
 221:quantum/rgblight/rgblight.c ****     if (is_rgblight_initialized) {
 222:quantum/rgblight/rgblight.c ****         return;
 223:quantum/rgblight/rgblight.c ****     }
 224:quantum/rgblight/rgblight.c **** 
 225:quantum/rgblight/rgblight.c ****     dprintf("rgblight_init called.\n");
 226:quantum/rgblight/rgblight.c ****     dprintf("rgblight_init start!\n");
 227:quantum/rgblight/rgblight.c ****     if (!eeconfig_is_enabled()) {
 228:quantum/rgblight/rgblight.c ****         dprintf("rgblight_init eeconfig is not enabled.\n");
 229:quantum/rgblight/rgblight.c ****         eeconfig_init();
 230:quantum/rgblight/rgblight.c ****         eeconfig_update_rgblight_default();
 231:quantum/rgblight/rgblight.c ****     }
 232:quantum/rgblight/rgblight.c ****     rgblight_config.raw = eeconfig_read_rgblight();
 233:quantum/rgblight/rgblight.c ****     RGBLIGHT_SPLIT_SET_CHANGE_MODEHSVS;
 234:quantum/rgblight/rgblight.c ****     if (!rgblight_config.mode) {
 235:quantum/rgblight/rgblight.c ****         dprintf("rgblight_init rgblight_config.mode = 0. Write default values to EEPROM.\n");
 236:quantum/rgblight/rgblight.c ****         eeconfig_update_rgblight_default();
 237:quantum/rgblight/rgblight.c ****         rgblight_config.raw = eeconfig_read_rgblight();
 238:quantum/rgblight/rgblight.c ****     }
 239:quantum/rgblight/rgblight.c ****     rgblight_check_config();
 240:quantum/rgblight/rgblight.c **** 
 241:quantum/rgblight/rgblight.c ****     eeconfig_debug_rgblight();  // display current eeprom values
 242:quantum/rgblight/rgblight.c **** 
 243:quantum/rgblight/rgblight.c ****     rgblight_timer_init();  // setup the timer
 244:quantum/rgblight/rgblight.c **** 
 245:quantum/rgblight/rgblight.c ****     if (rgblight_config.enable) {
 246:quantum/rgblight/rgblight.c ****         rgblight_mode_noeeprom(rgblight_config.mode);
 247:quantum/rgblight/rgblight.c ****     }
 248:quantum/rgblight/rgblight.c **** 
 249:quantum/rgblight/rgblight.c ****     is_rgblight_initialized = true;
 250:quantum/rgblight/rgblight.c **** }
 251:quantum/rgblight/rgblight.c **** 
 252:quantum/rgblight/rgblight.c **** void rgblight_reload_from_eeprom(void) {
 253:quantum/rgblight/rgblight.c ****     /* Reset back to what we have in eeprom */
 254:quantum/rgblight/rgblight.c ****     rgblight_config.raw = eeconfig_read_rgblight();
 255:quantum/rgblight/rgblight.c ****     RGBLIGHT_SPLIT_SET_CHANGE_MODEHSVS;
 256:quantum/rgblight/rgblight.c ****     rgblight_check_config();
 257:quantum/rgblight/rgblight.c ****     eeconfig_debug_rgblight();  // display current eeprom values
 258:quantum/rgblight/rgblight.c ****     if (rgblight_config.enable) {
 259:quantum/rgblight/rgblight.c ****         rgblight_mode_noeeprom(rgblight_config.mode);
 260:quantum/rgblight/rgblight.c ****     }
 261:quantum/rgblight/rgblight.c **** }
 262:quantum/rgblight/rgblight.c **** 
 263:quantum/rgblight/rgblight.c **** uint32_t rgblight_read_dword(void) { return rgblight_config.raw; }
 583              		.loc 1 263 36 is_stmt 1 view -0
 584              		.cfi_startproc
 585              		@ args = 0, pretend = 0, frame = 0
 586              		@ frame_needed = 0, uses_anonymous_args = 0
 587              		@ link register save eliminated.
 588              		.loc 1 263 38 view .LVU124
 589              		.loc 1 263 66 is_stmt 0 view .LVU125
 590 0000 014B     		ldr	r3, .L58
 591 0002 1868     		ldr	r0, [r3]
 592 0004 7047     		bx	lr
 593              	.L59:
 594 0006 00BF     		.align	2
 595              	.L58:
 596 0008 00000000 		.word	rgblight_config
 597              		.cfi_endproc
 598              	.LFE418:
 600              		.section	.text.rgblight_get_mode,"ax",%progbits
 601              		.align	1
 602              		.global	rgblight_get_mode
 603              		.syntax unified
 604              		.thumb
 605              		.thumb_func
 606              		.fpu fpv4-sp-d16
 608              	rgblight_get_mode:
 609              	.LFB428:
 264:quantum/rgblight/rgblight.c **** 
 265:quantum/rgblight/rgblight.c **** void rgblight_update_dword(uint32_t dword) {
 266:quantum/rgblight/rgblight.c ****     RGBLIGHT_SPLIT_SET_CHANGE_MODEHSVS;
 267:quantum/rgblight/rgblight.c ****     rgblight_config.raw = dword;
 268:quantum/rgblight/rgblight.c ****     if (rgblight_config.enable)
 269:quantum/rgblight/rgblight.c ****         rgblight_mode_noeeprom(rgblight_config.mode);
 270:quantum/rgblight/rgblight.c ****     else {
 271:quantum/rgblight/rgblight.c ****         rgblight_timer_disable();
 272:quantum/rgblight/rgblight.c ****         rgblight_set();
 273:quantum/rgblight/rgblight.c ****     }
 274:quantum/rgblight/rgblight.c **** }
 275:quantum/rgblight/rgblight.c **** 
 276:quantum/rgblight/rgblight.c **** void rgblight_increase(void) {
 277:quantum/rgblight/rgblight.c ****     uint8_t mode = 0;
 278:quantum/rgblight/rgblight.c ****     if (rgblight_config.mode < RGBLIGHT_MODES) {
 279:quantum/rgblight/rgblight.c ****         mode = rgblight_config.mode + 1;
 280:quantum/rgblight/rgblight.c ****     }
 281:quantum/rgblight/rgblight.c ****     rgblight_mode(mode);
 282:quantum/rgblight/rgblight.c **** }
 283:quantum/rgblight/rgblight.c **** void rgblight_decrease(void) {
 284:quantum/rgblight/rgblight.c ****     uint8_t mode = 0;
 285:quantum/rgblight/rgblight.c ****     // Mode will never be < 1. If it ever is, eeprom needs to be initialized.
 286:quantum/rgblight/rgblight.c ****     if (rgblight_config.mode > RGBLIGHT_MODE_STATIC_LIGHT) {
 287:quantum/rgblight/rgblight.c ****         mode = rgblight_config.mode - 1;
 288:quantum/rgblight/rgblight.c ****     }
 289:quantum/rgblight/rgblight.c ****     rgblight_mode(mode);
 290:quantum/rgblight/rgblight.c **** }
 291:quantum/rgblight/rgblight.c **** void rgblight_step_helper(bool write_to_eeprom) {
 292:quantum/rgblight/rgblight.c ****     uint8_t mode = 0;
 293:quantum/rgblight/rgblight.c ****     mode         = rgblight_config.mode + 1;
 294:quantum/rgblight/rgblight.c ****     if (mode > RGBLIGHT_MODES) {
 295:quantum/rgblight/rgblight.c ****         mode = 1;
 296:quantum/rgblight/rgblight.c ****     }
 297:quantum/rgblight/rgblight.c ****     rgblight_mode_eeprom_helper(mode, write_to_eeprom);
 298:quantum/rgblight/rgblight.c **** }
 299:quantum/rgblight/rgblight.c **** void rgblight_step_noeeprom(void) { rgblight_step_helper(false); }
 300:quantum/rgblight/rgblight.c **** void rgblight_step(void) { rgblight_step_helper(true); }
 301:quantum/rgblight/rgblight.c **** void rgblight_step_reverse_helper(bool write_to_eeprom) {
 302:quantum/rgblight/rgblight.c ****     uint8_t mode = 0;
 303:quantum/rgblight/rgblight.c ****     mode         = rgblight_config.mode - 1;
 304:quantum/rgblight/rgblight.c ****     if (mode < 1) {
 305:quantum/rgblight/rgblight.c ****         mode = RGBLIGHT_MODES;
 306:quantum/rgblight/rgblight.c ****     }
 307:quantum/rgblight/rgblight.c ****     rgblight_mode_eeprom_helper(mode, write_to_eeprom);
 308:quantum/rgblight/rgblight.c **** }
 309:quantum/rgblight/rgblight.c **** void rgblight_step_reverse_noeeprom(void) { rgblight_step_reverse_helper(false); }
 310:quantum/rgblight/rgblight.c **** void rgblight_step_reverse(void) { rgblight_step_reverse_helper(true); }
 311:quantum/rgblight/rgblight.c **** 
 312:quantum/rgblight/rgblight.c **** uint8_t rgblight_get_mode(void) {
 610              		.loc 1 312 33 is_stmt 1 view -0
 611              		.cfi_startproc
 612              		@ args = 0, pretend = 0, frame = 0
 613              		@ frame_needed = 0, uses_anonymous_args = 0
 614              		@ link register save eliminated.
 313:quantum/rgblight/rgblight.c ****     if (!rgblight_config.enable) {
 615              		.loc 1 313 5 view .LVU127
 616              		.loc 1 313 25 is_stmt 0 view .LVU128
 617 0000 034B     		ldr	r3, .L63
 618 0002 1B78     		ldrb	r3, [r3]	@ zero_extendqisi2
 619              		.loc 1 313 8 view .LVU129
 620 0004 13F00100 		ands	r0, r3, #1
 314:quantum/rgblight/rgblight.c ****         return false;
 315:quantum/rgblight/rgblight.c ****     }
 316:quantum/rgblight/rgblight.c **** 
 317:quantum/rgblight/rgblight.c ****     return rgblight_config.mode;
 621              		.loc 1 317 5 is_stmt 1 view .LVU130
 622              		.loc 1 317 27 is_stmt 0 view .LVU131
 623 0008 18BF     		it	ne
 624 000a 5808     		lsrne	r0, r3, #1
 318:quantum/rgblight/rgblight.c **** }
 625              		.loc 1 318 1 view .LVU132
 626 000c 7047     		bx	lr
 627              	.L64:
 628 000e 00BF     		.align	2
 629              	.L63:
 630 0010 00000000 		.word	rgblight_config
 631              		.cfi_endproc
 632              	.LFE428:
 634              		.section	.text.rgblight_is_enabled,"ax",%progbits
 635              		.align	1
 636              		.global	rgblight_is_enabled
 637              		.syntax unified
 638              		.thumb
 639              		.thumb_func
 640              		.fpu fpv4-sp-d16
 642              	rgblight_is_enabled:
 643              	.LFB438:
 319:quantum/rgblight/rgblight.c **** 
 320:quantum/rgblight/rgblight.c **** void rgblight_mode_eeprom_helper(uint8_t mode, bool write_to_eeprom) {
 321:quantum/rgblight/rgblight.c ****     if (!rgblight_config.enable) {
 322:quantum/rgblight/rgblight.c ****         return;
 323:quantum/rgblight/rgblight.c ****     }
 324:quantum/rgblight/rgblight.c ****     if (mode < RGBLIGHT_MODE_STATIC_LIGHT) {
 325:quantum/rgblight/rgblight.c ****         rgblight_config.mode = RGBLIGHT_MODE_STATIC_LIGHT;
 326:quantum/rgblight/rgblight.c ****     } else if (mode > RGBLIGHT_MODES) {
 327:quantum/rgblight/rgblight.c ****         rgblight_config.mode = RGBLIGHT_MODES;
 328:quantum/rgblight/rgblight.c ****     } else {
 329:quantum/rgblight/rgblight.c ****         rgblight_config.mode = mode;
 330:quantum/rgblight/rgblight.c ****     }
 331:quantum/rgblight/rgblight.c ****     RGBLIGHT_SPLIT_SET_CHANGE_MODE;
 332:quantum/rgblight/rgblight.c ****     if (write_to_eeprom) {
 333:quantum/rgblight/rgblight.c ****         eeconfig_update_rgblight(rgblight_config.raw);
 334:quantum/rgblight/rgblight.c ****         dprintf("rgblight mode [EEPROM]: %u\n", rgblight_config.mode);
 335:quantum/rgblight/rgblight.c ****     } else {
 336:quantum/rgblight/rgblight.c ****         dprintf("rgblight mode [NOEEPROM]: %u\n", rgblight_config.mode);
 337:quantum/rgblight/rgblight.c ****     }
 338:quantum/rgblight/rgblight.c ****     if (is_static_effect(rgblight_config.mode)) {
 339:quantum/rgblight/rgblight.c ****         rgblight_timer_disable();
 340:quantum/rgblight/rgblight.c ****     } else {
 341:quantum/rgblight/rgblight.c ****         rgblight_timer_enable();
 342:quantum/rgblight/rgblight.c ****     }
 343:quantum/rgblight/rgblight.c **** #ifdef RGBLIGHT_USE_TIMER
 344:quantum/rgblight/rgblight.c ****     animation_status.restart = true;
 345:quantum/rgblight/rgblight.c **** #endif
 346:quantum/rgblight/rgblight.c ****     rgblight_sethsv_noeeprom(rgblight_config.hue, rgblight_config.sat, rgblight_config.val);
 347:quantum/rgblight/rgblight.c **** }
 348:quantum/rgblight/rgblight.c **** 
 349:quantum/rgblight/rgblight.c **** void rgblight_mode(uint8_t mode) { rgblight_mode_eeprom_helper(mode, true); }
 350:quantum/rgblight/rgblight.c **** 
 351:quantum/rgblight/rgblight.c **** void rgblight_mode_noeeprom(uint8_t mode) { rgblight_mode_eeprom_helper(mode, false); }
 352:quantum/rgblight/rgblight.c **** 
 353:quantum/rgblight/rgblight.c **** void rgblight_toggle(void) {
 354:quantum/rgblight/rgblight.c ****     dprintf("rgblight toggle [EEPROM]: rgblight_config.enable = %u\n", !rgblight_config.enable);
 355:quantum/rgblight/rgblight.c ****     if (rgblight_config.enable) {
 356:quantum/rgblight/rgblight.c ****         rgblight_disable();
 357:quantum/rgblight/rgblight.c ****     } else {
 358:quantum/rgblight/rgblight.c ****         rgblight_enable();
 359:quantum/rgblight/rgblight.c ****     }
 360:quantum/rgblight/rgblight.c **** }
 361:quantum/rgblight/rgblight.c **** 
 362:quantum/rgblight/rgblight.c **** void rgblight_toggle_noeeprom(void) {
 363:quantum/rgblight/rgblight.c ****     dprintf("rgblight toggle [NOEEPROM]: rgblight_config.enable = %u\n", !rgblight_config.enable);
 364:quantum/rgblight/rgblight.c ****     if (rgblight_config.enable) {
 365:quantum/rgblight/rgblight.c ****         rgblight_disable_noeeprom();
 366:quantum/rgblight/rgblight.c ****     } else {
 367:quantum/rgblight/rgblight.c ****         rgblight_enable_noeeprom();
 368:quantum/rgblight/rgblight.c ****     }
 369:quantum/rgblight/rgblight.c **** }
 370:quantum/rgblight/rgblight.c **** 
 371:quantum/rgblight/rgblight.c **** void rgblight_enable(void) {
 372:quantum/rgblight/rgblight.c ****     rgblight_config.enable = 1;
 373:quantum/rgblight/rgblight.c ****     // No need to update EEPROM here. rgblight_mode() will do that, actually
 374:quantum/rgblight/rgblight.c ****     // eeconfig_update_rgblight(rgblight_config.raw);
 375:quantum/rgblight/rgblight.c ****     dprintf("rgblight enable [EEPROM]: rgblight_config.enable = %u\n", rgblight_config.enable);
 376:quantum/rgblight/rgblight.c ****     rgblight_mode(rgblight_config.mode);
 377:quantum/rgblight/rgblight.c **** }
 378:quantum/rgblight/rgblight.c **** 
 379:quantum/rgblight/rgblight.c **** void rgblight_enable_noeeprom(void) {
 380:quantum/rgblight/rgblight.c ****     rgblight_config.enable = 1;
 381:quantum/rgblight/rgblight.c ****     dprintf("rgblight enable [NOEEPROM]: rgblight_config.enable = %u\n", rgblight_config.enable);
 382:quantum/rgblight/rgblight.c ****     rgblight_mode_noeeprom(rgblight_config.mode);
 383:quantum/rgblight/rgblight.c **** }
 384:quantum/rgblight/rgblight.c **** 
 385:quantum/rgblight/rgblight.c **** void rgblight_disable(void) {
 386:quantum/rgblight/rgblight.c ****     rgblight_config.enable = 0;
 387:quantum/rgblight/rgblight.c ****     eeconfig_update_rgblight(rgblight_config.raw);
 388:quantum/rgblight/rgblight.c ****     dprintf("rgblight disable [EEPROM]: rgblight_config.enable = %u\n", rgblight_config.enable);
 389:quantum/rgblight/rgblight.c ****     rgblight_timer_disable();
 390:quantum/rgblight/rgblight.c ****     RGBLIGHT_SPLIT_SET_CHANGE_MODE;
 391:quantum/rgblight/rgblight.c ****     wait_ms(50);
 392:quantum/rgblight/rgblight.c ****     rgblight_set();
 393:quantum/rgblight/rgblight.c **** }
 394:quantum/rgblight/rgblight.c **** 
 395:quantum/rgblight/rgblight.c **** void rgblight_disable_noeeprom(void) {
 396:quantum/rgblight/rgblight.c ****     rgblight_config.enable = 0;
 397:quantum/rgblight/rgblight.c ****     dprintf("rgblight disable [NOEEPROM]: rgblight_config.enable = %u\n", rgblight_config.enable);
 398:quantum/rgblight/rgblight.c ****     rgblight_timer_disable();
 399:quantum/rgblight/rgblight.c ****     RGBLIGHT_SPLIT_SET_CHANGE_MODE;
 400:quantum/rgblight/rgblight.c ****     wait_ms(50);
 401:quantum/rgblight/rgblight.c ****     rgblight_set();
 402:quantum/rgblight/rgblight.c **** }
 403:quantum/rgblight/rgblight.c **** 
 404:quantum/rgblight/rgblight.c **** bool rgblight_is_enabled(void) { return rgblight_config.enable; }
 644              		.loc 1 404 32 is_stmt 1 view -0
 645              		.cfi_startproc
 646              		@ args = 0, pretend = 0, frame = 0
 647              		@ frame_needed = 0, uses_anonymous_args = 0
 648              		@ link register save eliminated.
 649              		.loc 1 404 34 view .LVU134
 650              		.loc 1 404 56 is_stmt 0 view .LVU135
 651 0000 024B     		ldr	r3, .L66
 652 0002 1878     		ldrb	r0, [r3]	@ zero_extendqisi2
 653              		.loc 1 404 65 view .LVU136
 654 0004 00F00100 		and	r0, r0, #1
 655 0008 7047     		bx	lr
 656              	.L67:
 657 000a 00BF     		.align	2
 658              	.L66:
 659 000c 00000000 		.word	rgblight_config
 660              		.cfi_endproc
 661              	.LFE438:
 663              		.section	.text.rgblight_increase_speed_helper,"ax",%progbits
 664              		.align	1
 665              		.global	rgblight_increase_speed_helper
 666              		.syntax unified
 667              		.thumb
 668              		.thumb_func
 669              		.fpu fpv4-sp-d16
 671              	rgblight_increase_speed_helper:
 672              	.LVL27:
 673              	.LFB457:
 405:quantum/rgblight/rgblight.c **** 
 406:quantum/rgblight/rgblight.c **** void rgblight_increase_hue_helper(bool write_to_eeprom) {
 407:quantum/rgblight/rgblight.c ****     uint8_t hue = rgblight_config.hue + RGBLIGHT_HUE_STEP;
 408:quantum/rgblight/rgblight.c ****     rgblight_sethsv_eeprom_helper(hue, rgblight_config.sat, rgblight_config.val, write_to_eeprom);
 409:quantum/rgblight/rgblight.c **** }
 410:quantum/rgblight/rgblight.c **** void rgblight_increase_hue_noeeprom(void) { rgblight_increase_hue_helper(false); }
 411:quantum/rgblight/rgblight.c **** void rgblight_increase_hue(void) { rgblight_increase_hue_helper(true); }
 412:quantum/rgblight/rgblight.c **** void rgblight_decrease_hue_helper(bool write_to_eeprom) {
 413:quantum/rgblight/rgblight.c ****     uint8_t hue = rgblight_config.hue - RGBLIGHT_HUE_STEP;
 414:quantum/rgblight/rgblight.c ****     rgblight_sethsv_eeprom_helper(hue, rgblight_config.sat, rgblight_config.val, write_to_eeprom);
 415:quantum/rgblight/rgblight.c **** }
 416:quantum/rgblight/rgblight.c **** void rgblight_decrease_hue_noeeprom(void) { rgblight_decrease_hue_helper(false); }
 417:quantum/rgblight/rgblight.c **** void rgblight_decrease_hue(void) { rgblight_decrease_hue_helper(true); }
 418:quantum/rgblight/rgblight.c **** void rgblight_increase_sat_helper(bool write_to_eeprom) {
 419:quantum/rgblight/rgblight.c ****     uint8_t sat = qadd8(rgblight_config.sat, RGBLIGHT_SAT_STEP);
 420:quantum/rgblight/rgblight.c ****     rgblight_sethsv_eeprom_helper(rgblight_config.hue, sat, rgblight_config.val, write_to_eeprom);
 421:quantum/rgblight/rgblight.c **** }
 422:quantum/rgblight/rgblight.c **** void rgblight_increase_sat_noeeprom(void) { rgblight_increase_sat_helper(false); }
 423:quantum/rgblight/rgblight.c **** void rgblight_increase_sat(void) { rgblight_increase_sat_helper(true); }
 424:quantum/rgblight/rgblight.c **** void rgblight_decrease_sat_helper(bool write_to_eeprom) {
 425:quantum/rgblight/rgblight.c ****     uint8_t sat = qsub8(rgblight_config.sat, RGBLIGHT_SAT_STEP);
 426:quantum/rgblight/rgblight.c ****     rgblight_sethsv_eeprom_helper(rgblight_config.hue, sat, rgblight_config.val, write_to_eeprom);
 427:quantum/rgblight/rgblight.c **** }
 428:quantum/rgblight/rgblight.c **** void rgblight_decrease_sat_noeeprom(void) { rgblight_decrease_sat_helper(false); }
 429:quantum/rgblight/rgblight.c **** void rgblight_decrease_sat(void) { rgblight_decrease_sat_helper(true); }
 430:quantum/rgblight/rgblight.c **** void rgblight_increase_val_helper(bool write_to_eeprom) {
 431:quantum/rgblight/rgblight.c ****     uint8_t val = qadd8(rgblight_config.val, RGBLIGHT_VAL_STEP);
 432:quantum/rgblight/rgblight.c ****     rgblight_sethsv_eeprom_helper(rgblight_config.hue, rgblight_config.sat, val, write_to_eeprom);
 433:quantum/rgblight/rgblight.c **** }
 434:quantum/rgblight/rgblight.c **** void rgblight_increase_val_noeeprom(void) { rgblight_increase_val_helper(false); }
 435:quantum/rgblight/rgblight.c **** void rgblight_increase_val(void) { rgblight_increase_val_helper(true); }
 436:quantum/rgblight/rgblight.c **** void rgblight_decrease_val_helper(bool write_to_eeprom) {
 437:quantum/rgblight/rgblight.c ****     uint8_t val = qsub8(rgblight_config.val, RGBLIGHT_VAL_STEP);
 438:quantum/rgblight/rgblight.c ****     rgblight_sethsv_eeprom_helper(rgblight_config.hue, rgblight_config.sat, val, write_to_eeprom);
 439:quantum/rgblight/rgblight.c **** }
 440:quantum/rgblight/rgblight.c **** void rgblight_decrease_val_noeeprom(void) { rgblight_decrease_val_helper(false); }
 441:quantum/rgblight/rgblight.c **** void rgblight_decrease_val(void) { rgblight_decrease_val_helper(true); }
 442:quantum/rgblight/rgblight.c **** 
 443:quantum/rgblight/rgblight.c **** void rgblight_increase_speed_helper(bool write_to_eeprom) {
 674              		.loc 1 443 59 is_stmt 1 view -0
 675              		.cfi_startproc
 676              		@ args = 0, pretend = 0, frame = 0
 677              		@ frame_needed = 0, uses_anonymous_args = 0
 678              		@ link register save eliminated.
 444:quantum/rgblight/rgblight.c ****     if (rgblight_config.speed < 3) rgblight_config.speed++;
 679              		.loc 1 444 5 view .LVU138
 680              		.loc 1 444 24 is_stmt 0 view .LVU139
 681 0000 054A     		ldr	r2, .L71
 682 0002 1379     		ldrb	r3, [r2, #4]	@ zero_extendqisi2
 683              		.loc 1 444 8 view .LVU140
 684 0004 022B     		cmp	r3, #2
 685              		.loc 1 444 36 is_stmt 1 view .LVU141
 686              		.loc 1 444 57 is_stmt 0 view .LVU142
 687 0006 9CBF     		itt	ls
 688 0008 0133     		addls	r3, r3, #1
 689 000a 1371     		strbls	r3, [r2, #4]
 445:quantum/rgblight/rgblight.c ****     // RGBLIGHT_SPLIT_SET_CHANGE_HSVS; // NEED?
 446:quantum/rgblight/rgblight.c ****     if (write_to_eeprom) {
 690              		.loc 1 446 5 is_stmt 1 view .LVU143
 691              		.loc 1 446 8 is_stmt 0 view .LVU144
 692 000c 10B1     		cbz	r0, .L68
 693              	.LBB34:
 694              	.LBI34:
 443:quantum/rgblight/rgblight.c ****     if (rgblight_config.speed < 3) rgblight_config.speed++;
 695              		.loc 1 443 6 is_stmt 1 view .LVU145
 696              	.LVL28:
 697              	.LBB35:
 447:quantum/rgblight/rgblight.c ****         eeconfig_update_rgblight(rgblight_config.raw);  // EECONFIG needs to be increased to suppor
 698              		.loc 1 447 9 view .LVU146
 699 000e 1068     		ldr	r0, [r2]
 700              	.LVL29:
 701              		.loc 1 447 9 is_stmt 0 view .LVU147
 702 0010 FFF7FEBF 		b	eeconfig_update_rgblight
 703              	.LVL30:
 704              	.L68:
 705              		.loc 1 447 9 view .LVU148
 706              	.LBE35:
 707              	.LBE34:
 448:quantum/rgblight/rgblight.c ****     }
 449:quantum/rgblight/rgblight.c **** }
 708              		.loc 1 449 1 view .LVU149
 709 0014 7047     		bx	lr
 710              	.L72:
 711 0016 00BF     		.align	2
 712              	.L71:
 713 0018 00000000 		.word	rgblight_config
 714              		.cfi_endproc
 715              	.LFE457:
 717              		.section	.text.rgblight_increase_speed,"ax",%progbits
 718              		.align	1
 719              		.global	rgblight_increase_speed
 720              		.syntax unified
 721              		.thumb
 722              		.thumb_func
 723              		.fpu fpv4-sp-d16
 725              	rgblight_increase_speed:
 726              	.LFB458:
 450:quantum/rgblight/rgblight.c **** void rgblight_increase_speed(void) { rgblight_increase_speed_helper(true); }
 727              		.loc 1 450 36 is_stmt 1 view -0
 728              		.cfi_startproc
 729              		@ args = 0, pretend = 0, frame = 0
 730              		@ frame_needed = 0, uses_anonymous_args = 0
 731              		@ link register save eliminated.
 732              		.loc 1 450 38 view .LVU151
 733 0000 0120     		movs	r0, #1
 734 0002 FFF7FEBF 		b	rgblight_increase_speed_helper
 735              	.LVL31:
 736              		.cfi_endproc
 737              	.LFE458:
 739              		.section	.text.rgblight_increase_speed_noeeprom,"ax",%progbits
 740              		.align	1
 741              		.global	rgblight_increase_speed_noeeprom
 742              		.syntax unified
 743              		.thumb
 744              		.thumb_func
 745              		.fpu fpv4-sp-d16
 747              	rgblight_increase_speed_noeeprom:
 748              	.LFB459:
 451:quantum/rgblight/rgblight.c **** void rgblight_increase_speed_noeeprom(void) { rgblight_increase_speed_helper(false); }
 749              		.loc 1 451 45 view -0
 750              		.cfi_startproc
 751              		@ args = 0, pretend = 0, frame = 0
 752              		@ frame_needed = 0, uses_anonymous_args = 0
 753              		@ link register save eliminated.
 754              		.loc 1 451 47 view .LVU153
 755 0000 0020     		movs	r0, #0
 756 0002 FFF7FEBF 		b	rgblight_increase_speed_helper
 757              	.LVL32:
 758              		.cfi_endproc
 759              	.LFE459:
 761              		.section	.text.rgblight_decrease_speed_helper,"ax",%progbits
 762              		.align	1
 763              		.global	rgblight_decrease_speed_helper
 764              		.syntax unified
 765              		.thumb
 766              		.thumb_func
 767              		.fpu fpv4-sp-d16
 769              	rgblight_decrease_speed_helper:
 770              	.LVL33:
 771              	.LFB460:
 452:quantum/rgblight/rgblight.c **** 
 453:quantum/rgblight/rgblight.c **** void rgblight_decrease_speed_helper(bool write_to_eeprom) {
 772              		.loc 1 453 59 view -0
 773              		.cfi_startproc
 774              		@ args = 0, pretend = 0, frame = 0
 775              		@ frame_needed = 0, uses_anonymous_args = 0
 776              		@ link register save eliminated.
 454:quantum/rgblight/rgblight.c ****     if (rgblight_config.speed > 0) rgblight_config.speed--;
 777              		.loc 1 454 5 view .LVU155
 778              		.loc 1 454 24 is_stmt 0 view .LVU156
 779 0000 044A     		ldr	r2, .L81
 780 0002 1379     		ldrb	r3, [r2, #4]	@ zero_extendqisi2
 781              		.loc 1 454 8 view .LVU157
 782 0004 0BB1     		cbz	r3, .L76
 783              		.loc 1 454 36 is_stmt 1 discriminator 1 view .LVU158
 784              		.loc 1 454 57 is_stmt 0 discriminator 1 view .LVU159
 785 0006 013B     		subs	r3, r3, #1
 786 0008 1371     		strb	r3, [r2, #4]
 787              	.L76:
 455:quantum/rgblight/rgblight.c ****     // RGBLIGHT_SPLIT_SET_CHANGE_HSVS; // NEED??
 456:quantum/rgblight/rgblight.c ****     if (write_to_eeprom) {
 788              		.loc 1 456 5 is_stmt 1 view .LVU160
 789              		.loc 1 456 8 is_stmt 0 view .LVU161
 790 000a 10B1     		cbz	r0, .L75
 791              	.LBB38:
 792              	.LBI38:
 443:quantum/rgblight/rgblight.c ****     if (rgblight_config.speed < 3) rgblight_config.speed++;
 793              		.loc 1 443 6 is_stmt 1 view .LVU162
 794              	.LVL34:
 795              	.LBB39:
 447:quantum/rgblight/rgblight.c ****     }
 796              		.loc 1 447 9 view .LVU163
 797 000c 1068     		ldr	r0, [r2]
 798              	.LVL35:
 447:quantum/rgblight/rgblight.c ****     }
 799              		.loc 1 447 9 is_stmt 0 view .LVU164
 800 000e FFF7FEBF 		b	eeconfig_update_rgblight
 801              	.LVL36:
 802              	.L75:
 447:quantum/rgblight/rgblight.c ****     }
 803              		.loc 1 447 9 view .LVU165
 804              	.LBE39:
 805              	.LBE38:
 457:quantum/rgblight/rgblight.c ****         eeconfig_update_rgblight(rgblight_config.raw);  // EECONFIG needs to be increased to suppor
 458:quantum/rgblight/rgblight.c ****     }
 459:quantum/rgblight/rgblight.c **** }
 806              		.loc 1 459 1 view .LVU166
 807 0012 7047     		bx	lr
 808              	.L82:
 809              		.align	2
 810              	.L81:
 811 0014 00000000 		.word	rgblight_config
 812              		.cfi_endproc
 813              	.LFE460:
 815              		.section	.text.rgblight_decrease_speed,"ax",%progbits
 816              		.align	1
 817              		.global	rgblight_decrease_speed
 818              		.syntax unified
 819              		.thumb
 820              		.thumb_func
 821              		.fpu fpv4-sp-d16
 823              	rgblight_decrease_speed:
 824              	.LFB461:
 460:quantum/rgblight/rgblight.c **** void rgblight_decrease_speed(void) { rgblight_decrease_speed_helper(true); }
 825              		.loc 1 460 36 is_stmt 1 view -0
 826              		.cfi_startproc
 827              		@ args = 0, pretend = 0, frame = 0
 828              		@ frame_needed = 0, uses_anonymous_args = 0
 829              		@ link register save eliminated.
 830              		.loc 1 460 38 view .LVU168
 831 0000 0120     		movs	r0, #1
 832 0002 FFF7FEBF 		b	rgblight_decrease_speed_helper
 833              	.LVL37:
 834              		.cfi_endproc
 835              	.LFE461:
 837              		.section	.text.rgblight_decrease_speed_noeeprom,"ax",%progbits
 838              		.align	1
 839              		.global	rgblight_decrease_speed_noeeprom
 840              		.syntax unified
 841              		.thumb
 842              		.thumb_func
 843              		.fpu fpv4-sp-d16
 845              	rgblight_decrease_speed_noeeprom:
 846              	.LFB462:
 461:quantum/rgblight/rgblight.c **** void rgblight_decrease_speed_noeeprom(void) { rgblight_decrease_speed_helper(false); }
 847              		.loc 1 461 45 view -0
 848              		.cfi_startproc
 849              		@ args = 0, pretend = 0, frame = 0
 850              		@ frame_needed = 0, uses_anonymous_args = 0
 851              		@ link register save eliminated.
 852              		.loc 1 461 47 view .LVU170
 853 0000 0020     		movs	r0, #0
 854 0002 FFF7FEBF 		b	rgblight_decrease_speed_helper
 855              	.LVL38:
 856              		.cfi_endproc
 857              	.LFE462:
 859              		.section	.text.rgblight_get_speed,"ax",%progbits
 860              		.align	1
 861              		.global	rgblight_get_speed
 862              		.syntax unified
 863              		.thumb
 864              		.thumb_func
 865              		.fpu fpv4-sp-d16
 867              	rgblight_get_speed:
 868              	.LFB467:
 462:quantum/rgblight/rgblight.c **** 
 463:quantum/rgblight/rgblight.c **** void rgblight_sethsv_noeeprom_old(uint8_t hue, uint8_t sat, uint8_t val) {
 464:quantum/rgblight/rgblight.c ****     if (rgblight_config.enable) {
 465:quantum/rgblight/rgblight.c ****         LED_TYPE tmp_led;
 466:quantum/rgblight/rgblight.c ****         sethsv(hue, sat, val, &tmp_led);
 467:quantum/rgblight/rgblight.c ****         rgblight_setrgb(tmp_led.r, tmp_led.g, tmp_led.b);
 468:quantum/rgblight/rgblight.c ****     }
 469:quantum/rgblight/rgblight.c **** }
 470:quantum/rgblight/rgblight.c **** 
 471:quantum/rgblight/rgblight.c **** void rgblight_sethsv_eeprom_helper(uint8_t hue, uint8_t sat, uint8_t val, bool write_to_eeprom) {
 472:quantum/rgblight/rgblight.c ****     if (rgblight_config.enable) {
 473:quantum/rgblight/rgblight.c ****         rgblight_status.base_mode = mode_base_table[rgblight_config.mode];
 474:quantum/rgblight/rgblight.c ****         if (rgblight_config.mode == RGBLIGHT_MODE_STATIC_LIGHT) {
 475:quantum/rgblight/rgblight.c ****             // same static color
 476:quantum/rgblight/rgblight.c ****             LED_TYPE tmp_led;
 477:quantum/rgblight/rgblight.c ****             sethsv(hue, sat, val, &tmp_led);
 478:quantum/rgblight/rgblight.c ****             rgblight_setrgb(tmp_led.r, tmp_led.g, tmp_led.b);
 479:quantum/rgblight/rgblight.c ****         } else {
 480:quantum/rgblight/rgblight.c ****             // all LEDs in same color
 481:quantum/rgblight/rgblight.c ****             if (1 == 0) {  // dummy
 482:quantum/rgblight/rgblight.c ****             }
 483:quantum/rgblight/rgblight.c **** #ifdef RGBLIGHT_EFFECT_BREATHING
 484:quantum/rgblight/rgblight.c ****             else if (rgblight_status.base_mode == RGBLIGHT_MODE_BREATHING) {
 485:quantum/rgblight/rgblight.c ****                 // breathing mode, ignore the change of val, use in memory value instead
 486:quantum/rgblight/rgblight.c ****                 val = rgblight_config.val;
 487:quantum/rgblight/rgblight.c ****             }
 488:quantum/rgblight/rgblight.c **** #endif
 489:quantum/rgblight/rgblight.c **** #ifdef RGBLIGHT_EFFECT_RAINBOW_MOOD
 490:quantum/rgblight/rgblight.c ****             else if (rgblight_status.base_mode == RGBLIGHT_MODE_RAINBOW_MOOD) {
 491:quantum/rgblight/rgblight.c ****                 // rainbow mood, ignore the change of hue
 492:quantum/rgblight/rgblight.c ****                 hue = rgblight_config.hue;
 493:quantum/rgblight/rgblight.c ****             }
 494:quantum/rgblight/rgblight.c **** #endif
 495:quantum/rgblight/rgblight.c **** #ifdef RGBLIGHT_EFFECT_RAINBOW_SWIRL
 496:quantum/rgblight/rgblight.c ****             else if (rgblight_status.base_mode == RGBLIGHT_MODE_RAINBOW_SWIRL) {
 497:quantum/rgblight/rgblight.c ****                 // rainbow swirl, ignore the change of hue
 498:quantum/rgblight/rgblight.c ****                 hue = rgblight_config.hue;
 499:quantum/rgblight/rgblight.c ****             }
 500:quantum/rgblight/rgblight.c **** #endif
 501:quantum/rgblight/rgblight.c **** #ifdef RGBLIGHT_EFFECT_STATIC_GRADIENT
 502:quantum/rgblight/rgblight.c ****             else if (rgblight_status.base_mode == RGBLIGHT_MODE_STATIC_GRADIENT) {
 503:quantum/rgblight/rgblight.c ****                 // static gradient
 504:quantum/rgblight/rgblight.c ****                 uint8_t delta     = rgblight_config.mode - rgblight_status.base_mode;
 505:quantum/rgblight/rgblight.c ****                 bool    direction = (delta % 2) == 0;
 506:quantum/rgblight/rgblight.c **** #    ifdef __AVR__
 507:quantum/rgblight/rgblight.c ****                 // probably due to how pgm_read_word is defined for ARM, but the ARM compiler reall
 508:quantum/rgblight/rgblight.c ****                 uint8_t range = pgm_read_word(&RGBLED_GRADIENT_RANGES[delta / 2]);
 509:quantum/rgblight/rgblight.c **** #    else
 510:quantum/rgblight/rgblight.c ****                 uint8_t range = RGBLED_GRADIENT_RANGES[delta / 2];
 511:quantum/rgblight/rgblight.c **** #    endif
 512:quantum/rgblight/rgblight.c ****                 for (uint8_t i = 0; i < rgblight_ranges.effect_num_leds; i++) {
 513:quantum/rgblight/rgblight.c ****                     uint8_t _hue = ((uint16_t)i * (uint16_t)range) / rgblight_ranges.effect_num_led
 514:quantum/rgblight/rgblight.c ****                     if (direction) {
 515:quantum/rgblight/rgblight.c ****                         _hue = hue + _hue;
 516:quantum/rgblight/rgblight.c ****                     } else {
 517:quantum/rgblight/rgblight.c ****                         _hue = hue - _hue;
 518:quantum/rgblight/rgblight.c ****                     }
 519:quantum/rgblight/rgblight.c ****                     dprintf("rgblight rainbow set hsv: %d,%d,%d,%u\n", i, _hue, direction, range);
 520:quantum/rgblight/rgblight.c ****                     sethsv(_hue, sat, val, (LED_TYPE *)&led[i + rgblight_ranges.effect_start_pos]);
 521:quantum/rgblight/rgblight.c ****                 }
 522:quantum/rgblight/rgblight.c ****                 rgblight_set();
 523:quantum/rgblight/rgblight.c ****             }
 524:quantum/rgblight/rgblight.c **** #endif
 525:quantum/rgblight/rgblight.c ****         }
 526:quantum/rgblight/rgblight.c **** #ifdef RGBLIGHT_SPLIT
 527:quantum/rgblight/rgblight.c ****         if (rgblight_config.hue != hue || rgblight_config.sat != sat || rgblight_config.val != val)
 528:quantum/rgblight/rgblight.c ****             RGBLIGHT_SPLIT_SET_CHANGE_HSVS;
 529:quantum/rgblight/rgblight.c ****         }
 530:quantum/rgblight/rgblight.c **** #endif
 531:quantum/rgblight/rgblight.c ****         rgblight_config.hue = hue;
 532:quantum/rgblight/rgblight.c ****         rgblight_config.sat = sat;
 533:quantum/rgblight/rgblight.c ****         rgblight_config.val = val;
 534:quantum/rgblight/rgblight.c ****         if (write_to_eeprom) {
 535:quantum/rgblight/rgblight.c ****             eeconfig_update_rgblight(rgblight_config.raw);
 536:quantum/rgblight/rgblight.c ****             dprintf("rgblight set hsv [EEPROM]: %u,%u,%u\n", rgblight_config.hue, rgblight_config.s
 537:quantum/rgblight/rgblight.c ****         } else {
 538:quantum/rgblight/rgblight.c ****             dprintf("rgblight set hsv [NOEEPROM]: %u,%u,%u\n", rgblight_config.hue, rgblight_config
 539:quantum/rgblight/rgblight.c ****         }
 540:quantum/rgblight/rgblight.c ****     }
 541:quantum/rgblight/rgblight.c **** }
 542:quantum/rgblight/rgblight.c **** 
 543:quantum/rgblight/rgblight.c **** void rgblight_sethsv(uint8_t hue, uint8_t sat, uint8_t val) { rgblight_sethsv_eeprom_helper(hue, sa
 544:quantum/rgblight/rgblight.c **** 
 545:quantum/rgblight/rgblight.c **** void rgblight_sethsv_noeeprom(uint8_t hue, uint8_t sat, uint8_t val) { rgblight_sethsv_eeprom_helpe
 546:quantum/rgblight/rgblight.c **** 
 547:quantum/rgblight/rgblight.c **** uint8_t rgblight_get_speed(void) { return rgblight_config.speed; }
 869              		.loc 1 547 34 view -0
 870              		.cfi_startproc
 871              		@ args = 0, pretend = 0, frame = 0
 872              		@ frame_needed = 0, uses_anonymous_args = 0
 873              		@ link register save eliminated.
 874              		.loc 1 547 36 view .LVU172
 875              		.loc 1 547 66 is_stmt 0 view .LVU173
 876 0000 014B     		ldr	r3, .L86
 877 0002 1879     		ldrb	r0, [r3, #4]	@ zero_extendqisi2
 878 0004 7047     		bx	lr
 879              	.L87:
 880 0006 00BF     		.align	2
 881              	.L86:
 882 0008 00000000 		.word	rgblight_config
 883              		.cfi_endproc
 884              	.LFE467:
 886              		.section	.rodata.rgblight_set_speed_eeprom_helper.str1.1,"aMS",%progbits,1
 887              	.LC7:
 888 0000 7267626C 		.ascii	"rgblight set speed [EEPROM]: %u\012\000"
 888      69676874 
 888      20736574 
 888      20737065 
 888      6564205B 
 889              	.LC8:
 890 0021 7267626C 		.ascii	"rgblight set speed [NOEEPROM]: %u\012\000"
 890      69676874 
 890      20736574 
 890      20737065 
 890      6564205B 
 891              		.section	.text.rgblight_set_speed_eeprom_helper,"ax",%progbits
 892              		.align	1
 893              		.global	rgblight_set_speed_eeprom_helper
 894              		.syntax unified
 895              		.thumb
 896              		.thumb_func
 897              		.fpu fpv4-sp-d16
 899              	rgblight_set_speed_eeprom_helper:
 900              	.LVL39:
 901              	.LFB468:
 548:quantum/rgblight/rgblight.c **** 
 549:quantum/rgblight/rgblight.c **** void rgblight_set_speed_eeprom_helper(uint8_t speed, bool write_to_eeprom) {
 902              		.loc 1 549 76 is_stmt 1 view -0
 903              		.cfi_startproc
 904              		@ args = 0, pretend = 0, frame = 0
 905              		@ frame_needed = 0, uses_anonymous_args = 0
 550:quantum/rgblight/rgblight.c ****     rgblight_config.speed = speed;
 906              		.loc 1 550 5 view .LVU175
 549:quantum/rgblight/rgblight.c ****     rgblight_config.speed = speed;
 907              		.loc 1 549 76 is_stmt 0 view .LVU176
 908 0000 38B5     		push	{r3, r4, r5, lr}
 909              		.cfi_def_cfa_offset 16
 910              		.cfi_offset 3, -16
 911              		.cfi_offset 4, -12
 912              		.cfi_offset 5, -8
 913              		.cfi_offset 14, -4
 914              		.loc 1 550 27 view .LVU177
 915 0002 0B4C     		ldr	r4, .L97
 916 0004 0B4D     		ldr	r5, .L97+4
 917 0006 2071     		strb	r0, [r4, #4]
 551:quantum/rgblight/rgblight.c ****     if (write_to_eeprom) {
 918              		.loc 1 551 5 is_stmt 1 view .LVU178
 919              		.loc 1 551 8 is_stmt 0 view .LVU179
 920 0008 59B1     		cbz	r1, .L89
 552:quantum/rgblight/rgblight.c ****         eeconfig_update_rgblight(rgblight_config.raw);  // EECONFIG needs to be increased to suppor
 921              		.loc 1 552 9 is_stmt 1 view .LVU180
 922 000a 2068     		ldr	r0, [r4]
 923              	.LVL40:
 924              		.loc 1 552 9 is_stmt 0 view .LVU181
 925 000c FFF7FEFF 		bl	eeconfig_update_rgblight
 926              	.LVL41:
 553:quantum/rgblight/rgblight.c ****         dprintf("rgblight set speed [EEPROM]: %u\n", rgblight_config.speed);
 927              		.loc 1 553 9 is_stmt 1 view .LVU182
 928              		.loc 1 553 9 view .LVU183
 929 0010 2B78     		ldrb	r3, [r5]	@ zero_extendqisi2
 930 0012 DA07     		lsls	r2, r3, #31
 931 0014 0BD5     		bpl	.L88
 932              	.LBB42:
 933              	.LBI42:
 549:quantum/rgblight/rgblight.c ****     rgblight_config.speed = speed;
 934              		.loc 1 549 6 view .LVU184
 935              	.LVL42:
 936              	.LBB43:
 937              		.loc 1 553 9 view .LVU185
 938 0016 2179     		ldrb	r1, [r4, #4]	@ zero_extendqisi2
 939 0018 0748     		ldr	r0, .L97+8
 940              	.LVL43:
 941              	.L96:
 942              		.loc 1 553 9 is_stmt 0 view .LVU186
 943              	.LBE43:
 944              	.LBE42:
 554:quantum/rgblight/rgblight.c ****     } else {
 555:quantum/rgblight/rgblight.c ****         dprintf("rgblight set speed [NOEEPROM]: %u\n", rgblight_config.speed);
 556:quantum/rgblight/rgblight.c ****     }
 557:quantum/rgblight/rgblight.c **** }
 945              		.loc 1 557 1 discriminator 1 view .LVU187
 946 001a BDE83840 		pop	{r3, r4, r5, lr}
 947              		.cfi_remember_state
 948              		.cfi_restore 14
 949              		.cfi_restore 5
 950              		.cfi_restore 4
 951              		.cfi_restore 3
 952              		.cfi_def_cfa_offset 0
 555:quantum/rgblight/rgblight.c ****     }
 953              		.loc 1 555 9 discriminator 1 view .LVU188
 954 001e FFF7FEBF 		b	printf_
 955              	.LVL44:
 956              	.L89:
 957              		.cfi_restore_state
 555:quantum/rgblight/rgblight.c ****     }
 958              		.loc 1 555 9 is_stmt 1 view .LVU189
 555:quantum/rgblight/rgblight.c ****     }
 959              		.loc 1 555 9 view .LVU190
 960 0022 2B78     		ldrb	r3, [r5]	@ zero_extendqisi2
 961 0024 DB07     		lsls	r3, r3, #31
 962 0026 02D5     		bpl	.L88
 555:quantum/rgblight/rgblight.c ****     }
 963              		.loc 1 555 9 discriminator 1 view .LVU191
 964 0028 0146     		mov	r1, r0
 965              	.LVL45:
 555:quantum/rgblight/rgblight.c ****     }
 966              		.loc 1 555 9 is_stmt 0 discriminator 1 view .LVU192
 967 002a 0448     		ldr	r0, .L97+12
 968              	.LVL46:
 555:quantum/rgblight/rgblight.c ****     }
 969              		.loc 1 555 9 discriminator 1 view .LVU193
 970 002c F5E7     		b	.L96
 971              	.LVL47:
 972              	.L88:
 973              		.loc 1 557 1 view .LVU194
 974 002e 38BD     		pop	{r3, r4, r5, pc}
 975              	.L98:
 976              		.align	2
 977              	.L97:
 978 0030 00000000 		.word	rgblight_config
 979 0034 00000000 		.word	debug_config
 980 0038 00000000 		.word	.LC7
 981 003c 21000000 		.word	.LC8
 982              		.cfi_endproc
 983              	.LFE468:
 985              		.section	.text.rgblight_set_speed,"ax",%progbits
 986              		.align	1
 987              		.global	rgblight_set_speed
 988              		.syntax unified
 989              		.thumb
 990              		.thumb_func
 991              		.fpu fpv4-sp-d16
 993              	rgblight_set_speed:
 994              	.LVL48:
 995              	.LFB469:
 558:quantum/rgblight/rgblight.c **** 
 559:quantum/rgblight/rgblight.c **** void rgblight_set_speed(uint8_t speed) { rgblight_set_speed_eeprom_helper(speed, true); }
 996              		.loc 1 559 40 is_stmt 1 view -0
 997              		.cfi_startproc
 998              		@ args = 0, pretend = 0, frame = 0
 999              		@ frame_needed = 0, uses_anonymous_args = 0
 1000              		@ link register save eliminated.
 1001              		.loc 1 559 42 view .LVU196
 1002 0000 0121     		movs	r1, #1
 1003 0002 FFF7FEBF 		b	rgblight_set_speed_eeprom_helper
 1004              	.LVL49:
 1005              		.loc 1 559 42 is_stmt 0 view .LVU197
 1006              		.cfi_endproc
 1007              	.LFE469:
 1009              		.section	.text.rgblight_set_speed_noeeprom,"ax",%progbits
 1010              		.align	1
 1011              		.global	rgblight_set_speed_noeeprom
 1012              		.syntax unified
 1013              		.thumb
 1014              		.thumb_func
 1015              		.fpu fpv4-sp-d16
 1017              	rgblight_set_speed_noeeprom:
 1018              	.LVL50:
 1019              	.LFB470:
 560:quantum/rgblight/rgblight.c **** 
 561:quantum/rgblight/rgblight.c **** void rgblight_set_speed_noeeprom(uint8_t speed) { rgblight_set_speed_eeprom_helper(speed, false); }
 1020              		.loc 1 561 49 is_stmt 1 view -0
 1021              		.cfi_startproc
 1022              		@ args = 0, pretend = 0, frame = 0
 1023              		@ frame_needed = 0, uses_anonymous_args = 0
 1024              		@ link register save eliminated.
 1025              		.loc 1 561 51 view .LVU199
 1026 0000 0021     		movs	r1, #0
 1027 0002 FFF7FEBF 		b	rgblight_set_speed_eeprom_helper
 1028              	.LVL51:
 1029              		.loc 1 561 51 is_stmt 0 view .LVU200
 1030              		.cfi_endproc
 1031              	.LFE470:
 1033              		.section	.text.rgblight_get_hue,"ax",%progbits
 1034              		.align	1
 1035              		.global	rgblight_get_hue
 1036              		.syntax unified
 1037              		.thumb
 1038              		.thumb_func
 1039              		.fpu fpv4-sp-d16
 1041              	rgblight_get_hue:
 1042              	.LFB471:
 562:quantum/rgblight/rgblight.c **** 
 563:quantum/rgblight/rgblight.c **** uint8_t rgblight_get_hue(void) { return rgblight_config.hue; }
 1043              		.loc 1 563 32 is_stmt 1 view -0
 1044              		.cfi_startproc
 1045              		@ args = 0, pretend = 0, frame = 0
 1046              		@ frame_needed = 0, uses_anonymous_args = 0
 1047              		@ link register save eliminated.
 1048              		.loc 1 563 34 view .LVU202
 1049              		.loc 1 563 62 is_stmt 0 view .LVU203
 1050 0000 014B     		ldr	r3, .L102
 1051 0002 5878     		ldrb	r0, [r3, #1]	@ zero_extendqisi2
 1052 0004 7047     		bx	lr
 1053              	.L103:
 1054 0006 00BF     		.align	2
 1055              	.L102:
 1056 0008 00000000 		.word	rgblight_config
 1057              		.cfi_endproc
 1058              	.LFE471:
 1060              		.section	.text.rgblight_get_sat,"ax",%progbits
 1061              		.align	1
 1062              		.global	rgblight_get_sat
 1063              		.syntax unified
 1064              		.thumb
 1065              		.thumb_func
 1066              		.fpu fpv4-sp-d16
 1068              	rgblight_get_sat:
 1069              	.LFB472:
 564:quantum/rgblight/rgblight.c **** 
 565:quantum/rgblight/rgblight.c **** uint8_t rgblight_get_sat(void) { return rgblight_config.sat; }
 1070              		.loc 1 565 32 is_stmt 1 view -0
 1071              		.cfi_startproc
 1072              		@ args = 0, pretend = 0, frame = 0
 1073              		@ frame_needed = 0, uses_anonymous_args = 0
 1074              		@ link register save eliminated.
 1075              		.loc 1 565 34 view .LVU205
 1076              		.loc 1 565 62 is_stmt 0 view .LVU206
 1077 0000 014B     		ldr	r3, .L105
 1078 0002 9878     		ldrb	r0, [r3, #2]	@ zero_extendqisi2
 1079 0004 7047     		bx	lr
 1080              	.L106:
 1081 0006 00BF     		.align	2
 1082              	.L105:
 1083 0008 00000000 		.word	rgblight_config
 1084              		.cfi_endproc
 1085              	.LFE472:
 1087              		.section	.text.rgblight_get_val,"ax",%progbits
 1088              		.align	1
 1089              		.global	rgblight_get_val
 1090              		.syntax unified
 1091              		.thumb
 1092              		.thumb_func
 1093              		.fpu fpv4-sp-d16
 1095              	rgblight_get_val:
 1096              	.LFB473:
 566:quantum/rgblight/rgblight.c **** 
 567:quantum/rgblight/rgblight.c **** uint8_t rgblight_get_val(void) { return rgblight_config.val; }
 1097              		.loc 1 567 32 is_stmt 1 view -0
 1098              		.cfi_startproc
 1099              		@ args = 0, pretend = 0, frame = 0
 1100              		@ frame_needed = 0, uses_anonymous_args = 0
 1101              		@ link register save eliminated.
 1102              		.loc 1 567 34 view .LVU208
 1103              		.loc 1 567 62 is_stmt 0 view .LVU209
 1104 0000 014B     		ldr	r3, .L108
 1105 0002 D878     		ldrb	r0, [r3, #3]	@ zero_extendqisi2
 1106 0004 7047     		bx	lr
 1107              	.L109:
 1108 0006 00BF     		.align	2
 1109              	.L108:
 1110 0008 00000000 		.word	rgblight_config
 1111              		.cfi_endproc
 1112              	.LFE473:
 1114              		.section	.text.rgblight_get_hsv,"ax",%progbits
 1115              		.align	1
 1116              		.global	rgblight_get_hsv
 1117              		.syntax unified
 1118              		.thumb
 1119              		.thumb_func
 1120              		.fpu fpv4-sp-d16
 1122              	rgblight_get_hsv:
 1123              	.LFB474:
 568:quantum/rgblight/rgblight.c **** 
 569:quantum/rgblight/rgblight.c **** HSV rgblight_get_hsv(void) { return (HSV){rgblight_config.hue, rgblight_config.sat, rgblight_config
 1124              		.loc 1 569 28 is_stmt 1 view -0
 1125              		.cfi_startproc
 1126              		@ args = 0, pretend = 0, frame = 8
 1127              		@ frame_needed = 0, uses_anonymous_args = 0
 1128              		@ link register save eliminated.
 1129              		.loc 1 569 30 view .LVU211
 1130              		.loc 1 569 79 is_stmt 0 view .LVU212
 1131 0000 064B     		ldr	r3, .L111
 1132              		.loc 1 569 37 view .LVU213
 1133 0002 5A78     		ldrb	r2, [r3, #1]	@ zero_extendqisi2
 1134 0004 0020     		movs	r0, #0
 1135 0006 62F30700 		bfi	r0, r2, #0, #8
 1136 000a 9A78     		ldrb	r2, [r3, #2]	@ zero_extendqisi2
 1137 000c DB78     		ldrb	r3, [r3, #3]	@ zero_extendqisi2
 1138 000e 62F30F20 		bfi	r0, r2, #8, #8
 1139              		.loc 1 569 28 view .LVU214
 1140 0012 82B0     		sub	sp, sp, #8
 1141              		.cfi_def_cfa_offset 8
 1142              		.loc 1 569 37 view .LVU215
 1143 0014 63F31740 		bfi	r0, r3, #16, #8
 1144              		.loc 1 569 107 view .LVU216
 1145 0018 02B0     		add	sp, sp, #8
 1146              		.cfi_def_cfa_offset 0
 1147              		@ sp needed
 1148 001a 7047     		bx	lr
 1149              	.L112:
 1150              		.align	2
 1151              	.L111:
 1152 001c 00000000 		.word	rgblight_config
 1153              		.cfi_endproc
 1154              	.LFE474:
 1156              		.section	.text.rgblight_call_driver,"ax",%progbits
 1157              		.align	1
 1158              		.weak	rgblight_call_driver
 1159              		.syntax unified
 1160              		.thumb
 1161              		.thumb_func
 1162              		.fpu fpv4-sp-d16
 1164              	rgblight_call_driver:
 1165              	.LVL52:
 1166              	.LFB484:
 570:quantum/rgblight/rgblight.c **** 
 571:quantum/rgblight/rgblight.c **** void rgblight_setrgb(uint8_t r, uint8_t g, uint8_t b) {
 572:quantum/rgblight/rgblight.c ****     if (!rgblight_config.enable) {
 573:quantum/rgblight/rgblight.c ****         return;
 574:quantum/rgblight/rgblight.c ****     }
 575:quantum/rgblight/rgblight.c **** 
 576:quantum/rgblight/rgblight.c ****     for (uint8_t i = rgblight_ranges.effect_start_pos; i < rgblight_ranges.effect_end_pos; i++) {
 577:quantum/rgblight/rgblight.c ****         led[i].r = r;
 578:quantum/rgblight/rgblight.c ****         led[i].g = g;
 579:quantum/rgblight/rgblight.c ****         led[i].b = b;
 580:quantum/rgblight/rgblight.c **** #ifdef RGBW
 581:quantum/rgblight/rgblight.c ****         led[i].w = 0;
 582:quantum/rgblight/rgblight.c **** #endif
 583:quantum/rgblight/rgblight.c ****     }
 584:quantum/rgblight/rgblight.c ****     rgblight_set();
 585:quantum/rgblight/rgblight.c **** }
 586:quantum/rgblight/rgblight.c **** 
 587:quantum/rgblight/rgblight.c **** void rgblight_setrgb_at(uint8_t r, uint8_t g, uint8_t b, uint8_t index) {
 588:quantum/rgblight/rgblight.c ****     if (!rgblight_config.enable || index >= RGBLED_NUM) {
 589:quantum/rgblight/rgblight.c ****         return;
 590:quantum/rgblight/rgblight.c ****     }
 591:quantum/rgblight/rgblight.c **** 
 592:quantum/rgblight/rgblight.c ****     led[index].r = r;
 593:quantum/rgblight/rgblight.c ****     led[index].g = g;
 594:quantum/rgblight/rgblight.c ****     led[index].b = b;
 595:quantum/rgblight/rgblight.c **** #ifdef RGBW
 596:quantum/rgblight/rgblight.c ****     led[index].w = 0;
 597:quantum/rgblight/rgblight.c **** #endif
 598:quantum/rgblight/rgblight.c ****     rgblight_set();
 599:quantum/rgblight/rgblight.c **** }
 600:quantum/rgblight/rgblight.c **** 
 601:quantum/rgblight/rgblight.c **** void rgblight_sethsv_at(uint8_t hue, uint8_t sat, uint8_t val, uint8_t index) {
 602:quantum/rgblight/rgblight.c ****     if (!rgblight_config.enable) {
 603:quantum/rgblight/rgblight.c ****         return;
 604:quantum/rgblight/rgblight.c ****     }
 605:quantum/rgblight/rgblight.c **** 
 606:quantum/rgblight/rgblight.c ****     LED_TYPE tmp_led;
 607:quantum/rgblight/rgblight.c ****     sethsv(hue, sat, val, &tmp_led);
 608:quantum/rgblight/rgblight.c ****     rgblight_setrgb_at(tmp_led.r, tmp_led.g, tmp_led.b, index);
 609:quantum/rgblight/rgblight.c **** }
 610:quantum/rgblight/rgblight.c **** 
 611:quantum/rgblight/rgblight.c **** #if defined(RGBLIGHT_EFFECT_BREATHING) || defined(RGBLIGHT_EFFECT_RAINBOW_MOOD) || defined(RGBLIGHT
 612:quantum/rgblight/rgblight.c **** 
 613:quantum/rgblight/rgblight.c **** static uint8_t get_interval_time(const uint8_t *default_interval_address, uint8_t velocikey_min, ui
 614:quantum/rgblight/rgblight.c ****     return
 615:quantum/rgblight/rgblight.c **** #    ifdef VELOCIKEY_ENABLE
 616:quantum/rgblight/rgblight.c ****         velocikey_enabled() ? velocikey_match_speed(velocikey_min, velocikey_max) :
 617:quantum/rgblight/rgblight.c **** #    endif
 618:quantum/rgblight/rgblight.c ****                             pgm_read_byte(default_interval_address);
 619:quantum/rgblight/rgblight.c **** }
 620:quantum/rgblight/rgblight.c **** 
 621:quantum/rgblight/rgblight.c **** #endif
 622:quantum/rgblight/rgblight.c **** 
 623:quantum/rgblight/rgblight.c **** void rgblight_setrgb_range(uint8_t r, uint8_t g, uint8_t b, uint8_t start, uint8_t end) {
 624:quantum/rgblight/rgblight.c ****     if (!rgblight_config.enable || start < 0 || start >= end || end > RGBLED_NUM) {
 625:quantum/rgblight/rgblight.c ****         return;
 626:quantum/rgblight/rgblight.c ****     }
 627:quantum/rgblight/rgblight.c **** 
 628:quantum/rgblight/rgblight.c ****     for (uint8_t i = start; i < end; i++) {
 629:quantum/rgblight/rgblight.c ****         led[i].r = r;
 630:quantum/rgblight/rgblight.c ****         led[i].g = g;
 631:quantum/rgblight/rgblight.c ****         led[i].b = b;
 632:quantum/rgblight/rgblight.c **** #ifdef RGBW
 633:quantum/rgblight/rgblight.c ****         led[i].w = 0;
 634:quantum/rgblight/rgblight.c **** #endif
 635:quantum/rgblight/rgblight.c ****     }
 636:quantum/rgblight/rgblight.c ****     rgblight_set();
 637:quantum/rgblight/rgblight.c ****     wait_ms(1);
 638:quantum/rgblight/rgblight.c **** }
 639:quantum/rgblight/rgblight.c **** 
 640:quantum/rgblight/rgblight.c **** void rgblight_sethsv_range(uint8_t hue, uint8_t sat, uint8_t val, uint8_t start, uint8_t end) {
 641:quantum/rgblight/rgblight.c ****     if (!rgblight_config.enable) {
 642:quantum/rgblight/rgblight.c ****         return;
 643:quantum/rgblight/rgblight.c ****     }
 644:quantum/rgblight/rgblight.c **** 
 645:quantum/rgblight/rgblight.c ****     LED_TYPE tmp_led;
 646:quantum/rgblight/rgblight.c ****     sethsv(hue, sat, val, &tmp_led);
 647:quantum/rgblight/rgblight.c ****     rgblight_setrgb_range(tmp_led.r, tmp_led.g, tmp_led.b, start, end);
 648:quantum/rgblight/rgblight.c **** }
 649:quantum/rgblight/rgblight.c **** 
 650:quantum/rgblight/rgblight.c **** #ifndef RGBLIGHT_SPLIT
 651:quantum/rgblight/rgblight.c **** void rgblight_setrgb_master(uint8_t r, uint8_t g, uint8_t b) { rgblight_setrgb_range(r, g, b, 0, (u
 652:quantum/rgblight/rgblight.c **** 
 653:quantum/rgblight/rgblight.c **** void rgblight_setrgb_slave(uint8_t r, uint8_t g, uint8_t b) { rgblight_setrgb_range(r, g, b, (uint8
 654:quantum/rgblight/rgblight.c **** 
 655:quantum/rgblight/rgblight.c **** void rgblight_sethsv_master(uint8_t hue, uint8_t sat, uint8_t val) { rgblight_sethsv_range(hue, sat
 656:quantum/rgblight/rgblight.c **** 
 657:quantum/rgblight/rgblight.c **** void rgblight_sethsv_slave(uint8_t hue, uint8_t sat, uint8_t val) { rgblight_sethsv_range(hue, sat,
 658:quantum/rgblight/rgblight.c **** #endif  // ifndef RGBLIGHT_SPLIT
 659:quantum/rgblight/rgblight.c **** 
 660:quantum/rgblight/rgblight.c **** #ifdef RGBLIGHT_LAYERS
 661:quantum/rgblight/rgblight.c **** void rgblight_set_layer_state(uint8_t layer, bool enabled) {
 662:quantum/rgblight/rgblight.c ****     rgblight_layer_mask_t mask = (rgblight_layer_mask_t)1 << layer;
 663:quantum/rgblight/rgblight.c ****     if (enabled) {
 664:quantum/rgblight/rgblight.c ****         rgblight_status.enabled_layer_mask |= mask;
 665:quantum/rgblight/rgblight.c ****     } else {
 666:quantum/rgblight/rgblight.c ****         rgblight_status.enabled_layer_mask &= ~mask;
 667:quantum/rgblight/rgblight.c ****     }
 668:quantum/rgblight/rgblight.c ****     RGBLIGHT_SPLIT_SET_CHANGE_LAYERS;
 669:quantum/rgblight/rgblight.c ****     // Static modes don't have a ticker running to update the LEDs
 670:quantum/rgblight/rgblight.c ****     if (rgblight_status.timer_enabled == false) {
 671:quantum/rgblight/rgblight.c ****         rgblight_mode_noeeprom(rgblight_config.mode);
 672:quantum/rgblight/rgblight.c ****     }
 673:quantum/rgblight/rgblight.c **** 
 674:quantum/rgblight/rgblight.c **** #    ifdef RGBLIGHT_LAYERS_OVERRIDE_RGB_OFF
 675:quantum/rgblight/rgblight.c ****     // If not enabled, then nothing else will actually set the LEDs...
 676:quantum/rgblight/rgblight.c ****     if (!rgblight_config.enable) {
 677:quantum/rgblight/rgblight.c ****         rgblight_set();
 678:quantum/rgblight/rgblight.c ****     }
 679:quantum/rgblight/rgblight.c **** #    endif
 680:quantum/rgblight/rgblight.c **** }
 681:quantum/rgblight/rgblight.c **** 
 682:quantum/rgblight/rgblight.c **** bool rgblight_get_layer_state(uint8_t layer) {
 683:quantum/rgblight/rgblight.c ****     rgblight_layer_mask_t mask = (rgblight_layer_mask_t)1 << layer;
 684:quantum/rgblight/rgblight.c ****     return (rgblight_status.enabled_layer_mask & mask) != 0;
 685:quantum/rgblight/rgblight.c **** }
 686:quantum/rgblight/rgblight.c **** 
 687:quantum/rgblight/rgblight.c **** // Write any enabled LED layers into the buffer
 688:quantum/rgblight/rgblight.c **** static void rgblight_layers_write(void) {
 689:quantum/rgblight/rgblight.c **** #    ifdef RGBLIGHT_LAYERS_RETAIN_VAL
 690:quantum/rgblight/rgblight.c ****     uint8_t current_val = rgblight_get_val();
 691:quantum/rgblight/rgblight.c **** #    endif
 692:quantum/rgblight/rgblight.c ****     uint8_t i = 0;
 693:quantum/rgblight/rgblight.c ****     // For each layer
 694:quantum/rgblight/rgblight.c ****     for (const rgblight_segment_t *const *layer_ptr = rgblight_layers; i < RGBLIGHT_MAX_LAYERS; lay
 695:quantum/rgblight/rgblight.c ****         if (!rgblight_get_layer_state(i)) {
 696:quantum/rgblight/rgblight.c ****             continue;  // Layer is disabled
 697:quantum/rgblight/rgblight.c ****         }
 698:quantum/rgblight/rgblight.c ****         const rgblight_segment_t *segment_ptr = pgm_read_ptr(layer_ptr);
 699:quantum/rgblight/rgblight.c ****         if (segment_ptr == NULL) {
 700:quantum/rgblight/rgblight.c ****             break;  // No more layers
 701:quantum/rgblight/rgblight.c ****         }
 702:quantum/rgblight/rgblight.c ****         // For each segment
 703:quantum/rgblight/rgblight.c ****         while (1) {
 704:quantum/rgblight/rgblight.c ****             rgblight_segment_t segment;
 705:quantum/rgblight/rgblight.c ****             memcpy_P(&segment, segment_ptr, sizeof(rgblight_segment_t));
 706:quantum/rgblight/rgblight.c ****             if (segment.index == RGBLIGHT_END_SEGMENT_INDEX) {
 707:quantum/rgblight/rgblight.c ****                 break;  // No more segments
 708:quantum/rgblight/rgblight.c ****             }
 709:quantum/rgblight/rgblight.c ****             // Write segment.count LEDs
 710:quantum/rgblight/rgblight.c ****             LED_TYPE *const limit = &led[MIN(segment.index + segment.count, RGBLED_NUM)];
 711:quantum/rgblight/rgblight.c ****             for (LED_TYPE *led_ptr = &led[segment.index]; led_ptr < limit; led_ptr++) {
 712:quantum/rgblight/rgblight.c **** #    ifdef RGBLIGHT_LAYERS_RETAIN_VAL
 713:quantum/rgblight/rgblight.c ****                 sethsv(segment.hue, segment.sat, current_val, led_ptr);
 714:quantum/rgblight/rgblight.c **** #    else
 715:quantum/rgblight/rgblight.c ****                 sethsv(segment.hue, segment.sat, segment.val, led_ptr);
 716:quantum/rgblight/rgblight.c **** #    endif
 717:quantum/rgblight/rgblight.c ****             }
 718:quantum/rgblight/rgblight.c ****             segment_ptr++;
 719:quantum/rgblight/rgblight.c ****         }
 720:quantum/rgblight/rgblight.c ****     }
 721:quantum/rgblight/rgblight.c **** }
 722:quantum/rgblight/rgblight.c **** 
 723:quantum/rgblight/rgblight.c **** #    ifdef RGBLIGHT_LAYER_BLINK
 724:quantum/rgblight/rgblight.c **** rgblight_layer_mask_t _blinking_layer_mask = 0;
 725:quantum/rgblight/rgblight.c **** static uint16_t       _repeat_timer;
 726:quantum/rgblight/rgblight.c **** static uint8_t        _times_remaining;
 727:quantum/rgblight/rgblight.c **** static uint16_t       _dur;
 728:quantum/rgblight/rgblight.c **** 
 729:quantum/rgblight/rgblight.c **** void rgblight_blink_layer(uint8_t layer, uint16_t duration_ms) { rgblight_blink_layer_repeat(layer,
 730:quantum/rgblight/rgblight.c **** 
 731:quantum/rgblight/rgblight.c **** void rgblight_blink_layer_repeat(uint8_t layer, uint16_t duration_ms, uint8_t times) {
 732:quantum/rgblight/rgblight.c ****     _times_remaining = times * 2;
 733:quantum/rgblight/rgblight.c ****     _dur             = duration_ms;
 734:quantum/rgblight/rgblight.c **** 
 735:quantum/rgblight/rgblight.c ****     rgblight_set_layer_state(layer, true);
 736:quantum/rgblight/rgblight.c ****     _times_remaining--;
 737:quantum/rgblight/rgblight.c ****     _blinking_layer_mask |= (rgblight_layer_mask_t)1 << layer;
 738:quantum/rgblight/rgblight.c ****     _repeat_timer = sync_timer_read() + duration_ms;
 739:quantum/rgblight/rgblight.c **** }
 740:quantum/rgblight/rgblight.c **** 
 741:quantum/rgblight/rgblight.c **** void rgblight_blink_layer_repeat_helper(void) {
 742:quantum/rgblight/rgblight.c ****     if (_blinking_layer_mask != 0 && timer_expired(sync_timer_read(), _repeat_timer)) {
 743:quantum/rgblight/rgblight.c ****         for (uint8_t layer = 0; layer < RGBLIGHT_MAX_LAYERS; layer++) {
 744:quantum/rgblight/rgblight.c ****             if ((_blinking_layer_mask & (rgblight_layer_mask_t)1 << layer) != 0 && _times_remaining
 745:quantum/rgblight/rgblight.c ****                 if (_times_remaining % 2 == 1) {
 746:quantum/rgblight/rgblight.c ****                     rgblight_set_layer_state(layer, false);
 747:quantum/rgblight/rgblight.c ****                 } else {
 748:quantum/rgblight/rgblight.c ****                     rgblight_set_layer_state(layer, true);
 749:quantum/rgblight/rgblight.c ****                 }
 750:quantum/rgblight/rgblight.c ****                 _times_remaining--;
 751:quantum/rgblight/rgblight.c ****                 _repeat_timer = sync_timer_read() + _dur;
 752:quantum/rgblight/rgblight.c ****             }
 753:quantum/rgblight/rgblight.c ****         }
 754:quantum/rgblight/rgblight.c ****         if (_times_remaining <= 0) {
 755:quantum/rgblight/rgblight.c ****             _blinking_layer_mask = 0;
 756:quantum/rgblight/rgblight.c ****         }
 757:quantum/rgblight/rgblight.c ****     }
 758:quantum/rgblight/rgblight.c **** }
 759:quantum/rgblight/rgblight.c **** #    endif
 760:quantum/rgblight/rgblight.c **** 
 761:quantum/rgblight/rgblight.c **** #endif
 762:quantum/rgblight/rgblight.c **** 
 763:quantum/rgblight/rgblight.c **** #ifdef RGBLIGHT_SLEEP
 764:quantum/rgblight/rgblight.c **** 
 765:quantum/rgblight/rgblight.c **** void rgblight_suspend(void) {
 766:quantum/rgblight/rgblight.c ****     rgblight_timer_disable();
 767:quantum/rgblight/rgblight.c ****     if (!is_suspended) {
 768:quantum/rgblight/rgblight.c ****         is_suspended        = true;
 769:quantum/rgblight/rgblight.c ****         pre_suspend_enabled = rgblight_config.enable;
 770:quantum/rgblight/rgblight.c **** 
 771:quantum/rgblight/rgblight.c **** #    ifdef RGBLIGHT_LAYER_BLINK
 772:quantum/rgblight/rgblight.c ****         // make sure any layer blinks don't come back after suspend
 773:quantum/rgblight/rgblight.c ****         rgblight_status.enabled_layer_mask &= ~_blinking_layer_mask;
 774:quantum/rgblight/rgblight.c ****         _blinking_layer_mask = 0;
 775:quantum/rgblight/rgblight.c **** #    endif
 776:quantum/rgblight/rgblight.c **** 
 777:quantum/rgblight/rgblight.c ****         rgblight_disable_noeeprom();
 778:quantum/rgblight/rgblight.c ****     }
 779:quantum/rgblight/rgblight.c **** }
 780:quantum/rgblight/rgblight.c **** 
 781:quantum/rgblight/rgblight.c **** void rgblight_wakeup(void) {
 782:quantum/rgblight/rgblight.c ****     is_suspended = false;
 783:quantum/rgblight/rgblight.c **** 
 784:quantum/rgblight/rgblight.c ****     if (pre_suspend_enabled) {
 785:quantum/rgblight/rgblight.c ****         rgblight_enable_noeeprom();
 786:quantum/rgblight/rgblight.c ****     }
 787:quantum/rgblight/rgblight.c **** #    ifdef RGBLIGHT_LAYERS_OVERRIDE_RGB_OFF
 788:quantum/rgblight/rgblight.c ****     // Need this or else the LEDs won't be set
 789:quantum/rgblight/rgblight.c ****     else if (rgblight_status.enabled_layer_mask != 0) {
 790:quantum/rgblight/rgblight.c ****         rgblight_set();
 791:quantum/rgblight/rgblight.c ****     }
 792:quantum/rgblight/rgblight.c **** #    endif
 793:quantum/rgblight/rgblight.c **** 
 794:quantum/rgblight/rgblight.c ****     rgblight_timer_enable();
 795:quantum/rgblight/rgblight.c **** }
 796:quantum/rgblight/rgblight.c **** 
 797:quantum/rgblight/rgblight.c **** #endif
 798:quantum/rgblight/rgblight.c **** 
 799:quantum/rgblight/rgblight.c **** __attribute__((weak)) void rgblight_call_driver(LED_TYPE *start_led, uint8_t num_leds) { ws2812_set
 1167              		.loc 1 799 88 is_stmt 1 view -0
 1168              		.cfi_startproc
 1169              		@ args = 0, pretend = 0, frame = 0
 1170              		@ frame_needed = 0, uses_anonymous_args = 0
 1171              		@ link register save eliminated.
 1172              		.loc 1 799 90 view .LVU218
 1173 0000 FFF7FEBF 		b	ws2812_setleds
 1174              	.LVL53:
 1175              		.loc 1 799 90 is_stmt 0 view .LVU219
 1176              		.cfi_endproc
 1177              	.LFE484:
 1179              		.section	.text.rgblight_set,"ax",%progbits
 1180              		.align	1
 1181              		.global	rgblight_set
 1182              		.syntax unified
 1183              		.thumb
 1184              		.thumb_func
 1185              		.fpu fpv4-sp-d16
 1187              	rgblight_set:
 1188              	.LFB485:
 800:quantum/rgblight/rgblight.c **** 
 801:quantum/rgblight/rgblight.c **** #ifndef RGBLIGHT_CUSTOM_DRIVER
 802:quantum/rgblight/rgblight.c **** 
 803:quantum/rgblight/rgblight.c **** void rgblight_set(void) {
 1189              		.loc 1 803 25 is_stmt 1 view -0
 1190              		.cfi_startproc
 1191              		@ args = 0, pretend = 0, frame = 0
 1192              		@ frame_needed = 0, uses_anonymous_args = 0
 804:quantum/rgblight/rgblight.c ****     LED_TYPE *start_led;
 1193              		.loc 1 804 5 view .LVU221
 805:quantum/rgblight/rgblight.c ****     uint8_t   num_leds = rgblight_ranges.clipping_num_leds;
 1194              		.loc 1 805 5 view .LVU222
 806:quantum/rgblight/rgblight.c **** 
 807:quantum/rgblight/rgblight.c ****     if (!rgblight_config.enable) {
 1195              		.loc 1 807 25 is_stmt 0 view .LVU223
 1196 0000 104B     		ldr	r3, .L120
 1197 0002 1148     		ldr	r0, .L120+4
 1198 0004 1A78     		ldrb	r2, [r3]	@ zero_extendqisi2
 803:quantum/rgblight/rgblight.c ****     LED_TYPE *start_led;
 1199              		.loc 1 803 25 view .LVU224
 1200 0006 70B5     		push	{r4, r5, r6, lr}
 1201              		.cfi_def_cfa_offset 16
 1202              		.cfi_offset 4, -16
 1203              		.cfi_offset 5, -12
 1204              		.cfi_offset 6, -8
 1205              		.cfi_offset 14, -4
 805:quantum/rgblight/rgblight.c ****     uint8_t   num_leds = rgblight_ranges.clipping_num_leds;
 1206              		.loc 1 805 15 view .LVU225
 1207 0008 104C     		ldr	r4, .L120+8
 1208              		.loc 1 807 8 view .LVU226
 1209 000a 12F00102 		ands	r2, r2, #1
 805:quantum/rgblight/rgblight.c ****     uint8_t   num_leds = rgblight_ranges.clipping_num_leds;
 1210              		.loc 1 805 15 view .LVU227
 1211 000e 6178     		ldrb	r1, [r4, #1]	@ zero_extendqisi2
 1212              	.LVL54:
 1213              		.loc 1 807 5 is_stmt 1 view .LVU228
 1214              		.loc 1 807 8 is_stmt 0 view .LVU229
 1215 0010 06D0     		beq	.L115
 1216              	.L118:
 808:quantum/rgblight/rgblight.c ****         for (uint8_t i = rgblight_ranges.effect_start_pos; i < rgblight_ranges.effect_end_pos; i++)
 809:quantum/rgblight/rgblight.c ****             led[i].r = 0;
 810:quantum/rgblight/rgblight.c ****             led[i].g = 0;
 811:quantum/rgblight/rgblight.c ****             led[i].b = 0;
 812:quantum/rgblight/rgblight.c **** #    ifdef RGBW
 813:quantum/rgblight/rgblight.c ****             led[i].w = 0;
 814:quantum/rgblight/rgblight.c **** #    endif
 815:quantum/rgblight/rgblight.c ****         }
 816:quantum/rgblight/rgblight.c ****     }
 817:quantum/rgblight/rgblight.c **** 
 818:quantum/rgblight/rgblight.c **** #    ifdef RGBLIGHT_LAYERS
 819:quantum/rgblight/rgblight.c ****     if (rgblight_layers != NULL
 820:quantum/rgblight/rgblight.c **** #        if !defined(RGBLIGHT_LAYERS_OVERRIDE_RGB_OFF)
 821:quantum/rgblight/rgblight.c ****         && rgblight_config.enable
 822:quantum/rgblight/rgblight.c **** #        elif defined(RGBLIGHT_SLEEP)
 823:quantum/rgblight/rgblight.c ****         && !is_suspended
 824:quantum/rgblight/rgblight.c **** #        endif
 825:quantum/rgblight/rgblight.c ****     ) {
 826:quantum/rgblight/rgblight.c ****         rgblight_layers_write();
 827:quantum/rgblight/rgblight.c ****     }
 828:quantum/rgblight/rgblight.c **** #    endif
 829:quantum/rgblight/rgblight.c **** 
 830:quantum/rgblight/rgblight.c **** #    ifdef RGBLIGHT_LED_MAP
 831:quantum/rgblight/rgblight.c ****     LED_TYPE led0[RGBLED_NUM];
 832:quantum/rgblight/rgblight.c ****     for (uint8_t i = 0; i < RGBLED_NUM; i++) {
 833:quantum/rgblight/rgblight.c ****         led0[i] = led[pgm_read_byte(&led_map[i])];
 834:quantum/rgblight/rgblight.c ****     }
 835:quantum/rgblight/rgblight.c ****     start_led = led0 + rgblight_ranges.clipping_start_pos;
 836:quantum/rgblight/rgblight.c **** #    else
 837:quantum/rgblight/rgblight.c ****     start_led = led + rgblight_ranges.clipping_start_pos;
 1217              		.loc 1 837 5 is_stmt 1 view .LVU230
 1218              	.LVL55:
 838:quantum/rgblight/rgblight.c **** #    endif
 839:quantum/rgblight/rgblight.c **** 
 840:quantum/rgblight/rgblight.c **** #    ifdef RGBW
 841:quantum/rgblight/rgblight.c ****     for (uint8_t i = 0; i < num_leds; i++) {
 842:quantum/rgblight/rgblight.c ****         convert_rgb_to_rgbw(&start_led[i]);
 843:quantum/rgblight/rgblight.c ****     }
 844:quantum/rgblight/rgblight.c **** #    endif
 845:quantum/rgblight/rgblight.c ****     rgblight_call_driver(start_led, num_leds);
 1219              		.loc 1 845 5 view .LVU231
 837:quantum/rgblight/rgblight.c **** #    endif
 1220              		.loc 1 837 21 is_stmt 0 view .LVU232
 1221 0012 2378     		ldrb	r3, [r4]	@ zero_extendqisi2
 1222 0014 03EB4303 		add	r3, r3, r3, lsl #1
 1223              		.loc 1 845 5 view .LVU233
 1224 0018 1844     		add	r0, r0, r3
 1225 001a FFF7FEFF 		bl	rgblight_call_driver
 1226              	.LVL56:
 846:quantum/rgblight/rgblight.c **** }
 1227              		.loc 1 846 1 view .LVU234
 1228 001e 70BD     		pop	{r4, r5, r6, pc}
 1229              	.LVL57:
 1230              	.L115:
 808:quantum/rgblight/rgblight.c ****             led[i].r = 0;
 1231              		.loc 1 808 9 is_stmt 1 view .LVU235
 1232              	.LBB44:
 808:quantum/rgblight/rgblight.c ****             led[i].r = 0;
 1233              		.loc 1 808 14 view .LVU236
 808:quantum/rgblight/rgblight.c ****             led[i].r = 0;
 1234              		.loc 1 808 22 is_stmt 0 view .LVU237
 1235 0020 A578     		ldrb	r5, [r4, #2]	@ zero_extendqisi2
 1236              	.LVL58:
 808:quantum/rgblight/rgblight.c ****             led[i].r = 0;
 1237              		.loc 1 808 79 view .LVU238
 1238 0022 E678     		ldrb	r6, [r4, #3]	@ zero_extendqisi2
 1239 0024 05EB4503 		add	r3, r5, r5, lsl #1
 1240 0028 0344     		add	r3, r3, r0
 1241              	.L116:
 808:quantum/rgblight/rgblight.c ****             led[i].r = 0;
 1242              		.loc 1 808 62 is_stmt 1 discriminator 1 view .LVU239
 1243 002a AE42     		cmp	r6, r5
 1244 002c 03F10303 		add	r3, r3, #3
 1245 0030 EFD9     		bls	.L118
 809:quantum/rgblight/rgblight.c ****             led[i].g = 0;
 1246              		.loc 1 809 13 discriminator 3 view .LVU240
 808:quantum/rgblight/rgblight.c ****             led[i].r = 0;
 1247              		.loc 1 808 97 is_stmt 0 discriminator 3 view .LVU241
 1248 0032 0135     		adds	r5, r5, #1
 1249              	.LVL59:
 809:quantum/rgblight/rgblight.c ****             led[i].g = 0;
 1250              		.loc 1 809 22 discriminator 3 view .LVU242
 1251 0034 03F8022C 		strb	r2, [r3, #-2]
 810:quantum/rgblight/rgblight.c ****             led[i].b = 0;
 1252              		.loc 1 810 13 is_stmt 1 discriminator 3 view .LVU243
 810:quantum/rgblight/rgblight.c ****             led[i].b = 0;
 1253              		.loc 1 810 22 is_stmt 0 discriminator 3 view .LVU244
 1254 0038 03F8032C 		strb	r2, [r3, #-3]
 811:quantum/rgblight/rgblight.c **** #    ifdef RGBW
 1255              		.loc 1 811 13 is_stmt 1 discriminator 3 view .LVU245
 811:quantum/rgblight/rgblight.c **** #    ifdef RGBW
 1256              		.loc 1 811 22 is_stmt 0 discriminator 3 view .LVU246
 1257 003c 03F8012C 		strb	r2, [r3, #-1]
 808:quantum/rgblight/rgblight.c ****             led[i].r = 0;
 1258              		.loc 1 808 97 is_stmt 1 discriminator 3 view .LVU247
 1259 0040 EDB2     		uxtb	r5, r5
 1260              	.LVL60:
 808:quantum/rgblight/rgblight.c ****             led[i].r = 0;
 1261              		.loc 1 808 97 is_stmt 0 discriminator 3 view .LVU248
 1262 0042 F2E7     		b	.L116
 1263              	.L121:
 1264              		.align	2
 1265              	.L120:
 1266 0044 00000000 		.word	rgblight_config
 1267 0048 00000000 		.word	led
 1268 004c 00000000 		.word	.LANCHOR0
 1269              	.LBE44:
 1270              		.cfi_endproc
 1271              	.LFE485:
 1273              		.section	.rodata.rgblight_disable.str1.1,"aMS",%progbits,1
 1274              	.LC9:
 1275 0000 7267626C 		.ascii	"rgblight disable [EEPROM]: rgblight_config.enable ="
 1275      69676874 
 1275      20646973 
 1275      61626C65 
 1275      205B4545 
 1276 0033 2025750A 		.ascii	" %u\012\000"
 1276      00
 1277              		.section	.text.rgblight_disable,"ax",%progbits
 1278              		.align	1
 1279              		.global	rgblight_disable
 1280              		.syntax unified
 1281              		.thumb
 1282              		.thumb_func
 1283              		.fpu fpv4-sp-d16
 1285              	rgblight_disable:
 1286              	.LFB436:
 385:quantum/rgblight/rgblight.c ****     rgblight_config.enable = 0;
 1287              		.loc 1 385 29 is_stmt 1 view -0
 1288              		.cfi_startproc
 1289              		@ args = 0, pretend = 0, frame = 0
 1290              		@ frame_needed = 0, uses_anonymous_args = 0
 386:quantum/rgblight/rgblight.c ****     eeconfig_update_rgblight(rgblight_config.raw);
 1291              		.loc 1 386 5 view .LVU250
 385:quantum/rgblight/rgblight.c ****     rgblight_config.enable = 0;
 1292              		.loc 1 385 29 is_stmt 0 view .LVU251
 1293 0000 10B5     		push	{r4, lr}
 1294              		.cfi_def_cfa_offset 8
 1295              		.cfi_offset 4, -8
 1296              		.cfi_offset 14, -4
 386:quantum/rgblight/rgblight.c ****     eeconfig_update_rgblight(rgblight_config.raw);
 1297              		.loc 1 386 28 view .LVU252
 1298 0002 0D4C     		ldr	r4, .L127
 1299 0004 2378     		ldrb	r3, [r4]	@ zero_extendqisi2
 1300 0006 6FF30003 		bfc	r3, #0, #1
 1301 000a 2370     		strb	r3, [r4]
 387:quantum/rgblight/rgblight.c ****     dprintf("rgblight disable [EEPROM]: rgblight_config.enable = %u\n", rgblight_config.enable);
 1302              		.loc 1 387 5 is_stmt 1 view .LVU253
 1303 000c 2068     		ldr	r0, [r4]
 1304 000e FFF7FEFF 		bl	eeconfig_update_rgblight
 1305              	.LVL61:
 388:quantum/rgblight/rgblight.c ****     rgblight_timer_disable();
 1306              		.loc 1 388 5 view .LVU254
 388:quantum/rgblight/rgblight.c ****     rgblight_timer_disable();
 1307              		.loc 1 388 5 view .LVU255
 1308 0012 0A4B     		ldr	r3, .L127+4
 1309 0014 1B78     		ldrb	r3, [r3]	@ zero_extendqisi2
 1310 0016 DB07     		lsls	r3, r3, #31
 1311 0018 05D5     		bpl	.L123
 388:quantum/rgblight/rgblight.c ****     rgblight_timer_disable();
 1312              		.loc 1 388 5 discriminator 1 view .LVU256
 1313 001a 2178     		ldrb	r1, [r4]	@ zero_extendqisi2
 1314 001c 0848     		ldr	r0, .L127+8
 1315 001e 01F00101 		and	r1, r1, #1
 1316 0022 FFF7FEFF 		bl	printf_
 1317              	.LVL62:
 1318              	.L123:
 388:quantum/rgblight/rgblight.c ****     rgblight_timer_disable();
 1319              		.loc 1 388 5 discriminator 1 view .LVU257
 389:quantum/rgblight/rgblight.c ****     RGBLIGHT_SPLIT_SET_CHANGE_MODE;
 1320              		.loc 1 389 29 discriminator 1 view .LVU258
 390:quantum/rgblight/rgblight.c ****     wait_ms(50);
 1321              		.loc 1 390 35 discriminator 1 view .LVU259
 391:quantum/rgblight/rgblight.c ****     rgblight_set();
 1322              		.loc 1 391 5 discriminator 1 view .LVU260
 391:quantum/rgblight/rgblight.c ****     rgblight_set();
 1323              		.loc 1 391 5 discriminator 1 view .LVU261
 391:quantum/rgblight/rgblight.c ****     rgblight_set();
 1324              		.loc 1 391 5 discriminator 1 view .LVU262
 1325 0026 4FF4FA70 		mov	r0, #500
 1326 002a FFF7FEFF 		bl	chThdSleep
 1327              	.LVL63:
 391:quantum/rgblight/rgblight.c ****     rgblight_set();
 1328              		.loc 1 391 5 discriminator 1 view .LVU263
 392:quantum/rgblight/rgblight.c **** }
 1329              		.loc 1 392 5 discriminator 1 view .LVU264
 393:quantum/rgblight/rgblight.c **** 
 1330              		.loc 1 393 1 is_stmt 0 discriminator 1 view .LVU265
 1331 002e BDE81040 		pop	{r4, lr}
 1332              		.cfi_restore 14
 1333              		.cfi_restore 4
 1334              		.cfi_def_cfa_offset 0
 392:quantum/rgblight/rgblight.c **** }
 1335              		.loc 1 392 5 discriminator 1 view .LVU266
 1336 0032 FFF7FEBF 		b	rgblight_set
 1337              	.LVL64:
 1338              	.L128:
 1339 0036 00BF     		.align	2
 1340              	.L127:
 1341 0038 00000000 		.word	rgblight_config
 1342 003c 00000000 		.word	debug_config
 1343 0040 00000000 		.word	.LC9
 1344              		.cfi_endproc
 1345              	.LFE436:
 1347              		.section	.rodata.rgblight_disable_noeeprom.str1.1,"aMS",%progbits,1
 1348              	.LC10:
 1349 0000 7267626C 		.ascii	"rgblight disable [NOEEPROM]: rgblight_config.enable"
 1349      69676874 
 1349      20646973 
 1349      61626C65 
 1349      205B4E4F 
 1350 0033 203D2025 		.ascii	" = %u\012\000"
 1350      750A00
 1351              		.section	.text.rgblight_disable_noeeprom,"ax",%progbits
 1352              		.align	1
 1353              		.global	rgblight_disable_noeeprom
 1354              		.syntax unified
 1355              		.thumb
 1356              		.thumb_func
 1357              		.fpu fpv4-sp-d16
 1359              	rgblight_disable_noeeprom:
 1360              	.LFB437:
 395:quantum/rgblight/rgblight.c ****     rgblight_config.enable = 0;
 1361              		.loc 1 395 38 is_stmt 1 view -0
 1362              		.cfi_startproc
 1363              		@ args = 0, pretend = 0, frame = 0
 1364              		@ frame_needed = 0, uses_anonymous_args = 0
 396:quantum/rgblight/rgblight.c ****     dprintf("rgblight disable [NOEEPROM]: rgblight_config.enable = %u\n", rgblight_config.enable);
 1365              		.loc 1 396 5 view .LVU268
 395:quantum/rgblight/rgblight.c ****     rgblight_config.enable = 0;
 1366              		.loc 1 395 38 is_stmt 0 view .LVU269
 1367 0000 08B5     		push	{r3, lr}
 1368              		.cfi_def_cfa_offset 8
 1369              		.cfi_offset 3, -8
 1370              		.cfi_offset 14, -4
 396:quantum/rgblight/rgblight.c ****     dprintf("rgblight disable [NOEEPROM]: rgblight_config.enable = %u\n", rgblight_config.enable);
 1371              		.loc 1 396 28 view .LVU270
 1372 0002 0A4B     		ldr	r3, .L134
 1373 0004 1A78     		ldrb	r2, [r3]	@ zero_extendqisi2
 1374 0006 6FF30002 		bfc	r2, #0, #1
 1375 000a 1A70     		strb	r2, [r3]
 397:quantum/rgblight/rgblight.c ****     rgblight_timer_disable();
 1376              		.loc 1 397 5 is_stmt 1 view .LVU271
 397:quantum/rgblight/rgblight.c ****     rgblight_timer_disable();
 1377              		.loc 1 397 5 view .LVU272
 1378 000c 084B     		ldr	r3, .L134+4
 1379 000e 1B78     		ldrb	r3, [r3]	@ zero_extendqisi2
 1380 0010 DB07     		lsls	r3, r3, #31
 1381 0012 03D5     		bpl	.L130
 397:quantum/rgblight/rgblight.c ****     rgblight_timer_disable();
 1382              		.loc 1 397 5 discriminator 1 view .LVU273
 1383 0014 0748     		ldr	r0, .L134+8
 1384 0016 0021     		movs	r1, #0
 1385 0018 FFF7FEFF 		bl	printf_
 1386              	.LVL65:
 1387              	.L130:
 397:quantum/rgblight/rgblight.c ****     rgblight_timer_disable();
 1388              		.loc 1 397 5 discriminator 1 view .LVU274
 398:quantum/rgblight/rgblight.c ****     RGBLIGHT_SPLIT_SET_CHANGE_MODE;
 1389              		.loc 1 398 29 discriminator 1 view .LVU275
 399:quantum/rgblight/rgblight.c ****     wait_ms(50);
 1390              		.loc 1 399 35 discriminator 1 view .LVU276
 400:quantum/rgblight/rgblight.c ****     rgblight_set();
 1391              		.loc 1 400 5 discriminator 1 view .LVU277
 400:quantum/rgblight/rgblight.c ****     rgblight_set();
 1392              		.loc 1 400 5 discriminator 1 view .LVU278
 400:quantum/rgblight/rgblight.c ****     rgblight_set();
 1393              		.loc 1 400 5 discriminator 1 view .LVU279
 1394 001c 4FF4FA70 		mov	r0, #500
 1395 0020 FFF7FEFF 		bl	chThdSleep
 1396              	.LVL66:
 400:quantum/rgblight/rgblight.c ****     rgblight_set();
 1397              		.loc 1 400 5 discriminator 1 view .LVU280
 401:quantum/rgblight/rgblight.c **** }
 1398              		.loc 1 401 5 discriminator 1 view .LVU281
 402:quantum/rgblight/rgblight.c **** 
 1399              		.loc 1 402 1 is_stmt 0 discriminator 1 view .LVU282
 1400 0024 BDE80840 		pop	{r3, lr}
 1401              		.cfi_restore 14
 1402              		.cfi_restore 3
 1403              		.cfi_def_cfa_offset 0
 401:quantum/rgblight/rgblight.c **** }
 1404              		.loc 1 401 5 discriminator 1 view .LVU283
 1405 0028 FFF7FEBF 		b	rgblight_set
 1406              	.LVL67:
 1407              	.L135:
 1408              		.align	2
 1409              	.L134:
 1410 002c 00000000 		.word	rgblight_config
 1411 0030 00000000 		.word	debug_config
 1412 0034 00000000 		.word	.LC10
 1413              		.cfi_endproc
 1414              	.LFE437:
 1416              		.section	.text.rgblight_setrgb,"ax",%progbits
 1417              		.align	1
 1418              		.global	rgblight_setrgb
 1419              		.syntax unified
 1420              		.thumb
 1421              		.thumb_func
 1422              		.fpu fpv4-sp-d16
 1424              	rgblight_setrgb:
 1425              	.LVL68:
 1426              	.LFB475:
 571:quantum/rgblight/rgblight.c ****     if (!rgblight_config.enable) {
 1427              		.loc 1 571 55 is_stmt 1 view -0
 1428              		.cfi_startproc
 1429              		@ args = 0, pretend = 0, frame = 0
 1430              		@ frame_needed = 0, uses_anonymous_args = 0
 1431              		@ link register save eliminated.
 572:quantum/rgblight/rgblight.c ****         return;
 1432              		.loc 1 572 5 view .LVU285
 572:quantum/rgblight/rgblight.c ****         return;
 1433              		.loc 1 572 25 is_stmt 0 view .LVU286
 1434 0000 0E4B     		ldr	r3, .L140
 1435 0002 1B78     		ldrb	r3, [r3]	@ zero_extendqisi2
 572:quantum/rgblight/rgblight.c ****         return;
 1436              		.loc 1 572 8 view .LVU287
 1437 0004 DB07     		lsls	r3, r3, #31
 571:quantum/rgblight/rgblight.c ****     if (!rgblight_config.enable) {
 1438              		.loc 1 571 55 view .LVU288
 1439 0006 70B4     		push	{r4, r5, r6}
 1440              		.cfi_def_cfa_offset 12
 1441              		.cfi_offset 4, -12
 1442              		.cfi_offset 5, -8
 1443              		.cfi_offset 6, -4
 572:quantum/rgblight/rgblight.c ****         return;
 1444              		.loc 1 572 8 view .LVU289
 1445 0008 16D5     		bpl	.L136
 1446              	.LVL69:
 1447              	.LBB48:
 1448              	.LBI48:
 571:quantum/rgblight/rgblight.c ****     if (!rgblight_config.enable) {
 1449              		.loc 1 571 6 is_stmt 1 view .LVU290
 1450              	.LBB49:
 576:quantum/rgblight/rgblight.c ****         led[i].r = r;
 1451              		.loc 1 576 5 view .LVU291
 1452              	.LBB50:
 576:quantum/rgblight/rgblight.c ****         led[i].r = r;
 1453              		.loc 1 576 10 view .LVU292
 576:quantum/rgblight/rgblight.c ****         led[i].r = r;
 1454              		.loc 1 576 18 is_stmt 0 view .LVU293
 1455 000a 0D4B     		ldr	r3, .L140+4
 1456 000c 0D4E     		ldr	r6, .L140+8
 1457 000e 9C78     		ldrb	r4, [r3, #2]	@ zero_extendqisi2
 1458              	.LVL70:
 576:quantum/rgblight/rgblight.c ****         led[i].r = r;
 1459              		.loc 1 576 75 view .LVU294
 1460 0010 DD78     		ldrb	r5, [r3, #3]	@ zero_extendqisi2
 1461 0012 04EB4403 		add	r3, r4, r4, lsl #1
 1462 0016 3344     		add	r3, r3, r6
 1463              	.L138:
 576:quantum/rgblight/rgblight.c ****         led[i].r = r;
 1464              		.loc 1 576 58 is_stmt 1 view .LVU295
 1465 0018 AC42     		cmp	r4, r5
 1466 001a 03F10303 		add	r3, r3, #3
 1467 001e 02D3     		bcc	.L139
 576:quantum/rgblight/rgblight.c ****         led[i].r = r;
 1468              		.loc 1 576 58 is_stmt 0 view .LVU296
 1469              	.LBE50:
 584:quantum/rgblight/rgblight.c **** }
 1470              		.loc 1 584 5 is_stmt 1 view .LVU297
 1471              	.LBE49:
 1472              	.LBE48:
 585:quantum/rgblight/rgblight.c **** 
 1473              		.loc 1 585 1 is_stmt 0 view .LVU298
 1474 0020 70BC     		pop	{r4, r5, r6}
 1475              		.cfi_remember_state
 1476              		.cfi_restore 6
 1477              		.cfi_restore 5
 1478              		.cfi_restore 4
 1479              		.cfi_def_cfa_offset 0
 1480              	.LVL71:
 1481              	.LBB53:
 1482              	.LBB52:
 584:quantum/rgblight/rgblight.c **** }
 1483              		.loc 1 584 5 view .LVU299
 1484 0022 FFF7FEBF 		b	rgblight_set
 1485              	.LVL72:
 1486              	.L139:
 1487              		.cfi_restore_state
 1488              	.LBB51:
 577:quantum/rgblight/rgblight.c ****         led[i].g = g;
 1489              		.loc 1 577 9 is_stmt 1 view .LVU300
 576:quantum/rgblight/rgblight.c ****         led[i].r = r;
 1490              		.loc 1 576 93 is_stmt 0 view .LVU301
 1491 0026 0134     		adds	r4, r4, #1
 1492              	.LVL73:
 577:quantum/rgblight/rgblight.c ****         led[i].g = g;
 1493              		.loc 1 577 18 view .LVU302
 1494 0028 03F8020C 		strb	r0, [r3, #-2]
 578:quantum/rgblight/rgblight.c ****         led[i].b = b;
 1495              		.loc 1 578 9 is_stmt 1 view .LVU303
 578:quantum/rgblight/rgblight.c ****         led[i].b = b;
 1496              		.loc 1 578 18 is_stmt 0 view .LVU304
 1497 002c 03F8031C 		strb	r1, [r3, #-3]
 579:quantum/rgblight/rgblight.c **** #ifdef RGBW
 1498              		.loc 1 579 9 is_stmt 1 view .LVU305
 579:quantum/rgblight/rgblight.c **** #ifdef RGBW
 1499              		.loc 1 579 18 is_stmt 0 view .LVU306
 1500 0030 03F8012C 		strb	r2, [r3, #-1]
 576:quantum/rgblight/rgblight.c ****         led[i].r = r;
 1501              		.loc 1 576 93 is_stmt 1 view .LVU307
 1502 0034 E4B2     		uxtb	r4, r4
 1503              	.LVL74:
 576:quantum/rgblight/rgblight.c ****         led[i].r = r;
 1504              		.loc 1 576 93 is_stmt 0 view .LVU308
 1505 0036 EFE7     		b	.L138
 1506              	.LVL75:
 1507              	.L136:
 576:quantum/rgblight/rgblight.c ****         led[i].r = r;
 1508              		.loc 1 576 93 view .LVU309
 1509              	.LBE51:
 1510              	.LBE52:
 1511              	.LBE53:
 585:quantum/rgblight/rgblight.c **** 
 1512              		.loc 1 585 1 view .LVU310
 1513 0038 70BC     		pop	{r4, r5, r6}
 1514              		.cfi_restore 6
 1515              		.cfi_restore 5
 1516              		.cfi_restore 4
 1517              		.cfi_def_cfa_offset 0
 1518 003a 7047     		bx	lr
 1519              	.L141:
 1520              		.align	2
 1521              	.L140:
 1522 003c 00000000 		.word	rgblight_config
 1523 0040 00000000 		.word	.LANCHOR0
 1524 0044 00000000 		.word	led
 1525              		.cfi_endproc
 1526              	.LFE475:
 1528              		.section	.text.rgblight_sethsv_noeeprom_old,"ax",%progbits
 1529              		.align	1
 1530              		.global	rgblight_sethsv_noeeprom_old
 1531              		.syntax unified
 1532              		.thumb
 1533              		.thumb_func
 1534              		.fpu fpv4-sp-d16
 1536              	rgblight_sethsv_noeeprom_old:
 1537              	.LVL76:
 1538              	.LFB463:
 463:quantum/rgblight/rgblight.c ****     if (rgblight_config.enable) {
 1539              		.loc 1 463 74 is_stmt 1 view -0
 1540              		.cfi_startproc
 1541              		@ args = 0, pretend = 0, frame = 8
 1542              		@ frame_needed = 0, uses_anonymous_args = 0
 464:quantum/rgblight/rgblight.c ****         LED_TYPE tmp_led;
 1543              		.loc 1 464 5 view .LVU312
 464:quantum/rgblight/rgblight.c ****         LED_TYPE tmp_led;
 1544              		.loc 1 464 9 is_stmt 0 view .LVU313
 1545 0000 0A4B     		ldr	r3, .L144
 1546 0002 1B78     		ldrb	r3, [r3]	@ zero_extendqisi2
 464:quantum/rgblight/rgblight.c ****         LED_TYPE tmp_led;
 1547              		.loc 1 464 8 view .LVU314
 1548 0004 DB07     		lsls	r3, r3, #31
 463:quantum/rgblight/rgblight.c ****     if (rgblight_config.enable) {
 1549              		.loc 1 463 74 view .LVU315
 1550 0006 07B5     		push	{r0, r1, r2, lr}
 1551              		.cfi_def_cfa_offset 16
 1552              		.cfi_offset 14, -4
 464:quantum/rgblight/rgblight.c ****         LED_TYPE tmp_led;
 1553              		.loc 1 464 8 view .LVU316
 1554 0008 0DD5     		bpl	.L142
 1555              	.LBB54:
 465:quantum/rgblight/rgblight.c ****         sethsv(hue, sat, val, &tmp_led);
 1556              		.loc 1 465 9 is_stmt 1 view .LVU317
 466:quantum/rgblight/rgblight.c ****         rgblight_setrgb(tmp_led.r, tmp_led.g, tmp_led.b);
 1557              		.loc 1 466 9 view .LVU318
 1558              	.LVL77:
 1559              	.LBB55:
 1560              	.LBI55:
 154:quantum/rgblight/rgblight.c **** 
 1561              		.loc 1 154 6 view .LVU319
 1562              	.LBB56:
 154:quantum/rgblight/rgblight.c **** 
 1563              		.loc 1 154 70 view .LVU320
 1564 000a 01AB     		add	r3, sp, #4
 1565              	.LVL78:
 154:quantum/rgblight/rgblight.c **** 
 1566              		.loc 1 154 70 is_stmt 0 view .LVU321
 1567 000c FFF7FEFF 		bl	sethsv_raw
 1568              	.LVL79:
 154:quantum/rgblight/rgblight.c **** 
 1569              		.loc 1 154 70 view .LVU322
 1570              	.LBE56:
 1571              	.LBE55:
 467:quantum/rgblight/rgblight.c ****     }
 1572              		.loc 1 467 9 is_stmt 1 view .LVU323
 1573 0010 9DF80620 		ldrb	r2, [sp, #6]	@ zero_extendqisi2
 1574 0014 9DF80410 		ldrb	r1, [sp, #4]	@ zero_extendqisi2
 1575 0018 9DF80500 		ldrb	r0, [sp, #5]	@ zero_extendqisi2
 1576              	.LBE54:
 469:quantum/rgblight/rgblight.c **** 
 1577              		.loc 1 469 1 is_stmt 0 view .LVU324
 1578 001c 03B0     		add	sp, sp, #12
 1579              		.cfi_remember_state
 1580              		.cfi_def_cfa_offset 4
 1581              		@ sp needed
 1582 001e 5DF804EB 		ldr	lr, [sp], #4
 1583              		.cfi_restore 14
 1584              		.cfi_def_cfa_offset 0
 1585              	.LBB57:
 467:quantum/rgblight/rgblight.c ****     }
 1586              		.loc 1 467 9 view .LVU325
 1587 0022 FFF7FEBF 		b	rgblight_setrgb
 1588              	.LVL80:
 1589              	.L142:
 1590              		.cfi_restore_state
 467:quantum/rgblight/rgblight.c ****     }
 1591              		.loc 1 467 9 view .LVU326
 1592              	.LBE57:
 469:quantum/rgblight/rgblight.c **** 
 1593              		.loc 1 469 1 view .LVU327
 1594 0026 03B0     		add	sp, sp, #12
 1595              		.cfi_def_cfa_offset 4
 1596              		@ sp needed
 1597 0028 5DF804FB 		ldr	pc, [sp], #4
 1598              	.L145:
 1599              		.align	2
 1600              	.L144:
 1601 002c 00000000 		.word	rgblight_config
 1602              		.cfi_endproc
 1603              	.LFE463:
 1605              		.section	.rodata.rgblight_sethsv_eeprom_helper.str1.1,"aMS",%progbits,1
 1606              	.LC11:
 1607 0000 7267626C 		.ascii	"rgblight set hsv [EEPROM]: %u,%u,%u\012\000"
 1607      69676874 
 1607      20736574 
 1607      20687376 
 1607      205B4545 
 1608              	.LC12:
 1609 0025 7267626C 		.ascii	"rgblight set hsv [NOEEPROM]: %u,%u,%u\012\000"
 1609      69676874 
 1609      20736574 
 1609      20687376 
 1609      205B4E4F 
 1610              		.section	.text.rgblight_sethsv_eeprom_helper,"ax",%progbits
 1611              		.align	1
 1612              		.global	rgblight_sethsv_eeprom_helper
 1613              		.syntax unified
 1614              		.thumb
 1615              		.thumb_func
 1616              		.fpu fpv4-sp-d16
 1618              	rgblight_sethsv_eeprom_helper:
 1619              	.LVL81:
 1620              	.LFB464:
 471:quantum/rgblight/rgblight.c ****     if (rgblight_config.enable) {
 1621              		.loc 1 471 97 is_stmt 1 view -0
 1622              		.cfi_startproc
 1623              		@ args = 0, pretend = 0, frame = 8
 1624              		@ frame_needed = 0, uses_anonymous_args = 0
 472:quantum/rgblight/rgblight.c ****         rgblight_status.base_mode = mode_base_table[rgblight_config.mode];
 1625              		.loc 1 472 5 view .LVU329
 471:quantum/rgblight/rgblight.c ****     if (rgblight_config.enable) {
 1626              		.loc 1 471 97 is_stmt 0 view .LVU330
 1627 0000 2DE9F743 		push	{r0, r1, r2, r4, r5, r6, r7, r8, r9, lr}
 1628              		.cfi_def_cfa_offset 40
 1629              		.cfi_offset 4, -28
 1630              		.cfi_offset 5, -24
 1631              		.cfi_offset 6, -20
 1632              		.cfi_offset 7, -16
 1633              		.cfi_offset 8, -12
 1634              		.cfi_offset 9, -8
 1635              		.cfi_offset 14, -4
 472:quantum/rgblight/rgblight.c ****         rgblight_status.base_mode = mode_base_table[rgblight_config.mode];
 1636              		.loc 1 472 9 view .LVU331
 1637 0004 204C     		ldr	r4, .L159
 1638 0006 2578     		ldrb	r5, [r4]	@ zero_extendqisi2
 471:quantum/rgblight/rgblight.c ****     if (rgblight_config.enable) {
 1639              		.loc 1 471 97 view .LVU332
 1640 0008 9946     		mov	r9, r3
 472:quantum/rgblight/rgblight.c ****         rgblight_status.base_mode = mode_base_table[rgblight_config.mode];
 1641              		.loc 1 472 8 view .LVU333
 1642 000a EB07     		lsls	r3, r5, #31
 1643              	.LVL82:
 471:quantum/rgblight/rgblight.c ****     if (rgblight_config.enable) {
 1644              		.loc 1 471 97 view .LVU334
 1645 000c 0646     		mov	r6, r0
 1646 000e 0F46     		mov	r7, r1
 1647 0010 9046     		mov	r8, r2
 472:quantum/rgblight/rgblight.c ****         rgblight_status.base_mode = mode_base_table[rgblight_config.mode];
 1648              		.loc 1 472 8 view .LVU335
 1649 0012 35D5     		bpl	.L146
 473:quantum/rgblight/rgblight.c ****         if (rgblight_config.mode == RGBLIGHT_MODE_STATIC_LIGHT) {
 1650              		.loc 1 473 9 is_stmt 1 view .LVU336
 473:quantum/rgblight/rgblight.c ****         if (rgblight_config.mode == RGBLIGHT_MODE_STATIC_LIGHT) {
 1651              		.loc 1 473 68 is_stmt 0 view .LVU337
 1652 0014 6B08     		lsrs	r3, r5, #1
 473:quantum/rgblight/rgblight.c ****         if (rgblight_config.mode == RGBLIGHT_MODE_STATIC_LIGHT) {
 1653              		.loc 1 473 35 view .LVU338
 1654 0016 DFF884C0 		ldr	ip, .L159+20
 474:quantum/rgblight/rgblight.c ****             // same static color
 1655              		.loc 1 474 12 view .LVU339
 1656 001a 05F0FE05 		and	r5, r5, #254
 473:quantum/rgblight/rgblight.c ****         if (rgblight_config.mode == RGBLIGHT_MODE_STATIC_LIGHT) {
 1657              		.loc 1 473 35 view .LVU340
 1658 001e 1CF803C0 		ldrb	ip, [ip, r3]	@ zero_extendqisi2
 1659 0022 1A4B     		ldr	r3, .L159+4
 474:quantum/rgblight/rgblight.c ****             // same static color
 1660              		.loc 1 474 12 view .LVU341
 1661 0024 022D     		cmp	r5, #2
 473:quantum/rgblight/rgblight.c ****         if (rgblight_config.mode == RGBLIGHT_MODE_STATIC_LIGHT) {
 1662              		.loc 1 473 35 view .LVU342
 1663 0026 83F800C0 		strb	ip, [r3]
 474:quantum/rgblight/rgblight.c ****             // same static color
 1664              		.loc 1 474 9 is_stmt 1 view .LVU343
 474:quantum/rgblight/rgblight.c ****             // same static color
 1665              		.loc 1 474 12 is_stmt 0 view .LVU344
 1666 002a 0AD1     		bne	.L149
 1667              	.LBB58:
 476:quantum/rgblight/rgblight.c ****             sethsv(hue, sat, val, &tmp_led);
 1668              		.loc 1 476 13 is_stmt 1 view .LVU345
 477:quantum/rgblight/rgblight.c ****             rgblight_setrgb(tmp_led.r, tmp_led.g, tmp_led.b);
 1669              		.loc 1 477 13 view .LVU346
 1670              	.LVL83:
 1671              	.LBB59:
 1672              	.LBI59:
 154:quantum/rgblight/rgblight.c **** 
 1673              		.loc 1 154 6 view .LVU347
 1674              	.LBB60:
 154:quantum/rgblight/rgblight.c **** 
 1675              		.loc 1 154 70 view .LVU348
 1676 002c 01AB     		add	r3, sp, #4
 1677              	.LVL84:
 154:quantum/rgblight/rgblight.c **** 
 1678              		.loc 1 154 70 is_stmt 0 view .LVU349
 1679 002e FFF7FEFF 		bl	sethsv_raw
 1680              	.LVL85:
 154:quantum/rgblight/rgblight.c **** 
 1681              		.loc 1 154 70 view .LVU350
 1682              	.LBE60:
 1683              	.LBE59:
 478:quantum/rgblight/rgblight.c ****         } else {
 1684              		.loc 1 478 13 is_stmt 1 view .LVU351
 1685 0032 9DF80620 		ldrb	r2, [sp, #6]	@ zero_extendqisi2
 1686 0036 9DF80410 		ldrb	r1, [sp, #4]	@ zero_extendqisi2
 1687 003a 9DF80500 		ldrb	r0, [sp, #5]	@ zero_extendqisi2
 1688 003e FFF7FEFF 		bl	rgblight_setrgb
 1689              	.LVL86:
 1690              	.L149:
 1691              	.LBE58:
 482:quantum/rgblight/rgblight.c **** #ifdef RGBLIGHT_EFFECT_BREATHING
 1692              		.loc 1 482 13 view .LVU352
 531:quantum/rgblight/rgblight.c ****         rgblight_config.sat = sat;
 1693              		.loc 1 531 9 view .LVU353
 1694 0042 134D     		ldr	r5, .L159+8
 531:quantum/rgblight/rgblight.c ****         rgblight_config.sat = sat;
 1695              		.loc 1 531 29 is_stmt 0 view .LVU354
 1696 0044 6670     		strb	r6, [r4, #1]
 532:quantum/rgblight/rgblight.c ****         rgblight_config.val = val;
 1697              		.loc 1 532 9 is_stmt 1 view .LVU355
 532:quantum/rgblight/rgblight.c ****         rgblight_config.val = val;
 1698              		.loc 1 532 29 is_stmt 0 view .LVU356
 1699 0046 A770     		strb	r7, [r4, #2]
 533:quantum/rgblight/rgblight.c ****         if (write_to_eeprom) {
 1700              		.loc 1 533 9 is_stmt 1 view .LVU357
 533:quantum/rgblight/rgblight.c ****         if (write_to_eeprom) {
 1701              		.loc 1 533 29 is_stmt 0 view .LVU358
 1702 0048 84F80380 		strb	r8, [r4, #3]
 534:quantum/rgblight/rgblight.c ****             eeconfig_update_rgblight(rgblight_config.raw);
 1703              		.loc 1 534 9 is_stmt 1 view .LVU359
 534:quantum/rgblight/rgblight.c ****             eeconfig_update_rgblight(rgblight_config.raw);
 1704              		.loc 1 534 12 is_stmt 0 view .LVU360
 1705 004c B9F1000F 		cmp	r9, #0
 1706 0050 0ED0     		beq	.L150
 535:quantum/rgblight/rgblight.c ****             dprintf("rgblight set hsv [EEPROM]: %u,%u,%u\n", rgblight_config.hue, rgblight_config.s
 1707              		.loc 1 535 13 is_stmt 1 view .LVU361
 1708 0052 2068     		ldr	r0, [r4]
 1709 0054 FFF7FEFF 		bl	eeconfig_update_rgblight
 1710              	.LVL87:
 536:quantum/rgblight/rgblight.c ****         } else {
 1711              		.loc 1 536 13 view .LVU362
 536:quantum/rgblight/rgblight.c ****         } else {
 1712              		.loc 1 536 13 view .LVU363
 1713 0058 2B78     		ldrb	r3, [r5]	@ zero_extendqisi2
 1714 005a DA07     		lsls	r2, r3, #31
 1715 005c 10D5     		bpl	.L146
 536:quantum/rgblight/rgblight.c ****         } else {
 1716              		.loc 1 536 13 discriminator 1 view .LVU364
 1717 005e E378     		ldrb	r3, [r4, #3]	@ zero_extendqisi2
 1718 0060 A278     		ldrb	r2, [r4, #2]	@ zero_extendqisi2
 1719 0062 6178     		ldrb	r1, [r4, #1]	@ zero_extendqisi2
 1720 0064 0B48     		ldr	r0, .L159+12
 1721              	.L158:
 541:quantum/rgblight/rgblight.c **** 
 1722              		.loc 1 541 1 is_stmt 0 discriminator 1 view .LVU365
 1723 0066 03B0     		add	sp, sp, #12
 1724              		.cfi_remember_state
 1725              		.cfi_def_cfa_offset 28
 1726              		@ sp needed
 1727 0068 BDE8F043 		pop	{r4, r5, r6, r7, r8, r9, lr}
 1728              		.cfi_restore 14
 1729              		.cfi_restore 9
 1730              		.cfi_restore 8
 1731              		.cfi_restore 7
 1732              		.cfi_restore 6
 1733              		.cfi_restore 5
 1734              		.cfi_restore 4
 1735              		.cfi_def_cfa_offset 0
 538:quantum/rgblight/rgblight.c ****         }
 1736              		.loc 1 538 13 discriminator 1 view .LVU366
 1737 006c FFF7FEBF 		b	printf_
 1738              	.LVL88:
 1739              	.L150:
 1740              		.cfi_restore_state
 538:quantum/rgblight/rgblight.c ****         }
 1741              		.loc 1 538 13 is_stmt 1 view .LVU367
 538:quantum/rgblight/rgblight.c ****         }
 1742              		.loc 1 538 13 view .LVU368
 1743 0070 2B78     		ldrb	r3, [r5]	@ zero_extendqisi2
 1744 0072 DB07     		lsls	r3, r3, #31
 1745 0074 04D5     		bpl	.L146
 538:quantum/rgblight/rgblight.c ****         }
 1746              		.loc 1 538 13 discriminator 1 view .LVU369
 1747 0076 0848     		ldr	r0, .L159+16
 1748 0078 4346     		mov	r3, r8
 1749 007a 3A46     		mov	r2, r7
 1750 007c 3146     		mov	r1, r6
 1751 007e F2E7     		b	.L158
 1752              	.L146:
 541:quantum/rgblight/rgblight.c **** 
 1753              		.loc 1 541 1 is_stmt 0 view .LVU370
 1754 0080 03B0     		add	sp, sp, #12
 1755              		.cfi_def_cfa_offset 28
 1756              		@ sp needed
 1757 0082 BDE8F083 		pop	{r4, r5, r6, r7, r8, r9, pc}
 1758              	.L160:
 1759 0086 00BF     		.align	2
 1760              	.L159:
 1761 0088 00000000 		.word	rgblight_config
 1762 008c 00000000 		.word	.LANCHOR1
 1763 0090 00000000 		.word	debug_config
 1764 0094 00000000 		.word	.LC11
 1765 0098 25000000 		.word	.LC12
 1766 009c 00000000 		.word	.LANCHOR2
 1767              		.cfi_endproc
 1768              	.LFE464:
 1770              		.section	.text.rgblight_increase_hue_helper,"ax",%progbits
 1771              		.align	1
 1772              		.global	rgblight_increase_hue_helper
 1773              		.syntax unified
 1774              		.thumb
 1775              		.thumb_func
 1776              		.fpu fpv4-sp-d16
 1778              	rgblight_increase_hue_helper:
 1779              	.LVL89:
 1780              	.LFB439:
 406:quantum/rgblight/rgblight.c ****     uint8_t hue = rgblight_config.hue + RGBLIGHT_HUE_STEP;
 1781              		.loc 1 406 57 is_stmt 1 view -0
 1782              		.cfi_startproc
 1783              		@ args = 0, pretend = 0, frame = 0
 1784              		@ frame_needed = 0, uses_anonymous_args = 0
 1785              		@ link register save eliminated.
 407:quantum/rgblight/rgblight.c ****     rgblight_sethsv_eeprom_helper(hue, rgblight_config.sat, rgblight_config.val, write_to_eeprom);
 1786              		.loc 1 407 5 view .LVU372
 408:quantum/rgblight/rgblight.c **** }
 1787              		.loc 1 408 5 view .LVU373
 1788 0000 0549     		ldr	r1, .L162
 406:quantum/rgblight/rgblight.c ****     uint8_t hue = rgblight_config.hue + RGBLIGHT_HUE_STEP;
 1789              		.loc 1 406 57 is_stmt 0 view .LVU374
 1790 0002 10B4     		push	{r4}
 1791              		.cfi_def_cfa_offset 4
 1792              		.cfi_offset 4, -4
 407:quantum/rgblight/rgblight.c ****     rgblight_sethsv_eeprom_helper(hue, rgblight_config.sat, rgblight_config.val, write_to_eeprom);
 1793              		.loc 1 407 13 view .LVU375
 1794 0004 4C78     		ldrb	r4, [r1, #1]	@ zero_extendqisi2
 408:quantum/rgblight/rgblight.c **** }
 1795              		.loc 1 408 5 view .LVU376
 1796 0006 CA78     		ldrb	r2, [r1, #3]	@ zero_extendqisi2
 1797 0008 8978     		ldrb	r1, [r1, #2]	@ zero_extendqisi2
 407:quantum/rgblight/rgblight.c ****     rgblight_sethsv_eeprom_helper(hue, rgblight_config.sat, rgblight_config.val, write_to_eeprom);
 1798              		.loc 1 407 13 view .LVU377
 1799 000a 0834     		adds	r4, r4, #8
 406:quantum/rgblight/rgblight.c ****     uint8_t hue = rgblight_config.hue + RGBLIGHT_HUE_STEP;
 1800              		.loc 1 406 57 view .LVU378
 1801 000c 0346     		mov	r3, r0
 408:quantum/rgblight/rgblight.c **** }
 1802              		.loc 1 408 5 view .LVU379
 1803 000e E0B2     		uxtb	r0, r4
 1804              	.LVL90:
 409:quantum/rgblight/rgblight.c **** void rgblight_increase_hue_noeeprom(void) { rgblight_increase_hue_helper(false); }
 1805              		.loc 1 409 1 view .LVU380
 1806 0010 5DF8044B 		ldr	r4, [sp], #4
 1807              		.cfi_restore 4
 1808              		.cfi_def_cfa_offset 0
 408:quantum/rgblight/rgblight.c **** }
 1809              		.loc 1 408 5 view .LVU381
 1810 0014 FFF7FEBF 		b	rgblight_sethsv_eeprom_helper
 1811              	.LVL91:
 1812              	.L163:
 408:quantum/rgblight/rgblight.c **** }
 1813              		.loc 1 408 5 view .LVU382
 1814              		.align	2
 1815              	.L162:
 1816 0018 00000000 		.word	rgblight_config
 1817              		.cfi_endproc
 1818              	.LFE439:
 1820              		.section	.text.rgblight_increase_hue_noeeprom,"ax",%progbits
 1821              		.align	1
 1822              		.global	rgblight_increase_hue_noeeprom
 1823              		.syntax unified
 1824              		.thumb
 1825              		.thumb_func
 1826              		.fpu fpv4-sp-d16
 1828              	rgblight_increase_hue_noeeprom:
 1829              	.LFB440:
 410:quantum/rgblight/rgblight.c **** void rgblight_increase_hue(void) { rgblight_increase_hue_helper(true); }
 1830              		.loc 1 410 43 is_stmt 1 view -0
 1831              		.cfi_startproc
 1832              		@ args = 0, pretend = 0, frame = 0
 1833              		@ frame_needed = 0, uses_anonymous_args = 0
 1834              		@ link register save eliminated.
 410:quantum/rgblight/rgblight.c **** void rgblight_increase_hue(void) { rgblight_increase_hue_helper(true); }
 1835              		.loc 1 410 45 view .LVU384
 1836 0000 0020     		movs	r0, #0
 1837 0002 FFF7FEBF 		b	rgblight_increase_hue_helper
 1838              	.LVL92:
 1839              		.cfi_endproc
 1840              	.LFE440:
 1842              		.section	.text.rgblight_increase_hue,"ax",%progbits
 1843              		.align	1
 1844              		.global	rgblight_increase_hue
 1845              		.syntax unified
 1846              		.thumb
 1847              		.thumb_func
 1848              		.fpu fpv4-sp-d16
 1850              	rgblight_increase_hue:
 1851              	.LFB441:
 411:quantum/rgblight/rgblight.c **** void rgblight_decrease_hue_helper(bool write_to_eeprom) {
 1852              		.loc 1 411 34 view -0
 1853              		.cfi_startproc
 1854              		@ args = 0, pretend = 0, frame = 0
 1855              		@ frame_needed = 0, uses_anonymous_args = 0
 1856              		@ link register save eliminated.
 411:quantum/rgblight/rgblight.c **** void rgblight_decrease_hue_helper(bool write_to_eeprom) {
 1857              		.loc 1 411 36 view .LVU386
 1858 0000 0120     		movs	r0, #1
 1859 0002 FFF7FEBF 		b	rgblight_increase_hue_helper
 1860              	.LVL93:
 1861              		.cfi_endproc
 1862              	.LFE441:
 1864              		.section	.text.rgblight_decrease_hue_helper,"ax",%progbits
 1865              		.align	1
 1866              		.global	rgblight_decrease_hue_helper
 1867              		.syntax unified
 1868              		.thumb
 1869              		.thumb_func
 1870              		.fpu fpv4-sp-d16
 1872              	rgblight_decrease_hue_helper:
 1873              	.LVL94:
 1874              	.LFB442:
 412:quantum/rgblight/rgblight.c ****     uint8_t hue = rgblight_config.hue - RGBLIGHT_HUE_STEP;
 1875              		.loc 1 412 57 view -0
 1876              		.cfi_startproc
 1877              		@ args = 0, pretend = 0, frame = 0
 1878              		@ frame_needed = 0, uses_anonymous_args = 0
 1879              		@ link register save eliminated.
 413:quantum/rgblight/rgblight.c ****     rgblight_sethsv_eeprom_helper(hue, rgblight_config.sat, rgblight_config.val, write_to_eeprom);
 1880              		.loc 1 413 5 view .LVU388
 414:quantum/rgblight/rgblight.c **** }
 1881              		.loc 1 414 5 view .LVU389
 1882 0000 0549     		ldr	r1, .L167
 412:quantum/rgblight/rgblight.c ****     uint8_t hue = rgblight_config.hue - RGBLIGHT_HUE_STEP;
 1883              		.loc 1 412 57 is_stmt 0 view .LVU390
 1884 0002 10B4     		push	{r4}
 1885              		.cfi_def_cfa_offset 4
 1886              		.cfi_offset 4, -4
 413:quantum/rgblight/rgblight.c ****     rgblight_sethsv_eeprom_helper(hue, rgblight_config.sat, rgblight_config.val, write_to_eeprom);
 1887              		.loc 1 413 13 view .LVU391
 1888 0004 4C78     		ldrb	r4, [r1, #1]	@ zero_extendqisi2
 414:quantum/rgblight/rgblight.c **** }
 1889              		.loc 1 414 5 view .LVU392
 1890 0006 CA78     		ldrb	r2, [r1, #3]	@ zero_extendqisi2
 1891 0008 8978     		ldrb	r1, [r1, #2]	@ zero_extendqisi2
 413:quantum/rgblight/rgblight.c ****     rgblight_sethsv_eeprom_helper(hue, rgblight_config.sat, rgblight_config.val, write_to_eeprom);
 1892              		.loc 1 413 13 view .LVU393
 1893 000a 083C     		subs	r4, r4, #8
 412:quantum/rgblight/rgblight.c ****     uint8_t hue = rgblight_config.hue - RGBLIGHT_HUE_STEP;
 1894              		.loc 1 412 57 view .LVU394
 1895 000c 0346     		mov	r3, r0
 414:quantum/rgblight/rgblight.c **** }
 1896              		.loc 1 414 5 view .LVU395
 1897 000e E0B2     		uxtb	r0, r4
 1898              	.LVL95:
 415:quantum/rgblight/rgblight.c **** void rgblight_decrease_hue_noeeprom(void) { rgblight_decrease_hue_helper(false); }
 1899              		.loc 1 415 1 view .LVU396
 1900 0010 5DF8044B 		ldr	r4, [sp], #4
 1901              		.cfi_restore 4
 1902              		.cfi_def_cfa_offset 0
 414:quantum/rgblight/rgblight.c **** }
 1903              		.loc 1 414 5 view .LVU397
 1904 0014 FFF7FEBF 		b	rgblight_sethsv_eeprom_helper
 1905              	.LVL96:
 1906              	.L168:
 414:quantum/rgblight/rgblight.c **** }
 1907              		.loc 1 414 5 view .LVU398
 1908              		.align	2
 1909              	.L167:
 1910 0018 00000000 		.word	rgblight_config
 1911              		.cfi_endproc
 1912              	.LFE442:
 1914              		.section	.text.rgblight_decrease_hue_noeeprom,"ax",%progbits
 1915              		.align	1
 1916              		.global	rgblight_decrease_hue_noeeprom
 1917              		.syntax unified
 1918              		.thumb
 1919              		.thumb_func
 1920              		.fpu fpv4-sp-d16
 1922              	rgblight_decrease_hue_noeeprom:
 1923              	.LFB443:
 416:quantum/rgblight/rgblight.c **** void rgblight_decrease_hue(void) { rgblight_decrease_hue_helper(true); }
 1924              		.loc 1 416 43 is_stmt 1 view -0
 1925              		.cfi_startproc
 1926              		@ args = 0, pretend = 0, frame = 0
 1927              		@ frame_needed = 0, uses_anonymous_args = 0
 1928              		@ link register save eliminated.
 416:quantum/rgblight/rgblight.c **** void rgblight_decrease_hue(void) { rgblight_decrease_hue_helper(true); }
 1929              		.loc 1 416 45 view .LVU400
 1930 0000 0020     		movs	r0, #0
 1931 0002 FFF7FEBF 		b	rgblight_decrease_hue_helper
 1932              	.LVL97:
 1933              		.cfi_endproc
 1934              	.LFE443:
 1936              		.section	.text.rgblight_decrease_hue,"ax",%progbits
 1937              		.align	1
 1938              		.global	rgblight_decrease_hue
 1939              		.syntax unified
 1940              		.thumb
 1941              		.thumb_func
 1942              		.fpu fpv4-sp-d16
 1944              	rgblight_decrease_hue:
 1945              	.LFB444:
 417:quantum/rgblight/rgblight.c **** void rgblight_increase_sat_helper(bool write_to_eeprom) {
 1946              		.loc 1 417 34 view -0
 1947              		.cfi_startproc
 1948              		@ args = 0, pretend = 0, frame = 0
 1949              		@ frame_needed = 0, uses_anonymous_args = 0
 1950              		@ link register save eliminated.
 417:quantum/rgblight/rgblight.c **** void rgblight_increase_sat_helper(bool write_to_eeprom) {
 1951              		.loc 1 417 36 view .LVU402
 1952 0000 0120     		movs	r0, #1
 1953 0002 FFF7FEBF 		b	rgblight_decrease_hue_helper
 1954              	.LVL98:
 1955              		.cfi_endproc
 1956              	.LFE444:
 1958              		.section	.text.rgblight_increase_sat_helper,"ax",%progbits
 1959              		.align	1
 1960              		.global	rgblight_increase_sat_helper
 1961              		.syntax unified
 1962              		.thumb
 1963              		.thumb_func
 1964              		.fpu fpv4-sp-d16
 1966              	rgblight_increase_sat_helper:
 1967              	.LVL99:
 1968              	.LFB445:
 418:quantum/rgblight/rgblight.c ****     uint8_t sat = qadd8(rgblight_config.sat, RGBLIGHT_SAT_STEP);
 1969              		.loc 1 418 57 view -0
 1970              		.cfi_startproc
 1971              		@ args = 0, pretend = 0, frame = 0
 1972              		@ frame_needed = 0, uses_anonymous_args = 0
 1973              		@ link register save eliminated.
 419:quantum/rgblight/rgblight.c ****     rgblight_sethsv_eeprom_helper(rgblight_config.hue, sat, rgblight_config.val, write_to_eeprom);
 1974              		.loc 1 419 5 view .LVU404
 1975              	.LBB61:
 1976              	.LBI61:
 1977              		.file 2 "./lib/lib8tion/math8.h"
   1:./lib/lib8tion/math8.h **** #ifndef __INC_LIB8TION_MATH_H
   2:./lib/lib8tion/math8.h **** #define __INC_LIB8TION_MATH_H
   3:./lib/lib8tion/math8.h **** 
   4:./lib/lib8tion/math8.h **** #include "scale8.h"
   5:./lib/lib8tion/math8.h **** 
   6:./lib/lib8tion/math8.h **** ///@ingroup lib8tion
   7:./lib/lib8tion/math8.h **** 
   8:./lib/lib8tion/math8.h **** ///@defgroup Math Basic math operations
   9:./lib/lib8tion/math8.h **** /// Fast, efficient 8-bit math functions specifically
  10:./lib/lib8tion/math8.h **** /// designed for high-performance LED programming.
  11:./lib/lib8tion/math8.h **** ///
  12:./lib/lib8tion/math8.h **** /// Because of the AVR(Arduino) and ARM assembly language
  13:./lib/lib8tion/math8.h **** /// implementations provided, using these functions often
  14:./lib/lib8tion/math8.h **** /// results in smaller and faster code than the equivalent
  15:./lib/lib8tion/math8.h **** /// program using plain "C" arithmetic and logic.
  16:./lib/lib8tion/math8.h **** ///@{
  17:./lib/lib8tion/math8.h **** 
  18:./lib/lib8tion/math8.h **** 
  19:./lib/lib8tion/math8.h **** /// add one byte to another, saturating at 0xFF
  20:./lib/lib8tion/math8.h **** /// @param i - first byte to add
  21:./lib/lib8tion/math8.h **** /// @param j - second byte to add
  22:./lib/lib8tion/math8.h **** /// @returns the sum of i & j, capped at 0xFF
  23:./lib/lib8tion/math8.h **** LIB8STATIC_ALWAYS_INLINE uint8_t qadd8( uint8_t i, uint8_t j)
 1978              		.loc 2 23 34 view .LVU405
 1979              	.LBB62:
  24:./lib/lib8tion/math8.h **** {
  25:./lib/lib8tion/math8.h **** #if QADD8_C == 1
  26:./lib/lib8tion/math8.h ****     uint16_t t = i + j;
 1980              		.loc 2 26 5 view .LVU406
  27:./lib/lib8tion/math8.h ****     if (t > 255) t = 255;
 1981              		.loc 2 27 5 view .LVU407
  28:./lib/lib8tion/math8.h ****     return t;
 1982              		.loc 2 28 5 view .LVU408
 1983              		.loc 2 28 5 is_stmt 0 view .LVU409
 1984              	.LBE62:
 1985              	.LBE61:
 420:quantum/rgblight/rgblight.c **** }
 1986              		.loc 1 420 5 is_stmt 1 view .LVU410
 418:quantum/rgblight/rgblight.c ****     uint8_t sat = qadd8(rgblight_config.sat, RGBLIGHT_SAT_STEP);
 1987              		.loc 1 418 57 is_stmt 0 view .LVU411
 1988 0000 10B4     		push	{r4}
 1989              		.cfi_def_cfa_offset 4
 1990              		.cfi_offset 4, -4
 420:quantum/rgblight/rgblight.c **** }
 1991              		.loc 1 420 5 view .LVU412
 1992 0002 074C     		ldr	r4, .L172
 1993              	.LBB65:
 1994              	.LBB63:
  26:./lib/lib8tion/math8.h ****     if (t > 255) t = 255;
 1995              		.loc 2 26 20 view .LVU413
 1996 0004 A178     		ldrb	r1, [r4, #2]	@ zero_extendqisi2
 1997              	.LBE63:
 1998              	.LBE65:
 420:quantum/rgblight/rgblight.c **** }
 1999              		.loc 1 420 5 view .LVU414
 2000 0006 E278     		ldrb	r2, [r4, #3]	@ zero_extendqisi2
 2001              	.LBB66:
 2002              	.LBB64:
 2003              		.loc 2 28 12 view .LVU415
 2004 0008 1131     		adds	r1, r1, #17
 2005 000a FF29     		cmp	r1, #255
 2006 000c 28BF     		it	cs
 2007 000e FF21     		movcs	r1, #255
 2008              	.LBE64:
 2009              	.LBE66:
 418:quantum/rgblight/rgblight.c ****     uint8_t sat = qadd8(rgblight_config.sat, RGBLIGHT_SAT_STEP);
 2010              		.loc 1 418 57 view .LVU416
 2011 0010 0346     		mov	r3, r0
 420:quantum/rgblight/rgblight.c **** }
 2012              		.loc 1 420 5 view .LVU417
 2013 0012 C9B2     		uxtb	r1, r1
 2014 0014 6078     		ldrb	r0, [r4, #1]	@ zero_extendqisi2
 2015              	.LVL100:
 421:quantum/rgblight/rgblight.c **** void rgblight_increase_sat_noeeprom(void) { rgblight_increase_sat_helper(false); }
 2016              		.loc 1 421 1 view .LVU418
 2017 0016 5DF8044B 		ldr	r4, [sp], #4
 2018              		.cfi_restore 4
 2019              		.cfi_def_cfa_offset 0
 420:quantum/rgblight/rgblight.c **** }
 2020              		.loc 1 420 5 view .LVU419
 2021 001a FFF7FEBF 		b	rgblight_sethsv_eeprom_helper
 2022              	.LVL101:
 2023              	.L173:
 420:quantum/rgblight/rgblight.c **** }
 2024              		.loc 1 420 5 view .LVU420
 2025 001e 00BF     		.align	2
 2026              	.L172:
 2027 0020 00000000 		.word	rgblight_config
 2028              		.cfi_endproc
 2029              	.LFE445:
 2031              		.section	.text.rgblight_increase_sat_noeeprom,"ax",%progbits
 2032              		.align	1
 2033              		.global	rgblight_increase_sat_noeeprom
 2034              		.syntax unified
 2035              		.thumb
 2036              		.thumb_func
 2037              		.fpu fpv4-sp-d16
 2039              	rgblight_increase_sat_noeeprom:
 2040              	.LFB446:
 422:quantum/rgblight/rgblight.c **** void rgblight_increase_sat(void) { rgblight_increase_sat_helper(true); }
 2041              		.loc 1 422 43 is_stmt 1 view -0
 2042              		.cfi_startproc
 2043              		@ args = 0, pretend = 0, frame = 0
 2044              		@ frame_needed = 0, uses_anonymous_args = 0
 2045              		@ link register save eliminated.
 422:quantum/rgblight/rgblight.c **** void rgblight_increase_sat(void) { rgblight_increase_sat_helper(true); }
 2046              		.loc 1 422 45 view .LVU422
 2047 0000 0020     		movs	r0, #0
 2048 0002 FFF7FEBF 		b	rgblight_increase_sat_helper
 2049              	.LVL102:
 2050              		.cfi_endproc
 2051              	.LFE446:
 2053              		.section	.text.rgblight_increase_sat,"ax",%progbits
 2054              		.align	1
 2055              		.global	rgblight_increase_sat
 2056              		.syntax unified
 2057              		.thumb
 2058              		.thumb_func
 2059              		.fpu fpv4-sp-d16
 2061              	rgblight_increase_sat:
 2062              	.LFB447:
 423:quantum/rgblight/rgblight.c **** void rgblight_decrease_sat_helper(bool write_to_eeprom) {
 2063              		.loc 1 423 34 view -0
 2064              		.cfi_startproc
 2065              		@ args = 0, pretend = 0, frame = 0
 2066              		@ frame_needed = 0, uses_anonymous_args = 0
 2067              		@ link register save eliminated.
 423:quantum/rgblight/rgblight.c **** void rgblight_decrease_sat_helper(bool write_to_eeprom) {
 2068              		.loc 1 423 36 view .LVU424
 2069 0000 0120     		movs	r0, #1
 2070 0002 FFF7FEBF 		b	rgblight_increase_sat_helper
 2071              	.LVL103:
 2072              		.cfi_endproc
 2073              	.LFE447:
 2075              		.section	.text.rgblight_decrease_sat_helper,"ax",%progbits
 2076              		.align	1
 2077              		.global	rgblight_decrease_sat_helper
 2078              		.syntax unified
 2079              		.thumb
 2080              		.thumb_func
 2081              		.fpu fpv4-sp-d16
 2083              	rgblight_decrease_sat_helper:
 2084              	.LVL104:
 2085              	.LFB448:
 424:quantum/rgblight/rgblight.c ****     uint8_t sat = qsub8(rgblight_config.sat, RGBLIGHT_SAT_STEP);
 2086              		.loc 1 424 57 view -0
 2087              		.cfi_startproc
 2088              		@ args = 0, pretend = 0, frame = 0
 2089              		@ frame_needed = 0, uses_anonymous_args = 0
 2090              		@ link register save eliminated.
 425:quantum/rgblight/rgblight.c ****     rgblight_sethsv_eeprom_helper(rgblight_config.hue, sat, rgblight_config.val, write_to_eeprom);
 2091              		.loc 1 425 5 view .LVU426
 2092              	.LBB67:
 2093              	.LBI67:
  29:./lib/lib8tion/math8.h **** #elif QADD8_AVRASM == 1
  30:./lib/lib8tion/math8.h ****     asm volatile(
  31:./lib/lib8tion/math8.h ****          /* First, add j to i, conditioning the C flag */
  32:./lib/lib8tion/math8.h ****          "add %0, %1    \n\t"
  33:./lib/lib8tion/math8.h **** 
  34:./lib/lib8tion/math8.h ****          /* Now test the C flag.
  35:./lib/lib8tion/math8.h ****            If C is clear, we branch around a load of 0xFF into i.
  36:./lib/lib8tion/math8.h ****            If C is set, we go ahead and load 0xFF into i.
  37:./lib/lib8tion/math8.h ****          */
  38:./lib/lib8tion/math8.h ****          "brcc L_%=     \n\t"
  39:./lib/lib8tion/math8.h ****          "ldi %0, 0xFF  \n\t"
  40:./lib/lib8tion/math8.h ****          "L_%=: "
  41:./lib/lib8tion/math8.h ****          : "+a" (i)
  42:./lib/lib8tion/math8.h ****          : "a"  (j) );
  43:./lib/lib8tion/math8.h ****     return i;
  44:./lib/lib8tion/math8.h **** #elif QADD8_ARM_DSP_ASM == 1
  45:./lib/lib8tion/math8.h ****     asm volatile( "uqadd8 %0, %0, %1" : "+r" (i) : "r" (j));
  46:./lib/lib8tion/math8.h ****     return i;
  47:./lib/lib8tion/math8.h **** #else
  48:./lib/lib8tion/math8.h **** #error "No implementation for qadd8 available."
  49:./lib/lib8tion/math8.h **** #endif
  50:./lib/lib8tion/math8.h **** }
  51:./lib/lib8tion/math8.h **** 
  52:./lib/lib8tion/math8.h **** /// Add one byte to another, saturating at 0x7F
  53:./lib/lib8tion/math8.h **** /// @param i - first byte to add
  54:./lib/lib8tion/math8.h **** /// @param j - second byte to add
  55:./lib/lib8tion/math8.h **** /// @returns the sum of i & j, capped at 0xFF
  56:./lib/lib8tion/math8.h **** LIB8STATIC_ALWAYS_INLINE int8_t qadd7( int8_t i, int8_t j)
  57:./lib/lib8tion/math8.h **** {
  58:./lib/lib8tion/math8.h **** #if QADD7_C == 1
  59:./lib/lib8tion/math8.h ****     int16_t t = i + j;
  60:./lib/lib8tion/math8.h ****     if (t > 127) t = 127;
  61:./lib/lib8tion/math8.h ****     return t;
  62:./lib/lib8tion/math8.h **** #elif QADD7_AVRASM == 1
  63:./lib/lib8tion/math8.h ****     asm volatile(
  64:./lib/lib8tion/math8.h ****          /* First, add j to i, conditioning the V flag */
  65:./lib/lib8tion/math8.h ****          "add %0, %1    \n\t"
  66:./lib/lib8tion/math8.h **** 
  67:./lib/lib8tion/math8.h ****          /* Now test the V flag.
  68:./lib/lib8tion/math8.h ****           If V is clear, we branch around a load of 0x7F into i.
  69:./lib/lib8tion/math8.h ****           If V is set, we go ahead and load 0x7F into i.
  70:./lib/lib8tion/math8.h ****           */
  71:./lib/lib8tion/math8.h ****          "brvc L_%=     \n\t"
  72:./lib/lib8tion/math8.h ****          "ldi %0, 0x7F  \n\t"
  73:./lib/lib8tion/math8.h ****          "L_%=: "
  74:./lib/lib8tion/math8.h ****          : "+a" (i)
  75:./lib/lib8tion/math8.h ****          : "a"  (j) );
  76:./lib/lib8tion/math8.h **** 
  77:./lib/lib8tion/math8.h ****     return i;
  78:./lib/lib8tion/math8.h **** #elif QADD7_ARM_DSP_ASM == 1
  79:./lib/lib8tion/math8.h ****     asm volatile( "qadd8 %0, %0, %1" : "+r" (i) : "r" (j));
  80:./lib/lib8tion/math8.h ****     return i;
  81:./lib/lib8tion/math8.h **** #else
  82:./lib/lib8tion/math8.h **** #error "No implementation for qadd7 available."
  83:./lib/lib8tion/math8.h **** #endif
  84:./lib/lib8tion/math8.h **** }
  85:./lib/lib8tion/math8.h **** 
  86:./lib/lib8tion/math8.h **** /// subtract one byte from another, saturating at 0x00
  87:./lib/lib8tion/math8.h **** /// @returns i - j with a floor of 0
  88:./lib/lib8tion/math8.h **** LIB8STATIC_ALWAYS_INLINE uint8_t qsub8( uint8_t i, uint8_t j)
 2094              		.loc 2 88 34 view .LVU427
 2095              	.LBB68:
  89:./lib/lib8tion/math8.h **** {
  90:./lib/lib8tion/math8.h **** #if QSUB8_C == 1
  91:./lib/lib8tion/math8.h ****     int16_t t = i - j;
 2096              		.loc 2 91 5 view .LVU428
  92:./lib/lib8tion/math8.h ****     if (t < 0) t = 0;
 2097              		.loc 2 92 5 view .LVU429
  93:./lib/lib8tion/math8.h ****     return t;
 2098              		.loc 2 93 5 view .LVU430
 2099              		.loc 2 93 5 is_stmt 0 view .LVU431
 2100              	.LBE68:
 2101              	.LBE67:
 426:quantum/rgblight/rgblight.c **** }
 2102              		.loc 1 426 5 is_stmt 1 view .LVU432
 424:quantum/rgblight/rgblight.c ****     uint8_t sat = qsub8(rgblight_config.sat, RGBLIGHT_SAT_STEP);
 2103              		.loc 1 424 57 is_stmt 0 view .LVU433
 2104 0000 10B4     		push	{r4}
 2105              		.cfi_def_cfa_offset 4
 2106              		.cfi_offset 4, -4
 426:quantum/rgblight/rgblight.c **** }
 2107              		.loc 1 426 5 view .LVU434
 2108 0002 064C     		ldr	r4, .L177
 2109              	.LBB71:
 2110              	.LBB69:
  91:./lib/lib8tion/math8.h ****     if (t < 0) t = 0;
 2111              		.loc 2 91 19 view .LVU435
 2112 0004 A178     		ldrb	r1, [r4, #2]	@ zero_extendqisi2
 2113              	.LBE69:
 2114              	.LBE71:
 426:quantum/rgblight/rgblight.c **** }
 2115              		.loc 1 426 5 view .LVU436
 2116 0006 E278     		ldrb	r2, [r4, #3]	@ zero_extendqisi2
 2117              	.LBB72:
 2118              	.LBB70:
  91:./lib/lib8tion/math8.h ****     if (t < 0) t = 0;
 2119              		.loc 2 91 19 view .LVU437
 2120 0008 1139     		subs	r1, r1, #17
 2121              		.loc 2 93 12 view .LVU438
 2122 000a 21EAE171 		bic	r1, r1, r1, asr #31
 2123              	.LBE70:
 2124              	.LBE72:
 424:quantum/rgblight/rgblight.c ****     uint8_t sat = qsub8(rgblight_config.sat, RGBLIGHT_SAT_STEP);
 2125              		.loc 1 424 57 view .LVU439
 2126 000e 0346     		mov	r3, r0
 426:quantum/rgblight/rgblight.c **** }
 2127              		.loc 1 426 5 view .LVU440
 2128 0010 C9B2     		uxtb	r1, r1
 2129 0012 6078     		ldrb	r0, [r4, #1]	@ zero_extendqisi2
 2130              	.LVL105:
 427:quantum/rgblight/rgblight.c **** void rgblight_decrease_sat_noeeprom(void) { rgblight_decrease_sat_helper(false); }
 2131              		.loc 1 427 1 view .LVU441
 2132 0014 5DF8044B 		ldr	r4, [sp], #4
 2133              		.cfi_restore 4
 2134              		.cfi_def_cfa_offset 0
 426:quantum/rgblight/rgblight.c **** }
 2135              		.loc 1 426 5 view .LVU442
 2136 0018 FFF7FEBF 		b	rgblight_sethsv_eeprom_helper
 2137              	.LVL106:
 2138              	.L178:
 426:quantum/rgblight/rgblight.c **** }
 2139              		.loc 1 426 5 view .LVU443
 2140              		.align	2
 2141              	.L177:
 2142 001c 00000000 		.word	rgblight_config
 2143              		.cfi_endproc
 2144              	.LFE448:
 2146              		.section	.text.rgblight_decrease_sat_noeeprom,"ax",%progbits
 2147              		.align	1
 2148              		.global	rgblight_decrease_sat_noeeprom
 2149              		.syntax unified
 2150              		.thumb
 2151              		.thumb_func
 2152              		.fpu fpv4-sp-d16
 2154              	rgblight_decrease_sat_noeeprom:
 2155              	.LFB449:
 428:quantum/rgblight/rgblight.c **** void rgblight_decrease_sat(void) { rgblight_decrease_sat_helper(true); }
 2156              		.loc 1 428 43 is_stmt 1 view -0
 2157              		.cfi_startproc
 2158              		@ args = 0, pretend = 0, frame = 0
 2159              		@ frame_needed = 0, uses_anonymous_args = 0
 2160              		@ link register save eliminated.
 428:quantum/rgblight/rgblight.c **** void rgblight_decrease_sat(void) { rgblight_decrease_sat_helper(true); }
 2161              		.loc 1 428 45 view .LVU445
 2162 0000 0020     		movs	r0, #0
 2163 0002 FFF7FEBF 		b	rgblight_decrease_sat_helper
 2164              	.LVL107:
 2165              		.cfi_endproc
 2166              	.LFE449:
 2168              		.section	.text.rgblight_decrease_sat,"ax",%progbits
 2169              		.align	1
 2170              		.global	rgblight_decrease_sat
 2171              		.syntax unified
 2172              		.thumb
 2173              		.thumb_func
 2174              		.fpu fpv4-sp-d16
 2176              	rgblight_decrease_sat:
 2177              	.LFB450:
 429:quantum/rgblight/rgblight.c **** void rgblight_increase_val_helper(bool write_to_eeprom) {
 2178              		.loc 1 429 34 view -0
 2179              		.cfi_startproc
 2180              		@ args = 0, pretend = 0, frame = 0
 2181              		@ frame_needed = 0, uses_anonymous_args = 0
 2182              		@ link register save eliminated.
 429:quantum/rgblight/rgblight.c **** void rgblight_increase_val_helper(bool write_to_eeprom) {
 2183              		.loc 1 429 36 view .LVU447
 2184 0000 0120     		movs	r0, #1
 2185 0002 FFF7FEBF 		b	rgblight_decrease_sat_helper
 2186              	.LVL108:
 2187              		.cfi_endproc
 2188              	.LFE450:
 2190              		.section	.text.rgblight_increase_val_helper,"ax",%progbits
 2191              		.align	1
 2192              		.global	rgblight_increase_val_helper
 2193              		.syntax unified
 2194              		.thumb
 2195              		.thumb_func
 2196              		.fpu fpv4-sp-d16
 2198              	rgblight_increase_val_helper:
 2199              	.LVL109:
 2200              	.LFB451:
 430:quantum/rgblight/rgblight.c ****     uint8_t val = qadd8(rgblight_config.val, RGBLIGHT_VAL_STEP);
 2201              		.loc 1 430 57 view -0
 2202              		.cfi_startproc
 2203              		@ args = 0, pretend = 0, frame = 0
 2204              		@ frame_needed = 0, uses_anonymous_args = 0
 2205              		@ link register save eliminated.
 431:quantum/rgblight/rgblight.c ****     rgblight_sethsv_eeprom_helper(rgblight_config.hue, rgblight_config.sat, val, write_to_eeprom);
 2206              		.loc 1 431 5 view .LVU449
 2207              	.LBB73:
 2208              	.LBI73:
  23:./lib/lib8tion/math8.h **** {
 2209              		.loc 2 23 34 view .LVU450
 2210              	.LBB74:
  26:./lib/lib8tion/math8.h ****     if (t > 255) t = 255;
 2211              		.loc 2 26 5 view .LVU451
  27:./lib/lib8tion/math8.h ****     return t;
 2212              		.loc 2 27 5 view .LVU452
  28:./lib/lib8tion/math8.h **** #elif QADD8_AVRASM == 1
 2213              		.loc 2 28 5 view .LVU453
  28:./lib/lib8tion/math8.h **** #elif QADD8_AVRASM == 1
 2214              		.loc 2 28 5 is_stmt 0 view .LVU454
 2215              	.LBE74:
 2216              	.LBE73:
 432:quantum/rgblight/rgblight.c **** }
 2217              		.loc 1 432 5 is_stmt 1 view .LVU455
 430:quantum/rgblight/rgblight.c ****     uint8_t val = qadd8(rgblight_config.val, RGBLIGHT_VAL_STEP);
 2218              		.loc 1 430 57 is_stmt 0 view .LVU456
 2219 0000 10B4     		push	{r4}
 2220              		.cfi_def_cfa_offset 4
 2221              		.cfi_offset 4, -4
 431:quantum/rgblight/rgblight.c ****     rgblight_sethsv_eeprom_helper(rgblight_config.hue, rgblight_config.sat, val, write_to_eeprom);
 2222              		.loc 1 431 19 view .LVU457
 2223 0002 074C     		ldr	r4, .L182
 2224              	.LBB77:
 2225              	.LBB75:
  26:./lib/lib8tion/math8.h ****     if (t > 255) t = 255;
 2226              		.loc 2 26 20 view .LVU458
 2227 0004 E278     		ldrb	r2, [r4, #3]	@ zero_extendqisi2
 2228              	.LBE75:
 2229              	.LBE77:
 432:quantum/rgblight/rgblight.c **** }
 2230              		.loc 1 432 5 view .LVU459
 2231 0006 A178     		ldrb	r1, [r4, #2]	@ zero_extendqisi2
 2232              	.LBB78:
 2233              	.LBB76:
  28:./lib/lib8tion/math8.h **** #elif QADD8_AVRASM == 1
 2234              		.loc 2 28 12 view .LVU460
 2235 0008 1132     		adds	r2, r2, #17
 2236 000a FF2A     		cmp	r2, #255
 2237 000c 28BF     		it	cs
 2238 000e FF22     		movcs	r2, #255
 2239              	.LBE76:
 2240              	.LBE78:
 430:quantum/rgblight/rgblight.c ****     uint8_t val = qadd8(rgblight_config.val, RGBLIGHT_VAL_STEP);
 2241              		.loc 1 430 57 view .LVU461
 2242 0010 0346     		mov	r3, r0
 432:quantum/rgblight/rgblight.c **** }
 2243              		.loc 1 432 5 view .LVU462
 2244 0012 D2B2     		uxtb	r2, r2
 2245 0014 6078     		ldrb	r0, [r4, #1]	@ zero_extendqisi2
 2246              	.LVL110:
 433:quantum/rgblight/rgblight.c **** void rgblight_increase_val_noeeprom(void) { rgblight_increase_val_helper(false); }
 2247              		.loc 1 433 1 view .LVU463
 2248 0016 5DF8044B 		ldr	r4, [sp], #4
 2249              		.cfi_restore 4
 2250              		.cfi_def_cfa_offset 0
 432:quantum/rgblight/rgblight.c **** }
 2251              		.loc 1 432 5 view .LVU464
 2252 001a FFF7FEBF 		b	rgblight_sethsv_eeprom_helper
 2253              	.LVL111:
 2254              	.L183:
 432:quantum/rgblight/rgblight.c **** }
 2255              		.loc 1 432 5 view .LVU465
 2256 001e 00BF     		.align	2
 2257              	.L182:
 2258 0020 00000000 		.word	rgblight_config
 2259              		.cfi_endproc
 2260              	.LFE451:
 2262              		.section	.text.rgblight_increase_val_noeeprom,"ax",%progbits
 2263              		.align	1
 2264              		.global	rgblight_increase_val_noeeprom
 2265              		.syntax unified
 2266              		.thumb
 2267              		.thumb_func
 2268              		.fpu fpv4-sp-d16
 2270              	rgblight_increase_val_noeeprom:
 2271              	.LFB452:
 434:quantum/rgblight/rgblight.c **** void rgblight_increase_val(void) { rgblight_increase_val_helper(true); }
 2272              		.loc 1 434 43 is_stmt 1 view -0
 2273              		.cfi_startproc
 2274              		@ args = 0, pretend = 0, frame = 0
 2275              		@ frame_needed = 0, uses_anonymous_args = 0
 2276              		@ link register save eliminated.
 434:quantum/rgblight/rgblight.c **** void rgblight_increase_val(void) { rgblight_increase_val_helper(true); }
 2277              		.loc 1 434 45 view .LVU467
 2278 0000 0020     		movs	r0, #0
 2279 0002 FFF7FEBF 		b	rgblight_increase_val_helper
 2280              	.LVL112:
 2281              		.cfi_endproc
 2282              	.LFE452:
 2284              		.section	.text.rgblight_increase_val,"ax",%progbits
 2285              		.align	1
 2286              		.global	rgblight_increase_val
 2287              		.syntax unified
 2288              		.thumb
 2289              		.thumb_func
 2290              		.fpu fpv4-sp-d16
 2292              	rgblight_increase_val:
 2293              	.LFB453:
 435:quantum/rgblight/rgblight.c **** void rgblight_decrease_val_helper(bool write_to_eeprom) {
 2294              		.loc 1 435 34 view -0
 2295              		.cfi_startproc
 2296              		@ args = 0, pretend = 0, frame = 0
 2297              		@ frame_needed = 0, uses_anonymous_args = 0
 2298              		@ link register save eliminated.
 435:quantum/rgblight/rgblight.c **** void rgblight_decrease_val_helper(bool write_to_eeprom) {
 2299              		.loc 1 435 36 view .LVU469
 2300 0000 0120     		movs	r0, #1
 2301 0002 FFF7FEBF 		b	rgblight_increase_val_helper
 2302              	.LVL113:
 2303              		.cfi_endproc
 2304              	.LFE453:
 2306              		.section	.text.rgblight_decrease_val_helper,"ax",%progbits
 2307              		.align	1
 2308              		.global	rgblight_decrease_val_helper
 2309              		.syntax unified
 2310              		.thumb
 2311              		.thumb_func
 2312              		.fpu fpv4-sp-d16
 2314              	rgblight_decrease_val_helper:
 2315              	.LVL114:
 2316              	.LFB454:
 436:quantum/rgblight/rgblight.c ****     uint8_t val = qsub8(rgblight_config.val, RGBLIGHT_VAL_STEP);
 2317              		.loc 1 436 57 view -0
 2318              		.cfi_startproc
 2319              		@ args = 0, pretend = 0, frame = 0
 2320              		@ frame_needed = 0, uses_anonymous_args = 0
 2321              		@ link register save eliminated.
 437:quantum/rgblight/rgblight.c ****     rgblight_sethsv_eeprom_helper(rgblight_config.hue, rgblight_config.sat, val, write_to_eeprom);
 2322              		.loc 1 437 5 view .LVU471
 2323              	.LBB79:
 2324              	.LBI79:
  88:./lib/lib8tion/math8.h **** {
 2325              		.loc 2 88 34 view .LVU472
 2326              	.LBB80:
  91:./lib/lib8tion/math8.h ****     if (t < 0) t = 0;
 2327              		.loc 2 91 5 view .LVU473
  92:./lib/lib8tion/math8.h ****     return t;
 2328              		.loc 2 92 5 view .LVU474
 2329              		.loc 2 93 5 view .LVU475
 2330              		.loc 2 93 5 is_stmt 0 view .LVU476
 2331              	.LBE80:
 2332              	.LBE79:
 438:quantum/rgblight/rgblight.c **** }
 2333              		.loc 1 438 5 is_stmt 1 view .LVU477
 436:quantum/rgblight/rgblight.c ****     uint8_t val = qsub8(rgblight_config.val, RGBLIGHT_VAL_STEP);
 2334              		.loc 1 436 57 is_stmt 0 view .LVU478
 2335 0000 10B4     		push	{r4}
 2336              		.cfi_def_cfa_offset 4
 2337              		.cfi_offset 4, -4
 437:quantum/rgblight/rgblight.c ****     rgblight_sethsv_eeprom_helper(rgblight_config.hue, rgblight_config.sat, val, write_to_eeprom);
 2338              		.loc 1 437 19 view .LVU479
 2339 0002 064C     		ldr	r4, .L187
 2340              	.LBB83:
 2341              	.LBB81:
  91:./lib/lib8tion/math8.h ****     if (t < 0) t = 0;
 2342              		.loc 2 91 19 view .LVU480
 2343 0004 E278     		ldrb	r2, [r4, #3]	@ zero_extendqisi2
 2344              	.LBE81:
 2345              	.LBE83:
 438:quantum/rgblight/rgblight.c **** }
 2346              		.loc 1 438 5 view .LVU481
 2347 0006 A178     		ldrb	r1, [r4, #2]	@ zero_extendqisi2
 2348              	.LBB84:
 2349              	.LBB82:
  91:./lib/lib8tion/math8.h ****     if (t < 0) t = 0;
 2350              		.loc 2 91 19 view .LVU482
 2351 0008 113A     		subs	r2, r2, #17
 2352              		.loc 2 93 12 view .LVU483
 2353 000a 22EAE272 		bic	r2, r2, r2, asr #31
 2354              	.LBE82:
 2355              	.LBE84:
 436:quantum/rgblight/rgblight.c ****     uint8_t val = qsub8(rgblight_config.val, RGBLIGHT_VAL_STEP);
 2356              		.loc 1 436 57 view .LVU484
 2357 000e 0346     		mov	r3, r0
 438:quantum/rgblight/rgblight.c **** }
 2358              		.loc 1 438 5 view .LVU485
 2359 0010 D2B2     		uxtb	r2, r2
 2360 0012 6078     		ldrb	r0, [r4, #1]	@ zero_extendqisi2
 2361              	.LVL115:
 439:quantum/rgblight/rgblight.c **** void rgblight_decrease_val_noeeprom(void) { rgblight_decrease_val_helper(false); }
 2362              		.loc 1 439 1 view .LVU486
 2363 0014 5DF8044B 		ldr	r4, [sp], #4
 2364              		.cfi_restore 4
 2365              		.cfi_def_cfa_offset 0
 438:quantum/rgblight/rgblight.c **** }
 2366              		.loc 1 438 5 view .LVU487
 2367 0018 FFF7FEBF 		b	rgblight_sethsv_eeprom_helper
 2368              	.LVL116:
 2369              	.L188:
 438:quantum/rgblight/rgblight.c **** }
 2370              		.loc 1 438 5 view .LVU488
 2371              		.align	2
 2372              	.L187:
 2373 001c 00000000 		.word	rgblight_config
 2374              		.cfi_endproc
 2375              	.LFE454:
 2377              		.section	.text.rgblight_decrease_val_noeeprom,"ax",%progbits
 2378              		.align	1
 2379              		.global	rgblight_decrease_val_noeeprom
 2380              		.syntax unified
 2381              		.thumb
 2382              		.thumb_func
 2383              		.fpu fpv4-sp-d16
 2385              	rgblight_decrease_val_noeeprom:
 2386              	.LFB455:
 440:quantum/rgblight/rgblight.c **** void rgblight_decrease_val(void) { rgblight_decrease_val_helper(true); }
 2387              		.loc 1 440 43 is_stmt 1 view -0
 2388              		.cfi_startproc
 2389              		@ args = 0, pretend = 0, frame = 0
 2390              		@ frame_needed = 0, uses_anonymous_args = 0
 2391              		@ link register save eliminated.
 440:quantum/rgblight/rgblight.c **** void rgblight_decrease_val(void) { rgblight_decrease_val_helper(true); }
 2392              		.loc 1 440 45 view .LVU490
 2393 0000 0020     		movs	r0, #0
 2394 0002 FFF7FEBF 		b	rgblight_decrease_val_helper
 2395              	.LVL117:
 2396              		.cfi_endproc
 2397              	.LFE455:
 2399              		.section	.text.rgblight_decrease_val,"ax",%progbits
 2400              		.align	1
 2401              		.global	rgblight_decrease_val
 2402              		.syntax unified
 2403              		.thumb
 2404              		.thumb_func
 2405              		.fpu fpv4-sp-d16
 2407              	rgblight_decrease_val:
 2408              	.LFB456:
 441:quantum/rgblight/rgblight.c **** 
 2409              		.loc 1 441 34 view -0
 2410              		.cfi_startproc
 2411              		@ args = 0, pretend = 0, frame = 0
 2412              		@ frame_needed = 0, uses_anonymous_args = 0
 2413              		@ link register save eliminated.
 441:quantum/rgblight/rgblight.c **** 
 2414              		.loc 1 441 36 view .LVU492
 2415 0000 0120     		movs	r0, #1
 2416 0002 FFF7FEBF 		b	rgblight_decrease_val_helper
 2417              	.LVL118:
 2418              		.cfi_endproc
 2419              	.LFE456:
 2421              		.section	.text.rgblight_sethsv,"ax",%progbits
 2422              		.align	1
 2423              		.global	rgblight_sethsv
 2424              		.syntax unified
 2425              		.thumb
 2426              		.thumb_func
 2427              		.fpu fpv4-sp-d16
 2429              	rgblight_sethsv:
 2430              	.LVL119:
 2431              	.LFB465:
 543:quantum/rgblight/rgblight.c **** 
 2432              		.loc 1 543 61 view -0
 2433              		.cfi_startproc
 2434              		@ args = 0, pretend = 0, frame = 0
 2435              		@ frame_needed = 0, uses_anonymous_args = 0
 2436              		@ link register save eliminated.
 543:quantum/rgblight/rgblight.c **** 
 2437              		.loc 1 543 63 view .LVU494
 2438 0000 0123     		movs	r3, #1
 2439 0002 FFF7FEBF 		b	rgblight_sethsv_eeprom_helper
 2440              	.LVL120:
 543:quantum/rgblight/rgblight.c **** 
 2441              		.loc 1 543 63 is_stmt 0 view .LVU495
 2442              		.cfi_endproc
 2443              	.LFE465:
 2445              		.section	.text.rgblight_sethsv_noeeprom,"ax",%progbits
 2446              		.align	1
 2447              		.global	rgblight_sethsv_noeeprom
 2448              		.syntax unified
 2449              		.thumb
 2450              		.thumb_func
 2451              		.fpu fpv4-sp-d16
 2453              	rgblight_sethsv_noeeprom:
 2454              	.LVL121:
 2455              	.LFB466:
 545:quantum/rgblight/rgblight.c **** 
 2456              		.loc 1 545 70 is_stmt 1 view -0
 2457              		.cfi_startproc
 2458              		@ args = 0, pretend = 0, frame = 0
 2459              		@ frame_needed = 0, uses_anonymous_args = 0
 2460              		@ link register save eliminated.
 545:quantum/rgblight/rgblight.c **** 
 2461              		.loc 1 545 72 view .LVU497
 2462 0000 0023     		movs	r3, #0
 2463 0002 FFF7FEBF 		b	rgblight_sethsv_eeprom_helper
 2464              	.LVL122:
 545:quantum/rgblight/rgblight.c **** 
 2465              		.loc 1 545 72 is_stmt 0 view .LVU498
 2466              		.cfi_endproc
 2467              	.LFE466:
 2469              		.section	.rodata.rgblight_mode_eeprom_helper.str1.1,"aMS",%progbits,1
 2470              	.LC13:
 2471 0000 7267626C 		.ascii	"rgblight mode [EEPROM]: %u\012\000"
 2471      69676874 
 2471      206D6F64 
 2471      65205B45 
 2471      4550524F 
 2472              	.LC14:
 2473 001c 7267626C 		.ascii	"rgblight mode [NOEEPROM]: %u\012\000"
 2473      69676874 
 2473      206D6F64 
 2473      65205B4E 
 2473      4F454550 
 2474              		.section	.text.rgblight_mode_eeprom_helper,"ax",%progbits
 2475              		.align	1
 2476              		.global	rgblight_mode_eeprom_helper
 2477              		.syntax unified
 2478              		.thumb
 2479              		.thumb_func
 2480              		.fpu fpv4-sp-d16
 2482              	rgblight_mode_eeprom_helper:
 2483              	.LVL123:
 2484              	.LFB429:
 320:quantum/rgblight/rgblight.c ****     if (!rgblight_config.enable) {
 2485              		.loc 1 320 70 is_stmt 1 view -0
 2486              		.cfi_startproc
 2487              		@ args = 0, pretend = 0, frame = 0
 2488              		@ frame_needed = 0, uses_anonymous_args = 0
 321:quantum/rgblight/rgblight.c ****         return;
 2489              		.loc 1 321 5 view .LVU500
 320:quantum/rgblight/rgblight.c ****     if (!rgblight_config.enable) {
 2490              		.loc 1 320 70 is_stmt 0 view .LVU501
 2491 0000 38B5     		push	{r3, r4, r5, lr}
 2492              		.cfi_def_cfa_offset 16
 2493              		.cfi_offset 3, -16
 2494              		.cfi_offset 4, -12
 2495              		.cfi_offset 5, -8
 2496              		.cfi_offset 14, -4
 321:quantum/rgblight/rgblight.c ****         return;
 2497              		.loc 1 321 25 view .LVU502
 2498 0002 114C     		ldr	r4, .L203
 2499 0004 2378     		ldrb	r3, [r4]	@ zero_extendqisi2
 321:quantum/rgblight/rgblight.c ****         return;
 2500              		.loc 1 321 8 view .LVU503
 2501 0006 D807     		lsls	r0, r3, #31
 2502              	.LVL124:
 321:quantum/rgblight/rgblight.c ****         return;
 2503              		.loc 1 321 8 view .LVU504
 2504 0008 1DD5     		bpl	.L193
 2505              	.LVL125:
 2506              	.LBB87:
 2507              	.LBI87:
 320:quantum/rgblight/rgblight.c ****     if (!rgblight_config.enable) {
 2508              		.loc 1 320 6 is_stmt 1 view .LVU505
 2509              	.LBB88:
 324:quantum/rgblight/rgblight.c ****         rgblight_config.mode = RGBLIGHT_MODE_STATIC_LIGHT;
 2510              		.loc 1 324 5 view .LVU506
 325:quantum/rgblight/rgblight.c ****     } else if (mode > RGBLIGHT_MODES) {
 2511              		.loc 1 325 9 view .LVU507
 325:quantum/rgblight/rgblight.c ****     } else if (mode > RGBLIGHT_MODES) {
 2512              		.loc 1 325 30 is_stmt 0 view .LVU508
 2513 000a 0122     		movs	r2, #1
 2514 000c 62F34703 		bfi	r3, r2, #1, #7
 2515 0010 0E4D     		ldr	r5, .L203+4
 2516 0012 2370     		strb	r3, [r4]
 331:quantum/rgblight/rgblight.c ****     if (write_to_eeprom) {
 2517              		.loc 1 331 35 is_stmt 1 view .LVU509
 332:quantum/rgblight/rgblight.c ****         eeconfig_update_rgblight(rgblight_config.raw);
 2518              		.loc 1 332 5 view .LVU510
 332:quantum/rgblight/rgblight.c ****         eeconfig_update_rgblight(rgblight_config.raw);
 2519              		.loc 1 332 8 is_stmt 0 view .LVU511
 2520 0014 89B1     		cbz	r1, .L195
 333:quantum/rgblight/rgblight.c ****         dprintf("rgblight mode [EEPROM]: %u\n", rgblight_config.mode);
 2521              		.loc 1 333 9 is_stmt 1 view .LVU512
 2522 0016 2068     		ldr	r0, [r4]
 2523 0018 FFF7FEFF 		bl	eeconfig_update_rgblight
 2524              	.LVL126:
 334:quantum/rgblight/rgblight.c ****     } else {
 2525              		.loc 1 334 9 view .LVU513
 334:quantum/rgblight/rgblight.c ****     } else {
 2526              		.loc 1 334 9 view .LVU514
 2527 001c 2B78     		ldrb	r3, [r5]	@ zero_extendqisi2
 2528 001e DA07     		lsls	r2, r3, #31
 2529 0020 04D5     		bpl	.L197
 334:quantum/rgblight/rgblight.c ****     } else {
 2530              		.loc 1 334 9 view .LVU515
 2531 0022 2178     		ldrb	r1, [r4]	@ zero_extendqisi2
 2532 0024 0A48     		ldr	r0, .L203+8
 2533 0026 4908     		lsrs	r1, r1, #1
 2534              	.L202:
 336:quantum/rgblight/rgblight.c ****     }
 2535              		.loc 1 336 9 is_stmt 0 view .LVU516
 2536 0028 FFF7FEFF 		bl	printf_
 2537              	.LVL127:
 2538              	.L197:
 336:quantum/rgblight/rgblight.c ****     }
 2539              		.loc 1 336 9 is_stmt 1 view .LVU517
 338:quantum/rgblight/rgblight.c ****         rgblight_timer_disable();
 2540              		.loc 1 338 5 view .LVU518
 341:quantum/rgblight/rgblight.c ****     }
 2541              		.loc 1 341 32 view .LVU519
 346:quantum/rgblight/rgblight.c **** }
 2542              		.loc 1 346 5 view .LVU520
 2543 002c E278     		ldrb	r2, [r4, #3]	@ zero_extendqisi2
 2544 002e A178     		ldrb	r1, [r4, #2]	@ zero_extendqisi2
 2545 0030 6078     		ldrb	r0, [r4, #1]	@ zero_extendqisi2
 2546              	.LBE88:
 2547              	.LBE87:
 347:quantum/rgblight/rgblight.c **** 
 2548              		.loc 1 347 1 is_stmt 0 view .LVU521
 2549 0032 BDE83840 		pop	{r3, r4, r5, lr}
 2550              		.cfi_remember_state
 2551              		.cfi_restore 14
 2552              		.cfi_restore 5
 2553              		.cfi_restore 4
 2554              		.cfi_restore 3
 2555              		.cfi_def_cfa_offset 0
 2556              	.LBB90:
 2557              	.LBB89:
 346:quantum/rgblight/rgblight.c **** }
 2558              		.loc 1 346 5 view .LVU522
 2559 0036 FFF7FEBF 		b	rgblight_sethsv_noeeprom
 2560              	.LVL128:
 2561              	.L195:
 2562              		.cfi_restore_state
 336:quantum/rgblight/rgblight.c ****     }
 2563              		.loc 1 336 9 is_stmt 1 view .LVU523
 336:quantum/rgblight/rgblight.c ****     }
 2564              		.loc 1 336 9 view .LVU524
 2565 003a 2B78     		ldrb	r3, [r5]	@ zero_extendqisi2
 2566 003c DB07     		lsls	r3, r3, #31
 2567 003e F5D5     		bpl	.L197
 336:quantum/rgblight/rgblight.c ****     }
 2568              		.loc 1 336 9 view .LVU525
 2569 0040 0448     		ldr	r0, .L203+12
 2570 0042 1146     		mov	r1, r2
 2571              	.LVL129:
 336:quantum/rgblight/rgblight.c ****     }
 2572              		.loc 1 336 9 is_stmt 0 view .LVU526
 2573 0044 F0E7     		b	.L202
 2574              	.LVL130:
 2575              	.L193:
 336:quantum/rgblight/rgblight.c ****     }
 2576              		.loc 1 336 9 view .LVU527
 2577              	.LBE89:
 2578              	.LBE90:
 347:quantum/rgblight/rgblight.c **** 
 2579              		.loc 1 347 1 view .LVU528
 2580 0046 38BD     		pop	{r3, r4, r5, pc}
 2581              	.L204:
 2582              		.align	2
 2583              	.L203:
 2584 0048 00000000 		.word	rgblight_config
 2585 004c 00000000 		.word	debug_config
 2586 0050 00000000 		.word	.LC13
 2587 0054 1C000000 		.word	.LC14
 2588              		.cfi_endproc
 2589              	.LFE429:
 2591              		.section	.text.rgblight_step_helper,"ax",%progbits
 2592              		.align	1
 2593              		.global	rgblight_step_helper
 2594              		.syntax unified
 2595              		.thumb
 2596              		.thumb_func
 2597              		.fpu fpv4-sp-d16
 2599              	rgblight_step_helper:
 2600              	.LVL131:
 2601              	.LFB422:
 291:quantum/rgblight/rgblight.c ****     uint8_t mode = 0;
 2602              		.loc 1 291 49 is_stmt 1 view -0
 2603              		.cfi_startproc
 2604              		@ args = 0, pretend = 0, frame = 0
 2605              		@ frame_needed = 0, uses_anonymous_args = 0
 2606              		@ link register save eliminated.
 292:quantum/rgblight/rgblight.c ****     mode         = rgblight_config.mode + 1;
 2607              		.loc 1 292 5 view .LVU530
 293:quantum/rgblight/rgblight.c ****     if (mode > RGBLIGHT_MODES) {
 2608              		.loc 1 293 5 view .LVU531
 294:quantum/rgblight/rgblight.c ****         mode = 1;
 2609              		.loc 1 294 5 view .LVU532
 297:quantum/rgblight/rgblight.c **** }
 2610              		.loc 1 297 5 view .LVU533
 291:quantum/rgblight/rgblight.c ****     uint8_t mode = 0;
 2611              		.loc 1 291 49 is_stmt 0 view .LVU534
 2612 0000 0146     		mov	r1, r0
 297:quantum/rgblight/rgblight.c **** }
 2613              		.loc 1 297 5 view .LVU535
 2614 0002 0120     		movs	r0, #1
 2615              	.LVL132:
 297:quantum/rgblight/rgblight.c **** }
 2616              		.loc 1 297 5 view .LVU536
 2617 0004 FFF7FEBF 		b	rgblight_mode_eeprom_helper
 2618              	.LVL133:
 2619              		.cfi_endproc
 2620              	.LFE422:
 2622              		.section	.text.rgblight_step_noeeprom,"ax",%progbits
 2623              		.align	1
 2624              		.global	rgblight_step_noeeprom
 2625              		.syntax unified
 2626              		.thumb
 2627              		.thumb_func
 2628              		.fpu fpv4-sp-d16
 2630              	rgblight_step_noeeprom:
 2631              	.LFB423:
 299:quantum/rgblight/rgblight.c **** void rgblight_step(void) { rgblight_step_helper(true); }
 2632              		.loc 1 299 35 is_stmt 1 view -0
 2633              		.cfi_startproc
 2634              		@ args = 0, pretend = 0, frame = 0
 2635              		@ frame_needed = 0, uses_anonymous_args = 0
 2636              		@ link register save eliminated.
 299:quantum/rgblight/rgblight.c **** void rgblight_step(void) { rgblight_step_helper(true); }
 2637              		.loc 1 299 37 view .LVU538
 2638 0000 0020     		movs	r0, #0
 2639 0002 FFF7FEBF 		b	rgblight_step_helper
 2640              	.LVL134:
 2641              		.cfi_endproc
 2642              	.LFE423:
 2644              		.section	.text.rgblight_step,"ax",%progbits
 2645              		.align	1
 2646              		.global	rgblight_step
 2647              		.syntax unified
 2648              		.thumb
 2649              		.thumb_func
 2650              		.fpu fpv4-sp-d16
 2652              	rgblight_step:
 2653              	.LFB424:
 300:quantum/rgblight/rgblight.c **** void rgblight_step_reverse_helper(bool write_to_eeprom) {
 2654              		.loc 1 300 26 view -0
 2655              		.cfi_startproc
 2656              		@ args = 0, pretend = 0, frame = 0
 2657              		@ frame_needed = 0, uses_anonymous_args = 0
 2658              		@ link register save eliminated.
 300:quantum/rgblight/rgblight.c **** void rgblight_step_reverse_helper(bool write_to_eeprom) {
 2659              		.loc 1 300 28 view .LVU540
 2660 0000 0120     		movs	r0, #1
 2661 0002 FFF7FEBF 		b	rgblight_step_helper
 2662              	.LVL135:
 2663              		.cfi_endproc
 2664              	.LFE424:
 2666              		.section	.text.rgblight_step_reverse_helper,"ax",%progbits
 2667              		.align	1
 2668              		.global	rgblight_step_reverse_helper
 2669              		.syntax unified
 2670              		.thumb
 2671              		.thumb_func
 2672              		.fpu fpv4-sp-d16
 2674              	rgblight_step_reverse_helper:
 2675              	.LVL136:
 2676              	.LFB425:
 301:quantum/rgblight/rgblight.c ****     uint8_t mode = 0;
 2677              		.loc 1 301 57 view -0
 2678              		.cfi_startproc
 2679              		@ args = 0, pretend = 0, frame = 0
 2680              		@ frame_needed = 0, uses_anonymous_args = 0
 2681              		@ link register save eliminated.
 302:quantum/rgblight/rgblight.c ****     mode         = rgblight_config.mode - 1;
 2682              		.loc 1 302 5 view .LVU542
 303:quantum/rgblight/rgblight.c ****     if (mode < 1) {
 2683              		.loc 1 303 5 view .LVU543
 304:quantum/rgblight/rgblight.c ****         mode = RGBLIGHT_MODES;
 2684              		.loc 1 304 5 view .LVU544
 307:quantum/rgblight/rgblight.c **** }
 2685              		.loc 1 307 5 view .LVU545
 303:quantum/rgblight/rgblight.c ****     if (mode < 1) {
 2686              		.loc 1 303 35 is_stmt 0 view .LVU546
 2687 0000 054B     		ldr	r3, .L209
 2688              	.LVL137:
 303:quantum/rgblight/rgblight.c ****     if (mode < 1) {
 2689              		.loc 1 303 35 view .LVU547
 2690 0002 1B78     		ldrb	r3, [r3]	@ zero_extendqisi2
 2691              	.LVL138:
 303:quantum/rgblight/rgblight.c ****     if (mode < 1) {
 2692              		.loc 1 303 35 view .LVU548
 2693 0004 C3F34603 		ubfx	r3, r3, #1, #7
 303:quantum/rgblight/rgblight.c ****     if (mode < 1) {
 2694              		.loc 1 303 18 view .LVU549
 2695 0008 013B     		subs	r3, r3, #1
 301:quantum/rgblight/rgblight.c ****     uint8_t mode = 0;
 2696              		.loc 1 301 57 view .LVU550
 2697 000a 0146     		mov	r1, r0
 307:quantum/rgblight/rgblight.c **** }
 2698              		.loc 1 307 5 view .LVU551
 2699 000c D8B2     		uxtb	r0, r3
 2700              	.LVL139:
 307:quantum/rgblight/rgblight.c **** }
 2701              		.loc 1 307 5 view .LVU552
 2702 000e 0128     		cmp	r0, #1
 2703 0010 38BF     		it	cc
 2704 0012 0120     		movcc	r0, #1
 2705 0014 FFF7FEBF 		b	rgblight_mode_eeprom_helper
 2706              	.LVL140:
 2707              	.L210:
 307:quantum/rgblight/rgblight.c **** }
 2708              		.loc 1 307 5 view .LVU553
 2709              		.align	2
 2710              	.L209:
 2711 0018 00000000 		.word	rgblight_config
 2712              		.cfi_endproc
 2713              	.LFE425:
 2715              		.section	.text.rgblight_step_reverse_noeeprom,"ax",%progbits
 2716              		.align	1
 2717              		.global	rgblight_step_reverse_noeeprom
 2718              		.syntax unified
 2719              		.thumb
 2720              		.thumb_func
 2721              		.fpu fpv4-sp-d16
 2723              	rgblight_step_reverse_noeeprom:
 2724              	.LFB426:
 309:quantum/rgblight/rgblight.c **** void rgblight_step_reverse(void) { rgblight_step_reverse_helper(true); }
 2725              		.loc 1 309 43 is_stmt 1 view -0
 2726              		.cfi_startproc
 2727              		@ args = 0, pretend = 0, frame = 0
 2728              		@ frame_needed = 0, uses_anonymous_args = 0
 2729              		@ link register save eliminated.
 309:quantum/rgblight/rgblight.c **** void rgblight_step_reverse(void) { rgblight_step_reverse_helper(true); }
 2730              		.loc 1 309 45 view .LVU555
 2731 0000 0020     		movs	r0, #0
 2732 0002 FFF7FEBF 		b	rgblight_step_reverse_helper
 2733              	.LVL141:
 2734              		.cfi_endproc
 2735              	.LFE426:
 2737              		.section	.text.rgblight_step_reverse,"ax",%progbits
 2738              		.align	1
 2739              		.global	rgblight_step_reverse
 2740              		.syntax unified
 2741              		.thumb
 2742              		.thumb_func
 2743              		.fpu fpv4-sp-d16
 2745              	rgblight_step_reverse:
 2746              	.LFB427:
 310:quantum/rgblight/rgblight.c **** 
 2747              		.loc 1 310 34 view -0
 2748              		.cfi_startproc
 2749              		@ args = 0, pretend = 0, frame = 0
 2750              		@ frame_needed = 0, uses_anonymous_args = 0
 2751              		@ link register save eliminated.
 310:quantum/rgblight/rgblight.c **** 
 2752              		.loc 1 310 36 view .LVU557
 2753 0000 0120     		movs	r0, #1
 2754 0002 FFF7FEBF 		b	rgblight_step_reverse_helper
 2755              	.LVL142:
 2756              		.cfi_endproc
 2757              	.LFE427:
 2759              		.section	.text.rgblight_mode,"ax",%progbits
 2760              		.align	1
 2761              		.global	rgblight_mode
 2762              		.syntax unified
 2763              		.thumb
 2764              		.thumb_func
 2765              		.fpu fpv4-sp-d16
 2767              	rgblight_mode:
 2768              	.LVL143:
 2769              	.LFB430:
 349:quantum/rgblight/rgblight.c **** 
 2770              		.loc 1 349 34 view -0
 2771              		.cfi_startproc
 2772              		@ args = 0, pretend = 0, frame = 0
 2773              		@ frame_needed = 0, uses_anonymous_args = 0
 2774              		@ link register save eliminated.
 349:quantum/rgblight/rgblight.c **** 
 2775              		.loc 1 349 36 view .LVU559
 2776 0000 0121     		movs	r1, #1
 2777 0002 FFF7FEBF 		b	rgblight_mode_eeprom_helper
 2778              	.LVL144:
 349:quantum/rgblight/rgblight.c **** 
 2779              		.loc 1 349 36 is_stmt 0 view .LVU560
 2780              		.cfi_endproc
 2781              	.LFE430:
 2783              		.section	.text.rgblight_increase,"ax",%progbits
 2784              		.align	1
 2785              		.global	rgblight_increase
 2786              		.syntax unified
 2787              		.thumb
 2788              		.thumb_func
 2789              		.fpu fpv4-sp-d16
 2791              	rgblight_increase:
 2792              	.LFB420:
 276:quantum/rgblight/rgblight.c ****     uint8_t mode = 0;
 2793              		.loc 1 276 30 is_stmt 1 view -0
 2794              		.cfi_startproc
 2795              		@ args = 0, pretend = 0, frame = 0
 2796              		@ frame_needed = 0, uses_anonymous_args = 0
 2797              		@ link register save eliminated.
 277:quantum/rgblight/rgblight.c ****     if (rgblight_config.mode < RGBLIGHT_MODES) {
 2798              		.loc 1 277 5 view .LVU562
 2799              	.LVL145:
 278:quantum/rgblight/rgblight.c ****         mode = rgblight_config.mode + 1;
 2800              		.loc 1 278 5 view .LVU563
 278:quantum/rgblight/rgblight.c ****         mode = rgblight_config.mode + 1;
 2801              		.loc 1 278 30 is_stmt 0 view .LVU564
 2802 0000 044B     		ldr	r3, .L217
 2803 0002 1878     		ldrb	r0, [r3]	@ zero_extendqisi2
 278:quantum/rgblight/rgblight.c ****         mode = rgblight_config.mode + 1;
 2804              		.loc 1 278 8 view .LVU565
 2805 0004 10F0FE0F 		tst	r0, #254
 279:quantum/rgblight/rgblight.c ****     }
 2806              		.loc 1 279 9 is_stmt 1 view .LVU566
 279:quantum/rgblight/rgblight.c ****     }
 2807              		.loc 1 279 14 is_stmt 0 view .LVU567
 2808 0008 06BF     		itte	eq
 2809 000a 4008     		lsreq	r0, r0, #1
 2810 000c 0130     		addeq	r0, r0, #1
 2811              	.LVL146:
 277:quantum/rgblight/rgblight.c ****     if (rgblight_config.mode < RGBLIGHT_MODES) {
 2812              		.loc 1 277 13 view .LVU568
 2813 000e 0020     		movne	r0, #0
 2814              	.LVL147:
 281:quantum/rgblight/rgblight.c **** }
 2815              		.loc 1 281 5 is_stmt 1 view .LVU569
 2816 0010 FFF7FEBF 		b	rgblight_mode
 2817              	.LVL148:
 2818              	.L218:
 281:quantum/rgblight/rgblight.c **** }
 2819              		.loc 1 281 5 is_stmt 0 view .LVU570
 2820              		.align	2
 2821              	.L217:
 2822 0014 00000000 		.word	rgblight_config
 2823              		.cfi_endproc
 2824              	.LFE420:
 2826              		.section	.text.rgblight_decrease,"ax",%progbits
 2827              		.align	1
 2828              		.global	rgblight_decrease
 2829              		.syntax unified
 2830              		.thumb
 2831              		.thumb_func
 2832              		.fpu fpv4-sp-d16
 2834              	rgblight_decrease:
 2835              	.LFB421:
 283:quantum/rgblight/rgblight.c ****     uint8_t mode = 0;
 2836              		.loc 1 283 30 is_stmt 1 view -0
 2837              		.cfi_startproc
 2838              		@ args = 0, pretend = 0, frame = 0
 2839              		@ frame_needed = 0, uses_anonymous_args = 0
 2840              		@ link register save eliminated.
 284:quantum/rgblight/rgblight.c ****     // Mode will never be < 1. If it ever is, eeprom needs to be initialized.
 2841              		.loc 1 284 5 view .LVU572
 2842              	.LVL149:
 286:quantum/rgblight/rgblight.c ****         mode = rgblight_config.mode - 1;
 2843              		.loc 1 286 5 view .LVU573
 286:quantum/rgblight/rgblight.c ****         mode = rgblight_config.mode - 1;
 2844              		.loc 1 286 24 is_stmt 0 view .LVU574
 2845 0000 054B     		ldr	r3, .L222
 2846 0002 1B78     		ldrb	r3, [r3]	@ zero_extendqisi2
 2847 0004 5808     		lsrs	r0, r3, #1
 286:quantum/rgblight/rgblight.c ****         mode = rgblight_config.mode - 1;
 2848              		.loc 1 286 8 view .LVU575
 2849 0006 032B     		cmp	r3, #3
 287:quantum/rgblight/rgblight.c ****     }
 2850              		.loc 1 287 9 is_stmt 1 view .LVU576
 287:quantum/rgblight/rgblight.c ****     }
 2851              		.loc 1 287 14 is_stmt 0 view .LVU577
 2852 0008 86BF     		itte	hi
 2853 000a 00F1FF30 		addhi	r0, r0, #-1
 2854 000e C0B2     		uxtbhi	r0, r0
 2855              	.LVL150:
 284:quantum/rgblight/rgblight.c ****     // Mode will never be < 1. If it ever is, eeprom needs to be initialized.
 2856              		.loc 1 284 13 view .LVU578
 2857 0010 0020     		movls	r0, #0
 2858              	.LVL151:
 289:quantum/rgblight/rgblight.c **** }
 2859              		.loc 1 289 5 is_stmt 1 view .LVU579
 2860 0012 FFF7FEBF 		b	rgblight_mode
 2861              	.LVL152:
 2862              	.L223:
 289:quantum/rgblight/rgblight.c **** }
 2863              		.loc 1 289 5 is_stmt 0 view .LVU580
 2864 0016 00BF     		.align	2
 2865              	.L222:
 2866 0018 00000000 		.word	rgblight_config
 2867              		.cfi_endproc
 2868              	.LFE421:
 2870              		.section	.rodata.rgblight_enable.str1.1,"aMS",%progbits,1
 2871              	.LC15:
 2872 0000 7267626C 		.ascii	"rgblight enable [EEPROM]: rgblight_config.enable = "
 2872      69676874 
 2872      20656E61 
 2872      626C6520 
 2872      5B454550 
 2873 0033 25750A00 		.ascii	"%u\012\000"
 2874              		.section	.text.rgblight_enable,"ax",%progbits
 2875              		.align	1
 2876              		.global	rgblight_enable
 2877              		.syntax unified
 2878              		.thumb
 2879              		.thumb_func
 2880              		.fpu fpv4-sp-d16
 2882              	rgblight_enable:
 2883              	.LFB434:
 371:quantum/rgblight/rgblight.c ****     rgblight_config.enable = 1;
 2884              		.loc 1 371 28 is_stmt 1 view -0
 2885              		.cfi_startproc
 2886              		@ args = 0, pretend = 0, frame = 0
 2887              		@ frame_needed = 0, uses_anonymous_args = 0
 372:quantum/rgblight/rgblight.c ****     // No need to update EEPROM here. rgblight_mode() will do that, actually
 2888              		.loc 1 372 5 view .LVU582
 371:quantum/rgblight/rgblight.c ****     rgblight_config.enable = 1;
 2889              		.loc 1 371 28 is_stmt 0 view .LVU583
 2890 0000 10B5     		push	{r4, lr}
 2891              		.cfi_def_cfa_offset 8
 2892              		.cfi_offset 4, -8
 2893              		.cfi_offset 14, -4
 372:quantum/rgblight/rgblight.c ****     // No need to update EEPROM here. rgblight_mode() will do that, actually
 2894              		.loc 1 372 28 view .LVU584
 2895 0002 094C     		ldr	r4, .L229
 2896 0004 2378     		ldrb	r3, [r4]	@ zero_extendqisi2
 2897 0006 43F00103 		orr	r3, r3, #1
 2898 000a 2370     		strb	r3, [r4]
 375:quantum/rgblight/rgblight.c ****     rgblight_mode(rgblight_config.mode);
 2899              		.loc 1 375 5 is_stmt 1 view .LVU585
 375:quantum/rgblight/rgblight.c ****     rgblight_mode(rgblight_config.mode);
 2900              		.loc 1 375 5 view .LVU586
 2901 000c 074B     		ldr	r3, .L229+4
 2902 000e 1B78     		ldrb	r3, [r3]	@ zero_extendqisi2
 2903 0010 DB07     		lsls	r3, r3, #31
 2904 0012 03D5     		bpl	.L225
 375:quantum/rgblight/rgblight.c ****     rgblight_mode(rgblight_config.mode);
 2905              		.loc 1 375 5 discriminator 1 view .LVU587
 2906 0014 0648     		ldr	r0, .L229+8
 2907 0016 0121     		movs	r1, #1
 2908 0018 FFF7FEFF 		bl	printf_
 2909              	.LVL153:
 2910              	.L225:
 375:quantum/rgblight/rgblight.c ****     rgblight_mode(rgblight_config.mode);
 2911              		.loc 1 375 5 discriminator 3 view .LVU588
 376:quantum/rgblight/rgblight.c **** }
 2912              		.loc 1 376 5 discriminator 3 view .LVU589
 376:quantum/rgblight/rgblight.c **** }
 2913              		.loc 1 376 34 is_stmt 0 discriminator 3 view .LVU590
 2914 001c 2078     		ldrb	r0, [r4]	@ zero_extendqisi2
 377:quantum/rgblight/rgblight.c **** 
 2915              		.loc 1 377 1 discriminator 3 view .LVU591
 2916 001e BDE81040 		pop	{r4, lr}
 2917              		.cfi_restore 14
 2918              		.cfi_restore 4
 2919              		.cfi_def_cfa_offset 0
 376:quantum/rgblight/rgblight.c **** }
 2920              		.loc 1 376 5 discriminator 3 view .LVU592
 2921 0022 4008     		lsrs	r0, r0, #1
 2922 0024 FFF7FEBF 		b	rgblight_mode
 2923              	.LVL154:
 2924              	.L230:
 2925              		.align	2
 2926              	.L229:
 2927 0028 00000000 		.word	rgblight_config
 2928 002c 00000000 		.word	debug_config
 2929 0030 00000000 		.word	.LC15
 2930              		.cfi_endproc
 2931              	.LFE434:
 2933              		.section	.rodata.rgblight_toggle.str1.1,"aMS",%progbits,1
 2934              	.LC16:
 2935 0000 7267626C 		.ascii	"rgblight toggle [EEPROM]: rgblight_config.enable = "
 2935      69676874 
 2935      20746F67 
 2935      676C6520 
 2935      5B454550 
 2936 0033 25750A00 		.ascii	"%u\012\000"
 2937              		.section	.text.rgblight_toggle,"ax",%progbits
 2938              		.align	1
 2939              		.global	rgblight_toggle
 2940              		.syntax unified
 2941              		.thumb
 2942              		.thumb_func
 2943              		.fpu fpv4-sp-d16
 2945              	rgblight_toggle:
 2946              	.LFB432:
 353:quantum/rgblight/rgblight.c ****     dprintf("rgblight toggle [EEPROM]: rgblight_config.enable = %u\n", !rgblight_config.enable);
 2947              		.loc 1 353 28 is_stmt 1 view -0
 2948              		.cfi_startproc
 2949              		@ args = 0, pretend = 0, frame = 0
 2950              		@ frame_needed = 0, uses_anonymous_args = 0
 354:quantum/rgblight/rgblight.c ****     if (rgblight_config.enable) {
 2951              		.loc 1 354 5 view .LVU594
 354:quantum/rgblight/rgblight.c ****     if (rgblight_config.enable) {
 2952              		.loc 1 354 5 view .LVU595
 2953 0000 0C4B     		ldr	r3, .L237
 2954 0002 1B78     		ldrb	r3, [r3]	@ zero_extendqisi2
 2955 0004 13F0010F 		tst	r3, #1
 353:quantum/rgblight/rgblight.c ****     dprintf("rgblight toggle [EEPROM]: rgblight_config.enable = %u\n", !rgblight_config.enable);
 2956              		.loc 1 353 28 is_stmt 0 view .LVU596
 2957 0008 10B5     		push	{r4, lr}
 2958              		.cfi_def_cfa_offset 8
 2959              		.cfi_offset 4, -8
 2960              		.cfi_offset 14, -4
 2961 000a 0B4C     		ldr	r4, .L237+4
 354:quantum/rgblight/rgblight.c ****     if (rgblight_config.enable) {
 2962              		.loc 1 354 5 view .LVU597
 2963 000c 06D0     		beq	.L232
 354:quantum/rgblight/rgblight.c ****     if (rgblight_config.enable) {
 2964              		.loc 1 354 5 is_stmt 1 discriminator 1 view .LVU598
 2965 000e 2178     		ldrb	r1, [r4]	@ zero_extendqisi2
 2966 0010 0A48     		ldr	r0, .L237+8
 2967 0012 C943     		mvns	r1, r1
 2968 0014 01F00101 		and	r1, r1, #1
 2969 0018 FFF7FEFF 		bl	printf_
 2970              	.LVL155:
 2971              	.L232:
 354:quantum/rgblight/rgblight.c ****     if (rgblight_config.enable) {
 2972              		.loc 1 354 5 discriminator 3 view .LVU599
 355:quantum/rgblight/rgblight.c ****         rgblight_disable();
 2973              		.loc 1 355 5 discriminator 3 view .LVU600
 355:quantum/rgblight/rgblight.c ****         rgblight_disable();
 2974              		.loc 1 355 9 is_stmt 0 discriminator 3 view .LVU601
 2975 001c 2378     		ldrb	r3, [r4]	@ zero_extendqisi2
 355:quantum/rgblight/rgblight.c ****         rgblight_disable();
 2976              		.loc 1 355 8 discriminator 3 view .LVU602
 2977 001e DB07     		lsls	r3, r3, #31
 2978 0020 03D5     		bpl	.L233
 356:quantum/rgblight/rgblight.c ****     } else {
 2979              		.loc 1 356 9 is_stmt 1 view .LVU603
 360:quantum/rgblight/rgblight.c **** 
 2980              		.loc 1 360 1 is_stmt 0 view .LVU604
 2981 0022 BDE81040 		pop	{r4, lr}
 2982              		.cfi_remember_state
 2983              		.cfi_restore 14
 2984              		.cfi_restore 4
 2985              		.cfi_def_cfa_offset 0
 356:quantum/rgblight/rgblight.c ****     } else {
 2986              		.loc 1 356 9 view .LVU605
 2987 0026 FFF7FEBF 		b	rgblight_disable
 2988              	.LVL156:
 2989              	.L233:
 2990              		.cfi_restore_state
 358:quantum/rgblight/rgblight.c ****     }
 2991              		.loc 1 358 9 is_stmt 1 view .LVU606
 360:quantum/rgblight/rgblight.c **** 
 2992              		.loc 1 360 1 is_stmt 0 view .LVU607
 2993 002a BDE81040 		pop	{r4, lr}
 2994              		.cfi_restore 14
 2995              		.cfi_restore 4
 2996              		.cfi_def_cfa_offset 0
 358:quantum/rgblight/rgblight.c ****     }
 2997              		.loc 1 358 9 view .LVU608
 2998 002e FFF7FEBF 		b	rgblight_enable
 2999              	.LVL157:
 3000              	.L238:
 3001 0032 00BF     		.align	2
 3002              	.L237:
 3003 0034 00000000 		.word	debug_config
 3004 0038 00000000 		.word	rgblight_config
 3005 003c 00000000 		.word	.LC16
 3006              		.cfi_endproc
 3007              	.LFE432:
 3009              		.section	.text.rgblight_mode_noeeprom,"ax",%progbits
 3010              		.align	1
 3011              		.global	rgblight_mode_noeeprom
 3012              		.syntax unified
 3013              		.thumb
 3014              		.thumb_func
 3015              		.fpu fpv4-sp-d16
 3017              	rgblight_mode_noeeprom:
 3018              	.LVL158:
 3019              	.LFB431:
 351:quantum/rgblight/rgblight.c **** 
 3020              		.loc 1 351 43 is_stmt 1 view -0
 3021              		.cfi_startproc
 3022              		@ args = 0, pretend = 0, frame = 0
 3023              		@ frame_needed = 0, uses_anonymous_args = 0
 3024              		@ link register save eliminated.
 351:quantum/rgblight/rgblight.c **** 
 3025              		.loc 1 351 45 view .LVU610
 3026 0000 0021     		movs	r1, #0
 3027 0002 FFF7FEBF 		b	rgblight_mode_eeprom_helper
 3028              	.LVL159:
 351:quantum/rgblight/rgblight.c **** 
 3029              		.loc 1 351 45 is_stmt 0 view .LVU611
 3030              		.cfi_endproc
 3031              	.LFE431:
 3033              		.section	.rodata.rgblight_init.str1.1,"aMS",%progbits,1
 3034              	.LC17:
 3035 0000 7267626C 		.ascii	"rgblight_init called.\012\000"
 3035      69676874 
 3035      5F696E69 
 3035      74206361 
 3035      6C6C6564 
 3036              	.LC18:
 3037 0017 7267626C 		.ascii	"rgblight_init start!\012\000"
 3037      69676874 
 3037      5F696E69 
 3037      74207374 
 3037      61727421 
 3038              	.LC19:
 3039 002d 7267626C 		.ascii	"rgblight_init eeconfig is not enabled.\012\000"
 3039      69676874 
 3039      5F696E69 
 3039      74206565 
 3039      636F6E66 
 3040              	.LC20:
 3041 0055 7267626C 		.ascii	"rgblight_init rgblight_config.mode = 0. Write defau"
 3041      69676874 
 3041      5F696E69 
 3041      74207267 
 3041      626C6967 
 3042 0088 6C742076 		.ascii	"lt values to EEPROM.\012\000"
 3042      616C7565 
 3042      7320746F 
 3042      20454550 
 3042      524F4D2E 
 3043              		.section	.text.rgblight_init,"ax",%progbits
 3044              		.align	1
 3045              		.global	rgblight_init
 3046              		.syntax unified
 3047              		.thumb
 3048              		.thumb_func
 3049              		.fpu fpv4-sp-d16
 3051              	rgblight_init:
 3052              	.LFB416:
 217:quantum/rgblight/rgblight.c ****     /* if already initialized, don't do it again.
 3053              		.loc 1 217 26 is_stmt 1 view -0
 3054              		.cfi_startproc
 3055              		@ args = 0, pretend = 0, frame = 0
 3056              		@ frame_needed = 0, uses_anonymous_args = 0
 221:quantum/rgblight/rgblight.c ****         return;
 3057              		.loc 1 221 5 view .LVU613
 217:quantum/rgblight/rgblight.c ****     /* if already initialized, don't do it again.
 3058              		.loc 1 217 26 is_stmt 0 view .LVU614
 3059 0000 70B5     		push	{r4, r5, r6, lr}
 3060              		.cfi_def_cfa_offset 16
 3061              		.cfi_offset 4, -16
 3062              		.cfi_offset 5, -12
 3063              		.cfi_offset 6, -8
 3064              		.cfi_offset 14, -4
 221:quantum/rgblight/rgblight.c ****         return;
 3065              		.loc 1 221 9 view .LVU615
 3066 0002 1E4E     		ldr	r6, .L262
 221:quantum/rgblight/rgblight.c ****         return;
 3067              		.loc 1 221 8 view .LVU616
 3068 0004 3378     		ldrb	r3, [r6]	@ zero_extendqisi2
 3069 0006 002B     		cmp	r3, #0
 3070 0008 37D1     		bne	.L240
 225:quantum/rgblight/rgblight.c ****     dprintf("rgblight_init start!\n");
 3071              		.loc 1 225 5 is_stmt 1 view .LVU617
 225:quantum/rgblight/rgblight.c ****     dprintf("rgblight_init start!\n");
 3072              		.loc 1 225 5 view .LVU618
 3073 000a 1D4C     		ldr	r4, .L262+4
 3074 000c 2378     		ldrb	r3, [r4]	@ zero_extendqisi2
 3075 000e DD07     		lsls	r5, r3, #31
 3076 0010 08D5     		bpl	.L243
 225:quantum/rgblight/rgblight.c ****     dprintf("rgblight_init start!\n");
 3077              		.loc 1 225 5 discriminator 1 view .LVU619
 3078 0012 1C48     		ldr	r0, .L262+8
 3079 0014 FFF7FEFF 		bl	printf_
 3080              	.LVL160:
 225:quantum/rgblight/rgblight.c ****     dprintf("rgblight_init start!\n");
 3081              		.loc 1 225 5 discriminator 1 view .LVU620
 226:quantum/rgblight/rgblight.c ****     if (!eeconfig_is_enabled()) {
 3082              		.loc 1 226 5 discriminator 1 view .LVU621
 226:quantum/rgblight/rgblight.c ****     if (!eeconfig_is_enabled()) {
 3083              		.loc 1 226 5 discriminator 1 view .LVU622
 3084 0018 2378     		ldrb	r3, [r4]	@ zero_extendqisi2
 3085 001a D807     		lsls	r0, r3, #31
 3086 001c 02D5     		bpl	.L243
 226:quantum/rgblight/rgblight.c ****     if (!eeconfig_is_enabled()) {
 3087              		.loc 1 226 5 discriminator 1 view .LVU623
 3088 001e 1A48     		ldr	r0, .L262+12
 3089 0020 FFF7FEFF 		bl	printf_
 3090              	.LVL161:
 3091              	.L243:
 226:quantum/rgblight/rgblight.c ****     if (!eeconfig_is_enabled()) {
 3092              		.loc 1 226 5 discriminator 3 view .LVU624
 227:quantum/rgblight/rgblight.c ****         dprintf("rgblight_init eeconfig is not enabled.\n");
 3093              		.loc 1 227 5 discriminator 3 view .LVU625
 227:quantum/rgblight/rgblight.c ****         dprintf("rgblight_init eeconfig is not enabled.\n");
 3094              		.loc 1 227 10 is_stmt 0 discriminator 3 view .LVU626
 3095 0024 FFF7FEFF 		bl	eeconfig_is_enabled
 3096              	.LVL162:
 227:quantum/rgblight/rgblight.c ****         dprintf("rgblight_init eeconfig is not enabled.\n");
 3097              		.loc 1 227 8 discriminator 3 view .LVU627
 3098 0028 48B9     		cbnz	r0, .L245
 228:quantum/rgblight/rgblight.c ****         eeconfig_init();
 3099              		.loc 1 228 9 is_stmt 1 view .LVU628
 228:quantum/rgblight/rgblight.c ****         eeconfig_init();
 3100              		.loc 1 228 9 view .LVU629
 3101 002a 2378     		ldrb	r3, [r4]	@ zero_extendqisi2
 3102 002c D907     		lsls	r1, r3, #31
 3103 002e 02D5     		bpl	.L246
 228:quantum/rgblight/rgblight.c ****         eeconfig_init();
 3104              		.loc 1 228 9 discriminator 1 view .LVU630
 3105 0030 1648     		ldr	r0, .L262+16
 3106 0032 FFF7FEFF 		bl	printf_
 3107              	.LVL163:
 3108              	.L246:
 228:quantum/rgblight/rgblight.c ****         eeconfig_init();
 3109              		.loc 1 228 9 discriminator 3 view .LVU631
 229:quantum/rgblight/rgblight.c ****         eeconfig_update_rgblight_default();
 3110              		.loc 1 229 9 discriminator 3 view .LVU632
 3111 0036 FFF7FEFF 		bl	eeconfig_init
 3112              	.LVL164:
 230:quantum/rgblight/rgblight.c ****     }
 3113              		.loc 1 230 9 discriminator 3 view .LVU633
 3114 003a FFF7FEFF 		bl	eeconfig_update_rgblight_default
 3115              	.LVL165:
 3116              	.L245:
 232:quantum/rgblight/rgblight.c ****     RGBLIGHT_SPLIT_SET_CHANGE_MODEHSVS;
 3117              		.loc 1 232 5 view .LVU634
 232:quantum/rgblight/rgblight.c ****     RGBLIGHT_SPLIT_SET_CHANGE_MODEHSVS;
 3118              		.loc 1 232 27 is_stmt 0 view .LVU635
 3119 003e FFF7FEFF 		bl	eeconfig_read_rgblight
 3120              	.LVL166:
 232:quantum/rgblight/rgblight.c ****     RGBLIGHT_SPLIT_SET_CHANGE_MODEHSVS;
 3121              		.loc 1 232 25 view .LVU636
 3122 0042 134D     		ldr	r5, .L262+20
 234:quantum/rgblight/rgblight.c ****         dprintf("rgblight_init rgblight_config.mode = 0. Write default values to EEPROM.\n");
 3123              		.loc 1 234 8 view .LVU637
 3124 0044 10F0FE0F 		tst	r0, #254
 232:quantum/rgblight/rgblight.c ****     RGBLIGHT_SPLIT_SET_CHANGE_MODEHSVS;
 3125              		.loc 1 232 25 view .LVU638
 3126 0048 2860     		str	r0, [r5]
 233:quantum/rgblight/rgblight.c ****     if (!rgblight_config.mode) {
 3127              		.loc 1 233 39 is_stmt 1 view .LVU639
 234:quantum/rgblight/rgblight.c ****         dprintf("rgblight_init rgblight_config.mode = 0. Write default values to EEPROM.\n");
 3128              		.loc 1 234 5 view .LVU640
 234:quantum/rgblight/rgblight.c ****         dprintf("rgblight_init rgblight_config.mode = 0. Write default values to EEPROM.\n");
 3129              		.loc 1 234 8 is_stmt 0 view .LVU641
 3130 004a 0AD1     		bne	.L247
 235:quantum/rgblight/rgblight.c ****         eeconfig_update_rgblight_default();
 3131              		.loc 1 235 9 is_stmt 1 view .LVU642
 235:quantum/rgblight/rgblight.c ****         eeconfig_update_rgblight_default();
 3132              		.loc 1 235 9 view .LVU643
 3133 004c 2378     		ldrb	r3, [r4]	@ zero_extendqisi2
 3134 004e DA07     		lsls	r2, r3, #31
 3135 0050 02D5     		bpl	.L248
 235:quantum/rgblight/rgblight.c ****         eeconfig_update_rgblight_default();
 3136              		.loc 1 235 9 discriminator 1 view .LVU644
 3137 0052 1048     		ldr	r0, .L262+24
 3138 0054 FFF7FEFF 		bl	printf_
 3139              	.LVL167:
 3140              	.L248:
 235:quantum/rgblight/rgblight.c ****         eeconfig_update_rgblight_default();
 3141              		.loc 1 235 9 discriminator 3 view .LVU645
 236:quantum/rgblight/rgblight.c ****         rgblight_config.raw = eeconfig_read_rgblight();
 3142              		.loc 1 236 9 discriminator 3 view .LVU646
 3143 0058 FFF7FEFF 		bl	eeconfig_update_rgblight_default
 3144              	.LVL168:
 237:quantum/rgblight/rgblight.c ****     }
 3145              		.loc 1 237 9 discriminator 3 view .LVU647
 237:quantum/rgblight/rgblight.c ****     }
 3146              		.loc 1 237 31 is_stmt 0 discriminator 3 view .LVU648
 3147 005c FFF7FEFF 		bl	eeconfig_read_rgblight
 3148              	.LVL169:
 237:quantum/rgblight/rgblight.c ****     }
 3149              		.loc 1 237 29 discriminator 3 view .LVU649
 3150 0060 2860     		str	r0, [r5]
 3151              	.L247:
 239:quantum/rgblight/rgblight.c **** 
 3152              		.loc 1 239 5 is_stmt 1 view .LVU650
 3153 0062 FFF7FEFF 		bl	rgblight_check_config
 3154              	.LVL170:
 241:quantum/rgblight/rgblight.c **** 
 3155              		.loc 1 241 5 view .LVU651
 3156 0066 FFF7FEFF 		bl	eeconfig_debug_rgblight
 3157              	.LVL171:
 243:quantum/rgblight/rgblight.c **** 
 3158              		.loc 1 243 26 view .LVU652
 245:quantum/rgblight/rgblight.c ****         rgblight_mode_noeeprom(rgblight_config.mode);
 3159              		.loc 1 245 5 view .LVU653
 245:quantum/rgblight/rgblight.c ****         rgblight_mode_noeeprom(rgblight_config.mode);
 3160              		.loc 1 245 9 is_stmt 0 view .LVU654
 3161 006a 2878     		ldrb	r0, [r5]	@ zero_extendqisi2
 245:quantum/rgblight/rgblight.c ****         rgblight_mode_noeeprom(rgblight_config.mode);
 3162              		.loc 1 245 8 view .LVU655
 3163 006c C307     		lsls	r3, r0, #31
 3164 006e 02D5     		bpl	.L249
 246:quantum/rgblight/rgblight.c ****     }
 3165              		.loc 1 246 9 is_stmt 1 view .LVU656
 3166 0070 4008     		lsrs	r0, r0, #1
 3167 0072 FFF7FEFF 		bl	rgblight_mode_noeeprom
 3168              	.LVL172:
 3169              	.L249:
 249:quantum/rgblight/rgblight.c **** }
 3170              		.loc 1 249 5 view .LVU657
 249:quantum/rgblight/rgblight.c **** }
 3171              		.loc 1 249 29 is_stmt 0 view .LVU658
 3172 0076 0123     		movs	r3, #1
 3173 0078 3370     		strb	r3, [r6]
 3174              	.L240:
 250:quantum/rgblight/rgblight.c **** 
 3175              		.loc 1 250 1 view .LVU659
 3176 007a 70BD     		pop	{r4, r5, r6, pc}
 3177              	.L263:
 3178              		.align	2
 3179              	.L262:
 3180 007c 00000000 		.word	.LANCHOR3
 3181 0080 00000000 		.word	debug_config
 3182 0084 00000000 		.word	.LC17
 3183 0088 17000000 		.word	.LC18
 3184 008c 2D000000 		.word	.LC19
 3185 0090 00000000 		.word	rgblight_config
 3186 0094 55000000 		.word	.LC20
 3187              		.cfi_endproc
 3188              	.LFE416:
 3190              		.section	.text.rgblight_reload_from_eeprom,"ax",%progbits
 3191              		.align	1
 3192              		.global	rgblight_reload_from_eeprom
 3193              		.syntax unified
 3194              		.thumb
 3195              		.thumb_func
 3196              		.fpu fpv4-sp-d16
 3198              	rgblight_reload_from_eeprom:
 3199              	.LFB417:
 252:quantum/rgblight/rgblight.c ****     /* Reset back to what we have in eeprom */
 3200              		.loc 1 252 40 is_stmt 1 view -0
 3201              		.cfi_startproc
 3202              		@ args = 0, pretend = 0, frame = 0
 3203              		@ frame_needed = 0, uses_anonymous_args = 0
 254:quantum/rgblight/rgblight.c ****     RGBLIGHT_SPLIT_SET_CHANGE_MODEHSVS;
 3204              		.loc 1 254 5 view .LVU661
 252:quantum/rgblight/rgblight.c ****     /* Reset back to what we have in eeprom */
 3205              		.loc 1 252 40 is_stmt 0 view .LVU662
 3206 0000 10B5     		push	{r4, lr}
 3207              		.cfi_def_cfa_offset 8
 3208              		.cfi_offset 4, -8
 3209              		.cfi_offset 14, -4
 254:quantum/rgblight/rgblight.c ****     RGBLIGHT_SPLIT_SET_CHANGE_MODEHSVS;
 3210              		.loc 1 254 27 view .LVU663
 3211 0002 FFF7FEFF 		bl	eeconfig_read_rgblight
 3212              	.LVL173:
 254:quantum/rgblight/rgblight.c ****     RGBLIGHT_SPLIT_SET_CHANGE_MODEHSVS;
 3213              		.loc 1 254 25 view .LVU664
 3214 0006 074C     		ldr	r4, .L266
 3215 0008 2060     		str	r0, [r4]
 255:quantum/rgblight/rgblight.c ****     rgblight_check_config();
 3216              		.loc 1 255 39 is_stmt 1 view .LVU665
 256:quantum/rgblight/rgblight.c ****     eeconfig_debug_rgblight();  // display current eeprom values
 3217              		.loc 1 256 5 view .LVU666
 3218 000a FFF7FEFF 		bl	rgblight_check_config
 3219              	.LVL174:
 257:quantum/rgblight/rgblight.c ****     if (rgblight_config.enable) {
 3220              		.loc 1 257 5 view .LVU667
 3221 000e FFF7FEFF 		bl	eeconfig_debug_rgblight
 3222              	.LVL175:
 258:quantum/rgblight/rgblight.c ****         rgblight_mode_noeeprom(rgblight_config.mode);
 3223              		.loc 1 258 5 view .LVU668
 258:quantum/rgblight/rgblight.c ****         rgblight_mode_noeeprom(rgblight_config.mode);
 3224              		.loc 1 258 9 is_stmt 0 view .LVU669
 3225 0012 2078     		ldrb	r0, [r4]	@ zero_extendqisi2
 258:quantum/rgblight/rgblight.c ****         rgblight_mode_noeeprom(rgblight_config.mode);
 3226              		.loc 1 258 8 view .LVU670
 3227 0014 C307     		lsls	r3, r0, #31
 3228 0016 04D5     		bpl	.L264
 259:quantum/rgblight/rgblight.c ****     }
 3229              		.loc 1 259 9 is_stmt 1 view .LVU671
 261:quantum/rgblight/rgblight.c **** 
 3230              		.loc 1 261 1 is_stmt 0 view .LVU672
 3231 0018 BDE81040 		pop	{r4, lr}
 3232              		.cfi_remember_state
 3233              		.cfi_restore 14
 3234              		.cfi_restore 4
 3235              		.cfi_def_cfa_offset 0
 259:quantum/rgblight/rgblight.c ****     }
 3236              		.loc 1 259 9 view .LVU673
 3237 001c 4008     		lsrs	r0, r0, #1
 3238 001e FFF7FEBF 		b	rgblight_mode_noeeprom
 3239              	.LVL176:
 3240              	.L264:
 3241              		.cfi_restore_state
 261:quantum/rgblight/rgblight.c **** 
 3242              		.loc 1 261 1 view .LVU674
 3243 0022 10BD     		pop	{r4, pc}
 3244              	.L267:
 3245              		.align	2
 3246              	.L266:
 3247 0024 00000000 		.word	rgblight_config
 3248              		.cfi_endproc
 3249              	.LFE417:
 3251              		.section	.rodata.rgblight_enable_noeeprom.str1.1,"aMS",%progbits,1
 3252              	.LC21:
 3253 0000 7267626C 		.ascii	"rgblight enable [NOEEPROM]: rgblight_config.enable "
 3253      69676874 
 3253      20656E61 
 3253      626C6520 
 3253      5B4E4F45 
 3254 0033 3D202575 		.ascii	"= %u\012\000"
 3254      0A00
 3255              		.section	.text.rgblight_enable_noeeprom,"ax",%progbits
 3256              		.align	1
 3257              		.global	rgblight_enable_noeeprom
 3258              		.syntax unified
 3259              		.thumb
 3260              		.thumb_func
 3261              		.fpu fpv4-sp-d16
 3263              	rgblight_enable_noeeprom:
 3264              	.LFB435:
 379:quantum/rgblight/rgblight.c ****     rgblight_config.enable = 1;
 3265              		.loc 1 379 37 is_stmt 1 view -0
 3266              		.cfi_startproc
 3267              		@ args = 0, pretend = 0, frame = 0
 3268              		@ frame_needed = 0, uses_anonymous_args = 0
 380:quantum/rgblight/rgblight.c ****     dprintf("rgblight enable [NOEEPROM]: rgblight_config.enable = %u\n", rgblight_config.enable);
 3269              		.loc 1 380 5 view .LVU676
 379:quantum/rgblight/rgblight.c ****     rgblight_config.enable = 1;
 3270              		.loc 1 379 37 is_stmt 0 view .LVU677
 3271 0000 10B5     		push	{r4, lr}
 3272              		.cfi_def_cfa_offset 8
 3273              		.cfi_offset 4, -8
 3274              		.cfi_offset 14, -4
 380:quantum/rgblight/rgblight.c ****     dprintf("rgblight enable [NOEEPROM]: rgblight_config.enable = %u\n", rgblight_config.enable);
 3275              		.loc 1 380 28 view .LVU678
 3276 0002 094C     		ldr	r4, .L273
 3277 0004 2378     		ldrb	r3, [r4]	@ zero_extendqisi2
 3278 0006 43F00103 		orr	r3, r3, #1
 3279 000a 2370     		strb	r3, [r4]
 381:quantum/rgblight/rgblight.c ****     rgblight_mode_noeeprom(rgblight_config.mode);
 3280              		.loc 1 381 5 is_stmt 1 view .LVU679
 381:quantum/rgblight/rgblight.c ****     rgblight_mode_noeeprom(rgblight_config.mode);
 3281              		.loc 1 381 5 view .LVU680
 3282 000c 074B     		ldr	r3, .L273+4
 3283 000e 1B78     		ldrb	r3, [r3]	@ zero_extendqisi2
 3284 0010 DB07     		lsls	r3, r3, #31
 3285 0012 03D5     		bpl	.L269
 381:quantum/rgblight/rgblight.c ****     rgblight_mode_noeeprom(rgblight_config.mode);
 3286              		.loc 1 381 5 discriminator 1 view .LVU681
 3287 0014 0648     		ldr	r0, .L273+8
 3288 0016 0121     		movs	r1, #1
 3289 0018 FFF7FEFF 		bl	printf_
 3290              	.LVL177:
 3291              	.L269:
 381:quantum/rgblight/rgblight.c ****     rgblight_mode_noeeprom(rgblight_config.mode);
 3292              		.loc 1 381 5 discriminator 3 view .LVU682
 382:quantum/rgblight/rgblight.c **** }
 3293              		.loc 1 382 5 discriminator 3 view .LVU683
 382:quantum/rgblight/rgblight.c **** }
 3294              		.loc 1 382 43 is_stmt 0 discriminator 3 view .LVU684
 3295 001c 2078     		ldrb	r0, [r4]	@ zero_extendqisi2
 383:quantum/rgblight/rgblight.c **** 
 3296              		.loc 1 383 1 discriminator 3 view .LVU685
 3297 001e BDE81040 		pop	{r4, lr}
 3298              		.cfi_restore 14
 3299              		.cfi_restore 4
 3300              		.cfi_def_cfa_offset 0
 382:quantum/rgblight/rgblight.c **** }
 3301              		.loc 1 382 5 discriminator 3 view .LVU686
 3302 0022 4008     		lsrs	r0, r0, #1
 3303 0024 FFF7FEBF 		b	rgblight_mode_noeeprom
 3304              	.LVL178:
 3305              	.L274:
 3306              		.align	2
 3307              	.L273:
 3308 0028 00000000 		.word	rgblight_config
 3309 002c 00000000 		.word	debug_config
 3310 0030 00000000 		.word	.LC21
 3311              		.cfi_endproc
 3312              	.LFE435:
 3314              		.section	.rodata.rgblight_toggle_noeeprom.str1.1,"aMS",%progbits,1
 3315              	.LC22:
 3316 0000 7267626C 		.ascii	"rgblight toggle [NOEEPROM]: rgblight_config.enable "
 3316      69676874 
 3316      20746F67 
 3316      676C6520 
 3316      5B4E4F45 
 3317 0033 3D202575 		.ascii	"= %u\012\000"
 3317      0A00
 3318              		.section	.text.rgblight_toggle_noeeprom,"ax",%progbits
 3319              		.align	1
 3320              		.global	rgblight_toggle_noeeprom
 3321              		.syntax unified
 3322              		.thumb
 3323              		.thumb_func
 3324              		.fpu fpv4-sp-d16
 3326              	rgblight_toggle_noeeprom:
 3327              	.LFB433:
 362:quantum/rgblight/rgblight.c ****     dprintf("rgblight toggle [NOEEPROM]: rgblight_config.enable = %u\n", !rgblight_config.enable);
 3328              		.loc 1 362 37 is_stmt 1 view -0
 3329              		.cfi_startproc
 3330              		@ args = 0, pretend = 0, frame = 0
 3331              		@ frame_needed = 0, uses_anonymous_args = 0
 363:quantum/rgblight/rgblight.c ****     if (rgblight_config.enable) {
 3332              		.loc 1 363 5 view .LVU688
 363:quantum/rgblight/rgblight.c ****     if (rgblight_config.enable) {
 3333              		.loc 1 363 5 view .LVU689
 3334 0000 0C4B     		ldr	r3, .L281
 3335 0002 1B78     		ldrb	r3, [r3]	@ zero_extendqisi2
 3336 0004 13F0010F 		tst	r3, #1
 362:quantum/rgblight/rgblight.c ****     dprintf("rgblight toggle [NOEEPROM]: rgblight_config.enable = %u\n", !rgblight_config.enable);
 3337              		.loc 1 362 37 is_stmt 0 view .LVU690
 3338 0008 10B5     		push	{r4, lr}
 3339              		.cfi_def_cfa_offset 8
 3340              		.cfi_offset 4, -8
 3341              		.cfi_offset 14, -4
 3342 000a 0B4C     		ldr	r4, .L281+4
 363:quantum/rgblight/rgblight.c ****     if (rgblight_config.enable) {
 3343              		.loc 1 363 5 view .LVU691
 3344 000c 06D0     		beq	.L276
 363:quantum/rgblight/rgblight.c ****     if (rgblight_config.enable) {
 3345              		.loc 1 363 5 is_stmt 1 discriminator 1 view .LVU692
 3346 000e 2178     		ldrb	r1, [r4]	@ zero_extendqisi2
 3347 0010 0A48     		ldr	r0, .L281+8
 3348 0012 C943     		mvns	r1, r1
 3349 0014 01F00101 		and	r1, r1, #1
 3350 0018 FFF7FEFF 		bl	printf_
 3351              	.LVL179:
 3352              	.L276:
 363:quantum/rgblight/rgblight.c ****     if (rgblight_config.enable) {
 3353              		.loc 1 363 5 discriminator 3 view .LVU693
 364:quantum/rgblight/rgblight.c ****         rgblight_disable_noeeprom();
 3354              		.loc 1 364 5 discriminator 3 view .LVU694
 364:quantum/rgblight/rgblight.c ****         rgblight_disable_noeeprom();
 3355              		.loc 1 364 9 is_stmt 0 discriminator 3 view .LVU695
 3356 001c 2378     		ldrb	r3, [r4]	@ zero_extendqisi2
 364:quantum/rgblight/rgblight.c ****         rgblight_disable_noeeprom();
 3357              		.loc 1 364 8 discriminator 3 view .LVU696
 3358 001e DB07     		lsls	r3, r3, #31
 3359 0020 03D5     		bpl	.L277
 365:quantum/rgblight/rgblight.c ****     } else {
 3360              		.loc 1 365 9 is_stmt 1 view .LVU697
 369:quantum/rgblight/rgblight.c **** 
 3361              		.loc 1 369 1 is_stmt 0 view .LVU698
 3362 0022 BDE81040 		pop	{r4, lr}
 3363              		.cfi_remember_state
 3364              		.cfi_restore 14
 3365              		.cfi_restore 4
 3366              		.cfi_def_cfa_offset 0
 365:quantum/rgblight/rgblight.c ****     } else {
 3367              		.loc 1 365 9 view .LVU699
 3368 0026 FFF7FEBF 		b	rgblight_disable_noeeprom
 3369              	.LVL180:
 3370              	.L277:
 3371              		.cfi_restore_state
 367:quantum/rgblight/rgblight.c ****     }
 3372              		.loc 1 367 9 is_stmt 1 view .LVU700
 369:quantum/rgblight/rgblight.c **** 
 3373              		.loc 1 369 1 is_stmt 0 view .LVU701
 3374 002a BDE81040 		pop	{r4, lr}
 3375              		.cfi_restore 14
 3376              		.cfi_restore 4
 3377              		.cfi_def_cfa_offset 0
 367:quantum/rgblight/rgblight.c ****     }
 3378              		.loc 1 367 9 view .LVU702
 3379 002e FFF7FEBF 		b	rgblight_enable_noeeprom
 3380              	.LVL181:
 3381              	.L282:
 3382 0032 00BF     		.align	2
 3383              	.L281:
 3384 0034 00000000 		.word	debug_config
 3385 0038 00000000 		.word	rgblight_config
 3386 003c 00000000 		.word	.LC22
 3387              		.cfi_endproc
 3388              	.LFE433:
 3390              		.section	.text.rgblight_update_dword,"ax",%progbits
 3391              		.align	1
 3392              		.global	rgblight_update_dword
 3393              		.syntax unified
 3394              		.thumb
 3395              		.thumb_func
 3396              		.fpu fpv4-sp-d16
 3398              	rgblight_update_dword:
 3399              	.LVL182:
 3400              	.LFB419:
 265:quantum/rgblight/rgblight.c ****     RGBLIGHT_SPLIT_SET_CHANGE_MODEHSVS;
 3401              		.loc 1 265 44 is_stmt 1 view -0
 3402              		.cfi_startproc
 3403              		@ args = 0, pretend = 0, frame = 0
 3404              		@ frame_needed = 0, uses_anonymous_args = 0
 3405              		@ link register save eliminated.
 266:quantum/rgblight/rgblight.c ****     rgblight_config.raw = dword;
 3406              		.loc 1 266 39 view .LVU704
 267:quantum/rgblight/rgblight.c ****     if (rgblight_config.enable)
 3407              		.loc 1 267 5 view .LVU705
 267:quantum/rgblight/rgblight.c ****     if (rgblight_config.enable)
 3408              		.loc 1 267 25 is_stmt 0 view .LVU706
 3409 0000 044B     		ldr	r3, .L285
 268:quantum/rgblight/rgblight.c ****         rgblight_mode_noeeprom(rgblight_config.mode);
 3410              		.loc 1 268 8 view .LVU707
 3411 0002 C207     		lsls	r2, r0, #31
 267:quantum/rgblight/rgblight.c ****     if (rgblight_config.enable)
 3412              		.loc 1 267 25 view .LVU708
 3413 0004 1860     		str	r0, [r3]
 268:quantum/rgblight/rgblight.c ****         rgblight_mode_noeeprom(rgblight_config.mode);
 3414              		.loc 1 268 5 is_stmt 1 view .LVU709
 268:quantum/rgblight/rgblight.c ****         rgblight_mode_noeeprom(rgblight_config.mode);
 3415              		.loc 1 268 8 is_stmt 0 view .LVU710
 3416 0006 03D5     		bpl	.L284
 269:quantum/rgblight/rgblight.c ****     else {
 3417              		.loc 1 269 9 is_stmt 1 view .LVU711
 269:quantum/rgblight/rgblight.c ****     else {
 3418              		.loc 1 269 47 is_stmt 0 view .LVU712
 3419 0008 1878     		ldrb	r0, [r3]	@ zero_extendqisi2
 3420              	.LVL183:
 269:quantum/rgblight/rgblight.c ****     else {
 3421              		.loc 1 269 9 view .LVU713
 3422 000a 4008     		lsrs	r0, r0, #1
 3423 000c FFF7FEBF 		b	rgblight_mode_noeeprom
 3424              	.LVL184:
 3425              	.L284:
 271:quantum/rgblight/rgblight.c ****         rgblight_set();
 3426              		.loc 1 271 33 is_stmt 1 view .LVU714
 272:quantum/rgblight/rgblight.c ****     }
 3427              		.loc 1 272 9 view .LVU715
 3428 0010 FFF7FEBF 		b	rgblight_set
 3429              	.LVL185:
 3430              	.L286:
 272:quantum/rgblight/rgblight.c ****     }
 3431              		.loc 1 272 9 is_stmt 0 view .LVU716
 3432              		.align	2
 3433              	.L285:
 3434 0014 00000000 		.word	rgblight_config
 3435              		.cfi_endproc
 3436              	.LFE419:
 3438              		.section	.text.rgblight_setrgb_at,"ax",%progbits
 3439              		.align	1
 3440              		.global	rgblight_setrgb_at
 3441              		.syntax unified
 3442              		.thumb
 3443              		.thumb_func
 3444              		.fpu fpv4-sp-d16
 3446              	rgblight_setrgb_at:
 3447              	.LVL186:
 3448              	.LFB476:
 587:quantum/rgblight/rgblight.c ****     if (!rgblight_config.enable || index >= RGBLED_NUM) {
 3449              		.loc 1 587 73 is_stmt 1 view -0
 3450              		.cfi_startproc
 3451              		@ args = 0, pretend = 0, frame = 0
 3452              		@ frame_needed = 0, uses_anonymous_args = 0
 3453              		@ link register save eliminated.
 588:quantum/rgblight/rgblight.c ****         return;
 3454              		.loc 1 588 5 view .LVU718
 587:quantum/rgblight/rgblight.c ****     if (!rgblight_config.enable || index >= RGBLED_NUM) {
 3455              		.loc 1 587 73 is_stmt 0 view .LVU719
 3456 0000 30B4     		push	{r4, r5}
 3457              		.cfi_def_cfa_offset 8
 3458              		.cfi_offset 4, -8
 3459              		.cfi_offset 5, -4
 588:quantum/rgblight/rgblight.c ****         return;
 3460              		.loc 1 588 25 view .LVU720
 3461 0002 094C     		ldr	r4, .L292
 3462 0004 2478     		ldrb	r4, [r4]	@ zero_extendqisi2
 588:quantum/rgblight/rgblight.c ****         return;
 3463              		.loc 1 588 8 view .LVU721
 3464 0006 E407     		lsls	r4, r4, #31
 3465 0008 0BD5     		bpl	.L287
 588:quantum/rgblight/rgblight.c ****         return;
 3466              		.loc 1 588 33 discriminator 1 view .LVU722
 3467 000a 082B     		cmp	r3, #8
 3468 000c 09D8     		bhi	.L287
 592:quantum/rgblight/rgblight.c ****     led[index].g = g;
 3469              		.loc 1 592 5 is_stmt 1 view .LVU723
 592:quantum/rgblight/rgblight.c ****     led[index].g = g;
 3470              		.loc 1 592 18 is_stmt 0 view .LVU724
 3471 000e 074D     		ldr	r5, .L292+4
 3472 0010 03EB4303 		add	r3, r3, r3, lsl #1
 3473              	.LVL187:
 592:quantum/rgblight/rgblight.c ****     led[index].g = g;
 3474              		.loc 1 592 18 view .LVU725
 3475 0014 EC18     		adds	r4, r5, r3
 593:quantum/rgblight/rgblight.c ****     led[index].b = b;
 3476              		.loc 1 593 18 view .LVU726
 3477 0016 E954     		strb	r1, [r5, r3]
 592:quantum/rgblight/rgblight.c ****     led[index].g = g;
 3478              		.loc 1 592 18 view .LVU727
 3479 0018 6070     		strb	r0, [r4, #1]
 593:quantum/rgblight/rgblight.c ****     led[index].b = b;
 3480              		.loc 1 593 5 is_stmt 1 view .LVU728
 594:quantum/rgblight/rgblight.c **** #ifdef RGBW
 3481              		.loc 1 594 5 view .LVU729
 594:quantum/rgblight/rgblight.c **** #ifdef RGBW
 3482              		.loc 1 594 18 is_stmt 0 view .LVU730
 3483 001a A270     		strb	r2, [r4, #2]
 598:quantum/rgblight/rgblight.c **** }
 3484              		.loc 1 598 5 is_stmt 1 view .LVU731
 599:quantum/rgblight/rgblight.c **** 
 3485              		.loc 1 599 1 is_stmt 0 view .LVU732
 3486 001c 30BC     		pop	{r4, r5}
 3487              		.cfi_remember_state
 3488              		.cfi_restore 5
 3489              		.cfi_restore 4
 3490              		.cfi_def_cfa_offset 0
 598:quantum/rgblight/rgblight.c **** }
 3491              		.loc 1 598 5 view .LVU733
 3492 001e FFF7FEBF 		b	rgblight_set
 3493              	.LVL188:
 3494              	.L287:
 3495              		.cfi_restore_state
 599:quantum/rgblight/rgblight.c **** 
 3496              		.loc 1 599 1 view .LVU734
 3497 0022 30BC     		pop	{r4, r5}
 3498              		.cfi_restore 5
 3499              		.cfi_restore 4
 3500              		.cfi_def_cfa_offset 0
 3501 0024 7047     		bx	lr
 3502              	.L293:
 3503 0026 00BF     		.align	2
 3504              	.L292:
 3505 0028 00000000 		.word	rgblight_config
 3506 002c 00000000 		.word	led
 3507              		.cfi_endproc
 3508              	.LFE476:
 3510              		.section	.text.rgblight_sethsv_at,"ax",%progbits
 3511              		.align	1
 3512              		.global	rgblight_sethsv_at
 3513              		.syntax unified
 3514              		.thumb
 3515              		.thumb_func
 3516              		.fpu fpv4-sp-d16
 3518              	rgblight_sethsv_at:
 3519              	.LVL189:
 3520              	.LFB477:
 601:quantum/rgblight/rgblight.c ****     if (!rgblight_config.enable) {
 3521              		.loc 1 601 79 is_stmt 1 view -0
 3522              		.cfi_startproc
 3523              		@ args = 0, pretend = 0, frame = 8
 3524              		@ frame_needed = 0, uses_anonymous_args = 0
 602:quantum/rgblight/rgblight.c ****         return;
 3525              		.loc 1 602 5 view .LVU736
 601:quantum/rgblight/rgblight.c ****     if (!rgblight_config.enable) {
 3526              		.loc 1 601 79 is_stmt 0 view .LVU737
 3527 0000 13B5     		push	{r0, r1, r4, lr}
 3528              		.cfi_def_cfa_offset 16
 3529              		.cfi_offset 4, -8
 3530              		.cfi_offset 14, -4
 601:quantum/rgblight/rgblight.c ****     if (!rgblight_config.enable) {
 3531              		.loc 1 601 79 view .LVU738
 3532 0002 1C46     		mov	r4, r3
 602:quantum/rgblight/rgblight.c ****         return;
 3533              		.loc 1 602 25 view .LVU739
 3534 0004 0A4B     		ldr	r3, .L296
 3535              	.LVL190:
 602:quantum/rgblight/rgblight.c ****         return;
 3536              		.loc 1 602 25 view .LVU740
 3537 0006 1B78     		ldrb	r3, [r3]	@ zero_extendqisi2
 602:quantum/rgblight/rgblight.c ****         return;
 3538              		.loc 1 602 8 view .LVU741
 3539 0008 DB07     		lsls	r3, r3, #31
 3540 000a 0ED5     		bpl	.L294
 606:quantum/rgblight/rgblight.c ****     sethsv(hue, sat, val, &tmp_led);
 3541              		.loc 1 606 5 is_stmt 1 view .LVU742
 607:quantum/rgblight/rgblight.c ****     rgblight_setrgb_at(tmp_led.r, tmp_led.g, tmp_led.b, index);
 3542              		.loc 1 607 5 view .LVU743
 3543              	.LVL191:
 3544              	.LBB91:
 3545              	.LBI91:
 154:quantum/rgblight/rgblight.c **** 
 3546              		.loc 1 154 6 view .LVU744
 3547              	.LBB92:
 154:quantum/rgblight/rgblight.c **** 
 3548              		.loc 1 154 70 view .LVU745
 3549 000c 01AB     		add	r3, sp, #4
 3550              	.LVL192:
 154:quantum/rgblight/rgblight.c **** 
 3551              		.loc 1 154 70 is_stmt 0 view .LVU746
 3552 000e FFF7FEFF 		bl	sethsv_raw
 3553              	.LVL193:
 154:quantum/rgblight/rgblight.c **** 
 3554              		.loc 1 154 70 view .LVU747
 3555              	.LBE92:
 3556              	.LBE91:
 608:quantum/rgblight/rgblight.c **** }
 3557              		.loc 1 608 5 is_stmt 1 view .LVU748
 3558 0012 9DF80620 		ldrb	r2, [sp, #6]	@ zero_extendqisi2
 3559 0016 9DF80410 		ldrb	r1, [sp, #4]	@ zero_extendqisi2
 3560 001a 9DF80500 		ldrb	r0, [sp, #5]	@ zero_extendqisi2
 3561 001e 2346     		mov	r3, r4
 609:quantum/rgblight/rgblight.c **** 
 3562              		.loc 1 609 1 is_stmt 0 view .LVU749
 3563 0020 02B0     		add	sp, sp, #8
 3564              		.cfi_remember_state
 3565              		.cfi_def_cfa_offset 8
 3566              		@ sp needed
 3567 0022 BDE81040 		pop	{r4, lr}
 3568              		.cfi_restore 14
 3569              		.cfi_restore 4
 3570              		.cfi_def_cfa_offset 0
 608:quantum/rgblight/rgblight.c **** }
 3571              		.loc 1 608 5 view .LVU750
 3572 0026 FFF7FEBF 		b	rgblight_setrgb_at
 3573              	.LVL194:
 3574              	.L294:
 3575              		.cfi_restore_state
 609:quantum/rgblight/rgblight.c **** 
 3576              		.loc 1 609 1 view .LVU751
 3577 002a 02B0     		add	sp, sp, #8
 3578              		.cfi_def_cfa_offset 8
 3579              		@ sp needed
 3580 002c 10BD     		pop	{r4, pc}
 3581              	.L297:
 3582 002e 00BF     		.align	2
