   1              		.cpu cortex-m4
   2              		.arch armv7e-m
   3              		.fpu fpv4-sp-d16
   4              		.eabi_attribute 27, 1
   5              		.eabi_attribute 28, 1
   6              		.eabi_attribute 20, 1
   7              		.eabi_attribute 21, 1
   8              		.eabi_attribute 23, 3
   9              		.eabi_attribute 24, 1
  10              		.eabi_attribute 25, 1
  11              		.eabi_attribute 26, 1
  12              		.eabi_attribute 30, 4
  13              		.eabi_attribute 34, 1
  14              		.eabi_attribute 18, 2
  15              		.file	"nullstreams.c"
  16              		.text
  17              	.Ltext0:
  18              		.cfi_sections	.debug_frame
  19              		.file 1 "lib/chibios/os/hal/lib/streams/nullstreams.c"
  20              		.section	.text.writes,"ax",%progbits
  21              		.align	1
  22              		.syntax unified
  23              		.thumb
  24              		.thumb_func
  26              	writes:
  27              	.LVL0:
  28              	.LFB282:
   1:lib/chibios/os/hal/lib/streams/nullstreams.c **** /*
   2:lib/chibios/os/hal/lib/streams/nullstreams.c ****     ChibiOS - Copyright (C) 2006..2018 Giovanni Di Sirio
   3:lib/chibios/os/hal/lib/streams/nullstreams.c **** 
   4:lib/chibios/os/hal/lib/streams/nullstreams.c ****     Licensed under the Apache License, Version 2.0 (the "License");
   5:lib/chibios/os/hal/lib/streams/nullstreams.c ****     you may not use this file except in compliance with the License.
   6:lib/chibios/os/hal/lib/streams/nullstreams.c ****     You may obtain a copy of the License at
   7:lib/chibios/os/hal/lib/streams/nullstreams.c **** 
   8:lib/chibios/os/hal/lib/streams/nullstreams.c ****         http://www.apache.org/licenses/LICENSE-2.0
   9:lib/chibios/os/hal/lib/streams/nullstreams.c **** 
  10:lib/chibios/os/hal/lib/streams/nullstreams.c ****     Unless required by applicable law or agreed to in writing, software
  11:lib/chibios/os/hal/lib/streams/nullstreams.c ****     distributed under the License is distributed on an "AS IS" BASIS,
  12:lib/chibios/os/hal/lib/streams/nullstreams.c ****     WITHOUT WARRANTIES OR CONDITIONS OF ANY KIND, either express or implied.
  13:lib/chibios/os/hal/lib/streams/nullstreams.c ****     See the License for the specific language governing permissions and
  14:lib/chibios/os/hal/lib/streams/nullstreams.c ****     limitations under the License.
  15:lib/chibios/os/hal/lib/streams/nullstreams.c **** */
  16:lib/chibios/os/hal/lib/streams/nullstreams.c **** 
  17:lib/chibios/os/hal/lib/streams/nullstreams.c **** /**
  18:lib/chibios/os/hal/lib/streams/nullstreams.c ****  * @file    nullstreams.c
  19:lib/chibios/os/hal/lib/streams/nullstreams.c ****  * @brief   Null streams code.
  20:lib/chibios/os/hal/lib/streams/nullstreams.c ****  *
  21:lib/chibios/os/hal/lib/streams/nullstreams.c ****  * @addtogroup HAL_NULL_STREAMS
  22:lib/chibios/os/hal/lib/streams/nullstreams.c ****  * @details A null streams.
  23:lib/chibios/os/hal/lib/streams/nullstreams.c ****  * @{
  24:lib/chibios/os/hal/lib/streams/nullstreams.c ****  */
  25:lib/chibios/os/hal/lib/streams/nullstreams.c **** 
  26:lib/chibios/os/hal/lib/streams/nullstreams.c **** #include "hal.h"
  27:lib/chibios/os/hal/lib/streams/nullstreams.c **** #include "nullstreams.h"
  28:lib/chibios/os/hal/lib/streams/nullstreams.c **** 
  29:lib/chibios/os/hal/lib/streams/nullstreams.c **** /*===========================================================================*/
  30:lib/chibios/os/hal/lib/streams/nullstreams.c **** /* Driver local definitions.                                                 */
  31:lib/chibios/os/hal/lib/streams/nullstreams.c **** /*===========================================================================*/
  32:lib/chibios/os/hal/lib/streams/nullstreams.c **** 
  33:lib/chibios/os/hal/lib/streams/nullstreams.c **** /*===========================================================================*/
  34:lib/chibios/os/hal/lib/streams/nullstreams.c **** /* Driver exported variables.                                                */
  35:lib/chibios/os/hal/lib/streams/nullstreams.c **** /*===========================================================================*/
  36:lib/chibios/os/hal/lib/streams/nullstreams.c **** 
  37:lib/chibios/os/hal/lib/streams/nullstreams.c **** /*===========================================================================*/
  38:lib/chibios/os/hal/lib/streams/nullstreams.c **** /* Driver local variables.                                                   */
  39:lib/chibios/os/hal/lib/streams/nullstreams.c **** /*===========================================================================*/
  40:lib/chibios/os/hal/lib/streams/nullstreams.c **** 
  41:lib/chibios/os/hal/lib/streams/nullstreams.c **** /*===========================================================================*/
  42:lib/chibios/os/hal/lib/streams/nullstreams.c **** /* Driver local functions.                                                   */
  43:lib/chibios/os/hal/lib/streams/nullstreams.c **** /*===========================================================================*/
  44:lib/chibios/os/hal/lib/streams/nullstreams.c **** 
  45:lib/chibios/os/hal/lib/streams/nullstreams.c **** static size_t writes(void *ip, const uint8_t *bp, size_t n) {
  29              		.loc 1 45 61 view -0
  30              		.cfi_startproc
  31              		@ args = 0, pretend = 0, frame = 0
  32              		@ frame_needed = 0, uses_anonymous_args = 0
  33              		@ link register save eliminated.
  46:lib/chibios/os/hal/lib/streams/nullstreams.c **** 
  47:lib/chibios/os/hal/lib/streams/nullstreams.c ****   (void)ip;
  34              		.loc 1 47 3 view .LVU1
  48:lib/chibios/os/hal/lib/streams/nullstreams.c ****   (void)bp;
  35              		.loc 1 48 3 view .LVU2
  49:lib/chibios/os/hal/lib/streams/nullstreams.c **** 
  50:lib/chibios/os/hal/lib/streams/nullstreams.c ****   return n;
  36              		.loc 1 50 3 view .LVU3
  51:lib/chibios/os/hal/lib/streams/nullstreams.c **** }
  37              		.loc 1 51 1 is_stmt 0 view .LVU4
  38 0000 1046     		mov	r0, r2
  39              	.LVL1:
  40              		.loc 1 51 1 view .LVU5
  41 0002 7047     		bx	lr
  42              		.cfi_endproc
  43              	.LFE282:
  45              		.section	.text.reads,"ax",%progbits
  46              		.align	1
  47              		.syntax unified
  48              		.thumb
  49              		.thumb_func
  51              	reads:
  52              	.LVL2:
  53              	.LFB283:
  52:lib/chibios/os/hal/lib/streams/nullstreams.c **** 
  53:lib/chibios/os/hal/lib/streams/nullstreams.c **** static size_t reads(void *ip, uint8_t *bp, size_t n) {
  54              		.loc 1 53 54 is_stmt 1 view -0
  55              		.cfi_startproc
  56              		@ args = 0, pretend = 0, frame = 0
  57              		@ frame_needed = 0, uses_anonymous_args = 0
  58              		@ link register save eliminated.
  54:lib/chibios/os/hal/lib/streams/nullstreams.c **** 
  55:lib/chibios/os/hal/lib/streams/nullstreams.c ****   (void)ip;
  59              		.loc 1 55 3 view .LVU7
  56:lib/chibios/os/hal/lib/streams/nullstreams.c ****   (void)bp;
  60              		.loc 1 56 3 view .LVU8
  57:lib/chibios/os/hal/lib/streams/nullstreams.c ****   (void)n;
  61              		.loc 1 57 3 view .LVU9
  58:lib/chibios/os/hal/lib/streams/nullstreams.c **** 
  59:lib/chibios/os/hal/lib/streams/nullstreams.c ****   return 0;
  62              		.loc 1 59 3 view .LVU10
  60:lib/chibios/os/hal/lib/streams/nullstreams.c **** }
  63              		.loc 1 60 1 is_stmt 0 view .LVU11
  64 0000 0020     		movs	r0, #0
  65              	.LVL3:
  66              		.loc 1 60 1 view .LVU12
  67 0002 7047     		bx	lr
  68              		.cfi_endproc
  69              	.LFE283:
  71              		.section	.text.put,"ax",%progbits
  72              		.align	1
  73              		.syntax unified
  74              		.thumb
  75              		.thumb_func
  77              	put:
  78              	.LVL4:
  79              	.LFB284:
  61:lib/chibios/os/hal/lib/streams/nullstreams.c **** 
  62:lib/chibios/os/hal/lib/streams/nullstreams.c **** static msg_t put(void *ip, uint8_t b) {
  80              		.loc 1 62 39 is_stmt 1 view -0
  81              		.cfi_startproc
  82              		@ args = 0, pretend = 0, frame = 0
  83              		@ frame_needed = 0, uses_anonymous_args = 0
  84              		@ link register save eliminated.
  63:lib/chibios/os/hal/lib/streams/nullstreams.c **** 
  64:lib/chibios/os/hal/lib/streams/nullstreams.c ****   (void)ip;
  85              		.loc 1 64 3 view .LVU14
  65:lib/chibios/os/hal/lib/streams/nullstreams.c ****   (void)b;
  86              		.loc 1 65 3 view .LVU15
  66:lib/chibios/os/hal/lib/streams/nullstreams.c **** 
  67:lib/chibios/os/hal/lib/streams/nullstreams.c ****   return MSG_OK;
  87              		.loc 1 67 3 view .LVU16
  68:lib/chibios/os/hal/lib/streams/nullstreams.c **** }
  88              		.loc 1 68 1 is_stmt 0 view .LVU17
  89 0000 0020     		movs	r0, #0
  90              	.LVL5:
  91              		.loc 1 68 1 view .LVU18
  92 0002 7047     		bx	lr
  93              		.cfi_endproc
  94              	.LFE284:
  96              		.section	.text.get,"ax",%progbits
  97              		.align	1
  98              		.syntax unified
  99              		.thumb
 100              		.thumb_func
 102              	get:
 103              	.LVL6:
 104              	.LFB285:
  69:lib/chibios/os/hal/lib/streams/nullstreams.c **** 
  70:lib/chibios/os/hal/lib/streams/nullstreams.c **** static msg_t get(void *ip) {
 105              		.loc 1 70 28 is_stmt 1 view -0
 106              		.cfi_startproc
 107              		@ args = 0, pretend = 0, frame = 0
 108              		@ frame_needed = 0, uses_anonymous_args = 0
 109              		@ link register save eliminated.
  71:lib/chibios/os/hal/lib/streams/nullstreams.c **** 
  72:lib/chibios/os/hal/lib/streams/nullstreams.c ****   (void)ip;
 110              		.loc 1 72 3 view .LVU20
  73:lib/chibios/os/hal/lib/streams/nullstreams.c **** 
  74:lib/chibios/os/hal/lib/streams/nullstreams.c ****   return 4;
 111              		.loc 1 74 3 view .LVU21
  75:lib/chibios/os/hal/lib/streams/nullstreams.c **** }
 112              		.loc 1 75 1 is_stmt 0 view .LVU22
 113 0000 0420     		movs	r0, #4
 114              	.LVL7:
 115              		.loc 1 75 1 view .LVU23
 116 0002 7047     		bx	lr
 117              		.cfi_endproc
 118              	.LFE285:
 120              		.section	.text.nullObjectInit,"ax",%progbits
 121              		.align	1
 122              		.global	nullObjectInit
 123              		.syntax unified
 124              		.thumb
 125              		.thumb_func
 127              	nullObjectInit:
 128              	.LVL8:
 129              	.LFB286:
  76:lib/chibios/os/hal/lib/streams/nullstreams.c **** 
  77:lib/chibios/os/hal/lib/streams/nullstreams.c **** static const struct NullStreamVMT vmt = {(size_t)0, writes, reads, put, get};
  78:lib/chibios/os/hal/lib/streams/nullstreams.c **** 
  79:lib/chibios/os/hal/lib/streams/nullstreams.c **** /*===========================================================================*/
  80:lib/chibios/os/hal/lib/streams/nullstreams.c **** /* Driver exported functions.                                                */
  81:lib/chibios/os/hal/lib/streams/nullstreams.c **** /*===========================================================================*/
  82:lib/chibios/os/hal/lib/streams/nullstreams.c **** 
  83:lib/chibios/os/hal/lib/streams/nullstreams.c **** /**
  84:lib/chibios/os/hal/lib/streams/nullstreams.c ****  * @brief   Null stream object initialization.
  85:lib/chibios/os/hal/lib/streams/nullstreams.c ****  *
  86:lib/chibios/os/hal/lib/streams/nullstreams.c ****  * @param[out] nsp      pointer to the @p NullStream object to be initialized
  87:lib/chibios/os/hal/lib/streams/nullstreams.c ****  */
  88:lib/chibios/os/hal/lib/streams/nullstreams.c **** void nullObjectInit(NullStream *nsp) {
 130              		.loc 1 88 38 is_stmt 1 view -0
 131              		.cfi_startproc
 132              		@ args = 0, pretend = 0, frame = 0
 133              		@ frame_needed = 0, uses_anonymous_args = 0
 134              		@ link register save eliminated.
  89:lib/chibios/os/hal/lib/streams/nullstreams.c **** 
  90:lib/chibios/os/hal/lib/streams/nullstreams.c ****   nsp->vmt = &vmt;
 135              		.loc 1 90 3 view .LVU25
 136              		.loc 1 90 12 is_stmt 0 view .LVU26
 137 0000 014B     		ldr	r3, .L6
 138 0002 0360     		str	r3, [r0]
  91:lib/chibios/os/hal/lib/streams/nullstreams.c **** }
 139              		.loc 1 91 1 view .LVU27
 140 0004 7047     		bx	lr
 141              	.L7:
 142 0006 00BF     		.align	2
 143              	.L6:
 144 0008 00000000 		.word	vmt
 145              		.cfi_endproc
 146              	.LFE286:
 148              		.section	.rodata.vmt,"a"
 149              		.align	2
 152              	vmt:
 153 0000 00000000 		.word	0
 154 0004 00000000 		.word	writes
 155 0008 00000000 		.word	reads
 156 000c 00000000 		.word	put
 157 0010 00000000 		.word	get
 158              		.text
 159              	.Letext0:
 160              		.file 2 "/usr/lib/gcc/arm-none-eabi/12.2.0/include/stddef.h"
 161              		.file 3 "/usr/arm-none-eabi/include/machine/_default_types.h"
 162              		.file 4 "/usr/arm-none-eabi/include/sys/_stdint.h"
 163              		.file 5 "./lib/chibios/os/common/ports/ARMCMx/compilers/GCC/chtypes.h"
 164              		.file 6 "lib/chibios/os/hal/lib/streams/nullstreams.h"