   1              		.cpu cortex-m4
   2              		.arch armv7e-m
   3              		.fpu fpv4-sp-d16
   4              		.eabi_attribute 27, 1
   5              		.eabi_attribute 28, 1
   6              		.eabi_attribute 20, 1
   7              		.eabi_attribute 21, 1
   8              		.eabi_attribute 23, 3
   9              		.eabi_attribute 24, 1
  10              		.eabi_attribute 25, 1
  11              		.eabi_attribute 26, 1
  12              		.eabi_attribute 30, 4
  13              		.eabi_attribute 34, 1
  14              		.eabi_attribute 18, 2
  15              		.file	"hal_serial_usb.c"
  16              		.text
  17              	.Ltext0:
  18              		.cfi_sections	.debug_frame
  19              		.file 1 "lib/chibios/os/hal/src/hal_serial_usb.c"
  20              		.section	.text.obnotify,"ax",%progbits
  21              		.align	1
  22              		.syntax unified
  23              		.thumb
  24              		.thumb_func
  26              	obnotify:
  27              	.LVL0:
  28              	.LFB339:
   1:lib/chibios/os/hal/src/hal_serial_usb.c **** /*
   2:lib/chibios/os/hal/src/hal_serial_usb.c ****     ChibiOS - Copyright (C) 2006..2018 Giovanni Di Sirio
   3:lib/chibios/os/hal/src/hal_serial_usb.c **** 
   4:lib/chibios/os/hal/src/hal_serial_usb.c ****     Licensed under the Apache License, Version 2.0 (the "License");
   5:lib/chibios/os/hal/src/hal_serial_usb.c ****     you may not use this file except in compliance with the License.
   6:lib/chibios/os/hal/src/hal_serial_usb.c ****     You may obtain a copy of the License at
   7:lib/chibios/os/hal/src/hal_serial_usb.c **** 
   8:lib/chibios/os/hal/src/hal_serial_usb.c ****         http://www.apache.org/licenses/LICENSE-2.0
   9:lib/chibios/os/hal/src/hal_serial_usb.c **** 
  10:lib/chibios/os/hal/src/hal_serial_usb.c ****     Unless required by applicable law or agreed to in writing, software
  11:lib/chibios/os/hal/src/hal_serial_usb.c ****     distributed under the License is distributed on an "AS IS" BASIS,
  12:lib/chibios/os/hal/src/hal_serial_usb.c ****     WITHOUT WARRANTIES OR CONDITIONS OF ANY KIND, either express or implied.
  13:lib/chibios/os/hal/src/hal_serial_usb.c ****     See the License for the specific language governing permissions and
  14:lib/chibios/os/hal/src/hal_serial_usb.c ****     limitations under the License.
  15:lib/chibios/os/hal/src/hal_serial_usb.c **** */
  16:lib/chibios/os/hal/src/hal_serial_usb.c **** 
  17:lib/chibios/os/hal/src/hal_serial_usb.c **** /**
  18:lib/chibios/os/hal/src/hal_serial_usb.c ****  * @file    hal_serial_usb.c
  19:lib/chibios/os/hal/src/hal_serial_usb.c ****  * @brief   Serial over USB Driver code.
  20:lib/chibios/os/hal/src/hal_serial_usb.c ****  *
  21:lib/chibios/os/hal/src/hal_serial_usb.c ****  * @addtogroup SERIAL_USB
  22:lib/chibios/os/hal/src/hal_serial_usb.c ****  * @{
  23:lib/chibios/os/hal/src/hal_serial_usb.c ****  */
  24:lib/chibios/os/hal/src/hal_serial_usb.c **** 
  25:lib/chibios/os/hal/src/hal_serial_usb.c **** #include "hal.h"
  26:lib/chibios/os/hal/src/hal_serial_usb.c **** 
  27:lib/chibios/os/hal/src/hal_serial_usb.c **** #if (HAL_USE_SERIAL_USB == TRUE) || defined(__DOXYGEN__)
  28:lib/chibios/os/hal/src/hal_serial_usb.c **** 
  29:lib/chibios/os/hal/src/hal_serial_usb.c **** /*===========================================================================*/
  30:lib/chibios/os/hal/src/hal_serial_usb.c **** /* Driver local definitions.                                                 */
  31:lib/chibios/os/hal/src/hal_serial_usb.c **** /*===========================================================================*/
  32:lib/chibios/os/hal/src/hal_serial_usb.c **** 
  33:lib/chibios/os/hal/src/hal_serial_usb.c **** /*===========================================================================*/
  34:lib/chibios/os/hal/src/hal_serial_usb.c **** /* Driver exported variables.                                                */
  35:lib/chibios/os/hal/src/hal_serial_usb.c **** /*===========================================================================*/
  36:lib/chibios/os/hal/src/hal_serial_usb.c **** 
  37:lib/chibios/os/hal/src/hal_serial_usb.c **** /*===========================================================================*/
  38:lib/chibios/os/hal/src/hal_serial_usb.c **** /* Driver local variables and types.                                         */
  39:lib/chibios/os/hal/src/hal_serial_usb.c **** /*===========================================================================*/
  40:lib/chibios/os/hal/src/hal_serial_usb.c **** 
  41:lib/chibios/os/hal/src/hal_serial_usb.c **** /*
  42:lib/chibios/os/hal/src/hal_serial_usb.c ****  * Current Line Coding.
  43:lib/chibios/os/hal/src/hal_serial_usb.c ****  */
  44:lib/chibios/os/hal/src/hal_serial_usb.c **** static cdc_linecoding_t linecoding = {
  45:lib/chibios/os/hal/src/hal_serial_usb.c ****   {0x00, 0x96, 0x00, 0x00},             /* 38400.                           */
  46:lib/chibios/os/hal/src/hal_serial_usb.c ****   LC_STOP_1, LC_PARITY_NONE, 8
  47:lib/chibios/os/hal/src/hal_serial_usb.c **** };
  48:lib/chibios/os/hal/src/hal_serial_usb.c **** 
  49:lib/chibios/os/hal/src/hal_serial_usb.c **** /*===========================================================================*/
  50:lib/chibios/os/hal/src/hal_serial_usb.c **** /* Driver local functions.                                                   */
  51:lib/chibios/os/hal/src/hal_serial_usb.c **** /*===========================================================================*/
  52:lib/chibios/os/hal/src/hal_serial_usb.c **** 
  53:lib/chibios/os/hal/src/hal_serial_usb.c **** static bool sdu_start_receive(SerialUSBDriver *sdup) {
  54:lib/chibios/os/hal/src/hal_serial_usb.c ****   uint8_t *buf;
  55:lib/chibios/os/hal/src/hal_serial_usb.c **** 
  56:lib/chibios/os/hal/src/hal_serial_usb.c ****   /* If the USB driver is not in the appropriate state then transactions
  57:lib/chibios/os/hal/src/hal_serial_usb.c ****      must not be started.*/
  58:lib/chibios/os/hal/src/hal_serial_usb.c ****   if ((usbGetDriverStateI(sdup->config->usbp) != USB_ACTIVE) ||
  59:lib/chibios/os/hal/src/hal_serial_usb.c ****       (sdup->state != SDU_READY)) {
  60:lib/chibios/os/hal/src/hal_serial_usb.c ****     return true;
  61:lib/chibios/os/hal/src/hal_serial_usb.c ****   }
  62:lib/chibios/os/hal/src/hal_serial_usb.c **** 
  63:lib/chibios/os/hal/src/hal_serial_usb.c ****   /* Checking if there is already a transaction ongoing on the endpoint.*/
  64:lib/chibios/os/hal/src/hal_serial_usb.c ****   if (usbGetReceiveStatusI(sdup->config->usbp, sdup->config->bulk_in)) {
  65:lib/chibios/os/hal/src/hal_serial_usb.c ****     return true;
  66:lib/chibios/os/hal/src/hal_serial_usb.c ****   }
  67:lib/chibios/os/hal/src/hal_serial_usb.c **** 
  68:lib/chibios/os/hal/src/hal_serial_usb.c ****   /* Checking if there is a buffer ready for incoming data.*/
  69:lib/chibios/os/hal/src/hal_serial_usb.c ****   buf = ibqGetEmptyBufferI(&sdup->ibqueue);
  70:lib/chibios/os/hal/src/hal_serial_usb.c ****   if (buf == NULL) {
  71:lib/chibios/os/hal/src/hal_serial_usb.c ****     return true;
  72:lib/chibios/os/hal/src/hal_serial_usb.c ****   }
  73:lib/chibios/os/hal/src/hal_serial_usb.c **** 
  74:lib/chibios/os/hal/src/hal_serial_usb.c ****   /* Buffer found, starting a new transaction.*/
  75:lib/chibios/os/hal/src/hal_serial_usb.c ****   usbStartReceiveI(sdup->config->usbp, sdup->config->bulk_out,
  76:lib/chibios/os/hal/src/hal_serial_usb.c ****                    buf, SERIAL_USB_BUFFERS_SIZE);
  77:lib/chibios/os/hal/src/hal_serial_usb.c **** 
  78:lib/chibios/os/hal/src/hal_serial_usb.c ****   return false;
  79:lib/chibios/os/hal/src/hal_serial_usb.c **** }
  80:lib/chibios/os/hal/src/hal_serial_usb.c **** 
  81:lib/chibios/os/hal/src/hal_serial_usb.c **** /*
  82:lib/chibios/os/hal/src/hal_serial_usb.c ****  * Interface implementation.
  83:lib/chibios/os/hal/src/hal_serial_usb.c ****  */
  84:lib/chibios/os/hal/src/hal_serial_usb.c **** 
  85:lib/chibios/os/hal/src/hal_serial_usb.c **** static size_t _write(void *ip, const uint8_t *bp, size_t n) {
  86:lib/chibios/os/hal/src/hal_serial_usb.c **** 
  87:lib/chibios/os/hal/src/hal_serial_usb.c ****   return obqWriteTimeout(&((SerialUSBDriver *)ip)->obqueue, bp,
  88:lib/chibios/os/hal/src/hal_serial_usb.c ****                          n, TIME_INFINITE);
  89:lib/chibios/os/hal/src/hal_serial_usb.c **** }
  90:lib/chibios/os/hal/src/hal_serial_usb.c **** 
  91:lib/chibios/os/hal/src/hal_serial_usb.c **** static size_t _read(void *ip, uint8_t *bp, size_t n) {
  92:lib/chibios/os/hal/src/hal_serial_usb.c **** 
  93:lib/chibios/os/hal/src/hal_serial_usb.c ****   return ibqReadTimeout(&((SerialUSBDriver *)ip)->ibqueue, bp,
  94:lib/chibios/os/hal/src/hal_serial_usb.c ****                         n, TIME_INFINITE);
  95:lib/chibios/os/hal/src/hal_serial_usb.c **** }
  96:lib/chibios/os/hal/src/hal_serial_usb.c **** 
  97:lib/chibios/os/hal/src/hal_serial_usb.c **** static msg_t _put(void *ip, uint8_t b) {
  98:lib/chibios/os/hal/src/hal_serial_usb.c **** 
  99:lib/chibios/os/hal/src/hal_serial_usb.c ****   return obqPutTimeout(&((SerialUSBDriver *)ip)->obqueue, b, TIME_INFINITE);
 100:lib/chibios/os/hal/src/hal_serial_usb.c **** }
 101:lib/chibios/os/hal/src/hal_serial_usb.c **** 
 102:lib/chibios/os/hal/src/hal_serial_usb.c **** static msg_t _get(void *ip) {
 103:lib/chibios/os/hal/src/hal_serial_usb.c **** 
 104:lib/chibios/os/hal/src/hal_serial_usb.c ****   return ibqGetTimeout(&((SerialUSBDriver *)ip)->ibqueue, TIME_INFINITE);
 105:lib/chibios/os/hal/src/hal_serial_usb.c **** }
 106:lib/chibios/os/hal/src/hal_serial_usb.c **** 
 107:lib/chibios/os/hal/src/hal_serial_usb.c **** static msg_t _putt(void *ip, uint8_t b, sysinterval_t timeout) {
 108:lib/chibios/os/hal/src/hal_serial_usb.c **** 
 109:lib/chibios/os/hal/src/hal_serial_usb.c ****   return obqPutTimeout(&((SerialUSBDriver *)ip)->obqueue, b, timeout);
 110:lib/chibios/os/hal/src/hal_serial_usb.c **** }
 111:lib/chibios/os/hal/src/hal_serial_usb.c **** 
 112:lib/chibios/os/hal/src/hal_serial_usb.c **** static msg_t _gett(void *ip, sysinterval_t timeout) {
 113:lib/chibios/os/hal/src/hal_serial_usb.c **** 
 114:lib/chibios/os/hal/src/hal_serial_usb.c ****   return ibqGetTimeout(&((SerialUSBDriver *)ip)->ibqueue, timeout);
 115:lib/chibios/os/hal/src/hal_serial_usb.c **** }
 116:lib/chibios/os/hal/src/hal_serial_usb.c **** 
 117:lib/chibios/os/hal/src/hal_serial_usb.c **** static size_t _writet(void *ip, const uint8_t *bp, size_t n,
 118:lib/chibios/os/hal/src/hal_serial_usb.c ****                       sysinterval_t timeout) {
 119:lib/chibios/os/hal/src/hal_serial_usb.c **** 
 120:lib/chibios/os/hal/src/hal_serial_usb.c ****   return obqWriteTimeout(&((SerialUSBDriver *)ip)->obqueue, bp, n, timeout);
 121:lib/chibios/os/hal/src/hal_serial_usb.c **** }
 122:lib/chibios/os/hal/src/hal_serial_usb.c **** 
 123:lib/chibios/os/hal/src/hal_serial_usb.c **** static size_t _readt(void *ip, uint8_t *bp, size_t n,
 124:lib/chibios/os/hal/src/hal_serial_usb.c ****                      sysinterval_t timeout) {
 125:lib/chibios/os/hal/src/hal_serial_usb.c **** 
 126:lib/chibios/os/hal/src/hal_serial_usb.c ****   return ibqReadTimeout(&((SerialUSBDriver *)ip)->ibqueue, bp, n, timeout);
 127:lib/chibios/os/hal/src/hal_serial_usb.c **** }
 128:lib/chibios/os/hal/src/hal_serial_usb.c **** 
 129:lib/chibios/os/hal/src/hal_serial_usb.c **** static msg_t _ctl(void *ip, unsigned int operation, void *arg) {
 130:lib/chibios/os/hal/src/hal_serial_usb.c ****   SerialUSBDriver *sdup = (SerialUSBDriver *)ip;
 131:lib/chibios/os/hal/src/hal_serial_usb.c **** 
 132:lib/chibios/os/hal/src/hal_serial_usb.c ****   osalDbgCheck(sdup != NULL);
 133:lib/chibios/os/hal/src/hal_serial_usb.c **** 
 134:lib/chibios/os/hal/src/hal_serial_usb.c ****   switch (operation) {
 135:lib/chibios/os/hal/src/hal_serial_usb.c ****   case CHN_CTL_NOP:
 136:lib/chibios/os/hal/src/hal_serial_usb.c ****     osalDbgCheck(arg == NULL);
 137:lib/chibios/os/hal/src/hal_serial_usb.c ****     break;
 138:lib/chibios/os/hal/src/hal_serial_usb.c ****   case CHN_CTL_INVALID:
 139:lib/chibios/os/hal/src/hal_serial_usb.c ****     osalDbgAssert(false, "invalid CTL operation");
 140:lib/chibios/os/hal/src/hal_serial_usb.c ****     break;
 141:lib/chibios/os/hal/src/hal_serial_usb.c ****   default:
 142:lib/chibios/os/hal/src/hal_serial_usb.c **** #if defined(SDU_LLD_IMPLEMENTS_CTL)
 143:lib/chibios/os/hal/src/hal_serial_usb.c ****     /* The SDU driver does not have a LLD but the application can use this
 144:lib/chibios/os/hal/src/hal_serial_usb.c ****        hook to implement extra controls by supplying this function.*/
 145:lib/chibios/os/hal/src/hal_serial_usb.c ****     extern msg_t sdu_lld_control(SerialUSBDriver *sdup,
 146:lib/chibios/os/hal/src/hal_serial_usb.c ****                                  unsigned int operation,
 147:lib/chibios/os/hal/src/hal_serial_usb.c ****                                  void *arg);
 148:lib/chibios/os/hal/src/hal_serial_usb.c ****     return sdu_lld_control(sdup, operation, arg);
 149:lib/chibios/os/hal/src/hal_serial_usb.c **** #else
 150:lib/chibios/os/hal/src/hal_serial_usb.c ****     break;
 151:lib/chibios/os/hal/src/hal_serial_usb.c **** #endif
 152:lib/chibios/os/hal/src/hal_serial_usb.c ****   }
 153:lib/chibios/os/hal/src/hal_serial_usb.c ****   return MSG_OK;
 154:lib/chibios/os/hal/src/hal_serial_usb.c **** }
 155:lib/chibios/os/hal/src/hal_serial_usb.c **** 
 156:lib/chibios/os/hal/src/hal_serial_usb.c **** static const struct SerialUSBDriverVMT vmt = {
 157:lib/chibios/os/hal/src/hal_serial_usb.c ****   (size_t)0,
 158:lib/chibios/os/hal/src/hal_serial_usb.c ****   _write, _read, _put, _get,
 159:lib/chibios/os/hal/src/hal_serial_usb.c ****   _putt, _gett, _writet, _readt,
 160:lib/chibios/os/hal/src/hal_serial_usb.c ****   _ctl
 161:lib/chibios/os/hal/src/hal_serial_usb.c **** };
 162:lib/chibios/os/hal/src/hal_serial_usb.c **** 
 163:lib/chibios/os/hal/src/hal_serial_usb.c **** /**
 164:lib/chibios/os/hal/src/hal_serial_usb.c ****  * @brief   Notification of empty buffer released into the input buffers queue.
 165:lib/chibios/os/hal/src/hal_serial_usb.c ****  *
 166:lib/chibios/os/hal/src/hal_serial_usb.c ****  * @param[in] bqp       the buffers queue pointer.
 167:lib/chibios/os/hal/src/hal_serial_usb.c ****  */
 168:lib/chibios/os/hal/src/hal_serial_usb.c **** static void ibnotify(io_buffers_queue_t *bqp) {
 169:lib/chibios/os/hal/src/hal_serial_usb.c ****   SerialUSBDriver *sdup = bqGetLinkX(bqp);
 170:lib/chibios/os/hal/src/hal_serial_usb.c ****   (void) sdu_start_receive(sdup);
 171:lib/chibios/os/hal/src/hal_serial_usb.c **** }
 172:lib/chibios/os/hal/src/hal_serial_usb.c **** 
 173:lib/chibios/os/hal/src/hal_serial_usb.c **** /**
 174:lib/chibios/os/hal/src/hal_serial_usb.c ****  * @brief   Notification of filled buffer inserted into the output buffers queue.
 175:lib/chibios/os/hal/src/hal_serial_usb.c ****  *
 176:lib/chibios/os/hal/src/hal_serial_usb.c ****  * @param[in] bqp       the buffers queue pointer.
 177:lib/chibios/os/hal/src/hal_serial_usb.c ****  */
 178:lib/chibios/os/hal/src/hal_serial_usb.c **** static void obnotify(io_buffers_queue_t *bqp) {
  29              		.loc 1 178 47 view -0
  30              		.cfi_startproc
  31              		@ args = 0, pretend = 0, frame = 8
  32              		@ frame_needed = 0, uses_anonymous_args = 0
 179:lib/chibios/os/hal/src/hal_serial_usb.c ****   size_t n;
  33              		.loc 1 179 3 view .LVU1
 180:lib/chibios/os/hal/src/hal_serial_usb.c ****   SerialUSBDriver *sdup = bqGetLinkX(bqp);
  34              		.loc 1 180 3 view .LVU2
 178:lib/chibios/os/hal/src/hal_serial_usb.c ****   size_t n;
  35              		.loc 1 178 47 is_stmt 0 view .LVU3
  36 0000 13B5     		push	{r0, r1, r4, lr}
  37              		.cfi_def_cfa_offset 16
  38              		.cfi_offset 4, -8
  39              		.cfi_offset 14, -4
  40              		.loc 1 180 20 view .LVU4
  41 0002 446B     		ldr	r4, [r0, #52]
  42              	.LVL1:
 181:lib/chibios/os/hal/src/hal_serial_usb.c **** 
 182:lib/chibios/os/hal/src/hal_serial_usb.c ****   /* If the USB driver is not in the appropriate state then transactions
 183:lib/chibios/os/hal/src/hal_serial_usb.c ****      must not be started.*/
 184:lib/chibios/os/hal/src/hal_serial_usb.c ****   if ((usbGetDriverStateI(sdup->config->usbp) != USB_ACTIVE) ||
  43              		.loc 1 184 3 is_stmt 1 view .LVU5
  44              		.loc 1 184 8 is_stmt 0 view .LVU6
  45 0004 D4F89030 		ldr	r3, [r4, #144]
  46 0008 1A68     		ldr	r2, [r3]
  47              		.loc 1 184 6 view .LVU7
  48 000a 1178     		ldrb	r1, [r2]	@ zero_extendqisi2
  49 000c 0429     		cmp	r1, #4
  50 000e 15D1     		bne	.L1
  51              		.loc 1 184 62 discriminator 1 view .LVU8
  52 0010 217A     		ldrb	r1, [r4, #8]	@ zero_extendqisi2
  53 0012 0229     		cmp	r1, #2
  54 0014 12D1     		bne	.L1
 185:lib/chibios/os/hal/src/hal_serial_usb.c ****       (sdup->state != SDU_READY)) {
 186:lib/chibios/os/hal/src/hal_serial_usb.c ****     return;
 187:lib/chibios/os/hal/src/hal_serial_usb.c ****   }
 188:lib/chibios/os/hal/src/hal_serial_usb.c **** 
 189:lib/chibios/os/hal/src/hal_serial_usb.c ****   /* Checking if there is already a transaction ongoing on the endpoint.*/
 190:lib/chibios/os/hal/src/hal_serial_usb.c ****   if (!usbGetTransmitStatusI(sdup->config->usbp, sdup->config->bulk_in)) {
  55              		.loc 1 190 3 is_stmt 1 view .LVU9
  56              		.loc 1 190 8 is_stmt 0 view .LVU10
  57 0016 1979     		ldrb	r1, [r3, #4]	@ zero_extendqisi2
  58              		.loc 1 190 7 view .LVU11
  59 0018 1289     		ldrh	r2, [r2, #8]
  60              		.loc 1 190 8 view .LVU12
  61 001a 0123     		movs	r3, #1
  62 001c 8B40     		lsls	r3, r3, r1
  63              		.loc 1 190 6 view .LVU13
  64 001e 1342     		tst	r3, r2
  65 0020 0CD1     		bne	.L1
  66              	.LBB134:
 191:lib/chibios/os/hal/src/hal_serial_usb.c ****     /* Getting a full buffer, a buffer is available for sure because this
 192:lib/chibios/os/hal/src/hal_serial_usb.c ****        callback is invoked when one has been inserted.*/
 193:lib/chibios/os/hal/src/hal_serial_usb.c ****     uint8_t *buf = obqGetFullBufferI(&sdup->obqueue, &n);
  67              		.loc 1 193 5 is_stmt 1 view .LVU14
  68              		.loc 1 193 20 is_stmt 0 view .LVU15
  69 0022 01A9     		add	r1, sp, #4
  70 0024 04F14400 		add	r0, r4, #68
  71              	.LVL2:
  72              		.loc 1 193 20 view .LVU16
  73 0028 FFF7FEFF 		bl	obqGetFullBufferI
  74              	.LVL3:
 194:lib/chibios/os/hal/src/hal_serial_usb.c ****     osalDbgAssert(buf != NULL, "buffer not found");
 195:lib/chibios/os/hal/src/hal_serial_usb.c ****     usbStartTransmitI(sdup->config->usbp, sdup->config->bulk_in, buf, n);
  75              		.loc 1 195 27 view .LVU17
  76 002c D4F89040 		ldr	r4, [r4, #144]
  77              	.LVL4:
  78              		.loc 1 195 5 view .LVU18
  79 0030 019B     		ldr	r3, [sp, #4]
  80 0032 2179     		ldrb	r1, [r4, #4]	@ zero_extendqisi2
 193:lib/chibios/os/hal/src/hal_serial_usb.c ****     osalDbgAssert(buf != NULL, "buffer not found");
  81              		.loc 1 193 20 view .LVU19
  82 0034 0246     		mov	r2, r0
  83              	.LVL5:
 194:lib/chibios/os/hal/src/hal_serial_usb.c ****     osalDbgAssert(buf != NULL, "buffer not found");
  84              		.loc 1 194 5 is_stmt 1 view .LVU20
 194:lib/chibios/os/hal/src/hal_serial_usb.c ****     osalDbgAssert(buf != NULL, "buffer not found");
  85              		.loc 1 194 5 view .LVU21
 194:lib/chibios/os/hal/src/hal_serial_usb.c ****     osalDbgAssert(buf != NULL, "buffer not found");
  86              		.loc 1 194 5 view .LVU22
  87              		.loc 1 195 5 view .LVU23
  88 0036 2068     		ldr	r0, [r4]
  89              	.LVL6:
  90              		.loc 1 195 5 is_stmt 0 view .LVU24
  91 0038 FFF7FEFF 		bl	usbStartTransmitI
  92              	.LVL7:
  93              	.L1:
  94              		.loc 1 195 5 view .LVU25
  95              	.LBE134:
 196:lib/chibios/os/hal/src/hal_serial_usb.c ****   }
 197:lib/chibios/os/hal/src/hal_serial_usb.c **** }
  96              		.loc 1 197 1 view .LVU26
  97 003c 02B0     		add	sp, sp, #8
  98              		.cfi_def_cfa_offset 8
  99              		@ sp needed
 100 003e 10BD     		pop	{r4, pc}
 101              		.cfi_endproc
 102              	.LFE339:
 104              		.section	.text._readt,"ax",%progbits
 105              		.align	1
 106              		.syntax unified
 107              		.thumb
 108              		.thumb_func
 110              	_readt:
 111              	.LVL8:
 112              	.LFB336:
 124:lib/chibios/os/hal/src/hal_serial_usb.c **** 
 113              		.loc 1 124 45 is_stmt 1 view -0
 114              		.cfi_startproc
 115              		@ args = 0, pretend = 0, frame = 0
 116              		@ frame_needed = 0, uses_anonymous_args = 0
 117              		@ link register save eliminated.
 126:lib/chibios/os/hal/src/hal_serial_usb.c **** }
 118              		.loc 1 126 3 view .LVU28
 126:lib/chibios/os/hal/src/hal_serial_usb.c **** }
 119              		.loc 1 126 10 is_stmt 0 view .LVU29
 120 0000 0C30     		adds	r0, r0, #12
 121              	.LVL9:
 126:lib/chibios/os/hal/src/hal_serial_usb.c **** }
 122              		.loc 1 126 10 view .LVU30
 123 0002 FFF7FEBF 		b	ibqReadTimeout
 124              	.LVL10:
 126:lib/chibios/os/hal/src/hal_serial_usb.c **** }
 125              		.loc 1 126 10 view .LVU31
 126              		.cfi_endproc
 127              	.LFE336:
 129              		.section	.text._read,"ax",%progbits
 130              		.align	1
 131              		.syntax unified
 132              		.thumb
 133              		.thumb_func
 135              	_read:
 136              	.LVL11:
 137              	.LFB330:
  91:lib/chibios/os/hal/src/hal_serial_usb.c **** 
 138              		.loc 1 91 54 is_stmt 1 view -0
 139              		.cfi_startproc
 140              		@ args = 0, pretend = 0, frame = 0
 141              		@ frame_needed = 0, uses_anonymous_args = 0
 142              		@ link register save eliminated.
  93:lib/chibios/os/hal/src/hal_serial_usb.c ****                         n, TIME_INFINITE);
 143              		.loc 1 93 3 view .LVU33
  93:lib/chibios/os/hal/src/hal_serial_usb.c ****                         n, TIME_INFINITE);
 144              		.loc 1 93 10 is_stmt 0 view .LVU34
 145 0000 4FF0FF33 		mov	r3, #-1
 146 0004 0C30     		adds	r0, r0, #12
 147              	.LVL12:
  93:lib/chibios/os/hal/src/hal_serial_usb.c ****                         n, TIME_INFINITE);
 148              		.loc 1 93 10 view .LVU35
 149 0006 FFF7FEBF 		b	ibqReadTimeout
 150              	.LVL13:
  93:lib/chibios/os/hal/src/hal_serial_usb.c ****                         n, TIME_INFINITE);
 151              		.loc 1 93 10 view .LVU36
 152              		.cfi_endproc
 153              	.LFE330:
 155              		.section	.text._writet,"ax",%progbits
 156              		.align	1
 157              		.syntax unified
 158              		.thumb
 159              		.thumb_func
 161              	_writet:
 162              	.LVL14:
 163              	.LFB335:
 118:lib/chibios/os/hal/src/hal_serial_usb.c **** 
 164              		.loc 1 118 46 is_stmt 1 view -0
 165              		.cfi_startproc
 166              		@ args = 0, pretend = 0, frame = 0
 167              		@ frame_needed = 0, uses_anonymous_args = 0
 168              		@ link register save eliminated.
 120:lib/chibios/os/hal/src/hal_serial_usb.c **** }
 169              		.loc 1 120 3 view .LVU38
 120:lib/chibios/os/hal/src/hal_serial_usb.c **** }
 170              		.loc 1 120 10 is_stmt 0 view .LVU39
 171 0000 4430     		adds	r0, r0, #68
 172              	.LVL15:
 120:lib/chibios/os/hal/src/hal_serial_usb.c **** }
 173              		.loc 1 120 10 view .LVU40
 174 0002 FFF7FEBF 		b	obqWriteTimeout
 175              	.LVL16:
 120:lib/chibios/os/hal/src/hal_serial_usb.c **** }
 176              		.loc 1 120 10 view .LVU41
 177              		.cfi_endproc
 178              	.LFE335:
 180              		.section	.text._write,"ax",%progbits
 181              		.align	1
 182              		.syntax unified
 183              		.thumb
 184              		.thumb_func
 186              	_write:
 187              	.LVL17:
 188              	.LFB329:
  85:lib/chibios/os/hal/src/hal_serial_usb.c **** 
 189              		.loc 1 85 61 is_stmt 1 view -0
 190              		.cfi_startproc
 191              		@ args = 0, pretend = 0, frame = 0
 192              		@ frame_needed = 0, uses_anonymous_args = 0
 193              		@ link register save eliminated.
  87:lib/chibios/os/hal/src/hal_serial_usb.c ****                          n, TIME_INFINITE);
 194              		.loc 1 87 3 view .LVU43
  87:lib/chibios/os/hal/src/hal_serial_usb.c ****                          n, TIME_INFINITE);
 195              		.loc 1 87 10 is_stmt 0 view .LVU44
 196 0000 4FF0FF33 		mov	r3, #-1
 197 0004 4430     		adds	r0, r0, #68
 198              	.LVL18:
  87:lib/chibios/os/hal/src/hal_serial_usb.c ****                          n, TIME_INFINITE);
 199              		.loc 1 87 10 view .LVU45
 200 0006 FFF7FEBF 		b	obqWriteTimeout
 201              	.LVL19:
  87:lib/chibios/os/hal/src/hal_serial_usb.c ****                          n, TIME_INFINITE);
 202              		.loc 1 87 10 view .LVU46
 203              		.cfi_endproc
 204              	.LFE329:
 206              		.section	.text._gett,"ax",%progbits
 207              		.align	1
 208              		.syntax unified
 209              		.thumb
 210              		.thumb_func
 212              	_gett:
 213              	.LVL20:
 214              	.LFB334:
 112:lib/chibios/os/hal/src/hal_serial_usb.c **** 
 215              		.loc 1 112 53 is_stmt 1 view -0
 216              		.cfi_startproc
 217              		@ args = 0, pretend = 0, frame = 0
 218              		@ frame_needed = 0, uses_anonymous_args = 0
 219              		@ link register save eliminated.
 114:lib/chibios/os/hal/src/hal_serial_usb.c **** }
 220              		.loc 1 114 3 view .LVU48
 114:lib/chibios/os/hal/src/hal_serial_usb.c **** }
 221              		.loc 1 114 10 is_stmt 0 view .LVU49
 222 0000 0C30     		adds	r0, r0, #12
 223              	.LVL21:
 114:lib/chibios/os/hal/src/hal_serial_usb.c **** }
 224              		.loc 1 114 10 view .LVU50
 225 0002 FFF7FEBF 		b	ibqGetTimeout
 226              	.LVL22:
 114:lib/chibios/os/hal/src/hal_serial_usb.c **** }
 227              		.loc 1 114 10 view .LVU51
 228              		.cfi_endproc
 229              	.LFE334:
 231              		.section	.text._get,"ax",%progbits
 232              		.align	1
 233              		.syntax unified
 234              		.thumb
 235              		.thumb_func
 237              	_get:
 238              	.LVL23:
 239              	.LFB332:
 102:lib/chibios/os/hal/src/hal_serial_usb.c **** 
 240              		.loc 1 102 29 is_stmt 1 view -0
 241              		.cfi_startproc
 242              		@ args = 0, pretend = 0, frame = 0
 243              		@ frame_needed = 0, uses_anonymous_args = 0
 244              		@ link register save eliminated.
 104:lib/chibios/os/hal/src/hal_serial_usb.c **** }
 245              		.loc 1 104 3 view .LVU53
 104:lib/chibios/os/hal/src/hal_serial_usb.c **** }
 246              		.loc 1 104 10 is_stmt 0 view .LVU54
 247 0000 4FF0FF31 		mov	r1, #-1
 248 0004 0C30     		adds	r0, r0, #12
 249              	.LVL24:
 104:lib/chibios/os/hal/src/hal_serial_usb.c **** }
 250              		.loc 1 104 10 view .LVU55
 251 0006 FFF7FEBF 		b	ibqGetTimeout
 252              	.LVL25:
 104:lib/chibios/os/hal/src/hal_serial_usb.c **** }
 253              		.loc 1 104 10 view .LVU56
 254              		.cfi_endproc
 255              	.LFE332:
 257              		.section	.text._putt,"ax",%progbits
 258              		.align	1
 259              		.syntax unified
 260              		.thumb
 261              		.thumb_func
 263              	_putt:
 264              	.LVL26:
 265              	.LFB333:
 107:lib/chibios/os/hal/src/hal_serial_usb.c **** 
 266              		.loc 1 107 64 is_stmt 1 view -0
 267              		.cfi_startproc
 268              		@ args = 0, pretend = 0, frame = 0
 269              		@ frame_needed = 0, uses_anonymous_args = 0
 270              		@ link register save eliminated.
 109:lib/chibios/os/hal/src/hal_serial_usb.c **** }
 271              		.loc 1 109 3 view .LVU58
 109:lib/chibios/os/hal/src/hal_serial_usb.c **** }
 272              		.loc 1 109 10 is_stmt 0 view .LVU59
 273 0000 4430     		adds	r0, r0, #68
 274              	.LVL27:
 109:lib/chibios/os/hal/src/hal_serial_usb.c **** }
 275              		.loc 1 109 10 view .LVU60
 276 0002 FFF7FEBF 		b	obqPutTimeout
 277              	.LVL28:
 109:lib/chibios/os/hal/src/hal_serial_usb.c **** }
 278              		.loc 1 109 10 view .LVU61
 279              		.cfi_endproc
 280              	.LFE333:
 282              		.section	.text._put,"ax",%progbits
 283              		.align	1
 284              		.syntax unified
 285              		.thumb
 286              		.thumb_func
 288              	_put:
 289              	.LVL29:
 290              	.LFB331:
  97:lib/chibios/os/hal/src/hal_serial_usb.c **** 
 291              		.loc 1 97 40 is_stmt 1 view -0
 292              		.cfi_startproc
 293              		@ args = 0, pretend = 0, frame = 0
 294              		@ frame_needed = 0, uses_anonymous_args = 0
 295              		@ link register save eliminated.
  99:lib/chibios/os/hal/src/hal_serial_usb.c **** }
 296              		.loc 1 99 3 view .LVU63
  99:lib/chibios/os/hal/src/hal_serial_usb.c **** }
 297              		.loc 1 99 10 is_stmt 0 view .LVU64
 298 0000 4FF0FF32 		mov	r2, #-1
 299 0004 4430     		adds	r0, r0, #68
 300              	.LVL30:
  99:lib/chibios/os/hal/src/hal_serial_usb.c **** }
 301              		.loc 1 99 10 view .LVU65
 302 0006 FFF7FEBF 		b	obqPutTimeout
 303              	.LVL31:
  99:lib/chibios/os/hal/src/hal_serial_usb.c **** }
 304              		.loc 1 99 10 view .LVU66
 305              		.cfi_endproc
 306              	.LFE331:
 308              		.section	.text._ctl,"ax",%progbits
 309              		.align	1
 310              		.syntax unified
 311              		.thumb
 312              		.thumb_func
 314              	_ctl:
 315              	.LFB354:
 316              		.cfi_startproc
 129:lib/chibios/os/hal/src/hal_serial_usb.c ****   SerialUSBDriver *sdup = (SerialUSBDriver *)ip;
 317              		.loc 1 129 14 is_stmt 1 view -0
 318              		@ args = 0, pretend = 0, frame = 0
 319              		@ frame_needed = 0, uses_anonymous_args = 0
 320              		@ link register save eliminated.
 321 0000 0020     		movs	r0, #0
 322 0002 7047     		bx	lr
 323              		.cfi_endproc
 324              	.LFE354:
 326              		.section	.text.sdu_start_receive.isra.0,"ax",%progbits
 327              		.align	1
 328              		.syntax unified
 329              		.thumb
 330              		.thumb_func
 332              	sdu_start_receive.isra.0:
 333              	.LVL32:
 334              	.LFB356:
  53:lib/chibios/os/hal/src/hal_serial_usb.c ****   uint8_t *buf;
 335              		.loc 1 53 13 view -0
 336              		.cfi_startproc
 337              		@ args = 0, pretend = 0, frame = 0
 338              		@ frame_needed = 0, uses_anonymous_args = 0
  54:lib/chibios/os/hal/src/hal_serial_usb.c **** 
 339              		.loc 1 54 3 view .LVU69
  58:lib/chibios/os/hal/src/hal_serial_usb.c ****       (sdup->state != SDU_READY)) {
 340              		.loc 1 58 3 view .LVU70
  53:lib/chibios/os/hal/src/hal_serial_usb.c ****   uint8_t *buf;
 341              		.loc 1 53 13 is_stmt 0 view .LVU71
 342 0000 70B5     		push	{r4, r5, r6, lr}
 343              		.cfi_def_cfa_offset 16
 344              		.cfi_offset 4, -16
 345              		.cfi_offset 5, -12
 346              		.cfi_offset 6, -8
 347              		.cfi_offset 14, -4
  58:lib/chibios/os/hal/src/hal_serial_usb.c ****       (sdup->state != SDU_READY)) {
 348              		.loc 1 58 8 view .LVU72
 349 0002 D0F89020 		ldr	r2, [r0, #144]
 350 0006 1368     		ldr	r3, [r2]
  58:lib/chibios/os/hal/src/hal_serial_usb.c ****       (sdup->state != SDU_READY)) {
 351              		.loc 1 58 6 view .LVU73
 352 0008 1978     		ldrb	r1, [r3]	@ zero_extendqisi2
 353 000a 0429     		cmp	r1, #4
  53:lib/chibios/os/hal/src/hal_serial_usb.c ****   uint8_t *buf;
 354              		.loc 1 53 13 view .LVU74
 355 000c 0446     		mov	r4, r0
  58:lib/chibios/os/hal/src/hal_serial_usb.c ****       (sdup->state != SDU_READY)) {
 356              		.loc 1 58 6 view .LVU75
 357 000e 17D1     		bne	.L13
  58:lib/chibios/os/hal/src/hal_serial_usb.c ****       (sdup->state != SDU_READY)) {
 358              		.loc 1 58 62 view .LVU76
 359 0010 017A     		ldrb	r1, [r0, #8]	@ zero_extendqisi2
 360 0012 0229     		cmp	r1, #2
 361 0014 14D1     		bne	.L13
  64:lib/chibios/os/hal/src/hal_serial_usb.c ****     return true;
 362              		.loc 1 64 3 is_stmt 1 view .LVU77
  64:lib/chibios/os/hal/src/hal_serial_usb.c ****     return true;
 363              		.loc 1 64 7 is_stmt 0 view .LVU78
 364 0016 1279     		ldrb	r2, [r2, #4]	@ zero_extendqisi2
 365 0018 5B89     		ldrh	r3, [r3, #10]
 366 001a 0125     		movs	r5, #1
 367 001c 05FA02F2 		lsl	r2, r5, r2
  64:lib/chibios/os/hal/src/hal_serial_usb.c ****     return true;
 368              		.loc 1 64 6 view .LVU79
 369 0020 1A42     		tst	r2, r3
 370 0022 0DD1     		bne	.L13
  69:lib/chibios/os/hal/src/hal_serial_usb.c ****   if (buf == NULL) {
 371              		.loc 1 69 3 is_stmt 1 view .LVU80
  69:lib/chibios/os/hal/src/hal_serial_usb.c ****   if (buf == NULL) {
 372              		.loc 1 69 9 is_stmt 0 view .LVU81
 373 0024 0C30     		adds	r0, r0, #12
 374              	.LVL33:
  69:lib/chibios/os/hal/src/hal_serial_usb.c ****   if (buf == NULL) {
 375              		.loc 1 69 9 view .LVU82
 376 0026 FFF7FEFF 		bl	ibqGetEmptyBufferI
 377              	.LVL34:
  70:lib/chibios/os/hal/src/hal_serial_usb.c ****     return true;
 378              		.loc 1 70 3 is_stmt 1 view .LVU83
  70:lib/chibios/os/hal/src/hal_serial_usb.c ****     return true;
 379              		.loc 1 70 6 is_stmt 0 view .LVU84
 380 002a 0246     		mov	r2, r0
 381 002c 40B1     		cbz	r0, .L13
  75:lib/chibios/os/hal/src/hal_serial_usb.c ****                    buf, SERIAL_USB_BUFFERS_SIZE);
 382              		.loc 1 75 3 is_stmt 1 view .LVU85
  75:lib/chibios/os/hal/src/hal_serial_usb.c ****                    buf, SERIAL_USB_BUFFERS_SIZE);
 383              		.loc 1 75 24 is_stmt 0 view .LVU86
 384 002e D4F89000 		ldr	r0, [r4, #144]
 385              	.LVL35:
  75:lib/chibios/os/hal/src/hal_serial_usb.c ****                    buf, SERIAL_USB_BUFFERS_SIZE);
 386              		.loc 1 75 3 view .LVU87
 387 0032 2B46     		mov	r3, r5
 388 0034 4179     		ldrb	r1, [r0, #5]	@ zero_extendqisi2
 389 0036 0068     		ldr	r0, [r0]
  79:lib/chibios/os/hal/src/hal_serial_usb.c **** 
 390              		.loc 1 79 1 view .LVU88
 391 0038 BDE87040 		pop	{r4, r5, r6, lr}
 392              		.cfi_remember_state
 393              		.cfi_restore 14
 394              		.cfi_restore 6
 395              		.cfi_restore 5
 396              		.cfi_restore 4
 397              		.cfi_def_cfa_offset 0
 398              	.LVL36:
  75:lib/chibios/os/hal/src/hal_serial_usb.c ****                    buf, SERIAL_USB_BUFFERS_SIZE);
 399              		.loc 1 75 3 view .LVU89
 400 003c FFF7FEBF 		b	usbStartReceiveI
 401              	.LVL37:
 402              	.L13:
 403              		.cfi_restore_state
  79:lib/chibios/os/hal/src/hal_serial_usb.c **** 
 404              		.loc 1 79 1 view .LVU90
 405 0040 70BD     		pop	{r4, r5, r6, pc}
  79:lib/chibios/os/hal/src/hal_serial_usb.c **** 
 406              		.loc 1 79 1 view .LVU91
 407              		.cfi_endproc
 408              	.LFE356:
 410              		.section	.text.ibnotify,"ax",%progbits
 411              		.align	1
 412              		.syntax unified
 413              		.thumb
 414              		.thumb_func
 416              	ibnotify:
 417              	.LVL38:
 418              	.LFB338:
 168:lib/chibios/os/hal/src/hal_serial_usb.c ****   SerialUSBDriver *sdup = bqGetLinkX(bqp);
 419              		.loc 1 168 47 is_stmt 1 view -0
 420              		.cfi_startproc
 421              		@ args = 0, pretend = 0, frame = 0
 422              		@ frame_needed = 0, uses_anonymous_args = 0
 423              		@ link register save eliminated.
 169:lib/chibios/os/hal/src/hal_serial_usb.c ****   (void) sdu_start_receive(sdup);
 424              		.loc 1 169 3 view .LVU93
 170:lib/chibios/os/hal/src/hal_serial_usb.c **** }
 425              		.loc 1 170 3 view .LVU94
 170:lib/chibios/os/hal/src/hal_serial_usb.c **** }
 426              		.loc 1 170 10 is_stmt 0 view .LVU95
 427 0000 406B     		ldr	r0, [r0, #52]
 428              	.LVL39:
 170:lib/chibios/os/hal/src/hal_serial_usb.c **** }
 429              		.loc 1 170 10 view .LVU96
 430 0002 FFF7FEBF 		b	sdu_start_receive.isra.0
 431              	.LVL40:
 170:lib/chibios/os/hal/src/hal_serial_usb.c **** }
 432              		.loc 1 170 10 view .LVU97
 433              		.cfi_endproc
 434              	.LFE338:
 436              		.section	.text.sduInit,"ax",%progbits
 437              		.align	1
 438              		.global	sduInit
 439              		.syntax unified
 440              		.thumb
 441              		.thumb_func
 443              	sduInit:
 444              	.LFB340:
 198:lib/chibios/os/hal/src/hal_serial_usb.c **** 
 199:lib/chibios/os/hal/src/hal_serial_usb.c **** /*===========================================================================*/
 200:lib/chibios/os/hal/src/hal_serial_usb.c **** /* Driver exported functions.                                                */
 201:lib/chibios/os/hal/src/hal_serial_usb.c **** /*===========================================================================*/
 202:lib/chibios/os/hal/src/hal_serial_usb.c **** 
 203:lib/chibios/os/hal/src/hal_serial_usb.c **** /**
 204:lib/chibios/os/hal/src/hal_serial_usb.c ****  * @brief   Serial Driver initialization.
 205:lib/chibios/os/hal/src/hal_serial_usb.c ****  * @note    This function is implicitly invoked by @p halInit(), there is
 206:lib/chibios/os/hal/src/hal_serial_usb.c ****  *          no need to explicitly initialize the driver.
 207:lib/chibios/os/hal/src/hal_serial_usb.c ****  *
 208:lib/chibios/os/hal/src/hal_serial_usb.c ****  * @init
 209:lib/chibios/os/hal/src/hal_serial_usb.c ****  */
 210:lib/chibios/os/hal/src/hal_serial_usb.c **** void sduInit(void) {
 445              		.loc 1 210 20 is_stmt 1 view -0
 446              		.cfi_startproc
 447              		@ args = 0, pretend = 0, frame = 0
 448              		@ frame_needed = 0, uses_anonymous_args = 0
 449              		@ link register save eliminated.
 211:lib/chibios/os/hal/src/hal_serial_usb.c **** }
 450              		.loc 1 211 1 view .LVU99
 451 0000 7047     		bx	lr
 452              		.cfi_endproc
 453              	.LFE340:
 455              		.section	.text.sduObjectInit,"ax",%progbits
 456              		.align	1
 457              		.global	sduObjectInit
 458              		.syntax unified
 459              		.thumb
 460              		.thumb_func
 462              	sduObjectInit:
 463              	.LVL41:
 464              	.LFB341:
 212:lib/chibios/os/hal/src/hal_serial_usb.c **** 
 213:lib/chibios/os/hal/src/hal_serial_usb.c **** /**
 214:lib/chibios/os/hal/src/hal_serial_usb.c ****  * @brief   Initializes a generic full duplex driver object.
 215:lib/chibios/os/hal/src/hal_serial_usb.c ****  * @details The HW dependent part of the initialization has to be performed
 216:lib/chibios/os/hal/src/hal_serial_usb.c ****  *          outside, usually in the hardware initialization code.
 217:lib/chibios/os/hal/src/hal_serial_usb.c ****  *
 218:lib/chibios/os/hal/src/hal_serial_usb.c ****  * @param[out] sdup     pointer to a @p SerialUSBDriver structure
 219:lib/chibios/os/hal/src/hal_serial_usb.c ****  *
 220:lib/chibios/os/hal/src/hal_serial_usb.c ****  * @init
 221:lib/chibios/os/hal/src/hal_serial_usb.c ****  */
 222:lib/chibios/os/hal/src/hal_serial_usb.c **** void sduObjectInit(SerialUSBDriver *sdup) {
 465              		.loc 1 222 43 view -0
 466              		.cfi_startproc
 467              		@ args = 0, pretend = 0, frame = 0
 468              		@ frame_needed = 0, uses_anonymous_args = 0
 223:lib/chibios/os/hal/src/hal_serial_usb.c **** 
 224:lib/chibios/os/hal/src/hal_serial_usb.c ****   sdup->vmt = &vmt;
 469              		.loc 1 224 3 view .LVU101
 222:lib/chibios/os/hal/src/hal_serial_usb.c **** 
 470              		.loc 1 222 43 is_stmt 0 view .LVU102
 471 0000 7FB5     		push	{r0, r1, r2, r3, r4, r5, r6, lr}
 472              		.cfi_def_cfa_offset 32
 473              		.cfi_offset 4, -16
 474              		.cfi_offset 5, -12
 475              		.cfi_offset 6, -8
 476              		.cfi_offset 14, -4
 477              		.loc 1 224 13 view .LVU103
 478 0002 0346     		mov	r3, r0
 479 0004 104A     		ldr	r2, .L23
 480 0006 43F8042B 		str	r2, [r3], #4
 225:lib/chibios/os/hal/src/hal_serial_usb.c ****   osalEventObjectInit(&sdup->event);
 481              		.loc 1 225 3 is_stmt 1 view .LVU104
 482              	.LVL42:
 483              	.LBB135:
 484              	.LBI135:
 485              		.file 2 "./lib/chibios/os/hal/osal/rt-nil/osal.h"
   1:./lib/chibios/os/hal/osal/rt-nil/osal.h **** /*
   2:./lib/chibios/os/hal/osal/rt-nil/osal.h ****     ChibiOS - Copyright (C) 2006..2018 Giovanni Di Sirio
   3:./lib/chibios/os/hal/osal/rt-nil/osal.h **** 
   4:./lib/chibios/os/hal/osal/rt-nil/osal.h ****     Licensed under the Apache License, Version 2.0 (the "License");
   5:./lib/chibios/os/hal/osal/rt-nil/osal.h ****     you may not use this file except in compliance with the License.
   6:./lib/chibios/os/hal/osal/rt-nil/osal.h ****     You may obtain a copy of the License at
   7:./lib/chibios/os/hal/osal/rt-nil/osal.h **** 
   8:./lib/chibios/os/hal/osal/rt-nil/osal.h ****         http://www.apache.org/licenses/LICENSE-2.0
   9:./lib/chibios/os/hal/osal/rt-nil/osal.h **** 
  10:./lib/chibios/os/hal/osal/rt-nil/osal.h ****     Unless required by applicable law or agreed to in writing, software
  11:./lib/chibios/os/hal/osal/rt-nil/osal.h ****     distributed under the License is distributed on an "AS IS" BASIS,
  12:./lib/chibios/os/hal/osal/rt-nil/osal.h ****     WITHOUT WARRANTIES OR CONDITIONS OF ANY KIND, either express or implied.
  13:./lib/chibios/os/hal/osal/rt-nil/osal.h ****     See the License for the specific language governing permissions and
  14:./lib/chibios/os/hal/osal/rt-nil/osal.h ****     limitations under the License.
  15:./lib/chibios/os/hal/osal/rt-nil/osal.h **** */
  16:./lib/chibios/os/hal/osal/rt-nil/osal.h **** 
  17:./lib/chibios/os/hal/osal/rt-nil/osal.h **** /**
  18:./lib/chibios/os/hal/osal/rt-nil/osal.h ****  * @file    osal.h
  19:./lib/chibios/os/hal/osal/rt-nil/osal.h ****  * @brief   OSAL module header.
  20:./lib/chibios/os/hal/osal/rt-nil/osal.h ****  *
  21:./lib/chibios/os/hal/osal/rt-nil/osal.h ****  * @addtogroup OSAL
  22:./lib/chibios/os/hal/osal/rt-nil/osal.h ****  * @{
  23:./lib/chibios/os/hal/osal/rt-nil/osal.h ****  */
  24:./lib/chibios/os/hal/osal/rt-nil/osal.h **** 
  25:./lib/chibios/os/hal/osal/rt-nil/osal.h **** #ifndef OSAL_H
  26:./lib/chibios/os/hal/osal/rt-nil/osal.h **** #define OSAL_H
  27:./lib/chibios/os/hal/osal/rt-nil/osal.h **** 
  28:./lib/chibios/os/hal/osal/rt-nil/osal.h **** #include <stddef.h>
  29:./lib/chibios/os/hal/osal/rt-nil/osal.h **** #include <stdint.h>
  30:./lib/chibios/os/hal/osal/rt-nil/osal.h **** #include <stdbool.h>
  31:./lib/chibios/os/hal/osal/rt-nil/osal.h **** 
  32:./lib/chibios/os/hal/osal/rt-nil/osal.h **** #include "ch.h"
  33:./lib/chibios/os/hal/osal/rt-nil/osal.h **** 
  34:./lib/chibios/os/hal/osal/rt-nil/osal.h **** /*===========================================================================*/
  35:./lib/chibios/os/hal/osal/rt-nil/osal.h **** /* Module constants.                                                         */
  36:./lib/chibios/os/hal/osal/rt-nil/osal.h **** /*===========================================================================*/
  37:./lib/chibios/os/hal/osal/rt-nil/osal.h **** 
  38:./lib/chibios/os/hal/osal/rt-nil/osal.h **** /**
  39:./lib/chibios/os/hal/osal/rt-nil/osal.h ****  * @name    Common constants
  40:./lib/chibios/os/hal/osal/rt-nil/osal.h ****  * @{
  41:./lib/chibios/os/hal/osal/rt-nil/osal.h ****  */
  42:./lib/chibios/os/hal/osal/rt-nil/osal.h **** #if !defined(FALSE) || defined(__DOXYGEN__)
  43:./lib/chibios/os/hal/osal/rt-nil/osal.h **** #define FALSE                               0
  44:./lib/chibios/os/hal/osal/rt-nil/osal.h **** #endif
  45:./lib/chibios/os/hal/osal/rt-nil/osal.h **** 
  46:./lib/chibios/os/hal/osal/rt-nil/osal.h **** #if !defined(TRUE) || defined(__DOXYGEN__)
  47:./lib/chibios/os/hal/osal/rt-nil/osal.h **** #define TRUE                                1
  48:./lib/chibios/os/hal/osal/rt-nil/osal.h **** #endif
  49:./lib/chibios/os/hal/osal/rt-nil/osal.h **** 
  50:./lib/chibios/os/hal/osal/rt-nil/osal.h **** #define OSAL_SUCCESS                        false
  51:./lib/chibios/os/hal/osal/rt-nil/osal.h **** #define OSAL_FAILED                         true
  52:./lib/chibios/os/hal/osal/rt-nil/osal.h **** /** @} */
  53:./lib/chibios/os/hal/osal/rt-nil/osal.h **** 
  54:./lib/chibios/os/hal/osal/rt-nil/osal.h **** #if 0
  55:./lib/chibios/os/hal/osal/rt-nil/osal.h **** /**
  56:./lib/chibios/os/hal/osal/rt-nil/osal.h ****  * @name    Messages
  57:./lib/chibios/os/hal/osal/rt-nil/osal.h ****  * @{
  58:./lib/chibios/os/hal/osal/rt-nil/osal.h ****  */
  59:./lib/chibios/os/hal/osal/rt-nil/osal.h **** #define MSG_OK                              (msg_t)0
  60:./lib/chibios/os/hal/osal/rt-nil/osal.h **** #define MSG_TIMEOUT                         (msg_t)-1
  61:./lib/chibios/os/hal/osal/rt-nil/osal.h **** #define MSG_RESET                           (msg_t)-2
  62:./lib/chibios/os/hal/osal/rt-nil/osal.h **** /** @} */
  63:./lib/chibios/os/hal/osal/rt-nil/osal.h **** #endif
  64:./lib/chibios/os/hal/osal/rt-nil/osal.h **** 
  65:./lib/chibios/os/hal/osal/rt-nil/osal.h **** #if 0
  66:./lib/chibios/os/hal/osal/rt-nil/osal.h **** /**
  67:./lib/chibios/os/hal/osal/rt-nil/osal.h ****  * @name    Special time constants
  68:./lib/chibios/os/hal/osal/rt-nil/osal.h ****  * @{
  69:./lib/chibios/os/hal/osal/rt-nil/osal.h ****  */
  70:./lib/chibios/os/hal/osal/rt-nil/osal.h **** #define TIME_IMMEDIATE                      ((sysinterval_t)0)
  71:./lib/chibios/os/hal/osal/rt-nil/osal.h **** #define TIME_INFINITE                       ((sysinterval_t)-1)
  72:./lib/chibios/os/hal/osal/rt-nil/osal.h **** /** @} */
  73:./lib/chibios/os/hal/osal/rt-nil/osal.h **** #endif
  74:./lib/chibios/os/hal/osal/rt-nil/osal.h **** 
  75:./lib/chibios/os/hal/osal/rt-nil/osal.h **** /**
  76:./lib/chibios/os/hal/osal/rt-nil/osal.h ****  * @name    Systick modes.
  77:./lib/chibios/os/hal/osal/rt-nil/osal.h ****  * @{
  78:./lib/chibios/os/hal/osal/rt-nil/osal.h ****  */
  79:./lib/chibios/os/hal/osal/rt-nil/osal.h **** #define OSAL_ST_MODE_NONE                   0
  80:./lib/chibios/os/hal/osal/rt-nil/osal.h **** #define OSAL_ST_MODE_PERIODIC               1
  81:./lib/chibios/os/hal/osal/rt-nil/osal.h **** #define OSAL_ST_MODE_FREERUNNING            2
  82:./lib/chibios/os/hal/osal/rt-nil/osal.h **** /** @} */
  83:./lib/chibios/os/hal/osal/rt-nil/osal.h **** 
  84:./lib/chibios/os/hal/osal/rt-nil/osal.h **** /**
  85:./lib/chibios/os/hal/osal/rt-nil/osal.h ****  * @name    Systick parameters.
  86:./lib/chibios/os/hal/osal/rt-nil/osal.h ****  * @{
  87:./lib/chibios/os/hal/osal/rt-nil/osal.h ****  */
  88:./lib/chibios/os/hal/osal/rt-nil/osal.h **** /**
  89:./lib/chibios/os/hal/osal/rt-nil/osal.h ****  * @brief   Size in bits of the @p systick_t type.
  90:./lib/chibios/os/hal/osal/rt-nil/osal.h ****  */
  91:./lib/chibios/os/hal/osal/rt-nil/osal.h **** #define OSAL_ST_RESOLUTION                  CH_CFG_ST_RESOLUTION
  92:./lib/chibios/os/hal/osal/rt-nil/osal.h **** 
  93:./lib/chibios/os/hal/osal/rt-nil/osal.h **** /**
  94:./lib/chibios/os/hal/osal/rt-nil/osal.h ****  * @brief   Required systick frequency or resolution.
  95:./lib/chibios/os/hal/osal/rt-nil/osal.h ****  */
  96:./lib/chibios/os/hal/osal/rt-nil/osal.h **** #define OSAL_ST_FREQUENCY                   CH_CFG_ST_FREQUENCY
  97:./lib/chibios/os/hal/osal/rt-nil/osal.h **** 
  98:./lib/chibios/os/hal/osal/rt-nil/osal.h **** /**
  99:./lib/chibios/os/hal/osal/rt-nil/osal.h ****  * @brief   Systick mode required by the underlying OS.
 100:./lib/chibios/os/hal/osal/rt-nil/osal.h ****  */
 101:./lib/chibios/os/hal/osal/rt-nil/osal.h **** #if (CH_CFG_ST_TIMEDELTA == 0) || defined(__DOXYGEN__)
 102:./lib/chibios/os/hal/osal/rt-nil/osal.h **** #define OSAL_ST_MODE                        OSAL_ST_MODE_PERIODIC
 103:./lib/chibios/os/hal/osal/rt-nil/osal.h **** #else
 104:./lib/chibios/os/hal/osal/rt-nil/osal.h **** #define OSAL_ST_MODE                        OSAL_ST_MODE_FREERUNNING
 105:./lib/chibios/os/hal/osal/rt-nil/osal.h **** #endif
 106:./lib/chibios/os/hal/osal/rt-nil/osal.h **** /** @} */
 107:./lib/chibios/os/hal/osal/rt-nil/osal.h **** 
 108:./lib/chibios/os/hal/osal/rt-nil/osal.h **** /*===========================================================================*/
 109:./lib/chibios/os/hal/osal/rt-nil/osal.h **** /* Module pre-compile time settings.                                         */
 110:./lib/chibios/os/hal/osal/rt-nil/osal.h **** /*===========================================================================*/
 111:./lib/chibios/os/hal/osal/rt-nil/osal.h **** 
 112:./lib/chibios/os/hal/osal/rt-nil/osal.h **** /*===========================================================================*/
 113:./lib/chibios/os/hal/osal/rt-nil/osal.h **** /* Derived constants and error checks.                                       */
 114:./lib/chibios/os/hal/osal/rt-nil/osal.h **** /*===========================================================================*/
 115:./lib/chibios/os/hal/osal/rt-nil/osal.h **** 
 116:./lib/chibios/os/hal/osal/rt-nil/osal.h **** #if !(OSAL_ST_MODE == OSAL_ST_MODE_NONE) &&                                 \
 117:./lib/chibios/os/hal/osal/rt-nil/osal.h ****     !(OSAL_ST_MODE == OSAL_ST_MODE_PERIODIC) &&                             \
 118:./lib/chibios/os/hal/osal/rt-nil/osal.h ****     !(OSAL_ST_MODE == OSAL_ST_MODE_FREERUNNING)
 119:./lib/chibios/os/hal/osal/rt-nil/osal.h **** #error "invalid OSAL_ST_MODE setting in osal.h"
 120:./lib/chibios/os/hal/osal/rt-nil/osal.h **** #endif
 121:./lib/chibios/os/hal/osal/rt-nil/osal.h **** 
 122:./lib/chibios/os/hal/osal/rt-nil/osal.h **** #if (OSAL_ST_RESOLUTION != 16) && (OSAL_ST_RESOLUTION != 32) &&             \
 123:./lib/chibios/os/hal/osal/rt-nil/osal.h ****     (OSAL_ST_RESOLUTION != 64)
 124:./lib/chibios/os/hal/osal/rt-nil/osal.h **** #error "invalid OSAL_ST_RESOLUTION, must be 16, 32 or 64"
 125:./lib/chibios/os/hal/osal/rt-nil/osal.h **** #endif
 126:./lib/chibios/os/hal/osal/rt-nil/osal.h **** 
 127:./lib/chibios/os/hal/osal/rt-nil/osal.h **** /*===========================================================================*/
 128:./lib/chibios/os/hal/osal/rt-nil/osal.h **** /* Module data structures and types.                                         */
 129:./lib/chibios/os/hal/osal/rt-nil/osal.h **** /*===========================================================================*/
 130:./lib/chibios/os/hal/osal/rt-nil/osal.h **** 
 131:./lib/chibios/os/hal/osal/rt-nil/osal.h **** #if 0
 132:./lib/chibios/os/hal/osal/rt-nil/osal.h **** /**
 133:./lib/chibios/os/hal/osal/rt-nil/osal.h ****  * @brief   Type of a system status word.
 134:./lib/chibios/os/hal/osal/rt-nil/osal.h ****  */
 135:./lib/chibios/os/hal/osal/rt-nil/osal.h **** typedef uint32_t syssts_t;
 136:./lib/chibios/os/hal/osal/rt-nil/osal.h **** #endif
 137:./lib/chibios/os/hal/osal/rt-nil/osal.h **** 
 138:./lib/chibios/os/hal/osal/rt-nil/osal.h **** #if 0
 139:./lib/chibios/os/hal/osal/rt-nil/osal.h **** /**
 140:./lib/chibios/os/hal/osal/rt-nil/osal.h ****  * @brief   Type of a message.
 141:./lib/chibios/os/hal/osal/rt-nil/osal.h ****  */
 142:./lib/chibios/os/hal/osal/rt-nil/osal.h **** typedef int32_t msg_t;
 143:./lib/chibios/os/hal/osal/rt-nil/osal.h **** #endif
 144:./lib/chibios/os/hal/osal/rt-nil/osal.h **** 
 145:./lib/chibios/os/hal/osal/rt-nil/osal.h **** #if 0
 146:./lib/chibios/os/hal/osal/rt-nil/osal.h **** /**
 147:./lib/chibios/os/hal/osal/rt-nil/osal.h ****  * @brief   Type of system time counter.
 148:./lib/chibios/os/hal/osal/rt-nil/osal.h ****  */
 149:./lib/chibios/os/hal/osal/rt-nil/osal.h **** typedef uint32_t systime_t;
 150:./lib/chibios/os/hal/osal/rt-nil/osal.h **** #endif
 151:./lib/chibios/os/hal/osal/rt-nil/osal.h **** 
 152:./lib/chibios/os/hal/osal/rt-nil/osal.h **** #if 0
 153:./lib/chibios/os/hal/osal/rt-nil/osal.h **** /**
 154:./lib/chibios/os/hal/osal/rt-nil/osal.h ****  * @brief   Type of system time interval.
 155:./lib/chibios/os/hal/osal/rt-nil/osal.h ****  */
 156:./lib/chibios/os/hal/osal/rt-nil/osal.h **** typedef uint32_t sysinterval_t;
 157:./lib/chibios/os/hal/osal/rt-nil/osal.h **** #endif
 158:./lib/chibios/os/hal/osal/rt-nil/osal.h **** 
 159:./lib/chibios/os/hal/osal/rt-nil/osal.h **** #if 0
 160:./lib/chibios/os/hal/osal/rt-nil/osal.h **** /**
 161:./lib/chibios/os/hal/osal/rt-nil/osal.h ****  * @brief   Type of time conversion variable.
 162:./lib/chibios/os/hal/osal/rt-nil/osal.h ****  * @note    This type must have double width than other time types, it is
 163:./lib/chibios/os/hal/osal/rt-nil/osal.h ****  *          only used internally for conversions.
 164:./lib/chibios/os/hal/osal/rt-nil/osal.h ****  */
 165:./lib/chibios/os/hal/osal/rt-nil/osal.h **** typedef uint64_t time_conv_t;
 166:./lib/chibios/os/hal/osal/rt-nil/osal.h **** #endif
 167:./lib/chibios/os/hal/osal/rt-nil/osal.h **** 
 168:./lib/chibios/os/hal/osal/rt-nil/osal.h **** #if 0
 169:./lib/chibios/os/hal/osal/rt-nil/osal.h **** /**
 170:./lib/chibios/os/hal/osal/rt-nil/osal.h ****  * @brief   Type of realtime counter.
 171:./lib/chibios/os/hal/osal/rt-nil/osal.h ****  */
 172:./lib/chibios/os/hal/osal/rt-nil/osal.h **** typedef uint32_t rtcnt_t;
 173:./lib/chibios/os/hal/osal/rt-nil/osal.h **** #endif
 174:./lib/chibios/os/hal/osal/rt-nil/osal.h **** 
 175:./lib/chibios/os/hal/osal/rt-nil/osal.h **** #if 0
 176:./lib/chibios/os/hal/osal/rt-nil/osal.h **** /**
 177:./lib/chibios/os/hal/osal/rt-nil/osal.h ****  * @brief   Type of a thread reference.
 178:./lib/chibios/os/hal/osal/rt-nil/osal.h ****  */
 179:./lib/chibios/os/hal/osal/rt-nil/osal.h **** typedef thread_t * thread_reference_t;
 180:./lib/chibios/os/hal/osal/rt-nil/osal.h **** #endif
 181:./lib/chibios/os/hal/osal/rt-nil/osal.h **** 
 182:./lib/chibios/os/hal/osal/rt-nil/osal.h **** #if 0
 183:./lib/chibios/os/hal/osal/rt-nil/osal.h **** /**
 184:./lib/chibios/os/hal/osal/rt-nil/osal.h ****  * @brief   Type of an event flags mask.
 185:./lib/chibios/os/hal/osal/rt-nil/osal.h ****  */
 186:./lib/chibios/os/hal/osal/rt-nil/osal.h **** typedef uint32_t eventflags_t;
 187:./lib/chibios/os/hal/osal/rt-nil/osal.h **** #endif
 188:./lib/chibios/os/hal/osal/rt-nil/osal.h **** 
 189:./lib/chibios/os/hal/osal/rt-nil/osal.h **** #if (CH_CFG_USE_EVENTS == FALSE) || defined(__DOXYGEN__)
 190:./lib/chibios/os/hal/osal/rt-nil/osal.h **** /**
 191:./lib/chibios/os/hal/osal/rt-nil/osal.h ****  * @brief   Type of an event flags object.
 192:./lib/chibios/os/hal/osal/rt-nil/osal.h ****  * @note    The content of this structure is not part of the API and should
 193:./lib/chibios/os/hal/osal/rt-nil/osal.h ****  *          not be relied upon. Implementers may define this structure in
 194:./lib/chibios/os/hal/osal/rt-nil/osal.h ****  *          an entirely different way.
 195:./lib/chibios/os/hal/osal/rt-nil/osal.h ****  * @note    Retrieval and clearing of the flags are not defined in this
 196:./lib/chibios/os/hal/osal/rt-nil/osal.h ****  *          API and are implementation-dependent.
 197:./lib/chibios/os/hal/osal/rt-nil/osal.h ****  */
 198:./lib/chibios/os/hal/osal/rt-nil/osal.h **** typedef struct event_source event_source_t;
 199:./lib/chibios/os/hal/osal/rt-nil/osal.h **** 
 200:./lib/chibios/os/hal/osal/rt-nil/osal.h **** /**
 201:./lib/chibios/os/hal/osal/rt-nil/osal.h ****  * @brief   Type of an event source callback.
 202:./lib/chibios/os/hal/osal/rt-nil/osal.h ****  * @note    This type is not part of the OSAL API and is provided
 203:./lib/chibios/os/hal/osal/rt-nil/osal.h ****  *          exclusively as an example and for convenience.
 204:./lib/chibios/os/hal/osal/rt-nil/osal.h ****  */
 205:./lib/chibios/os/hal/osal/rt-nil/osal.h **** typedef void (*eventcallback_t)(event_source_t *esp);
 206:./lib/chibios/os/hal/osal/rt-nil/osal.h **** 
 207:./lib/chibios/os/hal/osal/rt-nil/osal.h **** /**
 208:./lib/chibios/os/hal/osal/rt-nil/osal.h ****  * @brief   Events source object.
 209:./lib/chibios/os/hal/osal/rt-nil/osal.h ****  * @note    The content of this structure is not part of the API and should
 210:./lib/chibios/os/hal/osal/rt-nil/osal.h ****  *          not be relied upon. Implementers may define this structure in
 211:./lib/chibios/os/hal/osal/rt-nil/osal.h ****  *          an entirely different way.
 212:./lib/chibios/os/hal/osal/rt-nil/osal.h ****  * @note    Retrieval and clearing of the flags are not defined in this
 213:./lib/chibios/os/hal/osal/rt-nil/osal.h ****  *          API and are implementation-dependent.
 214:./lib/chibios/os/hal/osal/rt-nil/osal.h ****  */
 215:./lib/chibios/os/hal/osal/rt-nil/osal.h **** struct event_source {
 216:./lib/chibios/os/hal/osal/rt-nil/osal.h ****   volatile eventflags_t flags;      /**< @brief Stored event flags.         */
 217:./lib/chibios/os/hal/osal/rt-nil/osal.h ****   eventcallback_t       cb;         /**< @brief Event source callback.      */
 218:./lib/chibios/os/hal/osal/rt-nil/osal.h ****   void                  *param;     /**< @brief User defined field.         */
 219:./lib/chibios/os/hal/osal/rt-nil/osal.h **** };
 220:./lib/chibios/os/hal/osal/rt-nil/osal.h **** #endif /* CH_CFG_USE_EVENTS == FALSE */
 221:./lib/chibios/os/hal/osal/rt-nil/osal.h **** 
 222:./lib/chibios/os/hal/osal/rt-nil/osal.h **** /**
 223:./lib/chibios/os/hal/osal/rt-nil/osal.h ****  * @brief   Type of a mutex.
 224:./lib/chibios/os/hal/osal/rt-nil/osal.h ****  * @note    If the OS does not support mutexes or there is no OS then the
 225:./lib/chibios/os/hal/osal/rt-nil/osal.h ****  *          mechanism can be simulated.
 226:./lib/chibios/os/hal/osal/rt-nil/osal.h ****  */
 227:./lib/chibios/os/hal/osal/rt-nil/osal.h **** #if CH_CFG_USE_MUTEXES || defined(__DOXYGEN__)
 228:./lib/chibios/os/hal/osal/rt-nil/osal.h **** #elif CH_CFG_USE_SEMAPHORES
 229:./lib/chibios/os/hal/osal/rt-nil/osal.h **** typedef semaphore_t mutex_t;
 230:./lib/chibios/os/hal/osal/rt-nil/osal.h **** #else
 231:./lib/chibios/os/hal/osal/rt-nil/osal.h **** typedef uint32_t mutex_t;
 232:./lib/chibios/os/hal/osal/rt-nil/osal.h **** #endif
 233:./lib/chibios/os/hal/osal/rt-nil/osal.h **** 
 234:./lib/chibios/os/hal/osal/rt-nil/osal.h **** #if 0
 235:./lib/chibios/os/hal/osal/rt-nil/osal.h **** /**
 236:./lib/chibios/os/hal/osal/rt-nil/osal.h ****  * @brief   Type of a thread queue.
 237:./lib/chibios/os/hal/osal/rt-nil/osal.h ****  * @details A thread queue is a queue of sleeping threads, queued threads
 238:./lib/chibios/os/hal/osal/rt-nil/osal.h ****  *          can be dequeued one at time or all together.
 239:./lib/chibios/os/hal/osal/rt-nil/osal.h ****  * @note    In this implementation it is implemented as a single reference
 240:./lib/chibios/os/hal/osal/rt-nil/osal.h ****  *          because there are no real threads.
 241:./lib/chibios/os/hal/osal/rt-nil/osal.h ****  */
 242:./lib/chibios/os/hal/osal/rt-nil/osal.h **** typedef struct {
 243:./lib/chibios/os/hal/osal/rt-nil/osal.h ****   thread_reference_t    tr;
 244:./lib/chibios/os/hal/osal/rt-nil/osal.h **** } threads_queue_t;
 245:./lib/chibios/os/hal/osal/rt-nil/osal.h **** #endif
 246:./lib/chibios/os/hal/osal/rt-nil/osal.h **** 
 247:./lib/chibios/os/hal/osal/rt-nil/osal.h **** /*===========================================================================*/
 248:./lib/chibios/os/hal/osal/rt-nil/osal.h **** /* Module macros.                                                            */
 249:./lib/chibios/os/hal/osal/rt-nil/osal.h **** /*===========================================================================*/
 250:./lib/chibios/os/hal/osal/rt-nil/osal.h **** 
 251:./lib/chibios/os/hal/osal/rt-nil/osal.h **** /**
 252:./lib/chibios/os/hal/osal/rt-nil/osal.h ****  * @name    Debug related macros
 253:./lib/chibios/os/hal/osal/rt-nil/osal.h ****  * @{
 254:./lib/chibios/os/hal/osal/rt-nil/osal.h ****  */
 255:./lib/chibios/os/hal/osal/rt-nil/osal.h **** /**
 256:./lib/chibios/os/hal/osal/rt-nil/osal.h ****  * @brief   Condition assertion.
 257:./lib/chibios/os/hal/osal/rt-nil/osal.h ****  * @details If the condition check fails then the OSAL panics with a
 258:./lib/chibios/os/hal/osal/rt-nil/osal.h ****  *          message and halts.
 259:./lib/chibios/os/hal/osal/rt-nil/osal.h ****  * @note    The condition is tested only if the @p OSAL_ENABLE_ASSERTIONS
 260:./lib/chibios/os/hal/osal/rt-nil/osal.h ****  *          switch is enabled.
 261:./lib/chibios/os/hal/osal/rt-nil/osal.h ****  * @note    The remark string is not currently used except for putting a
 262:./lib/chibios/os/hal/osal/rt-nil/osal.h ****  *          comment in the code about the assertion.
 263:./lib/chibios/os/hal/osal/rt-nil/osal.h ****  *
 264:./lib/chibios/os/hal/osal/rt-nil/osal.h ****  * @param[in] c         the condition to be verified to be true
 265:./lib/chibios/os/hal/osal/rt-nil/osal.h ****  * @param[in] remark    a remark string
 266:./lib/chibios/os/hal/osal/rt-nil/osal.h ****  *
 267:./lib/chibios/os/hal/osal/rt-nil/osal.h ****  * @api
 268:./lib/chibios/os/hal/osal/rt-nil/osal.h ****  */
 269:./lib/chibios/os/hal/osal/rt-nil/osal.h **** #define osalDbgAssert(c, remark) chDbgAssert(c, remark)
 270:./lib/chibios/os/hal/osal/rt-nil/osal.h **** 
 271:./lib/chibios/os/hal/osal/rt-nil/osal.h **** /**
 272:./lib/chibios/os/hal/osal/rt-nil/osal.h ****  * @brief   Function parameters check.
 273:./lib/chibios/os/hal/osal/rt-nil/osal.h ****  * @details If the condition check fails then the OSAL panics and halts.
 274:./lib/chibios/os/hal/osal/rt-nil/osal.h ****  * @note    The condition is tested only if the @p OSAL_ENABLE_CHECKS switch
 275:./lib/chibios/os/hal/osal/rt-nil/osal.h ****  *          is enabled.
 276:./lib/chibios/os/hal/osal/rt-nil/osal.h ****  *
 277:./lib/chibios/os/hal/osal/rt-nil/osal.h ****  * @param[in] c         the condition to be verified to be true
 278:./lib/chibios/os/hal/osal/rt-nil/osal.h ****  *
 279:./lib/chibios/os/hal/osal/rt-nil/osal.h ****  * @api
 280:./lib/chibios/os/hal/osal/rt-nil/osal.h ****  */
 281:./lib/chibios/os/hal/osal/rt-nil/osal.h **** #define osalDbgCheck(c) chDbgCheck(c)
 282:./lib/chibios/os/hal/osal/rt-nil/osal.h **** 
 283:./lib/chibios/os/hal/osal/rt-nil/osal.h **** /**
 284:./lib/chibios/os/hal/osal/rt-nil/osal.h ****  * @brief   I-Class state check.
 285:./lib/chibios/os/hal/osal/rt-nil/osal.h ****  * @note    Not implemented in this simplified OSAL.
 286:./lib/chibios/os/hal/osal/rt-nil/osal.h ****  */
 287:./lib/chibios/os/hal/osal/rt-nil/osal.h **** #define osalDbgCheckClassI() chDbgCheckClassI()
 288:./lib/chibios/os/hal/osal/rt-nil/osal.h **** 
 289:./lib/chibios/os/hal/osal/rt-nil/osal.h **** /**
 290:./lib/chibios/os/hal/osal/rt-nil/osal.h ****  * @brief   S-Class state check.
 291:./lib/chibios/os/hal/osal/rt-nil/osal.h ****  * @note    Not implemented in this simplified OSAL.
 292:./lib/chibios/os/hal/osal/rt-nil/osal.h ****  */
 293:./lib/chibios/os/hal/osal/rt-nil/osal.h **** #define osalDbgCheckClassS() chDbgCheckClassS()
 294:./lib/chibios/os/hal/osal/rt-nil/osal.h **** /** @} */
 295:./lib/chibios/os/hal/osal/rt-nil/osal.h **** 
 296:./lib/chibios/os/hal/osal/rt-nil/osal.h **** /**
 297:./lib/chibios/os/hal/osal/rt-nil/osal.h ****  * @name    IRQ service routines wrappers
 298:./lib/chibios/os/hal/osal/rt-nil/osal.h ****  * @{
 299:./lib/chibios/os/hal/osal/rt-nil/osal.h ****  */
 300:./lib/chibios/os/hal/osal/rt-nil/osal.h **** /**
 301:./lib/chibios/os/hal/osal/rt-nil/osal.h ****  * @brief   Priority level verification macro.
 302:./lib/chibios/os/hal/osal/rt-nil/osal.h ****  */
 303:./lib/chibios/os/hal/osal/rt-nil/osal.h **** #define OSAL_IRQ_IS_VALID_PRIORITY(n) CH_IRQ_IS_VALID_KERNEL_PRIORITY(n)
 304:./lib/chibios/os/hal/osal/rt-nil/osal.h **** 
 305:./lib/chibios/os/hal/osal/rt-nil/osal.h **** /**
 306:./lib/chibios/os/hal/osal/rt-nil/osal.h ****  * @brief   IRQ prologue code.
 307:./lib/chibios/os/hal/osal/rt-nil/osal.h ****  * @details This macro must be inserted at the start of all IRQ handlers.
 308:./lib/chibios/os/hal/osal/rt-nil/osal.h ****  */
 309:./lib/chibios/os/hal/osal/rt-nil/osal.h **** #define OSAL_IRQ_PROLOGUE() CH_IRQ_PROLOGUE()
 310:./lib/chibios/os/hal/osal/rt-nil/osal.h **** 
 311:./lib/chibios/os/hal/osal/rt-nil/osal.h **** /**
 312:./lib/chibios/os/hal/osal/rt-nil/osal.h ****  * @brief   IRQ epilogue code.
 313:./lib/chibios/os/hal/osal/rt-nil/osal.h ****  * @details This macro must be inserted at the end of all IRQ handlers.
 314:./lib/chibios/os/hal/osal/rt-nil/osal.h ****  */
 315:./lib/chibios/os/hal/osal/rt-nil/osal.h **** #define OSAL_IRQ_EPILOGUE() CH_IRQ_EPILOGUE()
 316:./lib/chibios/os/hal/osal/rt-nil/osal.h **** 
 317:./lib/chibios/os/hal/osal/rt-nil/osal.h **** /**
 318:./lib/chibios/os/hal/osal/rt-nil/osal.h ****  * @brief   IRQ handler function declaration.
 319:./lib/chibios/os/hal/osal/rt-nil/osal.h ****  * @details This macro hides the details of an ISR function declaration.
 320:./lib/chibios/os/hal/osal/rt-nil/osal.h ****  *
 321:./lib/chibios/os/hal/osal/rt-nil/osal.h ****  * @param[in] id        a vector name as defined in @p vectors.s
 322:./lib/chibios/os/hal/osal/rt-nil/osal.h ****  */
 323:./lib/chibios/os/hal/osal/rt-nil/osal.h **** #define OSAL_IRQ_HANDLER(id) CH_IRQ_HANDLER(id)
 324:./lib/chibios/os/hal/osal/rt-nil/osal.h **** /** @} */
 325:./lib/chibios/os/hal/osal/rt-nil/osal.h **** 
 326:./lib/chibios/os/hal/osal/rt-nil/osal.h **** /**
 327:./lib/chibios/os/hal/osal/rt-nil/osal.h ****  * @name    Time conversion utilities
 328:./lib/chibios/os/hal/osal/rt-nil/osal.h ****  * @{
 329:./lib/chibios/os/hal/osal/rt-nil/osal.h ****  */
 330:./lib/chibios/os/hal/osal/rt-nil/osal.h **** /**
 331:./lib/chibios/os/hal/osal/rt-nil/osal.h ****  * @brief   Seconds to time interval.
 332:./lib/chibios/os/hal/osal/rt-nil/osal.h ****  * @details Converts from seconds to system ticks number.
 333:./lib/chibios/os/hal/osal/rt-nil/osal.h ****  * @note    The result is rounded upward to the next tick boundary.
 334:./lib/chibios/os/hal/osal/rt-nil/osal.h ****  * @note    Use of this macro for large values is not secure because
 335:./lib/chibios/os/hal/osal/rt-nil/osal.h ****  *          integer overflows, make sure your value can be correctly
 336:./lib/chibios/os/hal/osal/rt-nil/osal.h ****  *          converted.
 337:./lib/chibios/os/hal/osal/rt-nil/osal.h ****  *
 338:./lib/chibios/os/hal/osal/rt-nil/osal.h ****  * @param[in] secs      number of seconds
 339:./lib/chibios/os/hal/osal/rt-nil/osal.h ****  * @return              The number of ticks.
 340:./lib/chibios/os/hal/osal/rt-nil/osal.h ****  *
 341:./lib/chibios/os/hal/osal/rt-nil/osal.h ****  * @api
 342:./lib/chibios/os/hal/osal/rt-nil/osal.h ****  */
 343:./lib/chibios/os/hal/osal/rt-nil/osal.h **** #define OSAL_S2I(secs) TIME_S2I(secs)
 344:./lib/chibios/os/hal/osal/rt-nil/osal.h **** 
 345:./lib/chibios/os/hal/osal/rt-nil/osal.h **** /**
 346:./lib/chibios/os/hal/osal/rt-nil/osal.h ****  * @brief   Milliseconds to time interval.
 347:./lib/chibios/os/hal/osal/rt-nil/osal.h ****  * @details Converts from milliseconds to system ticks number.
 348:./lib/chibios/os/hal/osal/rt-nil/osal.h ****  * @note    The result is rounded upward to the next tick boundary.
 349:./lib/chibios/os/hal/osal/rt-nil/osal.h ****  * @note    Use of this macro for large values is not secure because
 350:./lib/chibios/os/hal/osal/rt-nil/osal.h ****  *          integer overflows, make sure your value can be correctly
 351:./lib/chibios/os/hal/osal/rt-nil/osal.h ****  *          converted.
 352:./lib/chibios/os/hal/osal/rt-nil/osal.h ****  *
 353:./lib/chibios/os/hal/osal/rt-nil/osal.h ****  * @param[in] msecs     number of milliseconds
 354:./lib/chibios/os/hal/osal/rt-nil/osal.h ****  * @return              The number of ticks.
 355:./lib/chibios/os/hal/osal/rt-nil/osal.h ****  *
 356:./lib/chibios/os/hal/osal/rt-nil/osal.h ****  * @api
 357:./lib/chibios/os/hal/osal/rt-nil/osal.h ****  */
 358:./lib/chibios/os/hal/osal/rt-nil/osal.h **** #define OSAL_MS2I(msecs) TIME_MS2I(msecs)
 359:./lib/chibios/os/hal/osal/rt-nil/osal.h **** 
 360:./lib/chibios/os/hal/osal/rt-nil/osal.h **** /**
 361:./lib/chibios/os/hal/osal/rt-nil/osal.h ****  * @brief   Microseconds to time interval.
 362:./lib/chibios/os/hal/osal/rt-nil/osal.h ****  * @details Converts from microseconds to system ticks number.
 363:./lib/chibios/os/hal/osal/rt-nil/osal.h ****  * @note    The result is rounded upward to the next tick boundary.
 364:./lib/chibios/os/hal/osal/rt-nil/osal.h ****  * @note    Use of this macro for large values is not secure because
 365:./lib/chibios/os/hal/osal/rt-nil/osal.h ****  *          integer overflows, make sure your value can be correctly
 366:./lib/chibios/os/hal/osal/rt-nil/osal.h ****  *          converted.
 367:./lib/chibios/os/hal/osal/rt-nil/osal.h ****  *
 368:./lib/chibios/os/hal/osal/rt-nil/osal.h ****  * @param[in] usecs     number of microseconds
 369:./lib/chibios/os/hal/osal/rt-nil/osal.h ****  * @return              The number of ticks.
 370:./lib/chibios/os/hal/osal/rt-nil/osal.h ****  *
 371:./lib/chibios/os/hal/osal/rt-nil/osal.h ****  * @api
 372:./lib/chibios/os/hal/osal/rt-nil/osal.h ****  */
 373:./lib/chibios/os/hal/osal/rt-nil/osal.h **** #define OSAL_US2I(usecs) TIME_US2I(usecs)
 374:./lib/chibios/os/hal/osal/rt-nil/osal.h **** 
 375:./lib/chibios/os/hal/osal/rt-nil/osal.h **** /**
 376:./lib/chibios/os/hal/osal/rt-nil/osal.h ****  * @brief   Time interval to seconds.
 377:./lib/chibios/os/hal/osal/rt-nil/osal.h ****  * @details Converts from system ticks number to seconds.
 378:./lib/chibios/os/hal/osal/rt-nil/osal.h ****  * @note    The result is rounded up to the next second boundary.
 379:./lib/chibios/os/hal/osal/rt-nil/osal.h ****  * @note    Use of this macro for large values is not secure because
 380:./lib/chibios/os/hal/osal/rt-nil/osal.h ****  *          integer overflows, make sure your value can be correctly
 381:./lib/chibios/os/hal/osal/rt-nil/osal.h ****  *          converted.
 382:./lib/chibios/os/hal/osal/rt-nil/osal.h ****  *
 383:./lib/chibios/os/hal/osal/rt-nil/osal.h ****  * @param[in] interval  interval in ticks
 384:./lib/chibios/os/hal/osal/rt-nil/osal.h ****  * @return              The number of seconds.
 385:./lib/chibios/os/hal/osal/rt-nil/osal.h ****  *
 386:./lib/chibios/os/hal/osal/rt-nil/osal.h ****  * @api
 387:./lib/chibios/os/hal/osal/rt-nil/osal.h ****  */
 388:./lib/chibios/os/hal/osal/rt-nil/osal.h **** #define OSAL_I2S(interval) TIME_I2S(interval)
 389:./lib/chibios/os/hal/osal/rt-nil/osal.h **** 
 390:./lib/chibios/os/hal/osal/rt-nil/osal.h **** /**
 391:./lib/chibios/os/hal/osal/rt-nil/osal.h ****  * @brief   Time interval to milliseconds.
 392:./lib/chibios/os/hal/osal/rt-nil/osal.h ****  * @details Converts from system ticks number to milliseconds.
 393:./lib/chibios/os/hal/osal/rt-nil/osal.h ****  * @note    The result is rounded up to the next millisecond boundary.
 394:./lib/chibios/os/hal/osal/rt-nil/osal.h ****  * @note    Use of this macro for large values is not secure because
 395:./lib/chibios/os/hal/osal/rt-nil/osal.h ****  *          integer overflows, make sure your value can be correctly
 396:./lib/chibios/os/hal/osal/rt-nil/osal.h ****  *          converted.
 397:./lib/chibios/os/hal/osal/rt-nil/osal.h ****  *
 398:./lib/chibios/os/hal/osal/rt-nil/osal.h ****  * @param[in] interval  interval in ticks
 399:./lib/chibios/os/hal/osal/rt-nil/osal.h ****  * @return              The number of milliseconds.
 400:./lib/chibios/os/hal/osal/rt-nil/osal.h ****  *
 401:./lib/chibios/os/hal/osal/rt-nil/osal.h ****  * @api
 402:./lib/chibios/os/hal/osal/rt-nil/osal.h ****  */
 403:./lib/chibios/os/hal/osal/rt-nil/osal.h **** #define OSAL_I2MS(interval) TIME_I2MS(interval)
 404:./lib/chibios/os/hal/osal/rt-nil/osal.h **** 
 405:./lib/chibios/os/hal/osal/rt-nil/osal.h **** /**
 406:./lib/chibios/os/hal/osal/rt-nil/osal.h ****  * @brief   Time interval to microseconds.
 407:./lib/chibios/os/hal/osal/rt-nil/osal.h ****  * @details Converts from system ticks number to microseconds.
 408:./lib/chibios/os/hal/osal/rt-nil/osal.h ****  * @note    The result is rounded up to the next microsecond boundary.
 409:./lib/chibios/os/hal/osal/rt-nil/osal.h ****  * @note    Use of this macro for large values is not secure because
 410:./lib/chibios/os/hal/osal/rt-nil/osal.h ****  *          integer overflows, make sure your value can be correctly
 411:./lib/chibios/os/hal/osal/rt-nil/osal.h ****  *          converted.
 412:./lib/chibios/os/hal/osal/rt-nil/osal.h ****  *
 413:./lib/chibios/os/hal/osal/rt-nil/osal.h ****  * @param[in] interval  interval in ticks
 414:./lib/chibios/os/hal/osal/rt-nil/osal.h ****  * @return              The number of microseconds.
 415:./lib/chibios/os/hal/osal/rt-nil/osal.h ****  *
 416:./lib/chibios/os/hal/osal/rt-nil/osal.h ****  * @api
 417:./lib/chibios/os/hal/osal/rt-nil/osal.h ****  */
 418:./lib/chibios/os/hal/osal/rt-nil/osal.h **** #define OSAL_I2US(interval) TIME_I2US(interval)
 419:./lib/chibios/os/hal/osal/rt-nil/osal.h **** /** @} */
 420:./lib/chibios/os/hal/osal/rt-nil/osal.h **** 
 421:./lib/chibios/os/hal/osal/rt-nil/osal.h **** /**
 422:./lib/chibios/os/hal/osal/rt-nil/osal.h ****  * @name    Time conversion utilities for the realtime counter
 423:./lib/chibios/os/hal/osal/rt-nil/osal.h ****  * @{
 424:./lib/chibios/os/hal/osal/rt-nil/osal.h ****  */
 425:./lib/chibios/os/hal/osal/rt-nil/osal.h **** /**
 426:./lib/chibios/os/hal/osal/rt-nil/osal.h ****  * @brief   Seconds to realtime counter.
 427:./lib/chibios/os/hal/osal/rt-nil/osal.h ****  * @details Converts from seconds to realtime counter cycles.
 428:./lib/chibios/os/hal/osal/rt-nil/osal.h ****  * @note    The macro assumes that @p freq >= @p 1.
 429:./lib/chibios/os/hal/osal/rt-nil/osal.h ****  *
 430:./lib/chibios/os/hal/osal/rt-nil/osal.h ****  * @param[in] freq      clock frequency, in Hz, of the realtime counter
 431:./lib/chibios/os/hal/osal/rt-nil/osal.h ****  * @param[in] sec       number of seconds
 432:./lib/chibios/os/hal/osal/rt-nil/osal.h ****  * @return              The number of cycles.
 433:./lib/chibios/os/hal/osal/rt-nil/osal.h ****  *
 434:./lib/chibios/os/hal/osal/rt-nil/osal.h ****  * @api
 435:./lib/chibios/os/hal/osal/rt-nil/osal.h ****  */
 436:./lib/chibios/os/hal/osal/rt-nil/osal.h **** #define OSAL_S2RTC(freq, sec) S2RTC(freq, sec)
 437:./lib/chibios/os/hal/osal/rt-nil/osal.h **** 
 438:./lib/chibios/os/hal/osal/rt-nil/osal.h **** /**
 439:./lib/chibios/os/hal/osal/rt-nil/osal.h ****  * @brief   Milliseconds to realtime counter.
 440:./lib/chibios/os/hal/osal/rt-nil/osal.h ****  * @details Converts from milliseconds to realtime counter cycles.
 441:./lib/chibios/os/hal/osal/rt-nil/osal.h ****  * @note    The result is rounded upward to the next millisecond boundary.
 442:./lib/chibios/os/hal/osal/rt-nil/osal.h ****  * @note    The macro assumes that @p freq >= @p 1000.
 443:./lib/chibios/os/hal/osal/rt-nil/osal.h ****  *
 444:./lib/chibios/os/hal/osal/rt-nil/osal.h ****  * @param[in] freq      clock frequency, in Hz, of the realtime counter
 445:./lib/chibios/os/hal/osal/rt-nil/osal.h ****  * @param[in] msec      number of milliseconds
 446:./lib/chibios/os/hal/osal/rt-nil/osal.h ****  * @return              The number of cycles.
 447:./lib/chibios/os/hal/osal/rt-nil/osal.h ****  *
 448:./lib/chibios/os/hal/osal/rt-nil/osal.h ****  * @api
 449:./lib/chibios/os/hal/osal/rt-nil/osal.h ****  */
 450:./lib/chibios/os/hal/osal/rt-nil/osal.h **** #define OSAL_MS2RTC(freq, msec) MS2RTC(freq, msec)
 451:./lib/chibios/os/hal/osal/rt-nil/osal.h **** 
 452:./lib/chibios/os/hal/osal/rt-nil/osal.h **** /**
 453:./lib/chibios/os/hal/osal/rt-nil/osal.h ****  * @brief   Microseconds to realtime counter.
 454:./lib/chibios/os/hal/osal/rt-nil/osal.h ****  * @details Converts from microseconds to realtime counter cycles.
 455:./lib/chibios/os/hal/osal/rt-nil/osal.h ****  * @note    The result is rounded upward to the next microsecond boundary.
 456:./lib/chibios/os/hal/osal/rt-nil/osal.h ****  * @note    The macro assumes that @p freq >= @p 1000000.
 457:./lib/chibios/os/hal/osal/rt-nil/osal.h ****  *
 458:./lib/chibios/os/hal/osal/rt-nil/osal.h ****  * @param[in] freq      clock frequency, in Hz, of the realtime counter
 459:./lib/chibios/os/hal/osal/rt-nil/osal.h ****  * @param[in] usec      number of microseconds
 460:./lib/chibios/os/hal/osal/rt-nil/osal.h ****  * @return              The number of cycles.
 461:./lib/chibios/os/hal/osal/rt-nil/osal.h ****  *
 462:./lib/chibios/os/hal/osal/rt-nil/osal.h ****  * @api
 463:./lib/chibios/os/hal/osal/rt-nil/osal.h ****  */
 464:./lib/chibios/os/hal/osal/rt-nil/osal.h **** #define OSAL_US2RTC(freq, usec) US2RTC(freq, usec)
 465:./lib/chibios/os/hal/osal/rt-nil/osal.h **** /** @} */
 466:./lib/chibios/os/hal/osal/rt-nil/osal.h **** 
 467:./lib/chibios/os/hal/osal/rt-nil/osal.h **** /**
 468:./lib/chibios/os/hal/osal/rt-nil/osal.h ****  * @name    Sleep macros using absolute time
 469:./lib/chibios/os/hal/osal/rt-nil/osal.h ****  * @{
 470:./lib/chibios/os/hal/osal/rt-nil/osal.h ****  */
 471:./lib/chibios/os/hal/osal/rt-nil/osal.h **** /**
 472:./lib/chibios/os/hal/osal/rt-nil/osal.h ****  * @brief   Delays the invoking thread for the specified number of seconds.
 473:./lib/chibios/os/hal/osal/rt-nil/osal.h ****  * @note    The specified time is rounded up to a value allowed by the real
 474:./lib/chibios/os/hal/osal/rt-nil/osal.h ****  *          system tick clock.
 475:./lib/chibios/os/hal/osal/rt-nil/osal.h ****  * @note    The maximum specifiable value is implementation dependent.
 476:./lib/chibios/os/hal/osal/rt-nil/osal.h ****  *
 477:./lib/chibios/os/hal/osal/rt-nil/osal.h ****  * @param[in] secs      time in seconds, must be different from zero
 478:./lib/chibios/os/hal/osal/rt-nil/osal.h ****  *
 479:./lib/chibios/os/hal/osal/rt-nil/osal.h ****  * @api
 480:./lib/chibios/os/hal/osal/rt-nil/osal.h ****  */
 481:./lib/chibios/os/hal/osal/rt-nil/osal.h **** #define osalThreadSleepSeconds(secs) osalThreadSleep(OSAL_S2I(secs))
 482:./lib/chibios/os/hal/osal/rt-nil/osal.h **** 
 483:./lib/chibios/os/hal/osal/rt-nil/osal.h **** /**
 484:./lib/chibios/os/hal/osal/rt-nil/osal.h ****  * @brief   Delays the invoking thread for the specified number of
 485:./lib/chibios/os/hal/osal/rt-nil/osal.h ****  *          milliseconds.
 486:./lib/chibios/os/hal/osal/rt-nil/osal.h ****  * @note    The specified time is rounded up to a value allowed by the real
 487:./lib/chibios/os/hal/osal/rt-nil/osal.h ****  *          system tick clock.
 488:./lib/chibios/os/hal/osal/rt-nil/osal.h ****  * @note    The maximum specifiable value is implementation dependent.
 489:./lib/chibios/os/hal/osal/rt-nil/osal.h ****  *
 490:./lib/chibios/os/hal/osal/rt-nil/osal.h ****  * @param[in] msecs     time in milliseconds, must be different from zero
 491:./lib/chibios/os/hal/osal/rt-nil/osal.h ****  *
 492:./lib/chibios/os/hal/osal/rt-nil/osal.h ****  * @api
 493:./lib/chibios/os/hal/osal/rt-nil/osal.h ****  */
 494:./lib/chibios/os/hal/osal/rt-nil/osal.h **** #define osalThreadSleepMilliseconds(msecs) osalThreadSleep(OSAL_MS2I(msecs))
 495:./lib/chibios/os/hal/osal/rt-nil/osal.h **** 
 496:./lib/chibios/os/hal/osal/rt-nil/osal.h **** /**
 497:./lib/chibios/os/hal/osal/rt-nil/osal.h ****  * @brief   Delays the invoking thread for the specified number of
 498:./lib/chibios/os/hal/osal/rt-nil/osal.h ****  *          microseconds.
 499:./lib/chibios/os/hal/osal/rt-nil/osal.h ****  * @note    The specified time is rounded up to a value allowed by the real
 500:./lib/chibios/os/hal/osal/rt-nil/osal.h ****  *          system tick clock.
 501:./lib/chibios/os/hal/osal/rt-nil/osal.h ****  * @note    The maximum specifiable value is implementation dependent.
 502:./lib/chibios/os/hal/osal/rt-nil/osal.h ****  *
 503:./lib/chibios/os/hal/osal/rt-nil/osal.h ****  * @param[in] usecs     time in microseconds, must be different from zero
 504:./lib/chibios/os/hal/osal/rt-nil/osal.h ****  *
 505:./lib/chibios/os/hal/osal/rt-nil/osal.h ****  * @api
 506:./lib/chibios/os/hal/osal/rt-nil/osal.h ****  */
 507:./lib/chibios/os/hal/osal/rt-nil/osal.h **** #define osalThreadSleepMicroseconds(usecs) osalThreadSleep(OSAL_US2I(usecs))
 508:./lib/chibios/os/hal/osal/rt-nil/osal.h **** /** @} */
 509:./lib/chibios/os/hal/osal/rt-nil/osal.h **** 
 510:./lib/chibios/os/hal/osal/rt-nil/osal.h **** /*===========================================================================*/
 511:./lib/chibios/os/hal/osal/rt-nil/osal.h **** /* External declarations.                                                    */
 512:./lib/chibios/os/hal/osal/rt-nil/osal.h **** /*===========================================================================*/
 513:./lib/chibios/os/hal/osal/rt-nil/osal.h **** 
 514:./lib/chibios/os/hal/osal/rt-nil/osal.h **** #ifdef __cplusplus
 515:./lib/chibios/os/hal/osal/rt-nil/osal.h **** extern "C" {
 516:./lib/chibios/os/hal/osal/rt-nil/osal.h **** #endif
 517:./lib/chibios/os/hal/osal/rt-nil/osal.h **** 
 518:./lib/chibios/os/hal/osal/rt-nil/osal.h **** #ifdef __cplusplus
 519:./lib/chibios/os/hal/osal/rt-nil/osal.h **** }
 520:./lib/chibios/os/hal/osal/rt-nil/osal.h **** #endif
 521:./lib/chibios/os/hal/osal/rt-nil/osal.h **** 
 522:./lib/chibios/os/hal/osal/rt-nil/osal.h **** /*===========================================================================*/
 523:./lib/chibios/os/hal/osal/rt-nil/osal.h **** /* Module inline functions.                                                  */
 524:./lib/chibios/os/hal/osal/rt-nil/osal.h **** /*===========================================================================*/
 525:./lib/chibios/os/hal/osal/rt-nil/osal.h **** 
 526:./lib/chibios/os/hal/osal/rt-nil/osal.h **** /**
 527:./lib/chibios/os/hal/osal/rt-nil/osal.h ****  * @brief   OSAL module initialization.
 528:./lib/chibios/os/hal/osal/rt-nil/osal.h ****  *
 529:./lib/chibios/os/hal/osal/rt-nil/osal.h ****  * @api
 530:./lib/chibios/os/hal/osal/rt-nil/osal.h ****  */
 531:./lib/chibios/os/hal/osal/rt-nil/osal.h **** static inline void osalInit(void) {
 532:./lib/chibios/os/hal/osal/rt-nil/osal.h **** 
 533:./lib/chibios/os/hal/osal/rt-nil/osal.h **** }
 534:./lib/chibios/os/hal/osal/rt-nil/osal.h **** 
 535:./lib/chibios/os/hal/osal/rt-nil/osal.h **** /**
 536:./lib/chibios/os/hal/osal/rt-nil/osal.h ****  * @brief   System halt with error message.
 537:./lib/chibios/os/hal/osal/rt-nil/osal.h ****  *
 538:./lib/chibios/os/hal/osal/rt-nil/osal.h ****  * @param[in] reason    the halt message pointer
 539:./lib/chibios/os/hal/osal/rt-nil/osal.h ****  *
 540:./lib/chibios/os/hal/osal/rt-nil/osal.h ****  * @api
 541:./lib/chibios/os/hal/osal/rt-nil/osal.h ****  */
 542:./lib/chibios/os/hal/osal/rt-nil/osal.h **** static inline void osalSysHalt(const char *reason) {
 543:./lib/chibios/os/hal/osal/rt-nil/osal.h **** 
 544:./lib/chibios/os/hal/osal/rt-nil/osal.h ****   chSysHalt(reason);
 545:./lib/chibios/os/hal/osal/rt-nil/osal.h **** }
 546:./lib/chibios/os/hal/osal/rt-nil/osal.h **** 
 547:./lib/chibios/os/hal/osal/rt-nil/osal.h **** /**
 548:./lib/chibios/os/hal/osal/rt-nil/osal.h ****  * @brief   Disables interrupts globally.
 549:./lib/chibios/os/hal/osal/rt-nil/osal.h ****  *
 550:./lib/chibios/os/hal/osal/rt-nil/osal.h ****  * @special
 551:./lib/chibios/os/hal/osal/rt-nil/osal.h ****  */
 552:./lib/chibios/os/hal/osal/rt-nil/osal.h **** static inline void osalSysDisable(void) {
 553:./lib/chibios/os/hal/osal/rt-nil/osal.h **** 
 554:./lib/chibios/os/hal/osal/rt-nil/osal.h ****   chSysDisable();
 555:./lib/chibios/os/hal/osal/rt-nil/osal.h **** }
 556:./lib/chibios/os/hal/osal/rt-nil/osal.h **** 
 557:./lib/chibios/os/hal/osal/rt-nil/osal.h **** /**
 558:./lib/chibios/os/hal/osal/rt-nil/osal.h ****  * @brief   Enables interrupts globally.
 559:./lib/chibios/os/hal/osal/rt-nil/osal.h ****  *
 560:./lib/chibios/os/hal/osal/rt-nil/osal.h ****  * @special
 561:./lib/chibios/os/hal/osal/rt-nil/osal.h ****  */
 562:./lib/chibios/os/hal/osal/rt-nil/osal.h **** static inline void osalSysEnable(void) {
 563:./lib/chibios/os/hal/osal/rt-nil/osal.h **** 
 564:./lib/chibios/os/hal/osal/rt-nil/osal.h ****   chSysEnable();
 565:./lib/chibios/os/hal/osal/rt-nil/osal.h **** }
 566:./lib/chibios/os/hal/osal/rt-nil/osal.h **** 
 567:./lib/chibios/os/hal/osal/rt-nil/osal.h **** /**
 568:./lib/chibios/os/hal/osal/rt-nil/osal.h ****  * @brief   Enters a critical zone from thread context.
 569:./lib/chibios/os/hal/osal/rt-nil/osal.h ****  * @note    This function cannot be used for reentrant critical zones.
 570:./lib/chibios/os/hal/osal/rt-nil/osal.h ****  *
 571:./lib/chibios/os/hal/osal/rt-nil/osal.h ****  * @special
 572:./lib/chibios/os/hal/osal/rt-nil/osal.h ****  */
 573:./lib/chibios/os/hal/osal/rt-nil/osal.h **** static inline void osalSysLock(void) {
 574:./lib/chibios/os/hal/osal/rt-nil/osal.h **** 
 575:./lib/chibios/os/hal/osal/rt-nil/osal.h ****   chSysLock();
 576:./lib/chibios/os/hal/osal/rt-nil/osal.h **** }
 577:./lib/chibios/os/hal/osal/rt-nil/osal.h **** 
 578:./lib/chibios/os/hal/osal/rt-nil/osal.h **** /**
 579:./lib/chibios/os/hal/osal/rt-nil/osal.h ****  * @brief   Leaves a critical zone from thread context.
 580:./lib/chibios/os/hal/osal/rt-nil/osal.h ****  * @note    This function cannot be used for reentrant critical zones.
 581:./lib/chibios/os/hal/osal/rt-nil/osal.h ****  *
 582:./lib/chibios/os/hal/osal/rt-nil/osal.h ****  * @special
 583:./lib/chibios/os/hal/osal/rt-nil/osal.h ****  */
 584:./lib/chibios/os/hal/osal/rt-nil/osal.h **** static inline void osalSysUnlock(void) {
 585:./lib/chibios/os/hal/osal/rt-nil/osal.h **** 
 586:./lib/chibios/os/hal/osal/rt-nil/osal.h ****   chSysUnlock();
 587:./lib/chibios/os/hal/osal/rt-nil/osal.h **** }
 588:./lib/chibios/os/hal/osal/rt-nil/osal.h **** 
 589:./lib/chibios/os/hal/osal/rt-nil/osal.h **** /**
 590:./lib/chibios/os/hal/osal/rt-nil/osal.h ****  * @brief   Enters a critical zone from ISR context.
 591:./lib/chibios/os/hal/osal/rt-nil/osal.h ****  * @note    This function cannot be used for reentrant critical zones.
 592:./lib/chibios/os/hal/osal/rt-nil/osal.h ****  *
 593:./lib/chibios/os/hal/osal/rt-nil/osal.h ****  * @special
 594:./lib/chibios/os/hal/osal/rt-nil/osal.h ****  */
 595:./lib/chibios/os/hal/osal/rt-nil/osal.h **** static inline void osalSysLockFromISR(void) {
 596:./lib/chibios/os/hal/osal/rt-nil/osal.h **** 
 597:./lib/chibios/os/hal/osal/rt-nil/osal.h ****   chSysLockFromISR();
 598:./lib/chibios/os/hal/osal/rt-nil/osal.h **** }
 599:./lib/chibios/os/hal/osal/rt-nil/osal.h **** 
 600:./lib/chibios/os/hal/osal/rt-nil/osal.h **** /**
 601:./lib/chibios/os/hal/osal/rt-nil/osal.h ****  * @brief   Leaves a critical zone from ISR context.
 602:./lib/chibios/os/hal/osal/rt-nil/osal.h ****  * @note    This function cannot be used for reentrant critical zones.
 603:./lib/chibios/os/hal/osal/rt-nil/osal.h ****  *
 604:./lib/chibios/os/hal/osal/rt-nil/osal.h ****  * @special
 605:./lib/chibios/os/hal/osal/rt-nil/osal.h ****  */
 606:./lib/chibios/os/hal/osal/rt-nil/osal.h **** static inline void osalSysUnlockFromISR(void) {
 607:./lib/chibios/os/hal/osal/rt-nil/osal.h **** 
 608:./lib/chibios/os/hal/osal/rt-nil/osal.h ****   chSysUnlockFromISR();
 609:./lib/chibios/os/hal/osal/rt-nil/osal.h **** }
 610:./lib/chibios/os/hal/osal/rt-nil/osal.h **** 
 611:./lib/chibios/os/hal/osal/rt-nil/osal.h **** /**
 612:./lib/chibios/os/hal/osal/rt-nil/osal.h ****  * @brief   Returns the execution status and enters a critical zone.
 613:./lib/chibios/os/hal/osal/rt-nil/osal.h ****  * @details This functions enters into a critical zone and can be called
 614:./lib/chibios/os/hal/osal/rt-nil/osal.h ****  *          from any context. Because its flexibility it is less efficient
 615:./lib/chibios/os/hal/osal/rt-nil/osal.h ****  *          than @p chSysLock() which is preferable when the calling context
 616:./lib/chibios/os/hal/osal/rt-nil/osal.h ****  *          is known.
 617:./lib/chibios/os/hal/osal/rt-nil/osal.h ****  * @post    The system is in a critical zone.
 618:./lib/chibios/os/hal/osal/rt-nil/osal.h ****  *
 619:./lib/chibios/os/hal/osal/rt-nil/osal.h ****  * @return              The previous system status, the encoding of this
 620:./lib/chibios/os/hal/osal/rt-nil/osal.h ****  *                      status word is architecture-dependent and opaque.
 621:./lib/chibios/os/hal/osal/rt-nil/osal.h ****  *
 622:./lib/chibios/os/hal/osal/rt-nil/osal.h ****  * @xclass
 623:./lib/chibios/os/hal/osal/rt-nil/osal.h ****  */
 624:./lib/chibios/os/hal/osal/rt-nil/osal.h **** static inline syssts_t osalSysGetStatusAndLockX(void) {
 625:./lib/chibios/os/hal/osal/rt-nil/osal.h **** 
 626:./lib/chibios/os/hal/osal/rt-nil/osal.h ****   return chSysGetStatusAndLockX();
 627:./lib/chibios/os/hal/osal/rt-nil/osal.h **** }
 628:./lib/chibios/os/hal/osal/rt-nil/osal.h **** 
 629:./lib/chibios/os/hal/osal/rt-nil/osal.h **** /**
 630:./lib/chibios/os/hal/osal/rt-nil/osal.h ****  * @brief   Restores the specified execution status and leaves a critical zone.
 631:./lib/chibios/os/hal/osal/rt-nil/osal.h ****  * @note    A call to @p chSchRescheduleS() is automatically performed
 632:./lib/chibios/os/hal/osal/rt-nil/osal.h ****  *          if exiting the critical zone and if not in ISR context.
 633:./lib/chibios/os/hal/osal/rt-nil/osal.h ****  *
 634:./lib/chibios/os/hal/osal/rt-nil/osal.h ****  * @param[in] sts       the system status to be restored.
 635:./lib/chibios/os/hal/osal/rt-nil/osal.h ****  *
 636:./lib/chibios/os/hal/osal/rt-nil/osal.h ****  * @xclass
 637:./lib/chibios/os/hal/osal/rt-nil/osal.h ****  */
 638:./lib/chibios/os/hal/osal/rt-nil/osal.h **** static inline void osalSysRestoreStatusX(syssts_t sts) {
 639:./lib/chibios/os/hal/osal/rt-nil/osal.h **** 
 640:./lib/chibios/os/hal/osal/rt-nil/osal.h ****   chSysRestoreStatusX(sts);
 641:./lib/chibios/os/hal/osal/rt-nil/osal.h **** }
 642:./lib/chibios/os/hal/osal/rt-nil/osal.h **** 
 643:./lib/chibios/os/hal/osal/rt-nil/osal.h **** /**
 644:./lib/chibios/os/hal/osal/rt-nil/osal.h ****  * @brief   Polled delay.
 645:./lib/chibios/os/hal/osal/rt-nil/osal.h ****  * @note    The real delay is always few cycles in excess of the specified
 646:./lib/chibios/os/hal/osal/rt-nil/osal.h ****  *          value.
 647:./lib/chibios/os/hal/osal/rt-nil/osal.h ****  *
 648:./lib/chibios/os/hal/osal/rt-nil/osal.h ****  * @param[in] cycles    number of cycles
 649:./lib/chibios/os/hal/osal/rt-nil/osal.h ****  *
 650:./lib/chibios/os/hal/osal/rt-nil/osal.h ****  * @xclass
 651:./lib/chibios/os/hal/osal/rt-nil/osal.h ****  */
 652:./lib/chibios/os/hal/osal/rt-nil/osal.h **** #if (PORT_SUPPORTS_RT == TRUE) || defined(__DOXYGEN__)
 653:./lib/chibios/os/hal/osal/rt-nil/osal.h **** static inline void osalSysPolledDelayX(rtcnt_t cycles) {
 654:./lib/chibios/os/hal/osal/rt-nil/osal.h **** 
 655:./lib/chibios/os/hal/osal/rt-nil/osal.h ****   chSysPolledDelayX(cycles);
 656:./lib/chibios/os/hal/osal/rt-nil/osal.h **** }
 657:./lib/chibios/os/hal/osal/rt-nil/osal.h **** #endif
 658:./lib/chibios/os/hal/osal/rt-nil/osal.h **** 
 659:./lib/chibios/os/hal/osal/rt-nil/osal.h **** /**
 660:./lib/chibios/os/hal/osal/rt-nil/osal.h ****  * @brief   Systick callback for the underlying OS.
 661:./lib/chibios/os/hal/osal/rt-nil/osal.h ****  * @note    This callback is only defined if the OSAL requires such a
 662:./lib/chibios/os/hal/osal/rt-nil/osal.h ****  *          service from the HAL.
 663:./lib/chibios/os/hal/osal/rt-nil/osal.h ****  */
 664:./lib/chibios/os/hal/osal/rt-nil/osal.h **** #if (OSAL_ST_MODE != OSAL_ST_MODE_NONE) || defined(__DOXYGEN__)
 665:./lib/chibios/os/hal/osal/rt-nil/osal.h **** static inline void osalOsTimerHandlerI(void) {
 666:./lib/chibios/os/hal/osal/rt-nil/osal.h **** 
 667:./lib/chibios/os/hal/osal/rt-nil/osal.h ****   chSysTimerHandlerI();
 668:./lib/chibios/os/hal/osal/rt-nil/osal.h **** }
 669:./lib/chibios/os/hal/osal/rt-nil/osal.h **** #endif
 670:./lib/chibios/os/hal/osal/rt-nil/osal.h **** 
 671:./lib/chibios/os/hal/osal/rt-nil/osal.h **** /**
 672:./lib/chibios/os/hal/osal/rt-nil/osal.h ****  * @brief   Checks if a reschedule is required and performs it.
 673:./lib/chibios/os/hal/osal/rt-nil/osal.h ****  * @note    I-Class functions invoked from thread context must not reschedule
 674:./lib/chibios/os/hal/osal/rt-nil/osal.h ****  *          by themselves, an explicit reschedule using this function is
 675:./lib/chibios/os/hal/osal/rt-nil/osal.h ****  *          required in this scenario.
 676:./lib/chibios/os/hal/osal/rt-nil/osal.h ****  * @note    Not implemented in this simplified OSAL.
 677:./lib/chibios/os/hal/osal/rt-nil/osal.h ****  *
 678:./lib/chibios/os/hal/osal/rt-nil/osal.h ****  * @sclass
 679:./lib/chibios/os/hal/osal/rt-nil/osal.h ****  */
 680:./lib/chibios/os/hal/osal/rt-nil/osal.h **** static inline void osalOsRescheduleS(void) {
 681:./lib/chibios/os/hal/osal/rt-nil/osal.h **** 
 682:./lib/chibios/os/hal/osal/rt-nil/osal.h ****   chSchRescheduleS();
 683:./lib/chibios/os/hal/osal/rt-nil/osal.h **** }
 684:./lib/chibios/os/hal/osal/rt-nil/osal.h **** 
 685:./lib/chibios/os/hal/osal/rt-nil/osal.h **** /**
 686:./lib/chibios/os/hal/osal/rt-nil/osal.h ****  * @brief   Current system time.
 687:./lib/chibios/os/hal/osal/rt-nil/osal.h ****  * @details Returns the number of system ticks since the @p osalInit()
 688:./lib/chibios/os/hal/osal/rt-nil/osal.h ****  *          invocation.
 689:./lib/chibios/os/hal/osal/rt-nil/osal.h ****  * @note    The counter can reach its maximum and then restart from zero.
 690:./lib/chibios/os/hal/osal/rt-nil/osal.h ****  * @note    This function can be called from any context but its atomicity
 691:./lib/chibios/os/hal/osal/rt-nil/osal.h ****  *          is not guaranteed on architectures whose word size is less than
 692:./lib/chibios/os/hal/osal/rt-nil/osal.h ****  *          @p systime_t size.
 693:./lib/chibios/os/hal/osal/rt-nil/osal.h ****  *
 694:./lib/chibios/os/hal/osal/rt-nil/osal.h ****  * @return              The system time in ticks.
 695:./lib/chibios/os/hal/osal/rt-nil/osal.h ****  *
 696:./lib/chibios/os/hal/osal/rt-nil/osal.h ****  * @xclass
 697:./lib/chibios/os/hal/osal/rt-nil/osal.h ****  */
 698:./lib/chibios/os/hal/osal/rt-nil/osal.h **** static inline systime_t osalOsGetSystemTimeX(void) {
 699:./lib/chibios/os/hal/osal/rt-nil/osal.h **** 
 700:./lib/chibios/os/hal/osal/rt-nil/osal.h ****   return chVTGetSystemTimeX();
 701:./lib/chibios/os/hal/osal/rt-nil/osal.h **** }
 702:./lib/chibios/os/hal/osal/rt-nil/osal.h **** 
 703:./lib/chibios/os/hal/osal/rt-nil/osal.h **** /**
 704:./lib/chibios/os/hal/osal/rt-nil/osal.h ****  * @brief   Adds an interval to a system time returning a system time.
 705:./lib/chibios/os/hal/osal/rt-nil/osal.h ****  *
 706:./lib/chibios/os/hal/osal/rt-nil/osal.h ****  * @param[in] systime   base system time
 707:./lib/chibios/os/hal/osal/rt-nil/osal.h ****  * @param[in] interval  interval to be added
 708:./lib/chibios/os/hal/osal/rt-nil/osal.h ****  * @return              The new system time.
 709:./lib/chibios/os/hal/osal/rt-nil/osal.h ****  *
 710:./lib/chibios/os/hal/osal/rt-nil/osal.h ****  * @xclass
 711:./lib/chibios/os/hal/osal/rt-nil/osal.h ****  */
 712:./lib/chibios/os/hal/osal/rt-nil/osal.h **** static inline systime_t osalTimeAddX(systime_t systime,
 713:./lib/chibios/os/hal/osal/rt-nil/osal.h ****                                      sysinterval_t interval) {
 714:./lib/chibios/os/hal/osal/rt-nil/osal.h **** 
 715:./lib/chibios/os/hal/osal/rt-nil/osal.h ****   return chTimeAddX(systime, interval);
 716:./lib/chibios/os/hal/osal/rt-nil/osal.h **** }
 717:./lib/chibios/os/hal/osal/rt-nil/osal.h **** 
 718:./lib/chibios/os/hal/osal/rt-nil/osal.h **** /**
 719:./lib/chibios/os/hal/osal/rt-nil/osal.h ****  * @brief   Subtracts two system times returning an interval.
 720:./lib/chibios/os/hal/osal/rt-nil/osal.h ****  *
 721:./lib/chibios/os/hal/osal/rt-nil/osal.h ****  * @param[in] start     first system time
 722:./lib/chibios/os/hal/osal/rt-nil/osal.h ****  * @param[in] end       second system time
 723:./lib/chibios/os/hal/osal/rt-nil/osal.h ****  * @return              The interval representing the time difference.
 724:./lib/chibios/os/hal/osal/rt-nil/osal.h ****  *
 725:./lib/chibios/os/hal/osal/rt-nil/osal.h ****  * @xclass
 726:./lib/chibios/os/hal/osal/rt-nil/osal.h ****  */
 727:./lib/chibios/os/hal/osal/rt-nil/osal.h **** static inline sysinterval_t osalTimeDiffX(systime_t start, systime_t end) {
 728:./lib/chibios/os/hal/osal/rt-nil/osal.h **** 
 729:./lib/chibios/os/hal/osal/rt-nil/osal.h ****   return chTimeDiffX(start, end);
 730:./lib/chibios/os/hal/osal/rt-nil/osal.h **** }
 731:./lib/chibios/os/hal/osal/rt-nil/osal.h **** 
 732:./lib/chibios/os/hal/osal/rt-nil/osal.h **** /**
 733:./lib/chibios/os/hal/osal/rt-nil/osal.h ****  * @brief   Checks if the specified time is within the specified time window.
 734:./lib/chibios/os/hal/osal/rt-nil/osal.h ****  * @note    When start==end then the function returns always true because the
 735:./lib/chibios/os/hal/osal/rt-nil/osal.h ****  *          whole time range is specified.
 736:./lib/chibios/os/hal/osal/rt-nil/osal.h ****  * @note    This function can be called from any context.
 737:./lib/chibios/os/hal/osal/rt-nil/osal.h ****  *
 738:./lib/chibios/os/hal/osal/rt-nil/osal.h ****  * @param[in] time      the time to be verified
 739:./lib/chibios/os/hal/osal/rt-nil/osal.h ****  * @param[in] start     the start of the time window (inclusive)
 740:./lib/chibios/os/hal/osal/rt-nil/osal.h ****  * @param[in] end       the end of the time window (non inclusive)
 741:./lib/chibios/os/hal/osal/rt-nil/osal.h ****  * @retval true         current time within the specified time window.
 742:./lib/chibios/os/hal/osal/rt-nil/osal.h ****  * @retval false        current time not within the specified time window.
 743:./lib/chibios/os/hal/osal/rt-nil/osal.h ****  *
 744:./lib/chibios/os/hal/osal/rt-nil/osal.h ****  * @xclass
 745:./lib/chibios/os/hal/osal/rt-nil/osal.h ****  */
 746:./lib/chibios/os/hal/osal/rt-nil/osal.h **** static inline bool osalTimeIsInRangeX(systime_t time,
 747:./lib/chibios/os/hal/osal/rt-nil/osal.h ****                                       systime_t start,
 748:./lib/chibios/os/hal/osal/rt-nil/osal.h ****                                       systime_t end) {
 749:./lib/chibios/os/hal/osal/rt-nil/osal.h **** 
 750:./lib/chibios/os/hal/osal/rt-nil/osal.h ****   return chTimeIsInRangeX(time, start, end);
 751:./lib/chibios/os/hal/osal/rt-nil/osal.h **** }
 752:./lib/chibios/os/hal/osal/rt-nil/osal.h **** 
 753:./lib/chibios/os/hal/osal/rt-nil/osal.h **** /**
 754:./lib/chibios/os/hal/osal/rt-nil/osal.h ****  * @brief   Suspends the invoking thread for the specified time.
 755:./lib/chibios/os/hal/osal/rt-nil/osal.h ****  *
 756:./lib/chibios/os/hal/osal/rt-nil/osal.h ****  * @param[in] delay     the delay in system ticks, the special values are
 757:./lib/chibios/os/hal/osal/rt-nil/osal.h ****  *                      handled as follow:
 758:./lib/chibios/os/hal/osal/rt-nil/osal.h ****  *                      - @a TIME_INFINITE is allowed but interpreted as a
 759:./lib/chibios/os/hal/osal/rt-nil/osal.h ****  *                        normal time specification.
 760:./lib/chibios/os/hal/osal/rt-nil/osal.h ****  *                      - @a TIME_IMMEDIATE this value is not allowed.
 761:./lib/chibios/os/hal/osal/rt-nil/osal.h ****  *                      .
 762:./lib/chibios/os/hal/osal/rt-nil/osal.h ****  *
 763:./lib/chibios/os/hal/osal/rt-nil/osal.h ****  * @sclass
 764:./lib/chibios/os/hal/osal/rt-nil/osal.h ****  */
 765:./lib/chibios/os/hal/osal/rt-nil/osal.h **** static inline void osalThreadSleepS(sysinterval_t delay) {
 766:./lib/chibios/os/hal/osal/rt-nil/osal.h **** 
 767:./lib/chibios/os/hal/osal/rt-nil/osal.h ****   chThdSleepS(delay);
 768:./lib/chibios/os/hal/osal/rt-nil/osal.h **** }
 769:./lib/chibios/os/hal/osal/rt-nil/osal.h **** 
 770:./lib/chibios/os/hal/osal/rt-nil/osal.h **** /**
 771:./lib/chibios/os/hal/osal/rt-nil/osal.h ****  * @brief   Suspends the invoking thread for the specified time.
 772:./lib/chibios/os/hal/osal/rt-nil/osal.h ****  *
 773:./lib/chibios/os/hal/osal/rt-nil/osal.h ****  * @param[in] delay     the delay in system ticks, the special values are
 774:./lib/chibios/os/hal/osal/rt-nil/osal.h ****  *                      handled as follow:
 775:./lib/chibios/os/hal/osal/rt-nil/osal.h ****  *                      - @a TIME_INFINITE is allowed but interpreted as a
 776:./lib/chibios/os/hal/osal/rt-nil/osal.h ****  *                        normal time specification.
 777:./lib/chibios/os/hal/osal/rt-nil/osal.h ****  *                      - @a TIME_IMMEDIATE this value is not allowed.
 778:./lib/chibios/os/hal/osal/rt-nil/osal.h ****  *                      .
 779:./lib/chibios/os/hal/osal/rt-nil/osal.h ****  *
 780:./lib/chibios/os/hal/osal/rt-nil/osal.h ****  * @api
 781:./lib/chibios/os/hal/osal/rt-nil/osal.h ****  */
 782:./lib/chibios/os/hal/osal/rt-nil/osal.h **** static inline void osalThreadSleep(sysinterval_t delay) {
 783:./lib/chibios/os/hal/osal/rt-nil/osal.h **** 
 784:./lib/chibios/os/hal/osal/rt-nil/osal.h ****   chThdSleep(delay);
 785:./lib/chibios/os/hal/osal/rt-nil/osal.h **** }
 786:./lib/chibios/os/hal/osal/rt-nil/osal.h **** 
 787:./lib/chibios/os/hal/osal/rt-nil/osal.h **** /**
 788:./lib/chibios/os/hal/osal/rt-nil/osal.h ****  * @brief   Sends the current thread sleeping and sets a reference variable.
 789:./lib/chibios/os/hal/osal/rt-nil/osal.h ****  * @note    This function must reschedule, it can only be called from thread
 790:./lib/chibios/os/hal/osal/rt-nil/osal.h ****  *          context.
 791:./lib/chibios/os/hal/osal/rt-nil/osal.h ****  *
 792:./lib/chibios/os/hal/osal/rt-nil/osal.h ****  * @param[in] trp       a pointer to a thread reference object
 793:./lib/chibios/os/hal/osal/rt-nil/osal.h ****  * @return              The wake up message.
 794:./lib/chibios/os/hal/osal/rt-nil/osal.h ****  *
 795:./lib/chibios/os/hal/osal/rt-nil/osal.h ****  * @sclass
 796:./lib/chibios/os/hal/osal/rt-nil/osal.h ****  */
 797:./lib/chibios/os/hal/osal/rt-nil/osal.h **** static inline msg_t osalThreadSuspendS(thread_reference_t *trp) {
 798:./lib/chibios/os/hal/osal/rt-nil/osal.h **** 
 799:./lib/chibios/os/hal/osal/rt-nil/osal.h ****   return chThdSuspendTimeoutS(trp, TIME_INFINITE);
 800:./lib/chibios/os/hal/osal/rt-nil/osal.h **** }
 801:./lib/chibios/os/hal/osal/rt-nil/osal.h **** 
 802:./lib/chibios/os/hal/osal/rt-nil/osal.h **** /**
 803:./lib/chibios/os/hal/osal/rt-nil/osal.h ****  * @brief   Sends the current thread sleeping and sets a reference variable.
 804:./lib/chibios/os/hal/osal/rt-nil/osal.h ****  * @note    This function must reschedule, it can only be called from thread
 805:./lib/chibios/os/hal/osal/rt-nil/osal.h ****  *          context.
 806:./lib/chibios/os/hal/osal/rt-nil/osal.h ****  *
 807:./lib/chibios/os/hal/osal/rt-nil/osal.h ****  * @param[in] trp       a pointer to a thread reference object
 808:./lib/chibios/os/hal/osal/rt-nil/osal.h ****  * @param[in] timeout   the timeout in system ticks, the special values are
 809:./lib/chibios/os/hal/osal/rt-nil/osal.h ****  *                      handled as follow:
 810:./lib/chibios/os/hal/osal/rt-nil/osal.h ****  *                      - @a TIME_INFINITE the thread enters an infinite sleep
 811:./lib/chibios/os/hal/osal/rt-nil/osal.h ****  *                        state.
 812:./lib/chibios/os/hal/osal/rt-nil/osal.h ****  *                      - @a TIME_IMMEDIATE the thread is not enqueued and
 813:./lib/chibios/os/hal/osal/rt-nil/osal.h ****  *                        the function returns @p MSG_TIMEOUT as if a timeout
 814:./lib/chibios/os/hal/osal/rt-nil/osal.h ****  *                        occurred.
 815:./lib/chibios/os/hal/osal/rt-nil/osal.h ****  *                      .
 816:./lib/chibios/os/hal/osal/rt-nil/osal.h ****  * @return              The wake up message.
 817:./lib/chibios/os/hal/osal/rt-nil/osal.h ****  * @retval MSG_TIMEOUT  if the operation timed out.
 818:./lib/chibios/os/hal/osal/rt-nil/osal.h ****  *
 819:./lib/chibios/os/hal/osal/rt-nil/osal.h ****  * @sclass
 820:./lib/chibios/os/hal/osal/rt-nil/osal.h ****  */
 821:./lib/chibios/os/hal/osal/rt-nil/osal.h **** static inline msg_t osalThreadSuspendTimeoutS(thread_reference_t *trp,
 822:./lib/chibios/os/hal/osal/rt-nil/osal.h ****                                               sysinterval_t timeout) {
 823:./lib/chibios/os/hal/osal/rt-nil/osal.h **** 
 824:./lib/chibios/os/hal/osal/rt-nil/osal.h ****   return chThdSuspendTimeoutS(trp, timeout);
 825:./lib/chibios/os/hal/osal/rt-nil/osal.h **** }
 826:./lib/chibios/os/hal/osal/rt-nil/osal.h **** 
 827:./lib/chibios/os/hal/osal/rt-nil/osal.h **** /**
 828:./lib/chibios/os/hal/osal/rt-nil/osal.h ****  * @brief   Wakes up a thread waiting on a thread reference object.
 829:./lib/chibios/os/hal/osal/rt-nil/osal.h ****  * @note    This function must not reschedule because it can be called from
 830:./lib/chibios/os/hal/osal/rt-nil/osal.h ****  *          ISR context.
 831:./lib/chibios/os/hal/osal/rt-nil/osal.h ****  *
 832:./lib/chibios/os/hal/osal/rt-nil/osal.h ****  * @param[in] trp       a pointer to a thread reference object
 833:./lib/chibios/os/hal/osal/rt-nil/osal.h ****  * @param[in] msg       the message code
 834:./lib/chibios/os/hal/osal/rt-nil/osal.h ****  *
 835:./lib/chibios/os/hal/osal/rt-nil/osal.h ****  * @iclass
 836:./lib/chibios/os/hal/osal/rt-nil/osal.h ****  */
 837:./lib/chibios/os/hal/osal/rt-nil/osal.h **** static inline void osalThreadResumeI(thread_reference_t *trp, msg_t msg) {
 838:./lib/chibios/os/hal/osal/rt-nil/osal.h **** 
 839:./lib/chibios/os/hal/osal/rt-nil/osal.h ****   chThdResumeI(trp, msg);
 840:./lib/chibios/os/hal/osal/rt-nil/osal.h **** }
 841:./lib/chibios/os/hal/osal/rt-nil/osal.h **** 
 842:./lib/chibios/os/hal/osal/rt-nil/osal.h **** /**
 843:./lib/chibios/os/hal/osal/rt-nil/osal.h ****  * @brief   Wakes up a thread waiting on a thread reference object.
 844:./lib/chibios/os/hal/osal/rt-nil/osal.h ****  * @note    This function must reschedule, it can only be called from thread
 845:./lib/chibios/os/hal/osal/rt-nil/osal.h ****  *          context.
 846:./lib/chibios/os/hal/osal/rt-nil/osal.h ****  *
 847:./lib/chibios/os/hal/osal/rt-nil/osal.h ****  * @param[in] trp       a pointer to a thread reference object
 848:./lib/chibios/os/hal/osal/rt-nil/osal.h ****  * @param[in] msg       the message code
 849:./lib/chibios/os/hal/osal/rt-nil/osal.h ****  *
 850:./lib/chibios/os/hal/osal/rt-nil/osal.h ****  * @iclass
 851:./lib/chibios/os/hal/osal/rt-nil/osal.h ****  */
 852:./lib/chibios/os/hal/osal/rt-nil/osal.h **** static inline void osalThreadResumeS(thread_reference_t *trp, msg_t msg) {
 853:./lib/chibios/os/hal/osal/rt-nil/osal.h **** 
 854:./lib/chibios/os/hal/osal/rt-nil/osal.h ****   chThdResumeS(trp, msg);
 855:./lib/chibios/os/hal/osal/rt-nil/osal.h **** }
 856:./lib/chibios/os/hal/osal/rt-nil/osal.h **** 
 857:./lib/chibios/os/hal/osal/rt-nil/osal.h **** /**
 858:./lib/chibios/os/hal/osal/rt-nil/osal.h ****  * @brief   Initializes a threads queue object.
 859:./lib/chibios/os/hal/osal/rt-nil/osal.h ****  *
 860:./lib/chibios/os/hal/osal/rt-nil/osal.h ****  * @param[out] tqp      pointer to the threads queue object
 861:./lib/chibios/os/hal/osal/rt-nil/osal.h ****  *
 862:./lib/chibios/os/hal/osal/rt-nil/osal.h ****  * @init
 863:./lib/chibios/os/hal/osal/rt-nil/osal.h ****  */
 864:./lib/chibios/os/hal/osal/rt-nil/osal.h **** static inline void osalThreadQueueObjectInit(threads_queue_t *tqp) {
 865:./lib/chibios/os/hal/osal/rt-nil/osal.h **** 
 866:./lib/chibios/os/hal/osal/rt-nil/osal.h ****   chThdQueueObjectInit(tqp);
 867:./lib/chibios/os/hal/osal/rt-nil/osal.h **** }
 868:./lib/chibios/os/hal/osal/rt-nil/osal.h **** 
 869:./lib/chibios/os/hal/osal/rt-nil/osal.h **** /**
 870:./lib/chibios/os/hal/osal/rt-nil/osal.h ****  * @brief   Enqueues the caller thread.
 871:./lib/chibios/os/hal/osal/rt-nil/osal.h ****  * @details The caller thread is enqueued and put to sleep until it is
 872:./lib/chibios/os/hal/osal/rt-nil/osal.h ****  *          dequeued or the specified timeouts expires.
 873:./lib/chibios/os/hal/osal/rt-nil/osal.h ****  *
 874:./lib/chibios/os/hal/osal/rt-nil/osal.h ****  * @param[in] tqp       pointer to the threads queue object
 875:./lib/chibios/os/hal/osal/rt-nil/osal.h ****  * @param[in] timeout   the timeout in system ticks, the special values are
 876:./lib/chibios/os/hal/osal/rt-nil/osal.h ****  *                      handled as follow:
 877:./lib/chibios/os/hal/osal/rt-nil/osal.h ****  *                      - @a TIME_INFINITE the thread enters an infinite sleep
 878:./lib/chibios/os/hal/osal/rt-nil/osal.h ****  *                        state.
 879:./lib/chibios/os/hal/osal/rt-nil/osal.h ****  *                      - @a TIME_IMMEDIATE the thread is not enqueued and
 880:./lib/chibios/os/hal/osal/rt-nil/osal.h ****  *                        the function returns @p MSG_TIMEOUT as if a timeout
 881:./lib/chibios/os/hal/osal/rt-nil/osal.h ****  *                        occurred.
 882:./lib/chibios/os/hal/osal/rt-nil/osal.h ****  *                      .
 883:./lib/chibios/os/hal/osal/rt-nil/osal.h ****  * @return              The message from @p osalQueueWakeupOneI() or
 884:./lib/chibios/os/hal/osal/rt-nil/osal.h ****  *                      @p osalQueueWakeupAllI() functions.
 885:./lib/chibios/os/hal/osal/rt-nil/osal.h ****  * @retval MSG_TIMEOUT  if the thread has not been dequeued within the
 886:./lib/chibios/os/hal/osal/rt-nil/osal.h ****  *                      specified timeout or if the function has been
 887:./lib/chibios/os/hal/osal/rt-nil/osal.h ****  *                      invoked with @p TIME_IMMEDIATE as timeout
 888:./lib/chibios/os/hal/osal/rt-nil/osal.h ****  *                      specification.
 889:./lib/chibios/os/hal/osal/rt-nil/osal.h ****  *
 890:./lib/chibios/os/hal/osal/rt-nil/osal.h ****  * @sclass
 891:./lib/chibios/os/hal/osal/rt-nil/osal.h ****  */
 892:./lib/chibios/os/hal/osal/rt-nil/osal.h **** static inline msg_t osalThreadEnqueueTimeoutS(threads_queue_t *tqp,
 893:./lib/chibios/os/hal/osal/rt-nil/osal.h ****                                               sysinterval_t timeout) {
 894:./lib/chibios/os/hal/osal/rt-nil/osal.h **** 
 895:./lib/chibios/os/hal/osal/rt-nil/osal.h ****   return chThdEnqueueTimeoutS(tqp, timeout);
 896:./lib/chibios/os/hal/osal/rt-nil/osal.h **** }
 897:./lib/chibios/os/hal/osal/rt-nil/osal.h **** 
 898:./lib/chibios/os/hal/osal/rt-nil/osal.h **** /**
 899:./lib/chibios/os/hal/osal/rt-nil/osal.h ****  * @brief   Dequeues and wakes up one thread from the queue, if any.
 900:./lib/chibios/os/hal/osal/rt-nil/osal.h ****  *
 901:./lib/chibios/os/hal/osal/rt-nil/osal.h ****  * @param[in] tqp       pointer to the threads queue object
 902:./lib/chibios/os/hal/osal/rt-nil/osal.h ****  * @param[in] msg       the message code
 903:./lib/chibios/os/hal/osal/rt-nil/osal.h ****  *
 904:./lib/chibios/os/hal/osal/rt-nil/osal.h ****  * @iclass
 905:./lib/chibios/os/hal/osal/rt-nil/osal.h ****  */
 906:./lib/chibios/os/hal/osal/rt-nil/osal.h **** static inline void osalThreadDequeueNextI(threads_queue_t *tqp, msg_t msg) {
 907:./lib/chibios/os/hal/osal/rt-nil/osal.h **** 
 908:./lib/chibios/os/hal/osal/rt-nil/osal.h ****   chThdDequeueNextI(tqp, msg);
 909:./lib/chibios/os/hal/osal/rt-nil/osal.h **** }
 910:./lib/chibios/os/hal/osal/rt-nil/osal.h **** 
 911:./lib/chibios/os/hal/osal/rt-nil/osal.h **** /**
 912:./lib/chibios/os/hal/osal/rt-nil/osal.h ****  * @brief   Dequeues and wakes up all threads from the queue.
 913:./lib/chibios/os/hal/osal/rt-nil/osal.h ****  *
 914:./lib/chibios/os/hal/osal/rt-nil/osal.h ****  * @param[in] tqp       pointer to the threads queue object
 915:./lib/chibios/os/hal/osal/rt-nil/osal.h ****  * @param[in] msg       the message code
 916:./lib/chibios/os/hal/osal/rt-nil/osal.h ****  *
 917:./lib/chibios/os/hal/osal/rt-nil/osal.h ****  * @iclass
 918:./lib/chibios/os/hal/osal/rt-nil/osal.h ****  */
 919:./lib/chibios/os/hal/osal/rt-nil/osal.h **** static inline void osalThreadDequeueAllI(threads_queue_t *tqp, msg_t msg) {
 920:./lib/chibios/os/hal/osal/rt-nil/osal.h **** 
 921:./lib/chibios/os/hal/osal/rt-nil/osal.h ****   chThdDequeueAllI(tqp, msg);
 922:./lib/chibios/os/hal/osal/rt-nil/osal.h **** }
 923:./lib/chibios/os/hal/osal/rt-nil/osal.h **** 
 924:./lib/chibios/os/hal/osal/rt-nil/osal.h **** #if (CH_CFG_USE_EVENTS == TRUE) || defined(__DOXYGEN__)
 925:./lib/chibios/os/hal/osal/rt-nil/osal.h **** /**
 926:./lib/chibios/os/hal/osal/rt-nil/osal.h ****  * @brief   Initializes an event source object.
 927:./lib/chibios/os/hal/osal/rt-nil/osal.h ****  *
 928:./lib/chibios/os/hal/osal/rt-nil/osal.h ****  * @param[out] esp      pointer to the event source object
 929:./lib/chibios/os/hal/osal/rt-nil/osal.h ****  *
 930:./lib/chibios/os/hal/osal/rt-nil/osal.h ****  * @init
 931:./lib/chibios/os/hal/osal/rt-nil/osal.h ****  */
 932:./lib/chibios/os/hal/osal/rt-nil/osal.h **** static inline void osalEventObjectInit(event_source_t *esp) {
 486              		.loc 2 932 20 view .LVU105
 933:./lib/chibios/os/hal/osal/rt-nil/osal.h **** 
 934:./lib/chibios/os/hal/osal/rt-nil/osal.h ****   chEvtObjectInit(esp);
 487              		.loc 2 934 3 view .LVU106
 488              	.LBB136:
 489              	.LBI136:
 490              		.file 3 "./lib/chibios/os/rt/include/chevents.h"
   1:./lib/chibios/os/rt/include/chevents.h **** /*
   2:./lib/chibios/os/rt/include/chevents.h ****     ChibiOS - Copyright (C) 2006..2018 Giovanni Di Sirio.
   3:./lib/chibios/os/rt/include/chevents.h **** 
   4:./lib/chibios/os/rt/include/chevents.h ****     This file is part of ChibiOS.
   5:./lib/chibios/os/rt/include/chevents.h **** 
   6:./lib/chibios/os/rt/include/chevents.h ****     ChibiOS is free software; you can redistribute it and/or modify
   7:./lib/chibios/os/rt/include/chevents.h ****     it under the terms of the GNU General Public License as published by
   8:./lib/chibios/os/rt/include/chevents.h ****     the Free Software Foundation; either version 3 of the License, or
   9:./lib/chibios/os/rt/include/chevents.h ****     (at your option) any later version.
  10:./lib/chibios/os/rt/include/chevents.h **** 
  11:./lib/chibios/os/rt/include/chevents.h ****     ChibiOS is distributed in the hope that it will be useful,
  12:./lib/chibios/os/rt/include/chevents.h ****     but WITHOUT ANY WARRANTY; without even the implied warranty of
  13:./lib/chibios/os/rt/include/chevents.h ****     MERCHANTABILITY or FITNESS FOR A PARTICULAR PURPOSE.  See the
  14:./lib/chibios/os/rt/include/chevents.h ****     GNU General Public License for more details.
  15:./lib/chibios/os/rt/include/chevents.h **** 
  16:./lib/chibios/os/rt/include/chevents.h ****     You should have received a copy of the GNU General Public License
  17:./lib/chibios/os/rt/include/chevents.h ****     along with this program.  If not, see <http://www.gnu.org/licenses/>.
  18:./lib/chibios/os/rt/include/chevents.h **** */
  19:./lib/chibios/os/rt/include/chevents.h **** /*
  20:./lib/chibios/os/rt/include/chevents.h ****    Concepts and parts of this file have been contributed by Scott (skute).
  21:./lib/chibios/os/rt/include/chevents.h ****  */
  22:./lib/chibios/os/rt/include/chevents.h **** 
  23:./lib/chibios/os/rt/include/chevents.h **** /**
  24:./lib/chibios/os/rt/include/chevents.h ****  * @file    rt/include/chevents.h
  25:./lib/chibios/os/rt/include/chevents.h ****  * @brief   Events macros and structures.
  26:./lib/chibios/os/rt/include/chevents.h ****  *
  27:./lib/chibios/os/rt/include/chevents.h ****  * @addtogroup events
  28:./lib/chibios/os/rt/include/chevents.h ****  * @{
  29:./lib/chibios/os/rt/include/chevents.h ****  */
  30:./lib/chibios/os/rt/include/chevents.h **** 
  31:./lib/chibios/os/rt/include/chevents.h **** #ifndef CHEVENTS_H
  32:./lib/chibios/os/rt/include/chevents.h **** #define CHEVENTS_H
  33:./lib/chibios/os/rt/include/chevents.h **** 
  34:./lib/chibios/os/rt/include/chevents.h **** #if (CH_CFG_USE_EVENTS == TRUE) || defined(__DOXYGEN__)
  35:./lib/chibios/os/rt/include/chevents.h **** 
  36:./lib/chibios/os/rt/include/chevents.h **** /*===========================================================================*/
  37:./lib/chibios/os/rt/include/chevents.h **** /* Module constants.                                                         */
  38:./lib/chibios/os/rt/include/chevents.h **** /*===========================================================================*/
  39:./lib/chibios/os/rt/include/chevents.h **** 
  40:./lib/chibios/os/rt/include/chevents.h **** /*===========================================================================*/
  41:./lib/chibios/os/rt/include/chevents.h **** /* Module pre-compile time settings.                                         */
  42:./lib/chibios/os/rt/include/chevents.h **** /*===========================================================================*/
  43:./lib/chibios/os/rt/include/chevents.h **** 
  44:./lib/chibios/os/rt/include/chevents.h **** /*===========================================================================*/
  45:./lib/chibios/os/rt/include/chevents.h **** /* Derived constants and error checks.                                       */
  46:./lib/chibios/os/rt/include/chevents.h **** /*===========================================================================*/
  47:./lib/chibios/os/rt/include/chevents.h **** 
  48:./lib/chibios/os/rt/include/chevents.h **** /*===========================================================================*/
  49:./lib/chibios/os/rt/include/chevents.h **** /* Module data structures and types.                                         */
  50:./lib/chibios/os/rt/include/chevents.h **** /*===========================================================================*/
  51:./lib/chibios/os/rt/include/chevents.h **** 
  52:./lib/chibios/os/rt/include/chevents.h **** typedef struct event_listener event_listener_t;
  53:./lib/chibios/os/rt/include/chevents.h **** 
  54:./lib/chibios/os/rt/include/chevents.h **** /**
  55:./lib/chibios/os/rt/include/chevents.h ****  * @brief   Event Listener structure.
  56:./lib/chibios/os/rt/include/chevents.h ****  */
  57:./lib/chibios/os/rt/include/chevents.h **** struct event_listener {
  58:./lib/chibios/os/rt/include/chevents.h ****   event_listener_t      *next;          /**< @brief Next Event Listener
  59:./lib/chibios/os/rt/include/chevents.h ****                                                     registered on the event
  60:./lib/chibios/os/rt/include/chevents.h ****                                                     source.                 */
  61:./lib/chibios/os/rt/include/chevents.h ****   thread_t              *listener;      /**< @brief Thread interested in the
  62:./lib/chibios/os/rt/include/chevents.h ****                                                     event source.           */
  63:./lib/chibios/os/rt/include/chevents.h ****   eventmask_t           events;         /**< @brief Events to be set in
  64:./lib/chibios/os/rt/include/chevents.h ****                                                     the listening thread.   */
  65:./lib/chibios/os/rt/include/chevents.h ****   eventflags_t          flags;          /**< @brief Flags added to the listener
  66:./lib/chibios/os/rt/include/chevents.h ****                                                     by the event source.    */
  67:./lib/chibios/os/rt/include/chevents.h ****   eventflags_t          wflags;         /**< @brief Flags that this listener
  68:./lib/chibios/os/rt/include/chevents.h ****                                                     interested in.          */
  69:./lib/chibios/os/rt/include/chevents.h **** };
  70:./lib/chibios/os/rt/include/chevents.h **** 
  71:./lib/chibios/os/rt/include/chevents.h **** /**
  72:./lib/chibios/os/rt/include/chevents.h ****  * @brief   Event Source structure.
  73:./lib/chibios/os/rt/include/chevents.h ****  */
  74:./lib/chibios/os/rt/include/chevents.h **** typedef struct event_source {
  75:./lib/chibios/os/rt/include/chevents.h ****   event_listener_t      *next;          /**< @brief First Event Listener
  76:./lib/chibios/os/rt/include/chevents.h ****                                                     registered on the Event
  77:./lib/chibios/os/rt/include/chevents.h ****                                                     Source.                 */
  78:./lib/chibios/os/rt/include/chevents.h **** } event_source_t;
  79:./lib/chibios/os/rt/include/chevents.h **** 
  80:./lib/chibios/os/rt/include/chevents.h **** /**
  81:./lib/chibios/os/rt/include/chevents.h ****  * @brief   Event Handler callback function.
  82:./lib/chibios/os/rt/include/chevents.h ****  */
  83:./lib/chibios/os/rt/include/chevents.h **** typedef void (*evhandler_t)(eventid_t id);
  84:./lib/chibios/os/rt/include/chevents.h **** 
  85:./lib/chibios/os/rt/include/chevents.h **** /*===========================================================================*/
  86:./lib/chibios/os/rt/include/chevents.h **** /* Module macros.                                                            */
  87:./lib/chibios/os/rt/include/chevents.h **** /*===========================================================================*/
  88:./lib/chibios/os/rt/include/chevents.h **** 
  89:./lib/chibios/os/rt/include/chevents.h **** /**
  90:./lib/chibios/os/rt/include/chevents.h ****  * @brief   All events allowed mask.
  91:./lib/chibios/os/rt/include/chevents.h ****  */
  92:./lib/chibios/os/rt/include/chevents.h **** #define ALL_EVENTS      ((eventmask_t)-1)
  93:./lib/chibios/os/rt/include/chevents.h **** 
  94:./lib/chibios/os/rt/include/chevents.h **** /**
  95:./lib/chibios/os/rt/include/chevents.h ****  * @brief   Returns an event mask from an event identifier.
  96:./lib/chibios/os/rt/include/chevents.h ****  */
  97:./lib/chibios/os/rt/include/chevents.h **** #define EVENT_MASK(eid) ((eventmask_t)1 << (eventmask_t)(eid))
  98:./lib/chibios/os/rt/include/chevents.h **** 
  99:./lib/chibios/os/rt/include/chevents.h **** /**
 100:./lib/chibios/os/rt/include/chevents.h ****  * @brief   Data part of a static event source initializer.
 101:./lib/chibios/os/rt/include/chevents.h ****  * @details This macro should be used when statically initializing an event
 102:./lib/chibios/os/rt/include/chevents.h ****  *          source that is part of a bigger structure.
 103:./lib/chibios/os/rt/include/chevents.h ****  * @param name          the name of the event source variable
 104:./lib/chibios/os/rt/include/chevents.h ****  */
 105:./lib/chibios/os/rt/include/chevents.h **** #define _EVENTSOURCE_DATA(name) {(event_listener_t *)(&name)}
 106:./lib/chibios/os/rt/include/chevents.h **** 
 107:./lib/chibios/os/rt/include/chevents.h **** /**
 108:./lib/chibios/os/rt/include/chevents.h ****  * @brief   Static event source initializer.
 109:./lib/chibios/os/rt/include/chevents.h ****  * @details Statically initialized event sources require no explicit
 110:./lib/chibios/os/rt/include/chevents.h ****  *          initialization using @p chEvtInit().
 111:./lib/chibios/os/rt/include/chevents.h ****  *
 112:./lib/chibios/os/rt/include/chevents.h ****  * @param name          the name of the event source variable
 113:./lib/chibios/os/rt/include/chevents.h ****  */
 114:./lib/chibios/os/rt/include/chevents.h **** #define EVENTSOURCE_DECL(name) event_source_t name = _EVENTSOURCE_DATA(name)
 115:./lib/chibios/os/rt/include/chevents.h **** 
 116:./lib/chibios/os/rt/include/chevents.h **** /*===========================================================================*/
 117:./lib/chibios/os/rt/include/chevents.h **** /* External declarations.                                                    */
 118:./lib/chibios/os/rt/include/chevents.h **** /*===========================================================================*/
 119:./lib/chibios/os/rt/include/chevents.h **** 
 120:./lib/chibios/os/rt/include/chevents.h **** #ifdef __cplusplus
 121:./lib/chibios/os/rt/include/chevents.h **** extern "C" {
 122:./lib/chibios/os/rt/include/chevents.h **** #endif
 123:./lib/chibios/os/rt/include/chevents.h ****   void chEvtRegisterMaskWithFlags(event_source_t *esp,
 124:./lib/chibios/os/rt/include/chevents.h ****                                   event_listener_t *elp,
 125:./lib/chibios/os/rt/include/chevents.h ****                                   eventmask_t events,
 126:./lib/chibios/os/rt/include/chevents.h ****                                   eventflags_t wflags);
 127:./lib/chibios/os/rt/include/chevents.h ****   void chEvtUnregister(event_source_t *esp, event_listener_t *elp);
 128:./lib/chibios/os/rt/include/chevents.h ****   eventmask_t chEvtGetAndClearEventsI(eventmask_t events);
 129:./lib/chibios/os/rt/include/chevents.h ****   eventmask_t chEvtGetAndClearEvents(eventmask_t events);
 130:./lib/chibios/os/rt/include/chevents.h ****   eventmask_t chEvtAddEvents(eventmask_t events);
 131:./lib/chibios/os/rt/include/chevents.h ****   eventflags_t chEvtGetAndClearFlags(event_listener_t *elp);
 132:./lib/chibios/os/rt/include/chevents.h ****   eventflags_t chEvtGetAndClearFlagsI(event_listener_t *elp);
 133:./lib/chibios/os/rt/include/chevents.h ****   void chEvtSignal(thread_t *tp, eventmask_t events);
 134:./lib/chibios/os/rt/include/chevents.h ****   void chEvtSignalI(thread_t *tp, eventmask_t events);
 135:./lib/chibios/os/rt/include/chevents.h ****   void chEvtBroadcastFlags(event_source_t *esp, eventflags_t flags);
 136:./lib/chibios/os/rt/include/chevents.h ****   void chEvtBroadcastFlagsI(event_source_t *esp, eventflags_t flags);
 137:./lib/chibios/os/rt/include/chevents.h ****   void chEvtDispatch(const evhandler_t *handlers, eventmask_t events);
 138:./lib/chibios/os/rt/include/chevents.h **** #if (CH_CFG_OPTIMIZE_SPEED == TRUE) || (CH_CFG_USE_EVENTS_TIMEOUT == FALSE)
 139:./lib/chibios/os/rt/include/chevents.h ****   eventmask_t chEvtWaitOne(eventmask_t events);
 140:./lib/chibios/os/rt/include/chevents.h ****   eventmask_t chEvtWaitAny(eventmask_t events);
 141:./lib/chibios/os/rt/include/chevents.h ****   eventmask_t chEvtWaitAll(eventmask_t events);
 142:./lib/chibios/os/rt/include/chevents.h **** #endif
 143:./lib/chibios/os/rt/include/chevents.h **** #if CH_CFG_USE_EVENTS_TIMEOUT == TRUE
 144:./lib/chibios/os/rt/include/chevents.h ****   eventmask_t chEvtWaitOneTimeout(eventmask_t events, sysinterval_t timeout);
 145:./lib/chibios/os/rt/include/chevents.h ****   eventmask_t chEvtWaitAnyTimeout(eventmask_t events, sysinterval_t timeout);
 146:./lib/chibios/os/rt/include/chevents.h ****   eventmask_t chEvtWaitAllTimeout(eventmask_t events, sysinterval_t timeout);
 147:./lib/chibios/os/rt/include/chevents.h **** #endif
 148:./lib/chibios/os/rt/include/chevents.h **** #ifdef __cplusplus
 149:./lib/chibios/os/rt/include/chevents.h **** }
 150:./lib/chibios/os/rt/include/chevents.h **** #endif
 151:./lib/chibios/os/rt/include/chevents.h **** 
 152:./lib/chibios/os/rt/include/chevents.h **** #if (CH_CFG_OPTIMIZE_SPEED == FALSE) && (CH_CFG_USE_EVENTS_TIMEOUT == TRUE)
 153:./lib/chibios/os/rt/include/chevents.h **** #define chEvtWaitOne(mask) chEvtWaitOneTimeout(mask, TIME_INFINITE)
 154:./lib/chibios/os/rt/include/chevents.h **** #define chEvtWaitAny(mask) chEvtWaitAnyTimeout(mask, TIME_INFINITE)
 155:./lib/chibios/os/rt/include/chevents.h **** #define chEvtWaitAll(mask) chEvtWaitAllTimeout(mask, TIME_INFINITE)
 156:./lib/chibios/os/rt/include/chevents.h **** #endif
 157:./lib/chibios/os/rt/include/chevents.h **** 
 158:./lib/chibios/os/rt/include/chevents.h **** /*===========================================================================*/
 159:./lib/chibios/os/rt/include/chevents.h **** /* Module inline functions.                                                  */
 160:./lib/chibios/os/rt/include/chevents.h **** /*===========================================================================*/
 161:./lib/chibios/os/rt/include/chevents.h **** 
 162:./lib/chibios/os/rt/include/chevents.h **** /**
 163:./lib/chibios/os/rt/include/chevents.h ****  * @brief   Initializes an Event Source.
 164:./lib/chibios/os/rt/include/chevents.h ****  * @note    This function can be invoked before the kernel is initialized
 165:./lib/chibios/os/rt/include/chevents.h ****  *          because it just prepares a @p event_source_t structure.
 166:./lib/chibios/os/rt/include/chevents.h ****  *
 167:./lib/chibios/os/rt/include/chevents.h ****  * @param[in] esp       pointer to the @p event_source_t structure
 168:./lib/chibios/os/rt/include/chevents.h ****  *
 169:./lib/chibios/os/rt/include/chevents.h ****  * @init
 170:./lib/chibios/os/rt/include/chevents.h ****  */
 171:./lib/chibios/os/rt/include/chevents.h **** static inline void chEvtObjectInit(event_source_t *esp) {
 491              		.loc 3 171 20 view .LVU107
 492              	.LBB137:
 172:./lib/chibios/os/rt/include/chevents.h **** 
 173:./lib/chibios/os/rt/include/chevents.h ****   esp->next = (event_listener_t *)esp;
 493              		.loc 3 173 3 view .LVU108
 494              	.LBE137:
 495              	.LBE136:
 496              	.LBE135:
 226:lib/chibios/os/hal/src/hal_serial_usb.c ****   sdup->state = SDU_STOP;
 497              		.loc 1 226 15 is_stmt 0 view .LVU109
 498 000a 0125     		movs	r5, #1
 499              	.LBB140:
 500              	.LBB139:
 501              	.LBB138:
 502              		.loc 3 173 13 view .LVU110
 503 000c 4360     		str	r3, [r0, #4]
 504              	.LVL43:
 505              		.loc 3 173 13 view .LVU111
 506              	.LBE138:
 507              	.LBE139:
 508              	.LBE140:
 509              		.loc 1 226 3 is_stmt 1 view .LVU112
 227:lib/chibios/os/hal/src/hal_serial_usb.c ****   ibqObjectInit(&sdup->ibqueue, true, sdup->ib,
 510              		.loc 1 227 3 is_stmt 0 view .LVU113
 511 000e 0226     		movs	r6, #2
 512 0010 0E4B     		ldr	r3, .L23+4
 226:lib/chibios/os/hal/src/hal_serial_usb.c ****   sdup->state = SDU_STOP;
 513              		.loc 1 226 15 view .LVU114
 514 0012 0572     		strb	r5, [r0, #8]
 515              		.loc 1 227 3 is_stmt 1 view .LVU115
 222:lib/chibios/os/hal/src/hal_serial_usb.c **** 
 516              		.loc 1 222 43 is_stmt 0 view .LVU116
 517 0014 0446     		mov	r4, r0
 518              		.loc 1 227 3 view .LVU117
 519 0016 0290     		str	r0, [sp, #8]
 520 0018 0193     		str	r3, [sp, #4]
 521 001a 00F17C02 		add	r2, r0, #124
 522 001e 2B46     		mov	r3, r5
 523 0020 2946     		mov	r1, r5
 524 0022 0096     		str	r6, [sp]
 525 0024 0C30     		adds	r0, r0, #12
 526              	.LVL44:
 527              		.loc 1 227 3 view .LVU118
 528 0026 FFF7FEFF 		bl	ibqObjectInit
 529              	.LVL45:
 228:lib/chibios/os/hal/src/hal_serial_usb.c ****                 SERIAL_USB_BUFFERS_SIZE, SERIAL_USB_BUFFERS_NUMBER,
 229:lib/chibios/os/hal/src/hal_serial_usb.c ****                 ibnotify, sdup);
 230:lib/chibios/os/hal/src/hal_serial_usb.c ****   obqObjectInit(&sdup->obqueue, true, sdup->ob,
 530              		.loc 1 230 3 is_stmt 1 view .LVU119
 531 002a 094B     		ldr	r3, .L23+8
 532 002c 0294     		str	r4, [sp, #8]
 533 002e CDE90063 		strd	r6, r3, [sp]
 534 0032 04F18602 		add	r2, r4, #134
 535 0036 2B46     		mov	r3, r5
 536 0038 2946     		mov	r1, r5
 537 003a 04F14400 		add	r0, r4, #68
 538 003e FFF7FEFF 		bl	obqObjectInit
 539              	.LVL46:
 231:lib/chibios/os/hal/src/hal_serial_usb.c ****                 SERIAL_USB_BUFFERS_SIZE, SERIAL_USB_BUFFERS_NUMBER,
 232:lib/chibios/os/hal/src/hal_serial_usb.c ****                 obnotify, sdup);
 233:lib/chibios/os/hal/src/hal_serial_usb.c **** }
 540              		.loc 1 233 1 is_stmt 0 view .LVU120
 541 0042 04B0     		add	sp, sp, #16
 542              		.cfi_def_cfa_offset 16
 543              		@ sp needed
 544 0044 70BD     		pop	{r4, r5, r6, pc}
 545              	.LVL47:
 546              	.L24:
 547              		.loc 1 233 1 view .LVU121
 548 0046 00BF     		.align	2
 549              	.L23:
 550 0048 00000000 		.word	vmt
 551 004c 00000000 		.word	ibnotify
 552 0050 00000000 		.word	obnotify
 553              		.cfi_endproc
 554              	.LFE341:
 556              		.section	.text.sduStart,"ax",%progbits
 557              		.align	1
 558              		.global	sduStart
 559              		.syntax unified
 560              		.thumb
 561              		.thumb_func
 563              	sduStart:
 564              	.LVL48:
 565              	.LFB342:
 234:lib/chibios/os/hal/src/hal_serial_usb.c **** 
 235:lib/chibios/os/hal/src/hal_serial_usb.c **** /**
 236:lib/chibios/os/hal/src/hal_serial_usb.c ****  * @brief   Configures and starts the driver.
 237:lib/chibios/os/hal/src/hal_serial_usb.c ****  *
 238:lib/chibios/os/hal/src/hal_serial_usb.c ****  * @param[in] sdup      pointer to a @p SerialUSBDriver object
 239:lib/chibios/os/hal/src/hal_serial_usb.c ****  * @param[in] config    the serial over USB driver configuration
 240:lib/chibios/os/hal/src/hal_serial_usb.c ****  *
 241:lib/chibios/os/hal/src/hal_serial_usb.c ****  * @api
 242:lib/chibios/os/hal/src/hal_serial_usb.c ****  */
 243:lib/chibios/os/hal/src/hal_serial_usb.c **** void sduStart(SerialUSBDriver *sdup, const SerialUSBConfig *config) {
 566              		.loc 1 243 69 is_stmt 1 view -0
 567              		.cfi_startproc
 568              		@ args = 0, pretend = 0, frame = 0
 569              		@ frame_needed = 0, uses_anonymous_args = 0
 570              		@ link register save eliminated.
 244:lib/chibios/os/hal/src/hal_serial_usb.c ****   USBDriver *usbp = config->usbp;
 571              		.loc 1 244 3 view .LVU123
 572              		.loc 1 244 14 is_stmt 0 view .LVU124
 573 0000 0B68     		ldr	r3, [r1]
 574              	.LVL49:
 245:lib/chibios/os/hal/src/hal_serial_usb.c **** 
 246:lib/chibios/os/hal/src/hal_serial_usb.c ****   osalDbgCheck(sdup != NULL);
 575              		.loc 1 246 3 is_stmt 1 view .LVU125
 576              		.loc 1 246 3 view .LVU126
 577              		.loc 1 246 3 view .LVU127
 247:lib/chibios/os/hal/src/hal_serial_usb.c **** 
 248:lib/chibios/os/hal/src/hal_serial_usb.c ****   osalSysLock();
 578              		.loc 1 248 3 view .LVU128
 579              	.LBB141:
 580              	.LBI141:
 573:./lib/chibios/os/hal/osal/rt-nil/osal.h **** 
 581              		.loc 2 573 20 view .LVU129
 575:./lib/chibios/os/hal/osal/rt-nil/osal.h **** }
 582              		.loc 2 575 3 view .LVU130
 583              	.LBB142:
 584              	.LBI142:
 585              		.file 4 "./lib/chibios/os/rt/include/chsys.h"
   1:./lib/chibios/os/rt/include/chsys.h **** /*
   2:./lib/chibios/os/rt/include/chsys.h ****     ChibiOS - Copyright (C) 2006..2018 Giovanni Di Sirio.
   3:./lib/chibios/os/rt/include/chsys.h **** 
   4:./lib/chibios/os/rt/include/chsys.h ****     This file is part of ChibiOS.
   5:./lib/chibios/os/rt/include/chsys.h **** 
   6:./lib/chibios/os/rt/include/chsys.h ****     ChibiOS is free software; you can redistribute it and/or modify
   7:./lib/chibios/os/rt/include/chsys.h ****     it under the terms of the GNU General Public License as published by
   8:./lib/chibios/os/rt/include/chsys.h ****     the Free Software Foundation; either version 3 of the License, or
   9:./lib/chibios/os/rt/include/chsys.h ****     (at your option) any later version.
  10:./lib/chibios/os/rt/include/chsys.h **** 
  11:./lib/chibios/os/rt/include/chsys.h ****     ChibiOS is distributed in the hope that it will be useful,
  12:./lib/chibios/os/rt/include/chsys.h ****     but WITHOUT ANY WARRANTY; without even the implied warranty of
  13:./lib/chibios/os/rt/include/chsys.h ****     MERCHANTABILITY or FITNESS FOR A PARTICULAR PURPOSE.  See the
  14:./lib/chibios/os/rt/include/chsys.h ****     GNU General Public License for more details.
  15:./lib/chibios/os/rt/include/chsys.h **** 
  16:./lib/chibios/os/rt/include/chsys.h ****     You should have received a copy of the GNU General Public License
  17:./lib/chibios/os/rt/include/chsys.h ****     along with this program.  If not, see <http://www.gnu.org/licenses/>.
  18:./lib/chibios/os/rt/include/chsys.h **** */
  19:./lib/chibios/os/rt/include/chsys.h **** 
  20:./lib/chibios/os/rt/include/chsys.h **** /**
  21:./lib/chibios/os/rt/include/chsys.h ****  * @file    rt/include/chsys.h
  22:./lib/chibios/os/rt/include/chsys.h ****  * @brief   System related macros and structures.
  23:./lib/chibios/os/rt/include/chsys.h ****  *
  24:./lib/chibios/os/rt/include/chsys.h ****  * @addtogroup system
  25:./lib/chibios/os/rt/include/chsys.h ****  * @{
  26:./lib/chibios/os/rt/include/chsys.h ****  */
  27:./lib/chibios/os/rt/include/chsys.h **** 
  28:./lib/chibios/os/rt/include/chsys.h **** #ifndef CHSYS_H
  29:./lib/chibios/os/rt/include/chsys.h **** #define CHSYS_H
  30:./lib/chibios/os/rt/include/chsys.h **** 
  31:./lib/chibios/os/rt/include/chsys.h **** /*lint -sem(chSysHalt, r_no)*/
  32:./lib/chibios/os/rt/include/chsys.h **** 
  33:./lib/chibios/os/rt/include/chsys.h **** /*===========================================================================*/
  34:./lib/chibios/os/rt/include/chsys.h **** /* Module constants.                                                         */
  35:./lib/chibios/os/rt/include/chsys.h **** /*===========================================================================*/
  36:./lib/chibios/os/rt/include/chsys.h **** 
  37:./lib/chibios/os/rt/include/chsys.h **** /**
  38:./lib/chibios/os/rt/include/chsys.h ****  * @name    Masks of executable integrity checks.
  39:./lib/chibios/os/rt/include/chsys.h ****  * @{
  40:./lib/chibios/os/rt/include/chsys.h ****  */
  41:./lib/chibios/os/rt/include/chsys.h **** #define CH_INTEGRITY_RLIST                  1U
  42:./lib/chibios/os/rt/include/chsys.h **** #define CH_INTEGRITY_VTLIST                 2U
  43:./lib/chibios/os/rt/include/chsys.h **** #define CH_INTEGRITY_REGISTRY               4U
  44:./lib/chibios/os/rt/include/chsys.h **** #define CH_INTEGRITY_PORT                   8U
  45:./lib/chibios/os/rt/include/chsys.h **** /** @} */
  46:./lib/chibios/os/rt/include/chsys.h **** 
  47:./lib/chibios/os/rt/include/chsys.h **** /*===========================================================================*/
  48:./lib/chibios/os/rt/include/chsys.h **** /* Module pre-compile time settings.                                         */
  49:./lib/chibios/os/rt/include/chsys.h **** /*===========================================================================*/
  50:./lib/chibios/os/rt/include/chsys.h **** 
  51:./lib/chibios/os/rt/include/chsys.h **** /*===========================================================================*/
  52:./lib/chibios/os/rt/include/chsys.h **** /* Derived constants and error checks.                                       */
  53:./lib/chibios/os/rt/include/chsys.h **** /*===========================================================================*/
  54:./lib/chibios/os/rt/include/chsys.h **** 
  55:./lib/chibios/os/rt/include/chsys.h **** /*===========================================================================*/
  56:./lib/chibios/os/rt/include/chsys.h **** /* Module data structures and types.                                         */
  57:./lib/chibios/os/rt/include/chsys.h **** /*===========================================================================*/
  58:./lib/chibios/os/rt/include/chsys.h **** 
  59:./lib/chibios/os/rt/include/chsys.h **** /*===========================================================================*/
  60:./lib/chibios/os/rt/include/chsys.h **** /* Module macros.                                                            */
  61:./lib/chibios/os/rt/include/chsys.h **** /*===========================================================================*/
  62:./lib/chibios/os/rt/include/chsys.h **** 
  63:./lib/chibios/os/rt/include/chsys.h **** /**
  64:./lib/chibios/os/rt/include/chsys.h ****  * @name    ISRs abstraction macros
  65:./lib/chibios/os/rt/include/chsys.h ****  * @{
  66:./lib/chibios/os/rt/include/chsys.h ****  */
  67:./lib/chibios/os/rt/include/chsys.h **** /**
  68:./lib/chibios/os/rt/include/chsys.h ****  * @brief   Priority level validation macro.
  69:./lib/chibios/os/rt/include/chsys.h ****  * @details This macro determines if the passed value is a valid priority
  70:./lib/chibios/os/rt/include/chsys.h ****  *          level for the underlying architecture.
  71:./lib/chibios/os/rt/include/chsys.h ****  *
  72:./lib/chibios/os/rt/include/chsys.h ****  * @param[in] prio      the priority level
  73:./lib/chibios/os/rt/include/chsys.h ****  * @return              Priority range result.
  74:./lib/chibios/os/rt/include/chsys.h ****  * @retval false        if the priority is invalid or if the architecture
  75:./lib/chibios/os/rt/include/chsys.h ****  *                      does not support priorities.
  76:./lib/chibios/os/rt/include/chsys.h ****  * @retval true         if the priority is valid.
  77:./lib/chibios/os/rt/include/chsys.h ****  */
  78:./lib/chibios/os/rt/include/chsys.h **** #if defined(PORT_IRQ_IS_VALID_PRIORITY) || defined(__DOXYGEN__)
  79:./lib/chibios/os/rt/include/chsys.h **** #define CH_IRQ_IS_VALID_PRIORITY(prio)                                      \
  80:./lib/chibios/os/rt/include/chsys.h ****   PORT_IRQ_IS_VALID_PRIORITY(prio)
  81:./lib/chibios/os/rt/include/chsys.h **** #else
  82:./lib/chibios/os/rt/include/chsys.h **** #define CH_IRQ_IS_VALID_PRIORITY(prio) false
  83:./lib/chibios/os/rt/include/chsys.h **** #endif
  84:./lib/chibios/os/rt/include/chsys.h **** 
  85:./lib/chibios/os/rt/include/chsys.h **** /**
  86:./lib/chibios/os/rt/include/chsys.h ****  * @brief   Priority level validation macro.
  87:./lib/chibios/os/rt/include/chsys.h ****  * @details This macro determines if the passed value is a valid priority
  88:./lib/chibios/os/rt/include/chsys.h ****  *          level that cannot preempt the kernel critical zone.
  89:./lib/chibios/os/rt/include/chsys.h ****  *
  90:./lib/chibios/os/rt/include/chsys.h ****  * @param[in] prio      the priority level
  91:./lib/chibios/os/rt/include/chsys.h ****  * @return              Priority range result.
  92:./lib/chibios/os/rt/include/chsys.h ****  * @retval false        if the priority is invalid or if the architecture
  93:./lib/chibios/os/rt/include/chsys.h ****  *                      does not support priorities.
  94:./lib/chibios/os/rt/include/chsys.h ****  * @retval true         if the priority is valid.
  95:./lib/chibios/os/rt/include/chsys.h ****  */
  96:./lib/chibios/os/rt/include/chsys.h **** #if defined(PORT_IRQ_IS_VALID_KERNEL_PRIORITY) || defined(__DOXYGEN__)
  97:./lib/chibios/os/rt/include/chsys.h **** #define CH_IRQ_IS_VALID_KERNEL_PRIORITY(prio)                               \
  98:./lib/chibios/os/rt/include/chsys.h ****   PORT_IRQ_IS_VALID_KERNEL_PRIORITY(prio)
  99:./lib/chibios/os/rt/include/chsys.h **** #else
 100:./lib/chibios/os/rt/include/chsys.h **** #define CH_IRQ_IS_VALID_KERNEL_PRIORITY(prio) false
 101:./lib/chibios/os/rt/include/chsys.h **** #endif
 102:./lib/chibios/os/rt/include/chsys.h **** 
 103:./lib/chibios/os/rt/include/chsys.h **** /**
 104:./lib/chibios/os/rt/include/chsys.h ****  * @brief   IRQ handler enter code.
 105:./lib/chibios/os/rt/include/chsys.h ****  * @note    Usually IRQ handlers functions are also declared naked.
 106:./lib/chibios/os/rt/include/chsys.h ****  * @note    On some architectures this macro can be empty.
 107:./lib/chibios/os/rt/include/chsys.h ****  *
 108:./lib/chibios/os/rt/include/chsys.h ****  * @special
 109:./lib/chibios/os/rt/include/chsys.h ****  */
 110:./lib/chibios/os/rt/include/chsys.h **** #define CH_IRQ_PROLOGUE()                                                   \
 111:./lib/chibios/os/rt/include/chsys.h ****   PORT_IRQ_PROLOGUE();                                                      \
 112:./lib/chibios/os/rt/include/chsys.h ****   CH_CFG_IRQ_PROLOGUE_HOOK();                                               \
 113:./lib/chibios/os/rt/include/chsys.h ****   _stats_increase_irq();                                                    \
 114:./lib/chibios/os/rt/include/chsys.h ****   _trace_isr_enter(__func__);                                               \
 115:./lib/chibios/os/rt/include/chsys.h ****   _dbg_check_enter_isr()
 116:./lib/chibios/os/rt/include/chsys.h **** 
 117:./lib/chibios/os/rt/include/chsys.h **** /**
 118:./lib/chibios/os/rt/include/chsys.h ****  * @brief   IRQ handler exit code.
 119:./lib/chibios/os/rt/include/chsys.h ****  * @note    Usually IRQ handlers function are also declared naked.
 120:./lib/chibios/os/rt/include/chsys.h ****  * @note    This macro usually performs the final reschedule by using
 121:./lib/chibios/os/rt/include/chsys.h ****  *          @p chSchIsPreemptionRequired() and @p chSchDoReschedule().
 122:./lib/chibios/os/rt/include/chsys.h ****  *
 123:./lib/chibios/os/rt/include/chsys.h ****  * @special
 124:./lib/chibios/os/rt/include/chsys.h ****  */
 125:./lib/chibios/os/rt/include/chsys.h **** #define CH_IRQ_EPILOGUE()                                                   \
 126:./lib/chibios/os/rt/include/chsys.h ****   _dbg_check_leave_isr();                                                   \
 127:./lib/chibios/os/rt/include/chsys.h ****   _trace_isr_leave(__func__);                                               \
 128:./lib/chibios/os/rt/include/chsys.h ****   CH_CFG_IRQ_EPILOGUE_HOOK();                                               \
 129:./lib/chibios/os/rt/include/chsys.h ****   PORT_IRQ_EPILOGUE()
 130:./lib/chibios/os/rt/include/chsys.h **** 
 131:./lib/chibios/os/rt/include/chsys.h **** /**
 132:./lib/chibios/os/rt/include/chsys.h ****  * @brief   Standard normal IRQ handler declaration.
 133:./lib/chibios/os/rt/include/chsys.h ****  * @note    @p id can be a function name or a vector number depending on the
 134:./lib/chibios/os/rt/include/chsys.h ****  *          port implementation.
 135:./lib/chibios/os/rt/include/chsys.h ****  *
 136:./lib/chibios/os/rt/include/chsys.h ****  * @special
 137:./lib/chibios/os/rt/include/chsys.h ****  */
 138:./lib/chibios/os/rt/include/chsys.h **** #define CH_IRQ_HANDLER(id) PORT_IRQ_HANDLER(id)
 139:./lib/chibios/os/rt/include/chsys.h **** /** @} */
 140:./lib/chibios/os/rt/include/chsys.h **** 
 141:./lib/chibios/os/rt/include/chsys.h **** /**
 142:./lib/chibios/os/rt/include/chsys.h ****  * @name    Fast ISRs abstraction macros
 143:./lib/chibios/os/rt/include/chsys.h ****  * @{
 144:./lib/chibios/os/rt/include/chsys.h ****  */
 145:./lib/chibios/os/rt/include/chsys.h **** /**
 146:./lib/chibios/os/rt/include/chsys.h ****  * @brief   Standard fast IRQ handler declaration.
 147:./lib/chibios/os/rt/include/chsys.h ****  * @note    @p id can be a function name or a vector number depending on the
 148:./lib/chibios/os/rt/include/chsys.h ****  *          port implementation.
 149:./lib/chibios/os/rt/include/chsys.h ****  * @note    Not all architectures support fast interrupts.
 150:./lib/chibios/os/rt/include/chsys.h ****  *
 151:./lib/chibios/os/rt/include/chsys.h ****  * @special
 152:./lib/chibios/os/rt/include/chsys.h ****  */
 153:./lib/chibios/os/rt/include/chsys.h **** #define CH_FAST_IRQ_HANDLER(id) PORT_FAST_IRQ_HANDLER(id)
 154:./lib/chibios/os/rt/include/chsys.h **** /** @} */
 155:./lib/chibios/os/rt/include/chsys.h **** 
 156:./lib/chibios/os/rt/include/chsys.h **** /**
 157:./lib/chibios/os/rt/include/chsys.h ****  * @name    Time conversion utilities for the realtime counter
 158:./lib/chibios/os/rt/include/chsys.h ****  * @{
 159:./lib/chibios/os/rt/include/chsys.h ****  */
 160:./lib/chibios/os/rt/include/chsys.h **** /**
 161:./lib/chibios/os/rt/include/chsys.h ****  * @brief   Seconds to realtime counter.
 162:./lib/chibios/os/rt/include/chsys.h ****  * @details Converts from seconds to realtime counter cycles.
 163:./lib/chibios/os/rt/include/chsys.h ****  * @note    The macro assumes that @p freq >= @p 1.
 164:./lib/chibios/os/rt/include/chsys.h ****  *
 165:./lib/chibios/os/rt/include/chsys.h ****  * @param[in] freq      clock frequency, in Hz, of the realtime counter
 166:./lib/chibios/os/rt/include/chsys.h ****  * @param[in] sec       number of seconds
 167:./lib/chibios/os/rt/include/chsys.h ****  * @return              The number of cycles.
 168:./lib/chibios/os/rt/include/chsys.h ****  *
 169:./lib/chibios/os/rt/include/chsys.h ****  * @api
 170:./lib/chibios/os/rt/include/chsys.h ****  */
 171:./lib/chibios/os/rt/include/chsys.h **** #define S2RTC(freq, sec) ((freq) * (sec))
 172:./lib/chibios/os/rt/include/chsys.h **** 
 173:./lib/chibios/os/rt/include/chsys.h **** /**
 174:./lib/chibios/os/rt/include/chsys.h ****  * @brief   Milliseconds to realtime counter.
 175:./lib/chibios/os/rt/include/chsys.h ****  * @details Converts from milliseconds to realtime counter cycles.
 176:./lib/chibios/os/rt/include/chsys.h ****  * @note    The result is rounded upward to the next millisecond boundary.
 177:./lib/chibios/os/rt/include/chsys.h ****  * @note    The macro assumes that @p freq >= @p 1000.
 178:./lib/chibios/os/rt/include/chsys.h ****  *
 179:./lib/chibios/os/rt/include/chsys.h ****  * @param[in] freq      clock frequency, in Hz, of the realtime counter
 180:./lib/chibios/os/rt/include/chsys.h ****  * @param[in] msec      number of milliseconds
 181:./lib/chibios/os/rt/include/chsys.h ****  * @return              The number of cycles.
 182:./lib/chibios/os/rt/include/chsys.h ****  *
 183:./lib/chibios/os/rt/include/chsys.h ****  * @api
 184:./lib/chibios/os/rt/include/chsys.h ****  */
 185:./lib/chibios/os/rt/include/chsys.h **** #define MS2RTC(freq, msec) (rtcnt_t)((((freq) + 999UL) / 1000UL) * (msec))
 186:./lib/chibios/os/rt/include/chsys.h **** 
 187:./lib/chibios/os/rt/include/chsys.h **** /**
 188:./lib/chibios/os/rt/include/chsys.h ****  * @brief   Microseconds to realtime counter.
 189:./lib/chibios/os/rt/include/chsys.h ****  * @details Converts from microseconds to realtime counter cycles.
 190:./lib/chibios/os/rt/include/chsys.h ****  * @note    The result is rounded upward to the next microsecond boundary.
 191:./lib/chibios/os/rt/include/chsys.h ****  * @note    The macro assumes that @p freq >= @p 1000000.
 192:./lib/chibios/os/rt/include/chsys.h ****  *
 193:./lib/chibios/os/rt/include/chsys.h ****  * @param[in] freq      clock frequency, in Hz, of the realtime counter
 194:./lib/chibios/os/rt/include/chsys.h ****  * @param[in] usec      number of microseconds
 195:./lib/chibios/os/rt/include/chsys.h ****  * @return              The number of cycles.
 196:./lib/chibios/os/rt/include/chsys.h ****  *
 197:./lib/chibios/os/rt/include/chsys.h ****  * @api
 198:./lib/chibios/os/rt/include/chsys.h ****  */
 199:./lib/chibios/os/rt/include/chsys.h **** #define US2RTC(freq, usec) (rtcnt_t)((((freq) + 999999UL) / 1000000UL) * (usec))
 200:./lib/chibios/os/rt/include/chsys.h **** 
 201:./lib/chibios/os/rt/include/chsys.h **** /**
 202:./lib/chibios/os/rt/include/chsys.h ****  * @brief   Realtime counter cycles to seconds.
 203:./lib/chibios/os/rt/include/chsys.h ****  * @details Converts from realtime counter cycles number to seconds.
 204:./lib/chibios/os/rt/include/chsys.h ****  * @note    The result is rounded up to the next second boundary.
 205:./lib/chibios/os/rt/include/chsys.h ****  * @note    The macro assumes that @p freq >= @p 1.
 206:./lib/chibios/os/rt/include/chsys.h ****  *
 207:./lib/chibios/os/rt/include/chsys.h ****  * @param[in] freq      clock frequency, in Hz, of the realtime counter
 208:./lib/chibios/os/rt/include/chsys.h ****  * @param[in] n         number of cycles
 209:./lib/chibios/os/rt/include/chsys.h ****  * @return              The number of seconds.
 210:./lib/chibios/os/rt/include/chsys.h ****  *
 211:./lib/chibios/os/rt/include/chsys.h ****  * @api
 212:./lib/chibios/os/rt/include/chsys.h ****  */
 213:./lib/chibios/os/rt/include/chsys.h **** #define RTC2S(freq, n) ((((n) - 1UL) / (freq)) + 1UL)
 214:./lib/chibios/os/rt/include/chsys.h **** 
 215:./lib/chibios/os/rt/include/chsys.h **** /**
 216:./lib/chibios/os/rt/include/chsys.h ****  * @brief   Realtime counter cycles to milliseconds.
 217:./lib/chibios/os/rt/include/chsys.h ****  * @details Converts from realtime counter cycles number to milliseconds.
 218:./lib/chibios/os/rt/include/chsys.h ****  * @note    The result is rounded up to the next millisecond boundary.
 219:./lib/chibios/os/rt/include/chsys.h ****  * @note    The macro assumes that @p freq >= @p 1000.
 220:./lib/chibios/os/rt/include/chsys.h ****  *
 221:./lib/chibios/os/rt/include/chsys.h ****  * @param[in] freq      clock frequency, in Hz, of the realtime counter
 222:./lib/chibios/os/rt/include/chsys.h ****  * @param[in] n         number of cycles
 223:./lib/chibios/os/rt/include/chsys.h ****  * @return              The number of milliseconds.
 224:./lib/chibios/os/rt/include/chsys.h ****  *
 225:./lib/chibios/os/rt/include/chsys.h ****  * @api
 226:./lib/chibios/os/rt/include/chsys.h ****  */
 227:./lib/chibios/os/rt/include/chsys.h **** #define RTC2MS(freq, n) ((((n) - 1UL) / ((freq) / 1000UL)) + 1UL)
 228:./lib/chibios/os/rt/include/chsys.h **** 
 229:./lib/chibios/os/rt/include/chsys.h **** /**
 230:./lib/chibios/os/rt/include/chsys.h ****  * @brief   Realtime counter cycles to microseconds.
 231:./lib/chibios/os/rt/include/chsys.h ****  * @details Converts from realtime counter cycles number to microseconds.
 232:./lib/chibios/os/rt/include/chsys.h ****  * @note    The result is rounded up to the next microsecond boundary.
 233:./lib/chibios/os/rt/include/chsys.h ****  * @note    The macro assumes that @p freq >= @p 1000000.
 234:./lib/chibios/os/rt/include/chsys.h ****  *
 235:./lib/chibios/os/rt/include/chsys.h ****  * @param[in] freq      clock frequency, in Hz, of the realtime counter
 236:./lib/chibios/os/rt/include/chsys.h ****  * @param[in] n         number of cycles
 237:./lib/chibios/os/rt/include/chsys.h ****  * @return              The number of microseconds.
 238:./lib/chibios/os/rt/include/chsys.h ****  *
 239:./lib/chibios/os/rt/include/chsys.h ****  * @api
 240:./lib/chibios/os/rt/include/chsys.h ****  */
 241:./lib/chibios/os/rt/include/chsys.h **** #define RTC2US(freq, n) ((((n) - 1UL) / ((freq) / 1000000UL)) + 1UL)
 242:./lib/chibios/os/rt/include/chsys.h **** /** @} */
 243:./lib/chibios/os/rt/include/chsys.h **** 
 244:./lib/chibios/os/rt/include/chsys.h **** /**
 245:./lib/chibios/os/rt/include/chsys.h ****  * @brief   Returns the current value of the system real time counter.
 246:./lib/chibios/os/rt/include/chsys.h ****  * @note    This function is only available if the port layer supports the
 247:./lib/chibios/os/rt/include/chsys.h ****  *          option @p PORT_SUPPORTS_RT.
 248:./lib/chibios/os/rt/include/chsys.h ****  *
 249:./lib/chibios/os/rt/include/chsys.h ****  * @return              The value of the system realtime counter of
 250:./lib/chibios/os/rt/include/chsys.h ****  *                      type rtcnt_t.
 251:./lib/chibios/os/rt/include/chsys.h ****  *
 252:./lib/chibios/os/rt/include/chsys.h ****  * @xclass
 253:./lib/chibios/os/rt/include/chsys.h ****  */
 254:./lib/chibios/os/rt/include/chsys.h **** #if (PORT_SUPPORTS_RT == TRUE) || defined(__DOXYGEN__)
 255:./lib/chibios/os/rt/include/chsys.h **** #define chSysGetRealtimeCounterX() (rtcnt_t)port_rt_get_counter_value()
 256:./lib/chibios/os/rt/include/chsys.h **** #endif
 257:./lib/chibios/os/rt/include/chsys.h **** 
 258:./lib/chibios/os/rt/include/chsys.h **** /**
 259:./lib/chibios/os/rt/include/chsys.h ****  * @brief   Performs a context switch.
 260:./lib/chibios/os/rt/include/chsys.h ****  * @note    Not a user function, it is meant to be invoked by the scheduler
 261:./lib/chibios/os/rt/include/chsys.h ****  *          itself or from within the port layer.
 262:./lib/chibios/os/rt/include/chsys.h ****  *
 263:./lib/chibios/os/rt/include/chsys.h ****  * @param[in] ntp       the thread to be switched in
 264:./lib/chibios/os/rt/include/chsys.h ****  * @param[in] otp       the thread to be switched out
 265:./lib/chibios/os/rt/include/chsys.h ****  *
 266:./lib/chibios/os/rt/include/chsys.h ****  * @special
 267:./lib/chibios/os/rt/include/chsys.h ****  */
 268:./lib/chibios/os/rt/include/chsys.h **** #define chSysSwitch(ntp, otp) {                                             \
 269:./lib/chibios/os/rt/include/chsys.h ****                                                                             \
 270:./lib/chibios/os/rt/include/chsys.h ****   _trace_switch(ntp, otp);                                                  \
 271:./lib/chibios/os/rt/include/chsys.h ****   _stats_ctxswc(ntp, otp);                                                  \
 272:./lib/chibios/os/rt/include/chsys.h ****   CH_CFG_CONTEXT_SWITCH_HOOK(ntp, otp);                                     \
 273:./lib/chibios/os/rt/include/chsys.h ****   port_switch(ntp, otp);                                                    \
 274:./lib/chibios/os/rt/include/chsys.h **** }
 275:./lib/chibios/os/rt/include/chsys.h **** 
 276:./lib/chibios/os/rt/include/chsys.h **** /*===========================================================================*/
 277:./lib/chibios/os/rt/include/chsys.h **** /* External declarations.                                                    */
 278:./lib/chibios/os/rt/include/chsys.h **** /*===========================================================================*/
 279:./lib/chibios/os/rt/include/chsys.h **** 
 280:./lib/chibios/os/rt/include/chsys.h **** #if !defined(__DOXYGEN__)
 281:./lib/chibios/os/rt/include/chsys.h **** extern stkalign_t ch_idle_thread_wa[];
 282:./lib/chibios/os/rt/include/chsys.h **** #endif
 283:./lib/chibios/os/rt/include/chsys.h **** 
 284:./lib/chibios/os/rt/include/chsys.h **** #ifdef __cplusplus
 285:./lib/chibios/os/rt/include/chsys.h **** extern "C" {
 286:./lib/chibios/os/rt/include/chsys.h **** #endif
 287:./lib/chibios/os/rt/include/chsys.h ****   void chSysInit(void);
 288:./lib/chibios/os/rt/include/chsys.h ****   bool chSysIntegrityCheckI(unsigned testmask);
 289:./lib/chibios/os/rt/include/chsys.h ****   void chSysTimerHandlerI(void);
 290:./lib/chibios/os/rt/include/chsys.h ****   syssts_t chSysGetStatusAndLockX(void);
 291:./lib/chibios/os/rt/include/chsys.h ****   void chSysRestoreStatusX(syssts_t sts);
 292:./lib/chibios/os/rt/include/chsys.h **** #if PORT_SUPPORTS_RT == TRUE
 293:./lib/chibios/os/rt/include/chsys.h ****   bool chSysIsCounterWithinX(rtcnt_t cnt, rtcnt_t start, rtcnt_t end);
 294:./lib/chibios/os/rt/include/chsys.h ****   void chSysPolledDelayX(rtcnt_t cycles);
 295:./lib/chibios/os/rt/include/chsys.h **** #endif
 296:./lib/chibios/os/rt/include/chsys.h **** #ifdef __cplusplus
 297:./lib/chibios/os/rt/include/chsys.h **** }
 298:./lib/chibios/os/rt/include/chsys.h **** #endif
 299:./lib/chibios/os/rt/include/chsys.h **** 
 300:./lib/chibios/os/rt/include/chsys.h **** /*===========================================================================*/
 301:./lib/chibios/os/rt/include/chsys.h **** /* Module inline functions.                                                  */
 302:./lib/chibios/os/rt/include/chsys.h **** /*===========================================================================*/
 303:./lib/chibios/os/rt/include/chsys.h **** 
 304:./lib/chibios/os/rt/include/chsys.h **** /**
 305:./lib/chibios/os/rt/include/chsys.h ****  * @brief   Raises the system interrupt priority mask to the maximum level.
 306:./lib/chibios/os/rt/include/chsys.h ****  * @details All the maskable interrupt sources are disabled regardless their
 307:./lib/chibios/os/rt/include/chsys.h ****  *          hardware priority.
 308:./lib/chibios/os/rt/include/chsys.h ****  * @note    Do not invoke this API from within a kernel lock.
 309:./lib/chibios/os/rt/include/chsys.h ****  *
 310:./lib/chibios/os/rt/include/chsys.h ****  * @special
 311:./lib/chibios/os/rt/include/chsys.h ****  */
 312:./lib/chibios/os/rt/include/chsys.h **** static inline void chSysDisable(void) {
 313:./lib/chibios/os/rt/include/chsys.h **** 
 314:./lib/chibios/os/rt/include/chsys.h ****   port_disable();
 315:./lib/chibios/os/rt/include/chsys.h ****   _dbg_check_disable();
 316:./lib/chibios/os/rt/include/chsys.h **** }
 317:./lib/chibios/os/rt/include/chsys.h **** 
 318:./lib/chibios/os/rt/include/chsys.h **** /**
 319:./lib/chibios/os/rt/include/chsys.h ****  * @brief   Raises the system interrupt priority mask to system level.
 320:./lib/chibios/os/rt/include/chsys.h ****  * @details The interrupt sources that should not be able to preempt the kernel
 321:./lib/chibios/os/rt/include/chsys.h ****  *          are disabled, interrupt sources with higher priority are still
 322:./lib/chibios/os/rt/include/chsys.h ****  *          enabled.
 323:./lib/chibios/os/rt/include/chsys.h ****  * @note    Do not invoke this API from within a kernel lock.
 324:./lib/chibios/os/rt/include/chsys.h ****  * @note    This API is no replacement for @p chSysLock(), the @p chSysLock()
 325:./lib/chibios/os/rt/include/chsys.h ****  *          could do more than just disable the interrupts.
 326:./lib/chibios/os/rt/include/chsys.h ****  *
 327:./lib/chibios/os/rt/include/chsys.h ****  * @special
 328:./lib/chibios/os/rt/include/chsys.h ****  */
 329:./lib/chibios/os/rt/include/chsys.h **** static inline void chSysSuspend(void) {
 330:./lib/chibios/os/rt/include/chsys.h **** 
 331:./lib/chibios/os/rt/include/chsys.h ****   port_suspend();
 332:./lib/chibios/os/rt/include/chsys.h ****   _dbg_check_suspend();
 333:./lib/chibios/os/rt/include/chsys.h **** }
 334:./lib/chibios/os/rt/include/chsys.h **** 
 335:./lib/chibios/os/rt/include/chsys.h **** /**
 336:./lib/chibios/os/rt/include/chsys.h ****  * @brief   Lowers the system interrupt priority mask to user level.
 337:./lib/chibios/os/rt/include/chsys.h ****  * @details All the interrupt sources are enabled.
 338:./lib/chibios/os/rt/include/chsys.h ****  * @note    Do not invoke this API from within a kernel lock.
 339:./lib/chibios/os/rt/include/chsys.h ****  * @note    This API is no replacement for @p chSysUnlock(), the
 340:./lib/chibios/os/rt/include/chsys.h ****  *          @p chSysUnlock() could do more than just enable the interrupts.
 341:./lib/chibios/os/rt/include/chsys.h ****  *
 342:./lib/chibios/os/rt/include/chsys.h ****  * @special
 343:./lib/chibios/os/rt/include/chsys.h ****  */
 344:./lib/chibios/os/rt/include/chsys.h **** static inline void chSysEnable(void) {
 345:./lib/chibios/os/rt/include/chsys.h **** 
 346:./lib/chibios/os/rt/include/chsys.h ****   _dbg_check_enable();
 347:./lib/chibios/os/rt/include/chsys.h ****   port_enable();
 348:./lib/chibios/os/rt/include/chsys.h **** }
 349:./lib/chibios/os/rt/include/chsys.h **** 
 350:./lib/chibios/os/rt/include/chsys.h **** /**
 351:./lib/chibios/os/rt/include/chsys.h ****  * @brief   Enters the kernel lock state.
 352:./lib/chibios/os/rt/include/chsys.h ****  *
 353:./lib/chibios/os/rt/include/chsys.h ****  * @special
 354:./lib/chibios/os/rt/include/chsys.h ****  */
 355:./lib/chibios/os/rt/include/chsys.h **** static inline void chSysLock(void) {
 586              		.loc 4 355 20 view .LVU131
 356:./lib/chibios/os/rt/include/chsys.h **** 
 357:./lib/chibios/os/rt/include/chsys.h ****   port_lock();
 587              		.loc 4 357 3 view .LVU132
 588              	.LBB143:
 589              	.LBI143:
 590              		.file 5 "./lib/chibios/os/common/ports/ARMCMx/chcore_v7m.h"
   1:./lib/chibios/os/common/ports/ARMCMx/chcore_v7m.h **** /*
   2:./lib/chibios/os/common/ports/ARMCMx/chcore_v7m.h ****     ChibiOS - Copyright (C) 2006..2018 Giovanni Di Sirio.
   3:./lib/chibios/os/common/ports/ARMCMx/chcore_v7m.h **** 
   4:./lib/chibios/os/common/ports/ARMCMx/chcore_v7m.h ****     This file is part of ChibiOS.
   5:./lib/chibios/os/common/ports/ARMCMx/chcore_v7m.h **** 
   6:./lib/chibios/os/common/ports/ARMCMx/chcore_v7m.h ****     ChibiOS is free software; you can redistribute it and/or modify
   7:./lib/chibios/os/common/ports/ARMCMx/chcore_v7m.h ****     it under the terms of the GNU General Public License as published by
   8:./lib/chibios/os/common/ports/ARMCMx/chcore_v7m.h ****     the Free Software Foundation; either version 3 of the License, or
   9:./lib/chibios/os/common/ports/ARMCMx/chcore_v7m.h ****     (at your option) any later version.
  10:./lib/chibios/os/common/ports/ARMCMx/chcore_v7m.h **** 
  11:./lib/chibios/os/common/ports/ARMCMx/chcore_v7m.h ****     ChibiOS is distributed in the hope that it will be useful,
  12:./lib/chibios/os/common/ports/ARMCMx/chcore_v7m.h ****     but WITHOUT ANY WARRANTY; without even the implied warranty of
  13:./lib/chibios/os/common/ports/ARMCMx/chcore_v7m.h ****     MERCHANTABILITY or FITNESS FOR A PARTICULAR PURPOSE.  See the
  14:./lib/chibios/os/common/ports/ARMCMx/chcore_v7m.h ****     GNU General Public License for more details.
  15:./lib/chibios/os/common/ports/ARMCMx/chcore_v7m.h **** 
  16:./lib/chibios/os/common/ports/ARMCMx/chcore_v7m.h ****     You should have received a copy of the GNU General Public License
  17:./lib/chibios/os/common/ports/ARMCMx/chcore_v7m.h ****     along with this program.  If not, see <http://www.gnu.org/licenses/>.
  18:./lib/chibios/os/common/ports/ARMCMx/chcore_v7m.h **** */
  19:./lib/chibios/os/common/ports/ARMCMx/chcore_v7m.h **** 
  20:./lib/chibios/os/common/ports/ARMCMx/chcore_v7m.h **** /**
  21:./lib/chibios/os/common/ports/ARMCMx/chcore_v7m.h ****  * @file    chcore_v7m.h
  22:./lib/chibios/os/common/ports/ARMCMx/chcore_v7m.h ****  * @brief   ARMv7-M architecture port macros and structures.
  23:./lib/chibios/os/common/ports/ARMCMx/chcore_v7m.h ****  *
  24:./lib/chibios/os/common/ports/ARMCMx/chcore_v7m.h ****  * @addtogroup ARMCMx_V7M_CORE
  25:./lib/chibios/os/common/ports/ARMCMx/chcore_v7m.h ****  * @{
  26:./lib/chibios/os/common/ports/ARMCMx/chcore_v7m.h ****  */
  27:./lib/chibios/os/common/ports/ARMCMx/chcore_v7m.h **** 
  28:./lib/chibios/os/common/ports/ARMCMx/chcore_v7m.h **** #ifndef CHCORE_V7M_H
  29:./lib/chibios/os/common/ports/ARMCMx/chcore_v7m.h **** #define CHCORE_V7M_H
  30:./lib/chibios/os/common/ports/ARMCMx/chcore_v7m.h **** 
  31:./lib/chibios/os/common/ports/ARMCMx/chcore_v7m.h **** /*===========================================================================*/
  32:./lib/chibios/os/common/ports/ARMCMx/chcore_v7m.h **** /* Module constants.                                                         */
  33:./lib/chibios/os/common/ports/ARMCMx/chcore_v7m.h **** /*===========================================================================*/
  34:./lib/chibios/os/common/ports/ARMCMx/chcore_v7m.h **** 
  35:./lib/chibios/os/common/ports/ARMCMx/chcore_v7m.h **** /**
  36:./lib/chibios/os/common/ports/ARMCMx/chcore_v7m.h ****  * @name    Port Capabilities and Constants
  37:./lib/chibios/os/common/ports/ARMCMx/chcore_v7m.h ****  * @{
  38:./lib/chibios/os/common/ports/ARMCMx/chcore_v7m.h ****  */
  39:./lib/chibios/os/common/ports/ARMCMx/chcore_v7m.h **** /**
  40:./lib/chibios/os/common/ports/ARMCMx/chcore_v7m.h ****  * @brief   This port supports a realtime counter.
  41:./lib/chibios/os/common/ports/ARMCMx/chcore_v7m.h ****  */
  42:./lib/chibios/os/common/ports/ARMCMx/chcore_v7m.h **** #define PORT_SUPPORTS_RT                TRUE
  43:./lib/chibios/os/common/ports/ARMCMx/chcore_v7m.h **** 
  44:./lib/chibios/os/common/ports/ARMCMx/chcore_v7m.h **** /**
  45:./lib/chibios/os/common/ports/ARMCMx/chcore_v7m.h ****  * @brief   Natural alignment constant.
  46:./lib/chibios/os/common/ports/ARMCMx/chcore_v7m.h ****  * @note    It is the minimum alignment for pointer-size variables.
  47:./lib/chibios/os/common/ports/ARMCMx/chcore_v7m.h ****  */
  48:./lib/chibios/os/common/ports/ARMCMx/chcore_v7m.h **** #define PORT_NATURAL_ALIGN              sizeof (void *)
  49:./lib/chibios/os/common/ports/ARMCMx/chcore_v7m.h **** 
  50:./lib/chibios/os/common/ports/ARMCMx/chcore_v7m.h **** /**
  51:./lib/chibios/os/common/ports/ARMCMx/chcore_v7m.h ****  * @brief   Stack alignment constant.
  52:./lib/chibios/os/common/ports/ARMCMx/chcore_v7m.h ****  * @note    It is the alignment required for the stack pointer.
  53:./lib/chibios/os/common/ports/ARMCMx/chcore_v7m.h ****  */
  54:./lib/chibios/os/common/ports/ARMCMx/chcore_v7m.h **** #define PORT_STACK_ALIGN                sizeof (stkalign_t)
  55:./lib/chibios/os/common/ports/ARMCMx/chcore_v7m.h **** 
  56:./lib/chibios/os/common/ports/ARMCMx/chcore_v7m.h **** /**
  57:./lib/chibios/os/common/ports/ARMCMx/chcore_v7m.h ****  * @brief   Working Areas alignment constant.
  58:./lib/chibios/os/common/ports/ARMCMx/chcore_v7m.h ****  * @note    It is the alignment to be enforced for thread working areas.
  59:./lib/chibios/os/common/ports/ARMCMx/chcore_v7m.h ****  */
  60:./lib/chibios/os/common/ports/ARMCMx/chcore_v7m.h **** #define PORT_WORKING_AREA_ALIGN         ((PORT_ENABLE_GUARD_PAGES == TRUE) ?\
  61:./lib/chibios/os/common/ports/ARMCMx/chcore_v7m.h ****                                          32U : PORT_STACK_ALIGN)
  62:./lib/chibios/os/common/ports/ARMCMx/chcore_v7m.h **** /** @} */
  63:./lib/chibios/os/common/ports/ARMCMx/chcore_v7m.h **** 
  64:./lib/chibios/os/common/ports/ARMCMx/chcore_v7m.h **** /**
  65:./lib/chibios/os/common/ports/ARMCMx/chcore_v7m.h ****  * @brief   Disabled value for BASEPRI register.
  66:./lib/chibios/os/common/ports/ARMCMx/chcore_v7m.h ****  */
  67:./lib/chibios/os/common/ports/ARMCMx/chcore_v7m.h **** #define CORTEX_BASEPRI_DISABLED         0U
  68:./lib/chibios/os/common/ports/ARMCMx/chcore_v7m.h **** 
  69:./lib/chibios/os/common/ports/ARMCMx/chcore_v7m.h **** /*===========================================================================*/
  70:./lib/chibios/os/common/ports/ARMCMx/chcore_v7m.h **** /* Module pre-compile time settings.                                         */
  71:./lib/chibios/os/common/ports/ARMCMx/chcore_v7m.h **** /*===========================================================================*/
  72:./lib/chibios/os/common/ports/ARMCMx/chcore_v7m.h **** 
  73:./lib/chibios/os/common/ports/ARMCMx/chcore_v7m.h **** /**
  74:./lib/chibios/os/common/ports/ARMCMx/chcore_v7m.h ****  * @brief   Implements a syscall interface on SVC.
  75:./lib/chibios/os/common/ports/ARMCMx/chcore_v7m.h ****  */
  76:./lib/chibios/os/common/ports/ARMCMx/chcore_v7m.h **** #if !defined(PORT_USE_SYSCALL) || defined(__DOXYGEN__)
  77:./lib/chibios/os/common/ports/ARMCMx/chcore_v7m.h **** #define PORT_USE_SYSCALL                FALSE
  78:./lib/chibios/os/common/ports/ARMCMx/chcore_v7m.h **** #endif
  79:./lib/chibios/os/common/ports/ARMCMx/chcore_v7m.h **** 
  80:./lib/chibios/os/common/ports/ARMCMx/chcore_v7m.h **** /**
  81:./lib/chibios/os/common/ports/ARMCMx/chcore_v7m.h ****  * @brief   Number of MPU regions to be saved/restored during context switch.
  82:./lib/chibios/os/common/ports/ARMCMx/chcore_v7m.h ****  * @note    The first region is always region zero.
  83:./lib/chibios/os/common/ports/ARMCMx/chcore_v7m.h ****  * @note    The use of this option has an overhead of 8 bytes for each
  84:./lib/chibios/os/common/ports/ARMCMx/chcore_v7m.h ****  *          region for each thread.
  85:./lib/chibios/os/common/ports/ARMCMx/chcore_v7m.h ****  * @note    Allowed values are 0..4, zero means none.
  86:./lib/chibios/os/common/ports/ARMCMx/chcore_v7m.h ****  */
  87:./lib/chibios/os/common/ports/ARMCMx/chcore_v7m.h **** #if !defined(PORT_SWITCHED_REGIONS_NUMBER) || defined(__DOXYGEN__)
  88:./lib/chibios/os/common/ports/ARMCMx/chcore_v7m.h **** #define PORT_SWITCHED_REGIONS_NUMBER    0
  89:./lib/chibios/os/common/ports/ARMCMx/chcore_v7m.h **** #endif
  90:./lib/chibios/os/common/ports/ARMCMx/chcore_v7m.h **** 
  91:./lib/chibios/os/common/ports/ARMCMx/chcore_v7m.h **** /**
  92:./lib/chibios/os/common/ports/ARMCMx/chcore_v7m.h ****  * @brief   Enables stack overflow guard pages using MPU.
  93:./lib/chibios/os/common/ports/ARMCMx/chcore_v7m.h ****  * @note    This option can only be enabled if also option
  94:./lib/chibios/os/common/ports/ARMCMx/chcore_v7m.h ****  *          @p CH_DBG_ENABLE_STACK_CHECK is enabled.
  95:./lib/chibios/os/common/ports/ARMCMx/chcore_v7m.h ****  * @note    The use of this option has an overhead of 32 bytes for each
  96:./lib/chibios/os/common/ports/ARMCMx/chcore_v7m.h ****  *          thread.
  97:./lib/chibios/os/common/ports/ARMCMx/chcore_v7m.h ****  */
  98:./lib/chibios/os/common/ports/ARMCMx/chcore_v7m.h **** #if !defined(PORT_ENABLE_GUARD_PAGES) || defined(__DOXYGEN__)
  99:./lib/chibios/os/common/ports/ARMCMx/chcore_v7m.h **** #define PORT_ENABLE_GUARD_PAGES         FALSE
 100:./lib/chibios/os/common/ports/ARMCMx/chcore_v7m.h **** #endif
 101:./lib/chibios/os/common/ports/ARMCMx/chcore_v7m.h **** 
 102:./lib/chibios/os/common/ports/ARMCMx/chcore_v7m.h **** /**
 103:./lib/chibios/os/common/ports/ARMCMx/chcore_v7m.h ****  * @brief   MPU region to be used to stack guards.
 104:./lib/chibios/os/common/ports/ARMCMx/chcore_v7m.h ****  * @note    Make sure this region is not included in the
 105:./lib/chibios/os/common/ports/ARMCMx/chcore_v7m.h ****  *          @p PORT_SWITCHED_REGIONS_NUMBER regions range.
 106:./lib/chibios/os/common/ports/ARMCMx/chcore_v7m.h ****  */
 107:./lib/chibios/os/common/ports/ARMCMx/chcore_v7m.h **** #if !defined(PORT_USE_GUARD_MPU_REGION) || defined(__DOXYGEN__)
 108:./lib/chibios/os/common/ports/ARMCMx/chcore_v7m.h **** #define PORT_USE_GUARD_MPU_REGION       MPU_REGION_7
 109:./lib/chibios/os/common/ports/ARMCMx/chcore_v7m.h **** #endif
 110:./lib/chibios/os/common/ports/ARMCMx/chcore_v7m.h **** 
 111:./lib/chibios/os/common/ports/ARMCMx/chcore_v7m.h **** /**
 112:./lib/chibios/os/common/ports/ARMCMx/chcore_v7m.h ****  * @brief   Stack size for the system idle thread.
 113:./lib/chibios/os/common/ports/ARMCMx/chcore_v7m.h ****  * @details This size depends on the idle thread implementation, usually
 114:./lib/chibios/os/common/ports/ARMCMx/chcore_v7m.h ****  *          the idle thread should take no more space than those reserved
 115:./lib/chibios/os/common/ports/ARMCMx/chcore_v7m.h ****  *          by @p PORT_INT_REQUIRED_STACK.
 116:./lib/chibios/os/common/ports/ARMCMx/chcore_v7m.h ****  * @note    In this port it is set to 16 because the idle thread does have
 117:./lib/chibios/os/common/ports/ARMCMx/chcore_v7m.h ****  *          a stack frame when compiling without optimizations. You may
 118:./lib/chibios/os/common/ports/ARMCMx/chcore_v7m.h ****  *          reduce this value to zero when compiling with optimizations.
 119:./lib/chibios/os/common/ports/ARMCMx/chcore_v7m.h ****  */
 120:./lib/chibios/os/common/ports/ARMCMx/chcore_v7m.h **** #if !defined(PORT_IDLE_THREAD_STACK_SIZE) || defined(__DOXYGEN__)
 121:./lib/chibios/os/common/ports/ARMCMx/chcore_v7m.h **** #define PORT_IDLE_THREAD_STACK_SIZE     16
 122:./lib/chibios/os/common/ports/ARMCMx/chcore_v7m.h **** #endif
 123:./lib/chibios/os/common/ports/ARMCMx/chcore_v7m.h **** 
 124:./lib/chibios/os/common/ports/ARMCMx/chcore_v7m.h **** /**
 125:./lib/chibios/os/common/ports/ARMCMx/chcore_v7m.h ****  * @brief   Per-thread stack overhead for interrupts servicing.
 126:./lib/chibios/os/common/ports/ARMCMx/chcore_v7m.h ****  * @details This constant is used in the calculation of the correct working
 127:./lib/chibios/os/common/ports/ARMCMx/chcore_v7m.h ****  *          area size.
 128:./lib/chibios/os/common/ports/ARMCMx/chcore_v7m.h ****  * @note    In this port this value is conservatively set to 64 because the
 129:./lib/chibios/os/common/ports/ARMCMx/chcore_v7m.h ****  *          function @p chSchDoReschedule() can have a stack frame, especially
 130:./lib/chibios/os/common/ports/ARMCMx/chcore_v7m.h ****  *          with compiler optimizations disabled. The value can be reduced
 131:./lib/chibios/os/common/ports/ARMCMx/chcore_v7m.h ****  *          when compiler optimizations are enabled.
 132:./lib/chibios/os/common/ports/ARMCMx/chcore_v7m.h ****  */
 133:./lib/chibios/os/common/ports/ARMCMx/chcore_v7m.h **** #if !defined(PORT_INT_REQUIRED_STACK) || defined(__DOXYGEN__)
 134:./lib/chibios/os/common/ports/ARMCMx/chcore_v7m.h **** #define PORT_INT_REQUIRED_STACK         64
 135:./lib/chibios/os/common/ports/ARMCMx/chcore_v7m.h **** #endif
 136:./lib/chibios/os/common/ports/ARMCMx/chcore_v7m.h **** 
 137:./lib/chibios/os/common/ports/ARMCMx/chcore_v7m.h **** /**
 138:./lib/chibios/os/common/ports/ARMCMx/chcore_v7m.h ****  * @brief   Enables the use of the WFI instruction in the idle thread loop.
 139:./lib/chibios/os/common/ports/ARMCMx/chcore_v7m.h ****  */
 140:./lib/chibios/os/common/ports/ARMCMx/chcore_v7m.h **** #if !defined(CORTEX_ENABLE_WFI_IDLE)
 141:./lib/chibios/os/common/ports/ARMCMx/chcore_v7m.h **** #define CORTEX_ENABLE_WFI_IDLE          FALSE
 142:./lib/chibios/os/common/ports/ARMCMx/chcore_v7m.h **** #endif
 143:./lib/chibios/os/common/ports/ARMCMx/chcore_v7m.h **** 
 144:./lib/chibios/os/common/ports/ARMCMx/chcore_v7m.h **** /**
 145:./lib/chibios/os/common/ports/ARMCMx/chcore_v7m.h ****  * @brief   FPU support in context switch.
 146:./lib/chibios/os/common/ports/ARMCMx/chcore_v7m.h ****  * @details Activating this option activates the FPU support in the kernel.
 147:./lib/chibios/os/common/ports/ARMCMx/chcore_v7m.h ****  */
 148:./lib/chibios/os/common/ports/ARMCMx/chcore_v7m.h **** #if !defined(CORTEX_USE_FPU)
 149:./lib/chibios/os/common/ports/ARMCMx/chcore_v7m.h **** #define CORTEX_USE_FPU                  CORTEX_HAS_FPU
 150:./lib/chibios/os/common/ports/ARMCMx/chcore_v7m.h **** #elif (CORTEX_USE_FPU == TRUE) && (CORTEX_HAS_FPU == FALSE)
 151:./lib/chibios/os/common/ports/ARMCMx/chcore_v7m.h **** /* This setting requires an FPU presence check in case it is externally
 152:./lib/chibios/os/common/ports/ARMCMx/chcore_v7m.h ****    redefined.*/
 153:./lib/chibios/os/common/ports/ARMCMx/chcore_v7m.h **** #error "the selected core does not have an FPU"
 154:./lib/chibios/os/common/ports/ARMCMx/chcore_v7m.h **** #endif
 155:./lib/chibios/os/common/ports/ARMCMx/chcore_v7m.h **** 
 156:./lib/chibios/os/common/ports/ARMCMx/chcore_v7m.h **** /**
 157:./lib/chibios/os/common/ports/ARMCMx/chcore_v7m.h ****  * @brief   Simplified priority handling flag.
 158:./lib/chibios/os/common/ports/ARMCMx/chcore_v7m.h ****  * @details Activating this option makes the Kernel work in compact mode.
 159:./lib/chibios/os/common/ports/ARMCMx/chcore_v7m.h ****  *          In compact mode interrupts are disabled globally instead of
 160:./lib/chibios/os/common/ports/ARMCMx/chcore_v7m.h ****  *          raising the priority mask to some intermediate level.
 161:./lib/chibios/os/common/ports/ARMCMx/chcore_v7m.h ****  */
 162:./lib/chibios/os/common/ports/ARMCMx/chcore_v7m.h **** #if !defined(CORTEX_SIMPLIFIED_PRIORITY)
 163:./lib/chibios/os/common/ports/ARMCMx/chcore_v7m.h **** #define CORTEX_SIMPLIFIED_PRIORITY      FALSE
 164:./lib/chibios/os/common/ports/ARMCMx/chcore_v7m.h **** #endif
 165:./lib/chibios/os/common/ports/ARMCMx/chcore_v7m.h **** 
 166:./lib/chibios/os/common/ports/ARMCMx/chcore_v7m.h **** /**
 167:./lib/chibios/os/common/ports/ARMCMx/chcore_v7m.h ****  * @brief   SVCALL handler priority.
 168:./lib/chibios/os/common/ports/ARMCMx/chcore_v7m.h ****  * @note    The default SVCALL handler priority is defaulted to
 169:./lib/chibios/os/common/ports/ARMCMx/chcore_v7m.h ****  *          @p CORTEX_MAXIMUM_PRIORITY+1, this reserves the
 170:./lib/chibios/os/common/ports/ARMCMx/chcore_v7m.h ****  *          @p CORTEX_MAXIMUM_PRIORITY priority level as fast interrupts
 171:./lib/chibios/os/common/ports/ARMCMx/chcore_v7m.h ****  *          priority level.
 172:./lib/chibios/os/common/ports/ARMCMx/chcore_v7m.h ****  */
 173:./lib/chibios/os/common/ports/ARMCMx/chcore_v7m.h **** #if !defined(CORTEX_PRIORITY_SVCALL)
 174:./lib/chibios/os/common/ports/ARMCMx/chcore_v7m.h **** #define CORTEX_PRIORITY_SVCALL          (CORTEX_MAXIMUM_PRIORITY + 1U)
 175:./lib/chibios/os/common/ports/ARMCMx/chcore_v7m.h **** #elif !PORT_IRQ_IS_VALID_PRIORITY(CORTEX_PRIORITY_SVCALL)
 176:./lib/chibios/os/common/ports/ARMCMx/chcore_v7m.h **** /* If it is externally redefined then better perform a validity check on it.*/
 177:./lib/chibios/os/common/ports/ARMCMx/chcore_v7m.h **** #error "invalid priority level specified for CORTEX_PRIORITY_SVCALL"
 178:./lib/chibios/os/common/ports/ARMCMx/chcore_v7m.h **** #endif
 179:./lib/chibios/os/common/ports/ARMCMx/chcore_v7m.h **** 
 180:./lib/chibios/os/common/ports/ARMCMx/chcore_v7m.h **** /**
 181:./lib/chibios/os/common/ports/ARMCMx/chcore_v7m.h ****  * @brief   NVIC PRIGROUP initialization expression.
 182:./lib/chibios/os/common/ports/ARMCMx/chcore_v7m.h ****  * @details The default assigns all available priority bits as preemption
 183:./lib/chibios/os/common/ports/ARMCMx/chcore_v7m.h ****  *          priority with no sub-priority.
 184:./lib/chibios/os/common/ports/ARMCMx/chcore_v7m.h ****  */
 185:./lib/chibios/os/common/ports/ARMCMx/chcore_v7m.h **** #if !defined(CORTEX_PRIGROUP_INIT) || defined(__DOXYGEN__)
 186:./lib/chibios/os/common/ports/ARMCMx/chcore_v7m.h **** #define CORTEX_PRIGROUP_INIT            (7 - CORTEX_PRIORITY_BITS)
 187:./lib/chibios/os/common/ports/ARMCMx/chcore_v7m.h **** #endif
 188:./lib/chibios/os/common/ports/ARMCMx/chcore_v7m.h **** 
 189:./lib/chibios/os/common/ports/ARMCMx/chcore_v7m.h **** /*===========================================================================*/
 190:./lib/chibios/os/common/ports/ARMCMx/chcore_v7m.h **** /* Derived constants and error checks.                                       */
 191:./lib/chibios/os/common/ports/ARMCMx/chcore_v7m.h **** /*===========================================================================*/
 192:./lib/chibios/os/common/ports/ARMCMx/chcore_v7m.h **** 
 193:./lib/chibios/os/common/ports/ARMCMx/chcore_v7m.h **** #if (PORT_SWITCHED_REGIONS_NUMBER < 0) || (PORT_SWITCHED_REGIONS_NUMBER > 4)
 194:./lib/chibios/os/common/ports/ARMCMx/chcore_v7m.h **** #error "invalid PORT_SWITCHED_REGIONS_NUMBER value"
 195:./lib/chibios/os/common/ports/ARMCMx/chcore_v7m.h **** #endif
 196:./lib/chibios/os/common/ports/ARMCMx/chcore_v7m.h **** 
 197:./lib/chibios/os/common/ports/ARMCMx/chcore_v7m.h **** #if !defined(_FROM_ASM_)
 198:./lib/chibios/os/common/ports/ARMCMx/chcore_v7m.h **** /**
 199:./lib/chibios/os/common/ports/ARMCMx/chcore_v7m.h ****  * @brief   MPU guard page size.
 200:./lib/chibios/os/common/ports/ARMCMx/chcore_v7m.h ****  */
 201:./lib/chibios/os/common/ports/ARMCMx/chcore_v7m.h **** #if (PORT_ENABLE_GUARD_PAGES == TRUE) || defined(__DOXYGEN__)
 202:./lib/chibios/os/common/ports/ARMCMx/chcore_v7m.h ****   #if CH_DBG_ENABLE_STACK_CHECK == FALSE
 203:./lib/chibios/os/common/ports/ARMCMx/chcore_v7m.h ****     #error "PORT_ENABLE_GUARD_PAGES requires CH_DBG_ENABLE_STACK_CHECK"
 204:./lib/chibios/os/common/ports/ARMCMx/chcore_v7m.h ****   #endif
 205:./lib/chibios/os/common/ports/ARMCMx/chcore_v7m.h ****   #if __MPU_PRESENT == 0
 206:./lib/chibios/os/common/ports/ARMCMx/chcore_v7m.h ****     #error "MPU not present in current device"
 207:./lib/chibios/os/common/ports/ARMCMx/chcore_v7m.h ****   #endif
 208:./lib/chibios/os/common/ports/ARMCMx/chcore_v7m.h ****   #define PORT_GUARD_PAGE_SIZE          32U
 209:./lib/chibios/os/common/ports/ARMCMx/chcore_v7m.h **** #else
 210:./lib/chibios/os/common/ports/ARMCMx/chcore_v7m.h ****   #define PORT_GUARD_PAGE_SIZE          0U
 211:./lib/chibios/os/common/ports/ARMCMx/chcore_v7m.h **** #endif
 212:./lib/chibios/os/common/ports/ARMCMx/chcore_v7m.h **** #endif /* !defined(_FROM_ASM_) */
 213:./lib/chibios/os/common/ports/ARMCMx/chcore_v7m.h **** 
 214:./lib/chibios/os/common/ports/ARMCMx/chcore_v7m.h **** /**
 215:./lib/chibios/os/common/ports/ARMCMx/chcore_v7m.h ****  * @name    Architecture and Compiler
 216:./lib/chibios/os/common/ports/ARMCMx/chcore_v7m.h ****  * @{
 217:./lib/chibios/os/common/ports/ARMCMx/chcore_v7m.h ****  */
 218:./lib/chibios/os/common/ports/ARMCMx/chcore_v7m.h **** #if (CORTEX_MODEL == 3) || defined(__DOXYGEN__)
 219:./lib/chibios/os/common/ports/ARMCMx/chcore_v7m.h **** 
 220:./lib/chibios/os/common/ports/ARMCMx/chcore_v7m.h ****   #if !defined(CH_CUSTOMER_LIC_PORT_CM3)
 221:./lib/chibios/os/common/ports/ARMCMx/chcore_v7m.h ****     #error "CH_CUSTOMER_LIC_PORT_CM3 not defined"
 222:./lib/chibios/os/common/ports/ARMCMx/chcore_v7m.h ****   #endif
 223:./lib/chibios/os/common/ports/ARMCMx/chcore_v7m.h **** 
 224:./lib/chibios/os/common/ports/ARMCMx/chcore_v7m.h ****   #if CH_CUSTOMER_LIC_PORT_CM3 == FALSE
 225:./lib/chibios/os/common/ports/ARMCMx/chcore_v7m.h ****     #error "ChibiOS Cortex-M3 port not licensed"
 226:./lib/chibios/os/common/ports/ARMCMx/chcore_v7m.h ****   #endif
 227:./lib/chibios/os/common/ports/ARMCMx/chcore_v7m.h **** 
 228:./lib/chibios/os/common/ports/ARMCMx/chcore_v7m.h **** /**
 229:./lib/chibios/os/common/ports/ARMCMx/chcore_v7m.h ****  * @brief   Macro defining the specific ARM architecture.
 230:./lib/chibios/os/common/ports/ARMCMx/chcore_v7m.h ****  */
 231:./lib/chibios/os/common/ports/ARMCMx/chcore_v7m.h **** #define PORT_ARCHITECTURE_ARM_v7M
 232:./lib/chibios/os/common/ports/ARMCMx/chcore_v7m.h **** 
 233:./lib/chibios/os/common/ports/ARMCMx/chcore_v7m.h **** /**
 234:./lib/chibios/os/common/ports/ARMCMx/chcore_v7m.h ****  * @brief   Name of the implemented architecture.
 235:./lib/chibios/os/common/ports/ARMCMx/chcore_v7m.h ****  */
 236:./lib/chibios/os/common/ports/ARMCMx/chcore_v7m.h **** #define PORT_ARCHITECTURE_NAME          "ARMv7-M"
 237:./lib/chibios/os/common/ports/ARMCMx/chcore_v7m.h **** 
 238:./lib/chibios/os/common/ports/ARMCMx/chcore_v7m.h **** /**
 239:./lib/chibios/os/common/ports/ARMCMx/chcore_v7m.h ****  * @brief   Name of the architecture variant.
 240:./lib/chibios/os/common/ports/ARMCMx/chcore_v7m.h ****  */
 241:./lib/chibios/os/common/ports/ARMCMx/chcore_v7m.h **** #if (PORT_ENABLE_GUARD_PAGES == FALSE) || defined(__DOXYGEN__)
 242:./lib/chibios/os/common/ports/ARMCMx/chcore_v7m.h ****   #define PORT_CORE_VARIANT_NAME        "Cortex-M3"
 243:./lib/chibios/os/common/ports/ARMCMx/chcore_v7m.h **** #else
 244:./lib/chibios/os/common/ports/ARMCMx/chcore_v7m.h ****   #define PORT_CORE_VARIANT_NAME        "Cortex-M3 (MPU)"
 245:./lib/chibios/os/common/ports/ARMCMx/chcore_v7m.h **** #endif
 246:./lib/chibios/os/common/ports/ARMCMx/chcore_v7m.h **** 
 247:./lib/chibios/os/common/ports/ARMCMx/chcore_v7m.h **** #elif (CORTEX_MODEL == 4)
 248:./lib/chibios/os/common/ports/ARMCMx/chcore_v7m.h **** 
 249:./lib/chibios/os/common/ports/ARMCMx/chcore_v7m.h ****   #if !defined(CH_CUSTOMER_LIC_PORT_CM4)
 250:./lib/chibios/os/common/ports/ARMCMx/chcore_v7m.h ****     #error "CH_CUSTOMER_LIC_PORT_CM4 not defined"
 251:./lib/chibios/os/common/ports/ARMCMx/chcore_v7m.h ****   #endif
 252:./lib/chibios/os/common/ports/ARMCMx/chcore_v7m.h **** 
 253:./lib/chibios/os/common/ports/ARMCMx/chcore_v7m.h ****   #if CH_CUSTOMER_LIC_PORT_CM4 == FALSE
 254:./lib/chibios/os/common/ports/ARMCMx/chcore_v7m.h ****   #error "ChibiOS Cortex-M4 port not licensed"
 255:./lib/chibios/os/common/ports/ARMCMx/chcore_v7m.h ****   #endif
 256:./lib/chibios/os/common/ports/ARMCMx/chcore_v7m.h **** 
 257:./lib/chibios/os/common/ports/ARMCMx/chcore_v7m.h ****   #define PORT_ARCHITECTURE_ARM_v7ME
 258:./lib/chibios/os/common/ports/ARMCMx/chcore_v7m.h ****   #define PORT_ARCHITECTURE_NAME        "ARMv7E-M"
 259:./lib/chibios/os/common/ports/ARMCMx/chcore_v7m.h ****   #if CORTEX_USE_FPU
 260:./lib/chibios/os/common/ports/ARMCMx/chcore_v7m.h ****     #if PORT_ENABLE_GUARD_PAGES == FALSE
 261:./lib/chibios/os/common/ports/ARMCMx/chcore_v7m.h ****       #define PORT_CORE_VARIANT_NAME    "Cortex-M4F"
 262:./lib/chibios/os/common/ports/ARMCMx/chcore_v7m.h ****     #else
 263:./lib/chibios/os/common/ports/ARMCMx/chcore_v7m.h ****       #define PORT_CORE_VARIANT_NAME    "Cortex-M4F (MPU)"
 264:./lib/chibios/os/common/ports/ARMCMx/chcore_v7m.h ****     #endif
 265:./lib/chibios/os/common/ports/ARMCMx/chcore_v7m.h ****   #else
 266:./lib/chibios/os/common/ports/ARMCMx/chcore_v7m.h ****     #if PORT_ENABLE_GUARD_PAGES == FALSE
 267:./lib/chibios/os/common/ports/ARMCMx/chcore_v7m.h ****       #define PORT_CORE_VARIANT_NAME    "Cortex-M4"
 268:./lib/chibios/os/common/ports/ARMCMx/chcore_v7m.h ****     #else
 269:./lib/chibios/os/common/ports/ARMCMx/chcore_v7m.h ****       #define PORT_CORE_VARIANT_NAME    "Cortex-M4 (MPU)"
 270:./lib/chibios/os/common/ports/ARMCMx/chcore_v7m.h ****     #endif
 271:./lib/chibios/os/common/ports/ARMCMx/chcore_v7m.h ****   #endif
 272:./lib/chibios/os/common/ports/ARMCMx/chcore_v7m.h **** 
 273:./lib/chibios/os/common/ports/ARMCMx/chcore_v7m.h **** #elif (CORTEX_MODEL == 7)
 274:./lib/chibios/os/common/ports/ARMCMx/chcore_v7m.h **** 
 275:./lib/chibios/os/common/ports/ARMCMx/chcore_v7m.h ****   #if !defined(CH_CUSTOMER_LIC_PORT_CM7)
 276:./lib/chibios/os/common/ports/ARMCMx/chcore_v7m.h ****     #error "CH_CUSTOMER_LIC_PORT_CM7 not defined"
 277:./lib/chibios/os/common/ports/ARMCMx/chcore_v7m.h ****   #endif
 278:./lib/chibios/os/common/ports/ARMCMx/chcore_v7m.h **** 
 279:./lib/chibios/os/common/ports/ARMCMx/chcore_v7m.h ****   #if CH_CUSTOMER_LIC_PORT_CM7 == FALSE
 280:./lib/chibios/os/common/ports/ARMCMx/chcore_v7m.h ****     #error "ChibiOS Cortex-M7 port not licensed"
 281:./lib/chibios/os/common/ports/ARMCMx/chcore_v7m.h ****   #endif
 282:./lib/chibios/os/common/ports/ARMCMx/chcore_v7m.h **** 
 283:./lib/chibios/os/common/ports/ARMCMx/chcore_v7m.h **** #define PORT_ARCHITECTURE_ARM_v7ME
 284:./lib/chibios/os/common/ports/ARMCMx/chcore_v7m.h ****   #define PORT_ARCHITECTURE_NAME        "ARMv7E-M"
 285:./lib/chibios/os/common/ports/ARMCMx/chcore_v7m.h ****   #if CORTEX_USE_FPU
 286:./lib/chibios/os/common/ports/ARMCMx/chcore_v7m.h ****     #if PORT_ENABLE_GUARD_PAGES == FALSE
 287:./lib/chibios/os/common/ports/ARMCMx/chcore_v7m.h ****       #define PORT_CORE_VARIANT_NAME    "Cortex-M7F"
 288:./lib/chibios/os/common/ports/ARMCMx/chcore_v7m.h ****     #else
 289:./lib/chibios/os/common/ports/ARMCMx/chcore_v7m.h ****       #define PORT_CORE_VARIANT_NAME    "Cortex-M7F (MPU)"
 290:./lib/chibios/os/common/ports/ARMCMx/chcore_v7m.h ****     #endif
 291:./lib/chibios/os/common/ports/ARMCMx/chcore_v7m.h ****   #else
 292:./lib/chibios/os/common/ports/ARMCMx/chcore_v7m.h ****     #if PORT_ENABLE_GUARD_PAGES == FALSE
 293:./lib/chibios/os/common/ports/ARMCMx/chcore_v7m.h ****       #define PORT_CORE_VARIANT_NAME    "Cortex-M7"
 294:./lib/chibios/os/common/ports/ARMCMx/chcore_v7m.h ****     #else
 295:./lib/chibios/os/common/ports/ARMCMx/chcore_v7m.h ****       #define PORT_CORE_VARIANT_NAME    "Cortex-M7 (MPU)"
 296:./lib/chibios/os/common/ports/ARMCMx/chcore_v7m.h ****     #endif
 297:./lib/chibios/os/common/ports/ARMCMx/chcore_v7m.h ****   #endif
 298:./lib/chibios/os/common/ports/ARMCMx/chcore_v7m.h **** #endif
 299:./lib/chibios/os/common/ports/ARMCMx/chcore_v7m.h **** 
 300:./lib/chibios/os/common/ports/ARMCMx/chcore_v7m.h **** /**
 301:./lib/chibios/os/common/ports/ARMCMx/chcore_v7m.h ****  * @brief   Port-specific information string.
 302:./lib/chibios/os/common/ports/ARMCMx/chcore_v7m.h ****  */
 303:./lib/chibios/os/common/ports/ARMCMx/chcore_v7m.h **** #if (CORTEX_SIMPLIFIED_PRIORITY == FALSE) || defined(__DOXYGEN__)
 304:./lib/chibios/os/common/ports/ARMCMx/chcore_v7m.h **** #define PORT_INFO                       "Advanced kernel mode"
 305:./lib/chibios/os/common/ports/ARMCMx/chcore_v7m.h **** #else
 306:./lib/chibios/os/common/ports/ARMCMx/chcore_v7m.h **** #define PORT_INFO                       "Compact kernel mode"
 307:./lib/chibios/os/common/ports/ARMCMx/chcore_v7m.h **** #endif
 308:./lib/chibios/os/common/ports/ARMCMx/chcore_v7m.h **** /** @} */
 309:./lib/chibios/os/common/ports/ARMCMx/chcore_v7m.h **** 
 310:./lib/chibios/os/common/ports/ARMCMx/chcore_v7m.h **** #if (CORTEX_SIMPLIFIED_PRIORITY == FALSE) || defined(__DOXYGEN__)
 311:./lib/chibios/os/common/ports/ARMCMx/chcore_v7m.h **** /**
 312:./lib/chibios/os/common/ports/ARMCMx/chcore_v7m.h ****  * @brief   Maximum usable priority for normal ISRs.
 313:./lib/chibios/os/common/ports/ARMCMx/chcore_v7m.h ****  */
 314:./lib/chibios/os/common/ports/ARMCMx/chcore_v7m.h **** #define CORTEX_MAX_KERNEL_PRIORITY      (CORTEX_PRIORITY_SVCALL + 1U)
 315:./lib/chibios/os/common/ports/ARMCMx/chcore_v7m.h **** 
 316:./lib/chibios/os/common/ports/ARMCMx/chcore_v7m.h **** /**
 317:./lib/chibios/os/common/ports/ARMCMx/chcore_v7m.h ****  * @brief   BASEPRI level within kernel lock.
 318:./lib/chibios/os/common/ports/ARMCMx/chcore_v7m.h ****  */
 319:./lib/chibios/os/common/ports/ARMCMx/chcore_v7m.h **** #define CORTEX_BASEPRI_KERNEL                                               \
 320:./lib/chibios/os/common/ports/ARMCMx/chcore_v7m.h ****   CORTEX_PRIO_MASK(CORTEX_MAX_KERNEL_PRIORITY)
 321:./lib/chibios/os/common/ports/ARMCMx/chcore_v7m.h **** #else
 322:./lib/chibios/os/common/ports/ARMCMx/chcore_v7m.h **** 
 323:./lib/chibios/os/common/ports/ARMCMx/chcore_v7m.h **** #define CORTEX_MAX_KERNEL_PRIORITY      0U
 324:./lib/chibios/os/common/ports/ARMCMx/chcore_v7m.h **** #endif
 325:./lib/chibios/os/common/ports/ARMCMx/chcore_v7m.h **** 
 326:./lib/chibios/os/common/ports/ARMCMx/chcore_v7m.h **** /**
 327:./lib/chibios/os/common/ports/ARMCMx/chcore_v7m.h ****  * @brief   PendSV priority level.
 328:./lib/chibios/os/common/ports/ARMCMx/chcore_v7m.h ****  * @note    This priority is enforced to be equal to
 329:./lib/chibios/os/common/ports/ARMCMx/chcore_v7m.h ****  *          @p CORTEX_MAX_KERNEL_PRIORITY, this handler always have the
 330:./lib/chibios/os/common/ports/ARMCMx/chcore_v7m.h ****  *          highest priority that cannot preempt the kernel.
 331:./lib/chibios/os/common/ports/ARMCMx/chcore_v7m.h ****  */
 332:./lib/chibios/os/common/ports/ARMCMx/chcore_v7m.h **** #define CORTEX_PRIORITY_PENDSV          CORTEX_MAX_KERNEL_PRIORITY
 333:./lib/chibios/os/common/ports/ARMCMx/chcore_v7m.h **** 
 334:./lib/chibios/os/common/ports/ARMCMx/chcore_v7m.h **** /*===========================================================================*/
 335:./lib/chibios/os/common/ports/ARMCMx/chcore_v7m.h **** /* Module data structures and types.                                         */
 336:./lib/chibios/os/common/ports/ARMCMx/chcore_v7m.h **** /*===========================================================================*/
 337:./lib/chibios/os/common/ports/ARMCMx/chcore_v7m.h **** 
 338:./lib/chibios/os/common/ports/ARMCMx/chcore_v7m.h **** /* The following code is not processed when the file is included from an
 339:./lib/chibios/os/common/ports/ARMCMx/chcore_v7m.h ****    asm module.*/
 340:./lib/chibios/os/common/ports/ARMCMx/chcore_v7m.h **** #if !defined(_FROM_ASM_)
 341:./lib/chibios/os/common/ports/ARMCMx/chcore_v7m.h **** 
 342:./lib/chibios/os/common/ports/ARMCMx/chcore_v7m.h **** /* The documentation of the following declarations is in chconf.h in order
 343:./lib/chibios/os/common/ports/ARMCMx/chcore_v7m.h ****    to not have duplicated structure names into the documentation.*/
 344:./lib/chibios/os/common/ports/ARMCMx/chcore_v7m.h **** #if !defined(__DOXYGEN__)
 345:./lib/chibios/os/common/ports/ARMCMx/chcore_v7m.h **** struct port_extctx {
 346:./lib/chibios/os/common/ports/ARMCMx/chcore_v7m.h ****   uint32_t      r0;
 347:./lib/chibios/os/common/ports/ARMCMx/chcore_v7m.h ****   uint32_t      r1;
 348:./lib/chibios/os/common/ports/ARMCMx/chcore_v7m.h ****   uint32_t      r2;
 349:./lib/chibios/os/common/ports/ARMCMx/chcore_v7m.h ****   uint32_t      r3;
 350:./lib/chibios/os/common/ports/ARMCMx/chcore_v7m.h ****   uint32_t      r12;
 351:./lib/chibios/os/common/ports/ARMCMx/chcore_v7m.h ****   uint32_t      lr_thd;
 352:./lib/chibios/os/common/ports/ARMCMx/chcore_v7m.h ****   uint32_t      pc;
 353:./lib/chibios/os/common/ports/ARMCMx/chcore_v7m.h ****   uint32_t      xpsr;
 354:./lib/chibios/os/common/ports/ARMCMx/chcore_v7m.h **** #if CORTEX_USE_FPU
 355:./lib/chibios/os/common/ports/ARMCMx/chcore_v7m.h ****   uint32_t      s0;
 356:./lib/chibios/os/common/ports/ARMCMx/chcore_v7m.h ****   uint32_t      s1;
 357:./lib/chibios/os/common/ports/ARMCMx/chcore_v7m.h ****   uint32_t      s2;
 358:./lib/chibios/os/common/ports/ARMCMx/chcore_v7m.h ****   uint32_t      s3;
 359:./lib/chibios/os/common/ports/ARMCMx/chcore_v7m.h ****   uint32_t      s4;
 360:./lib/chibios/os/common/ports/ARMCMx/chcore_v7m.h ****   uint32_t      s5;
 361:./lib/chibios/os/common/ports/ARMCMx/chcore_v7m.h ****   uint32_t      s6;
 362:./lib/chibios/os/common/ports/ARMCMx/chcore_v7m.h ****   uint32_t      s7;
 363:./lib/chibios/os/common/ports/ARMCMx/chcore_v7m.h ****   uint32_t      s8;
 364:./lib/chibios/os/common/ports/ARMCMx/chcore_v7m.h ****   uint32_t      s9;
 365:./lib/chibios/os/common/ports/ARMCMx/chcore_v7m.h ****   uint32_t      s10;
 366:./lib/chibios/os/common/ports/ARMCMx/chcore_v7m.h ****   uint32_t      s11;
 367:./lib/chibios/os/common/ports/ARMCMx/chcore_v7m.h ****   uint32_t      s12;
 368:./lib/chibios/os/common/ports/ARMCMx/chcore_v7m.h ****   uint32_t      s13;
 369:./lib/chibios/os/common/ports/ARMCMx/chcore_v7m.h ****   uint32_t      s14;
 370:./lib/chibios/os/common/ports/ARMCMx/chcore_v7m.h ****   uint32_t      s15;
 371:./lib/chibios/os/common/ports/ARMCMx/chcore_v7m.h ****   uint32_t      fpscr;
 372:./lib/chibios/os/common/ports/ARMCMx/chcore_v7m.h ****   uint32_t      reserved;
 373:./lib/chibios/os/common/ports/ARMCMx/chcore_v7m.h **** #endif /* CORTEX_USE_FPU */
 374:./lib/chibios/os/common/ports/ARMCMx/chcore_v7m.h **** };
 375:./lib/chibios/os/common/ports/ARMCMx/chcore_v7m.h **** 
 376:./lib/chibios/os/common/ports/ARMCMx/chcore_v7m.h **** #if (PORT_USE_SYSCALL == TRUE) || defined(__DOXYGEN__)
 377:./lib/chibios/os/common/ports/ARMCMx/chcore_v7m.h **** /**
 378:./lib/chibios/os/common/ports/ARMCMx/chcore_v7m.h ****  * @brief   Link context structure.
 379:./lib/chibios/os/common/ports/ARMCMx/chcore_v7m.h ****  * @details This structure is used when there is the need to save extra
 380:./lib/chibios/os/common/ports/ARMCMx/chcore_v7m.h ****  *          context information that is not part of the registers stacked
 381:./lib/chibios/os/common/ports/ARMCMx/chcore_v7m.h ****  *          in HW.
 382:./lib/chibios/os/common/ports/ARMCMx/chcore_v7m.h ****  */
 383:./lib/chibios/os/common/ports/ARMCMx/chcore_v7m.h **** struct port_linkctx {
 384:./lib/chibios/os/common/ports/ARMCMx/chcore_v7m.h ****   uint32_t              control;
 385:./lib/chibios/os/common/ports/ARMCMx/chcore_v7m.h ****   struct port_extctx    *ectxp;
 386:./lib/chibios/os/common/ports/ARMCMx/chcore_v7m.h **** };
 387:./lib/chibios/os/common/ports/ARMCMx/chcore_v7m.h **** #endif
 388:./lib/chibios/os/common/ports/ARMCMx/chcore_v7m.h **** 
 389:./lib/chibios/os/common/ports/ARMCMx/chcore_v7m.h **** struct port_intctx {
 390:./lib/chibios/os/common/ports/ARMCMx/chcore_v7m.h **** #if (PORT_SWITCHED_REGIONS_NUMBER > 0) || defined(__DOXYGEN__)
 391:./lib/chibios/os/common/ports/ARMCMx/chcore_v7m.h ****   struct {
 392:./lib/chibios/os/common/ports/ARMCMx/chcore_v7m.h ****     uint32_t    rbar;
 393:./lib/chibios/os/common/ports/ARMCMx/chcore_v7m.h ****     uint32_t    rasr;
 394:./lib/chibios/os/common/ports/ARMCMx/chcore_v7m.h ****   } regions[PORT_SWITCHED_REGIONS_NUMBER];
 395:./lib/chibios/os/common/ports/ARMCMx/chcore_v7m.h **** #endif
 396:./lib/chibios/os/common/ports/ARMCMx/chcore_v7m.h **** #if CORTEX_USE_FPU
 397:./lib/chibios/os/common/ports/ARMCMx/chcore_v7m.h ****   uint32_t      s16;
 398:./lib/chibios/os/common/ports/ARMCMx/chcore_v7m.h ****   uint32_t      s17;
 399:./lib/chibios/os/common/ports/ARMCMx/chcore_v7m.h ****   uint32_t      s18;
 400:./lib/chibios/os/common/ports/ARMCMx/chcore_v7m.h ****   uint32_t      s19;
 401:./lib/chibios/os/common/ports/ARMCMx/chcore_v7m.h ****   uint32_t      s20;
 402:./lib/chibios/os/common/ports/ARMCMx/chcore_v7m.h ****   uint32_t      s21;
 403:./lib/chibios/os/common/ports/ARMCMx/chcore_v7m.h ****   uint32_t      s22;
 404:./lib/chibios/os/common/ports/ARMCMx/chcore_v7m.h ****   uint32_t      s23;
 405:./lib/chibios/os/common/ports/ARMCMx/chcore_v7m.h ****   uint32_t      s24;
 406:./lib/chibios/os/common/ports/ARMCMx/chcore_v7m.h ****   uint32_t      s25;
 407:./lib/chibios/os/common/ports/ARMCMx/chcore_v7m.h ****   uint32_t      s26;
 408:./lib/chibios/os/common/ports/ARMCMx/chcore_v7m.h ****   uint32_t      s27;
 409:./lib/chibios/os/common/ports/ARMCMx/chcore_v7m.h ****   uint32_t      s28;
 410:./lib/chibios/os/common/ports/ARMCMx/chcore_v7m.h ****   uint32_t      s29;
 411:./lib/chibios/os/common/ports/ARMCMx/chcore_v7m.h ****   uint32_t      s30;
 412:./lib/chibios/os/common/ports/ARMCMx/chcore_v7m.h ****   uint32_t      s31;
 413:./lib/chibios/os/common/ports/ARMCMx/chcore_v7m.h **** #endif /* CORTEX_USE_FPU */
 414:./lib/chibios/os/common/ports/ARMCMx/chcore_v7m.h ****   uint32_t      r4;
 415:./lib/chibios/os/common/ports/ARMCMx/chcore_v7m.h ****   uint32_t      r5;
 416:./lib/chibios/os/common/ports/ARMCMx/chcore_v7m.h ****   uint32_t      r6;
 417:./lib/chibios/os/common/ports/ARMCMx/chcore_v7m.h ****   uint32_t      r7;
 418:./lib/chibios/os/common/ports/ARMCMx/chcore_v7m.h ****   uint32_t      r8;
 419:./lib/chibios/os/common/ports/ARMCMx/chcore_v7m.h ****   uint32_t      r9;
 420:./lib/chibios/os/common/ports/ARMCMx/chcore_v7m.h ****   uint32_t      r10;
 421:./lib/chibios/os/common/ports/ARMCMx/chcore_v7m.h ****   uint32_t      r11;
 422:./lib/chibios/os/common/ports/ARMCMx/chcore_v7m.h ****   uint32_t      lr;
 423:./lib/chibios/os/common/ports/ARMCMx/chcore_v7m.h **** };
 424:./lib/chibios/os/common/ports/ARMCMx/chcore_v7m.h **** 
 425:./lib/chibios/os/common/ports/ARMCMx/chcore_v7m.h **** struct port_context {
 426:./lib/chibios/os/common/ports/ARMCMx/chcore_v7m.h ****   struct port_intctx    *sp;
 427:./lib/chibios/os/common/ports/ARMCMx/chcore_v7m.h **** #if (PORT_USE_SYSCALL == TRUE) || defined(__DOXYGEN__)
 428:./lib/chibios/os/common/ports/ARMCMx/chcore_v7m.h ****   struct {
 429:./lib/chibios/os/common/ports/ARMCMx/chcore_v7m.h ****     uint32_t            psp;
 430:./lib/chibios/os/common/ports/ARMCMx/chcore_v7m.h ****     const void          *p;
 431:./lib/chibios/os/common/ports/ARMCMx/chcore_v7m.h ****   } syscall;
 432:./lib/chibios/os/common/ports/ARMCMx/chcore_v7m.h **** #endif
 433:./lib/chibios/os/common/ports/ARMCMx/chcore_v7m.h **** };
 434:./lib/chibios/os/common/ports/ARMCMx/chcore_v7m.h **** #endif /* !defined(__DOXYGEN__) */
 435:./lib/chibios/os/common/ports/ARMCMx/chcore_v7m.h **** 
 436:./lib/chibios/os/common/ports/ARMCMx/chcore_v7m.h **** /*===========================================================================*/
 437:./lib/chibios/os/common/ports/ARMCMx/chcore_v7m.h **** /* Module macros.                                                            */
 438:./lib/chibios/os/common/ports/ARMCMx/chcore_v7m.h **** /*===========================================================================*/
 439:./lib/chibios/os/common/ports/ARMCMx/chcore_v7m.h **** 
 440:./lib/chibios/os/common/ports/ARMCMx/chcore_v7m.h **** /* By default threads have no syscall context information.*/
 441:./lib/chibios/os/common/ports/ARMCMx/chcore_v7m.h **** #if (PORT_USE_SYSCALL == TRUE) || defined(__DOXYGEN__)
 442:./lib/chibios/os/common/ports/ARMCMx/chcore_v7m.h **** #define __PORT_SETUP_CONTEXT_SYSCALL(tp, wtop)                              \
 443:./lib/chibios/os/common/ports/ARMCMx/chcore_v7m.h ****   (tp)->ctx.syscall.psp = (uint32_t)(wtop);                                 \
 444:./lib/chibios/os/common/ports/ARMCMx/chcore_v7m.h ****   (tp)->ctx.syscall.p   = NULL;
 445:./lib/chibios/os/common/ports/ARMCMx/chcore_v7m.h **** #else
 446:./lib/chibios/os/common/ports/ARMCMx/chcore_v7m.h **** #define __PORT_SETUP_CONTEXT_SYSCALL(tp, wtop)
 447:./lib/chibios/os/common/ports/ARMCMx/chcore_v7m.h **** #endif
 448:./lib/chibios/os/common/ports/ARMCMx/chcore_v7m.h **** 
 449:./lib/chibios/os/common/ports/ARMCMx/chcore_v7m.h **** /* By default threads have all regions disabled.*/
 450:./lib/chibios/os/common/ports/ARMCMx/chcore_v7m.h **** #if (PORT_SWITCHED_REGIONS_NUMBER == 0) || defined(__DOXYGEN__)
 451:./lib/chibios/os/common/ports/ARMCMx/chcore_v7m.h **** #define __PORT_SETUP_CONTEXT_MPU(tp)
 452:./lib/chibios/os/common/ports/ARMCMx/chcore_v7m.h **** #elif (PORT_SWITCHED_REGIONS_NUMBER == 1) || defined(__DOXYGEN__)
 453:./lib/chibios/os/common/ports/ARMCMx/chcore_v7m.h **** #define __PORT_SETUP_CONTEXT_MPU(tp)                                        \
 454:./lib/chibios/os/common/ports/ARMCMx/chcore_v7m.h ****   (tp)->ctx.sp->regions[0].rbar  = 0U;                                      \
 455:./lib/chibios/os/common/ports/ARMCMx/chcore_v7m.h ****   (tp)->ctx.sp->regions[0].rasr  = 0U
 456:./lib/chibios/os/common/ports/ARMCMx/chcore_v7m.h **** #elif (PORT_SWITCHED_REGIONS_NUMBER == 2) || defined(__DOXYGEN__)
 457:./lib/chibios/os/common/ports/ARMCMx/chcore_v7m.h **** #define __PORT_SETUP_CONTEXT_MPU(tp)                                        \
 458:./lib/chibios/os/common/ports/ARMCMx/chcore_v7m.h ****   (tp)->ctx.sp->regions[0].rbar  = 0U;                                      \
 459:./lib/chibios/os/common/ports/ARMCMx/chcore_v7m.h ****   (tp)->ctx.sp->regions[0].rasr  = 0U;                                      \
 460:./lib/chibios/os/common/ports/ARMCMx/chcore_v7m.h ****   (tp)->ctx.sp->regions[1].rbar  = 0U;                                      \
 461:./lib/chibios/os/common/ports/ARMCMx/chcore_v7m.h ****   (tp)->ctx.sp->regions[1].rasr  = 0U
 462:./lib/chibios/os/common/ports/ARMCMx/chcore_v7m.h **** #elif (PORT_SWITCHED_REGIONS_NUMBER == 3) || defined(__DOXYGEN__)
 463:./lib/chibios/os/common/ports/ARMCMx/chcore_v7m.h **** #define __PORT_SETUP_CONTEXT_MPU(tp)                                        \
 464:./lib/chibios/os/common/ports/ARMCMx/chcore_v7m.h ****   (tp)->ctx.sp->regions[0].rbar  = 0U;                                      \
 465:./lib/chibios/os/common/ports/ARMCMx/chcore_v7m.h ****   (tp)->ctx.sp->regions[0].rasr  = 0U;                                      \
 466:./lib/chibios/os/common/ports/ARMCMx/chcore_v7m.h ****   (tp)->ctx.sp->regions[1].rbar  = 0U;                                      \
 467:./lib/chibios/os/common/ports/ARMCMx/chcore_v7m.h ****   (tp)->ctx.sp->regions[1].rasr  = 0U;                                      \
 468:./lib/chibios/os/common/ports/ARMCMx/chcore_v7m.h ****   (tp)->ctx.sp->regions[2].rbar  = 0U;                                      \
 469:./lib/chibios/os/common/ports/ARMCMx/chcore_v7m.h ****   (tp)->ctx.sp->regions[2].rasr  = 0U
 470:./lib/chibios/os/common/ports/ARMCMx/chcore_v7m.h **** #elif (PORT_SWITCHED_REGIONS_NUMBER == 4) || defined(__DOXYGEN__)
 471:./lib/chibios/os/common/ports/ARMCMx/chcore_v7m.h **** #define __PORT_SETUP_CONTEXT_MPU(tp)                                        \
 472:./lib/chibios/os/common/ports/ARMCMx/chcore_v7m.h ****   (tp)->ctx.sp->regions[0].rbar  = 0U;                                      \
 473:./lib/chibios/os/common/ports/ARMCMx/chcore_v7m.h ****   (tp)->ctx.sp->regions[0].rasr  = 0U;                                      \
 474:./lib/chibios/os/common/ports/ARMCMx/chcore_v7m.h ****   (tp)->ctx.sp->regions[1].rbar  = 0U;                                      \
 475:./lib/chibios/os/common/ports/ARMCMx/chcore_v7m.h ****   (tp)->ctx.sp->regions[1].rasr  = 0U;                                      \
 476:./lib/chibios/os/common/ports/ARMCMx/chcore_v7m.h ****   (tp)->ctx.sp->regions[2].rbar  = 0U;                                      \
 477:./lib/chibios/os/common/ports/ARMCMx/chcore_v7m.h ****   (tp)->ctx.sp->regions[2].rasr  = 0U;                                      \
 478:./lib/chibios/os/common/ports/ARMCMx/chcore_v7m.h ****   (tp)->ctx.sp->regions[3].rbar  = 0U;                                      \
 479:./lib/chibios/os/common/ports/ARMCMx/chcore_v7m.h ****   (tp)->ctx.sp->regions[3].rasr  = 0U
 480:./lib/chibios/os/common/ports/ARMCMx/chcore_v7m.h **** #else
 481:./lib/chibios/os/common/ports/ARMCMx/chcore_v7m.h **** #endif
 482:./lib/chibios/os/common/ports/ARMCMx/chcore_v7m.h **** 
 483:./lib/chibios/os/common/ports/ARMCMx/chcore_v7m.h **** /**
 484:./lib/chibios/os/common/ports/ARMCMx/chcore_v7m.h ****  * @brief   Platform dependent part of the @p chThdCreateI() API.
 485:./lib/chibios/os/common/ports/ARMCMx/chcore_v7m.h ****  * @details This code usually setup the context switching frame represented
 486:./lib/chibios/os/common/ports/ARMCMx/chcore_v7m.h ****  *          by an @p port_intctx structure.
 487:./lib/chibios/os/common/ports/ARMCMx/chcore_v7m.h ****  */
 488:./lib/chibios/os/common/ports/ARMCMx/chcore_v7m.h **** #define PORT_SETUP_CONTEXT(tp, wbase, wtop, pf, arg) {                      \
 489:./lib/chibios/os/common/ports/ARMCMx/chcore_v7m.h ****   (tp)->ctx.sp = (struct port_intctx *)((uint8_t *)(wtop) -                 \
 490:./lib/chibios/os/common/ports/ARMCMx/chcore_v7m.h ****                                         sizeof (struct port_intctx));       \
 491:./lib/chibios/os/common/ports/ARMCMx/chcore_v7m.h ****   (tp)->ctx.sp->r4 = (uint32_t)(pf);                                        \
 492:./lib/chibios/os/common/ports/ARMCMx/chcore_v7m.h ****   (tp)->ctx.sp->r5 = (uint32_t)(arg);                                       \
 493:./lib/chibios/os/common/ports/ARMCMx/chcore_v7m.h ****   (tp)->ctx.sp->lr = (uint32_t)_port_thread_start;                          \
 494:./lib/chibios/os/common/ports/ARMCMx/chcore_v7m.h ****   __PORT_SETUP_CONTEXT_MPU(tp);                                             \
 495:./lib/chibios/os/common/ports/ARMCMx/chcore_v7m.h ****   __PORT_SETUP_CONTEXT_SYSCALL(tp, wtop);                                   \
 496:./lib/chibios/os/common/ports/ARMCMx/chcore_v7m.h **** }
 497:./lib/chibios/os/common/ports/ARMCMx/chcore_v7m.h **** 
 498:./lib/chibios/os/common/ports/ARMCMx/chcore_v7m.h **** //  __PORT_SETUP_CONTEXT_MPU(tp)
 499:./lib/chibios/os/common/ports/ARMCMx/chcore_v7m.h **** 
 500:./lib/chibios/os/common/ports/ARMCMx/chcore_v7m.h **** /**
 501:./lib/chibios/os/common/ports/ARMCMx/chcore_v7m.h ****  * @brief   Computes the thread working area global size.
 502:./lib/chibios/os/common/ports/ARMCMx/chcore_v7m.h ****  * @note    There is no need to perform alignments in this macro.
 503:./lib/chibios/os/common/ports/ARMCMx/chcore_v7m.h ****  */
 504:./lib/chibios/os/common/ports/ARMCMx/chcore_v7m.h **** #define PORT_WA_SIZE(n) ((size_t)PORT_GUARD_PAGE_SIZE +                     \
 505:./lib/chibios/os/common/ports/ARMCMx/chcore_v7m.h ****                          sizeof (struct port_intctx) +                      \
 506:./lib/chibios/os/common/ports/ARMCMx/chcore_v7m.h ****                          sizeof (struct port_extctx) +                      \
 507:./lib/chibios/os/common/ports/ARMCMx/chcore_v7m.h ****                          (size_t)(n) +                                      \
 508:./lib/chibios/os/common/ports/ARMCMx/chcore_v7m.h ****                          (size_t)PORT_INT_REQUIRED_STACK)
 509:./lib/chibios/os/common/ports/ARMCMx/chcore_v7m.h **** 
 510:./lib/chibios/os/common/ports/ARMCMx/chcore_v7m.h **** /**
 511:./lib/chibios/os/common/ports/ARMCMx/chcore_v7m.h ****  * @brief   Static working area allocation.
 512:./lib/chibios/os/common/ports/ARMCMx/chcore_v7m.h ****  * @details This macro is used to allocate a static thread working area
 513:./lib/chibios/os/common/ports/ARMCMx/chcore_v7m.h ****  *          aligned as both position and size.
 514:./lib/chibios/os/common/ports/ARMCMx/chcore_v7m.h ****  *
 515:./lib/chibios/os/common/ports/ARMCMx/chcore_v7m.h ****  * @param[in] s         the name to be assigned to the stack array
 516:./lib/chibios/os/common/ports/ARMCMx/chcore_v7m.h ****  * @param[in] n         the stack size to be assigned to the thread
 517:./lib/chibios/os/common/ports/ARMCMx/chcore_v7m.h ****  */
 518:./lib/chibios/os/common/ports/ARMCMx/chcore_v7m.h **** #if (PORT_ENABLE_GUARD_PAGES == FALSE) || defined(__DOXYGEN__)
 519:./lib/chibios/os/common/ports/ARMCMx/chcore_v7m.h **** #define PORT_WORKING_AREA(s, n)                                             \
 520:./lib/chibios/os/common/ports/ARMCMx/chcore_v7m.h ****   stkalign_t s[THD_WORKING_AREA_SIZE(n) / sizeof (stkalign_t)]
 521:./lib/chibios/os/common/ports/ARMCMx/chcore_v7m.h **** #else
 522:./lib/chibios/os/common/ports/ARMCMx/chcore_v7m.h **** #define PORT_WORKING_AREA(s, n)                                             \
 523:./lib/chibios/os/common/ports/ARMCMx/chcore_v7m.h ****   ALIGNED_VAR(32) stkalign_t s[THD_WORKING_AREA_SIZE(n) / sizeof (stkalign_t)]
 524:./lib/chibios/os/common/ports/ARMCMx/chcore_v7m.h **** #endif
 525:./lib/chibios/os/common/ports/ARMCMx/chcore_v7m.h **** 
 526:./lib/chibios/os/common/ports/ARMCMx/chcore_v7m.h **** /**
 527:./lib/chibios/os/common/ports/ARMCMx/chcore_v7m.h ****  * @brief   IRQ prologue code.
 528:./lib/chibios/os/common/ports/ARMCMx/chcore_v7m.h ****  * @details This macro must be inserted at the start of all IRQ handlers
 529:./lib/chibios/os/common/ports/ARMCMx/chcore_v7m.h ****  *          enabled to invoke system APIs.
 530:./lib/chibios/os/common/ports/ARMCMx/chcore_v7m.h ****  */
 531:./lib/chibios/os/common/ports/ARMCMx/chcore_v7m.h **** #define PORT_IRQ_PROLOGUE()
 532:./lib/chibios/os/common/ports/ARMCMx/chcore_v7m.h **** 
 533:./lib/chibios/os/common/ports/ARMCMx/chcore_v7m.h **** /**
 534:./lib/chibios/os/common/ports/ARMCMx/chcore_v7m.h ****  * @brief   IRQ epilogue code.
 535:./lib/chibios/os/common/ports/ARMCMx/chcore_v7m.h ****  * @details This macro must be inserted at the end of all IRQ handlers
 536:./lib/chibios/os/common/ports/ARMCMx/chcore_v7m.h ****  *          enabled to invoke system APIs.
 537:./lib/chibios/os/common/ports/ARMCMx/chcore_v7m.h ****  */
 538:./lib/chibios/os/common/ports/ARMCMx/chcore_v7m.h **** #define PORT_IRQ_EPILOGUE() _port_irq_epilogue()
 539:./lib/chibios/os/common/ports/ARMCMx/chcore_v7m.h **** 
 540:./lib/chibios/os/common/ports/ARMCMx/chcore_v7m.h **** /**
 541:./lib/chibios/os/common/ports/ARMCMx/chcore_v7m.h ****  * @brief   IRQ handler function declaration.
 542:./lib/chibios/os/common/ports/ARMCMx/chcore_v7m.h ****  * @note    @p id can be a function name or a vector number depending on the
 543:./lib/chibios/os/common/ports/ARMCMx/chcore_v7m.h ****  *          port implementation.
 544:./lib/chibios/os/common/ports/ARMCMx/chcore_v7m.h ****  */
 545:./lib/chibios/os/common/ports/ARMCMx/chcore_v7m.h **** #ifdef __cplusplus
 546:./lib/chibios/os/common/ports/ARMCMx/chcore_v7m.h **** #define PORT_IRQ_HANDLER(id) extern "C" void id(void)
 547:./lib/chibios/os/common/ports/ARMCMx/chcore_v7m.h **** #else
 548:./lib/chibios/os/common/ports/ARMCMx/chcore_v7m.h **** #define PORT_IRQ_HANDLER(id) void id(void)
 549:./lib/chibios/os/common/ports/ARMCMx/chcore_v7m.h **** #endif
 550:./lib/chibios/os/common/ports/ARMCMx/chcore_v7m.h **** 
 551:./lib/chibios/os/common/ports/ARMCMx/chcore_v7m.h **** /**
 552:./lib/chibios/os/common/ports/ARMCMx/chcore_v7m.h ****  * @brief   Fast IRQ handler function declaration.
 553:./lib/chibios/os/common/ports/ARMCMx/chcore_v7m.h ****  * @note    @p id can be a function name or a vector number depending on the
 554:./lib/chibios/os/common/ports/ARMCMx/chcore_v7m.h ****  *          port implementation.
 555:./lib/chibios/os/common/ports/ARMCMx/chcore_v7m.h ****  */
 556:./lib/chibios/os/common/ports/ARMCMx/chcore_v7m.h **** #ifdef __cplusplus
 557:./lib/chibios/os/common/ports/ARMCMx/chcore_v7m.h **** #define PORT_FAST_IRQ_HANDLER(id) extern "C" void id(void)
 558:./lib/chibios/os/common/ports/ARMCMx/chcore_v7m.h **** #else
 559:./lib/chibios/os/common/ports/ARMCMx/chcore_v7m.h **** #define PORT_FAST_IRQ_HANDLER(id) void id(void)
 560:./lib/chibios/os/common/ports/ARMCMx/chcore_v7m.h **** #endif
 561:./lib/chibios/os/common/ports/ARMCMx/chcore_v7m.h **** 
 562:./lib/chibios/os/common/ports/ARMCMx/chcore_v7m.h **** /**
 563:./lib/chibios/os/common/ports/ARMCMx/chcore_v7m.h ****  * @brief   Performs a context switch between two threads.
 564:./lib/chibios/os/common/ports/ARMCMx/chcore_v7m.h ****  * @details This is the most critical code in any port, this function
 565:./lib/chibios/os/common/ports/ARMCMx/chcore_v7m.h ****  *          is responsible for the context switch between 2 threads.
 566:./lib/chibios/os/common/ports/ARMCMx/chcore_v7m.h ****  * @note    The implementation of this code affects <b>directly</b> the context
 567:./lib/chibios/os/common/ports/ARMCMx/chcore_v7m.h ****  *          switch performance so optimize here as much as you can.
 568:./lib/chibios/os/common/ports/ARMCMx/chcore_v7m.h ****  *
 569:./lib/chibios/os/common/ports/ARMCMx/chcore_v7m.h ****  * @param[in] ntp       the thread to be switched in
 570:./lib/chibios/os/common/ports/ARMCMx/chcore_v7m.h ****  * @param[in] otp       the thread to be switched out
 571:./lib/chibios/os/common/ports/ARMCMx/chcore_v7m.h ****  */
 572:./lib/chibios/os/common/ports/ARMCMx/chcore_v7m.h **** #if (CH_DBG_ENABLE_STACK_CHECK == FALSE) || defined(__DOXYGEN__)
 573:./lib/chibios/os/common/ports/ARMCMx/chcore_v7m.h **** #define port_switch(ntp, otp) _port_switch(ntp, otp)
 574:./lib/chibios/os/common/ports/ARMCMx/chcore_v7m.h **** #else
 575:./lib/chibios/os/common/ports/ARMCMx/chcore_v7m.h **** #if PORT_ENABLE_GUARD_PAGES == FALSE
 576:./lib/chibios/os/common/ports/ARMCMx/chcore_v7m.h **** #define port_switch(ntp, otp) {                                             \
 577:./lib/chibios/os/common/ports/ARMCMx/chcore_v7m.h ****   struct port_intctx *r13 = (struct port_intctx *)__get_PSP();              \
 578:./lib/chibios/os/common/ports/ARMCMx/chcore_v7m.h ****   if ((stkalign_t *)(r13 - 1) < (otp)->wabase) {                            \
 579:./lib/chibios/os/common/ports/ARMCMx/chcore_v7m.h ****     chSysHalt("stack overflow");                                            \
 580:./lib/chibios/os/common/ports/ARMCMx/chcore_v7m.h ****   }                                                                         \
 581:./lib/chibios/os/common/ports/ARMCMx/chcore_v7m.h ****   _port_switch(ntp, otp);                                                   \
 582:./lib/chibios/os/common/ports/ARMCMx/chcore_v7m.h **** }
 583:./lib/chibios/os/common/ports/ARMCMx/chcore_v7m.h **** #else
 584:./lib/chibios/os/common/ports/ARMCMx/chcore_v7m.h **** #define port_switch(ntp, otp) {                                             \
 585:./lib/chibios/os/common/ports/ARMCMx/chcore_v7m.h ****   _port_switch(ntp, otp);                                                   \
 586:./lib/chibios/os/common/ports/ARMCMx/chcore_v7m.h ****                                                                             \
 587:./lib/chibios/os/common/ports/ARMCMx/chcore_v7m.h ****   /* Setting up the guard page for the switched-in thread.*/                \
 588:./lib/chibios/os/common/ports/ARMCMx/chcore_v7m.h ****   mpuSetRegionAddress(PORT_USE_GUARD_MPU_REGION,                            \
 589:./lib/chibios/os/common/ports/ARMCMx/chcore_v7m.h ****                       chThdGetSelfX()->wabase);                             \
 590:./lib/chibios/os/common/ports/ARMCMx/chcore_v7m.h **** }
 591:./lib/chibios/os/common/ports/ARMCMx/chcore_v7m.h **** #endif
 592:./lib/chibios/os/common/ports/ARMCMx/chcore_v7m.h **** #endif
 593:./lib/chibios/os/common/ports/ARMCMx/chcore_v7m.h **** 
 594:./lib/chibios/os/common/ports/ARMCMx/chcore_v7m.h **** /*===========================================================================*/
 595:./lib/chibios/os/common/ports/ARMCMx/chcore_v7m.h **** /* External declarations.                                                    */
 596:./lib/chibios/os/common/ports/ARMCMx/chcore_v7m.h **** /*===========================================================================*/
 597:./lib/chibios/os/common/ports/ARMCMx/chcore_v7m.h **** 
 598:./lib/chibios/os/common/ports/ARMCMx/chcore_v7m.h **** #ifdef __cplusplus
 599:./lib/chibios/os/common/ports/ARMCMx/chcore_v7m.h **** extern "C" {
 600:./lib/chibios/os/common/ports/ARMCMx/chcore_v7m.h **** #endif
 601:./lib/chibios/os/common/ports/ARMCMx/chcore_v7m.h ****   void port_init(void);
 602:./lib/chibios/os/common/ports/ARMCMx/chcore_v7m.h ****   void _port_irq_epilogue(void);
 603:./lib/chibios/os/common/ports/ARMCMx/chcore_v7m.h ****   void _port_switch(thread_t *ntp, thread_t *otp);
 604:./lib/chibios/os/common/ports/ARMCMx/chcore_v7m.h ****   void _port_thread_start(void);
 605:./lib/chibios/os/common/ports/ARMCMx/chcore_v7m.h ****   void _port_switch_from_isr(void);
 606:./lib/chibios/os/common/ports/ARMCMx/chcore_v7m.h ****   void _port_exit_from_isr(void);
 607:./lib/chibios/os/common/ports/ARMCMx/chcore_v7m.h **** #if PORT_USE_SYSCALL == TRUE
 608:./lib/chibios/os/common/ports/ARMCMx/chcore_v7m.h ****   void port_unprivileged_jump(uint32_t pc, uint32_t psp);
 609:./lib/chibios/os/common/ports/ARMCMx/chcore_v7m.h **** #endif
 610:./lib/chibios/os/common/ports/ARMCMx/chcore_v7m.h **** #ifdef __cplusplus
 611:./lib/chibios/os/common/ports/ARMCMx/chcore_v7m.h **** }
 612:./lib/chibios/os/common/ports/ARMCMx/chcore_v7m.h **** #endif
 613:./lib/chibios/os/common/ports/ARMCMx/chcore_v7m.h **** 
 614:./lib/chibios/os/common/ports/ARMCMx/chcore_v7m.h **** /*===========================================================================*/
 615:./lib/chibios/os/common/ports/ARMCMx/chcore_v7m.h **** /* Module inline functions.                                                  */
 616:./lib/chibios/os/common/ports/ARMCMx/chcore_v7m.h **** /*===========================================================================*/
 617:./lib/chibios/os/common/ports/ARMCMx/chcore_v7m.h **** 
 618:./lib/chibios/os/common/ports/ARMCMx/chcore_v7m.h **** /**
 619:./lib/chibios/os/common/ports/ARMCMx/chcore_v7m.h ****  * @brief   Returns a word encoding the current interrupts status.
 620:./lib/chibios/os/common/ports/ARMCMx/chcore_v7m.h ****  *
 621:./lib/chibios/os/common/ports/ARMCMx/chcore_v7m.h ****  * @return              The interrupts status.
 622:./lib/chibios/os/common/ports/ARMCMx/chcore_v7m.h ****  */
 623:./lib/chibios/os/common/ports/ARMCMx/chcore_v7m.h **** __STATIC_FORCEINLINE syssts_t port_get_irq_status(void) {
 624:./lib/chibios/os/common/ports/ARMCMx/chcore_v7m.h ****   syssts_t sts;
 625:./lib/chibios/os/common/ports/ARMCMx/chcore_v7m.h **** 
 626:./lib/chibios/os/common/ports/ARMCMx/chcore_v7m.h **** #if CORTEX_SIMPLIFIED_PRIORITY == FALSE
 627:./lib/chibios/os/common/ports/ARMCMx/chcore_v7m.h ****   sts = (syssts_t)__get_BASEPRI();
 628:./lib/chibios/os/common/ports/ARMCMx/chcore_v7m.h **** #else /* CORTEX_SIMPLIFIED_PRIORITY */
 629:./lib/chibios/os/common/ports/ARMCMx/chcore_v7m.h ****   sts = (syssts_t)__get_PRIMASK();
 630:./lib/chibios/os/common/ports/ARMCMx/chcore_v7m.h **** #endif /* CORTEX_SIMPLIFIED_PRIORITY */
 631:./lib/chibios/os/common/ports/ARMCMx/chcore_v7m.h ****   return sts;
 632:./lib/chibios/os/common/ports/ARMCMx/chcore_v7m.h **** }
 633:./lib/chibios/os/common/ports/ARMCMx/chcore_v7m.h **** 
 634:./lib/chibios/os/common/ports/ARMCMx/chcore_v7m.h **** /**
 635:./lib/chibios/os/common/ports/ARMCMx/chcore_v7m.h ****  * @brief   Checks the interrupt status.
 636:./lib/chibios/os/common/ports/ARMCMx/chcore_v7m.h ****  *
 637:./lib/chibios/os/common/ports/ARMCMx/chcore_v7m.h ****  * @param[in] sts       the interrupt status word
 638:./lib/chibios/os/common/ports/ARMCMx/chcore_v7m.h ****  *
 639:./lib/chibios/os/common/ports/ARMCMx/chcore_v7m.h ****  * @return              The interrupt status.
 640:./lib/chibios/os/common/ports/ARMCMx/chcore_v7m.h ****  * @retval false        the word specified a disabled interrupts status.
 641:./lib/chibios/os/common/ports/ARMCMx/chcore_v7m.h ****  * @retval true         the word specified an enabled interrupts status.
 642:./lib/chibios/os/common/ports/ARMCMx/chcore_v7m.h ****  */
 643:./lib/chibios/os/common/ports/ARMCMx/chcore_v7m.h **** __STATIC_FORCEINLINE bool port_irq_enabled(syssts_t sts) {
 644:./lib/chibios/os/common/ports/ARMCMx/chcore_v7m.h **** 
 645:./lib/chibios/os/common/ports/ARMCMx/chcore_v7m.h **** #if CORTEX_SIMPLIFIED_PRIORITY == FALSE
 646:./lib/chibios/os/common/ports/ARMCMx/chcore_v7m.h ****   return sts == (syssts_t)CORTEX_BASEPRI_DISABLED;
 647:./lib/chibios/os/common/ports/ARMCMx/chcore_v7m.h **** #else /* CORTEX_SIMPLIFIED_PRIORITY */
 648:./lib/chibios/os/common/ports/ARMCMx/chcore_v7m.h ****   return (sts & (syssts_t)1) == (syssts_t)0;
 649:./lib/chibios/os/common/ports/ARMCMx/chcore_v7m.h **** #endif /* CORTEX_SIMPLIFIED_PRIORITY */
 650:./lib/chibios/os/common/ports/ARMCMx/chcore_v7m.h **** }
 651:./lib/chibios/os/common/ports/ARMCMx/chcore_v7m.h **** 
 652:./lib/chibios/os/common/ports/ARMCMx/chcore_v7m.h **** /**
 653:./lib/chibios/os/common/ports/ARMCMx/chcore_v7m.h ****  * @brief   Determines the current execution context.
 654:./lib/chibios/os/common/ports/ARMCMx/chcore_v7m.h ****  *
 655:./lib/chibios/os/common/ports/ARMCMx/chcore_v7m.h ****  * @return              The execution context.
 656:./lib/chibios/os/common/ports/ARMCMx/chcore_v7m.h ****  * @retval false        not running in ISR mode.
 657:./lib/chibios/os/common/ports/ARMCMx/chcore_v7m.h ****  * @retval true         running in ISR mode.
 658:./lib/chibios/os/common/ports/ARMCMx/chcore_v7m.h ****  */
 659:./lib/chibios/os/common/ports/ARMCMx/chcore_v7m.h **** __STATIC_FORCEINLINE bool port_is_isr_context(void) {
 660:./lib/chibios/os/common/ports/ARMCMx/chcore_v7m.h **** 
 661:./lib/chibios/os/common/ports/ARMCMx/chcore_v7m.h ****   return (bool)((__get_IPSR() & 0x1FFU) != 0U);
 662:./lib/chibios/os/common/ports/ARMCMx/chcore_v7m.h **** }
 663:./lib/chibios/os/common/ports/ARMCMx/chcore_v7m.h **** 
 664:./lib/chibios/os/common/ports/ARMCMx/chcore_v7m.h **** /**
 665:./lib/chibios/os/common/ports/ARMCMx/chcore_v7m.h ****  * @brief   Kernel-lock action.
 666:./lib/chibios/os/common/ports/ARMCMx/chcore_v7m.h ****  * @details In this port this function raises the base priority to kernel
 667:./lib/chibios/os/common/ports/ARMCMx/chcore_v7m.h ****  *          level.
 668:./lib/chibios/os/common/ports/ARMCMx/chcore_v7m.h ****  */
 669:./lib/chibios/os/common/ports/ARMCMx/chcore_v7m.h **** __STATIC_FORCEINLINE void port_lock(void) {
 591              		.loc 5 669 27 view .LVU133
 670:./lib/chibios/os/common/ports/ARMCMx/chcore_v7m.h **** 
 671:./lib/chibios/os/common/ports/ARMCMx/chcore_v7m.h **** #if CORTEX_SIMPLIFIED_PRIORITY == FALSE
 672:./lib/chibios/os/common/ports/ARMCMx/chcore_v7m.h **** #if defined(__CM7_REV)
 673:./lib/chibios/os/common/ports/ARMCMx/chcore_v7m.h **** #if __CM7_REV <= 1
 674:./lib/chibios/os/common/ports/ARMCMx/chcore_v7m.h ****   __disable_irq();
 675:./lib/chibios/os/common/ports/ARMCMx/chcore_v7m.h **** #endif
 676:./lib/chibios/os/common/ports/ARMCMx/chcore_v7m.h **** #endif
 677:./lib/chibios/os/common/ports/ARMCMx/chcore_v7m.h ****   __set_BASEPRI(CORTEX_BASEPRI_KERNEL);
 592              		.loc 5 677 3 view .LVU134
 593              	.LBB144:
 594              	.LBI144:
 595              		.file 6 "./lib/chibios/os/common/ext/ARM/CMSIS/Core/Include/cmsis_gcc.h"
   1:./lib/chibios/os/common/ext/ARM/CMSIS/Core/Include/cmsis_gcc.h **** /**************************************************************************//**
   2:./lib/chibios/os/common/ext/ARM/CMSIS/Core/Include/cmsis_gcc.h ****  * @file     cmsis_gcc.h
   3:./lib/chibios/os/common/ext/ARM/CMSIS/Core/Include/cmsis_gcc.h ****  * @brief    CMSIS compiler GCC header file
   4:./lib/chibios/os/common/ext/ARM/CMSIS/Core/Include/cmsis_gcc.h ****  * @version  V5.0.4
   5:./lib/chibios/os/common/ext/ARM/CMSIS/Core/Include/cmsis_gcc.h ****  * @date     09. April 2018
   6:./lib/chibios/os/common/ext/ARM/CMSIS/Core/Include/cmsis_gcc.h ****  ******************************************************************************/
   7:./lib/chibios/os/common/ext/ARM/CMSIS/Core/Include/cmsis_gcc.h **** /*
   8:./lib/chibios/os/common/ext/ARM/CMSIS/Core/Include/cmsis_gcc.h ****  * Copyright (c) 2009-2018 Arm Limited. All rights reserved.
   9:./lib/chibios/os/common/ext/ARM/CMSIS/Core/Include/cmsis_gcc.h ****  *
  10:./lib/chibios/os/common/ext/ARM/CMSIS/Core/Include/cmsis_gcc.h ****  * SPDX-License-Identifier: Apache-2.0
  11:./lib/chibios/os/common/ext/ARM/CMSIS/Core/Include/cmsis_gcc.h ****  *
  12:./lib/chibios/os/common/ext/ARM/CMSIS/Core/Include/cmsis_gcc.h ****  * Licensed under the Apache License, Version 2.0 (the License); you may
  13:./lib/chibios/os/common/ext/ARM/CMSIS/Core/Include/cmsis_gcc.h ****  * not use this file except in compliance with the License.
  14:./lib/chibios/os/common/ext/ARM/CMSIS/Core/Include/cmsis_gcc.h ****  * You may obtain a copy of the License at
  15:./lib/chibios/os/common/ext/ARM/CMSIS/Core/Include/cmsis_gcc.h ****  *
  16:./lib/chibios/os/common/ext/ARM/CMSIS/Core/Include/cmsis_gcc.h ****  * www.apache.org/licenses/LICENSE-2.0
  17:./lib/chibios/os/common/ext/ARM/CMSIS/Core/Include/cmsis_gcc.h ****  *
  18:./lib/chibios/os/common/ext/ARM/CMSIS/Core/Include/cmsis_gcc.h ****  * Unless required by applicable law or agreed to in writing, software
  19:./lib/chibios/os/common/ext/ARM/CMSIS/Core/Include/cmsis_gcc.h ****  * distributed under the License is distributed on an AS IS BASIS, WITHOUT
  20:./lib/chibios/os/common/ext/ARM/CMSIS/Core/Include/cmsis_gcc.h ****  * WARRANTIES OR CONDITIONS OF ANY KIND, either express or implied.
  21:./lib/chibios/os/common/ext/ARM/CMSIS/Core/Include/cmsis_gcc.h ****  * See the License for the specific language governing permissions and
  22:./lib/chibios/os/common/ext/ARM/CMSIS/Core/Include/cmsis_gcc.h ****  * limitations under the License.
  23:./lib/chibios/os/common/ext/ARM/CMSIS/Core/Include/cmsis_gcc.h ****  */
  24:./lib/chibios/os/common/ext/ARM/CMSIS/Core/Include/cmsis_gcc.h **** 
  25:./lib/chibios/os/common/ext/ARM/CMSIS/Core/Include/cmsis_gcc.h **** #ifndef __CMSIS_GCC_H
  26:./lib/chibios/os/common/ext/ARM/CMSIS/Core/Include/cmsis_gcc.h **** #define __CMSIS_GCC_H
  27:./lib/chibios/os/common/ext/ARM/CMSIS/Core/Include/cmsis_gcc.h **** 
  28:./lib/chibios/os/common/ext/ARM/CMSIS/Core/Include/cmsis_gcc.h **** /* ignore some GCC warnings */
  29:./lib/chibios/os/common/ext/ARM/CMSIS/Core/Include/cmsis_gcc.h **** #pragma GCC diagnostic push
  30:./lib/chibios/os/common/ext/ARM/CMSIS/Core/Include/cmsis_gcc.h **** #pragma GCC diagnostic ignored "-Wsign-conversion"
  31:./lib/chibios/os/common/ext/ARM/CMSIS/Core/Include/cmsis_gcc.h **** #pragma GCC diagnostic ignored "-Wconversion"
  32:./lib/chibios/os/common/ext/ARM/CMSIS/Core/Include/cmsis_gcc.h **** #pragma GCC diagnostic ignored "-Wunused-parameter"
  33:./lib/chibios/os/common/ext/ARM/CMSIS/Core/Include/cmsis_gcc.h **** 
  34:./lib/chibios/os/common/ext/ARM/CMSIS/Core/Include/cmsis_gcc.h **** /* Fallback for __has_builtin */
  35:./lib/chibios/os/common/ext/ARM/CMSIS/Core/Include/cmsis_gcc.h **** #ifndef __has_builtin
  36:./lib/chibios/os/common/ext/ARM/CMSIS/Core/Include/cmsis_gcc.h ****   #define __has_builtin(x) (0)
  37:./lib/chibios/os/common/ext/ARM/CMSIS/Core/Include/cmsis_gcc.h **** #endif
  38:./lib/chibios/os/common/ext/ARM/CMSIS/Core/Include/cmsis_gcc.h **** 
  39:./lib/chibios/os/common/ext/ARM/CMSIS/Core/Include/cmsis_gcc.h **** /* CMSIS compiler specific defines */
  40:./lib/chibios/os/common/ext/ARM/CMSIS/Core/Include/cmsis_gcc.h **** #ifndef   __ASM
  41:./lib/chibios/os/common/ext/ARM/CMSIS/Core/Include/cmsis_gcc.h ****   #define __ASM                                  __asm
  42:./lib/chibios/os/common/ext/ARM/CMSIS/Core/Include/cmsis_gcc.h **** #endif
  43:./lib/chibios/os/common/ext/ARM/CMSIS/Core/Include/cmsis_gcc.h **** #ifndef   __INLINE
  44:./lib/chibios/os/common/ext/ARM/CMSIS/Core/Include/cmsis_gcc.h ****   #define __INLINE                               inline
  45:./lib/chibios/os/common/ext/ARM/CMSIS/Core/Include/cmsis_gcc.h **** #endif
  46:./lib/chibios/os/common/ext/ARM/CMSIS/Core/Include/cmsis_gcc.h **** #ifndef   __STATIC_INLINE
  47:./lib/chibios/os/common/ext/ARM/CMSIS/Core/Include/cmsis_gcc.h ****   #define __STATIC_INLINE                        static inline
  48:./lib/chibios/os/common/ext/ARM/CMSIS/Core/Include/cmsis_gcc.h **** #endif
  49:./lib/chibios/os/common/ext/ARM/CMSIS/Core/Include/cmsis_gcc.h **** #ifndef   __STATIC_FORCEINLINE                 
  50:./lib/chibios/os/common/ext/ARM/CMSIS/Core/Include/cmsis_gcc.h ****   #define __STATIC_FORCEINLINE                   __attribute__((always_inline)) static inline
  51:./lib/chibios/os/common/ext/ARM/CMSIS/Core/Include/cmsis_gcc.h **** #endif                                           
  52:./lib/chibios/os/common/ext/ARM/CMSIS/Core/Include/cmsis_gcc.h **** #ifndef   __NO_RETURN
  53:./lib/chibios/os/common/ext/ARM/CMSIS/Core/Include/cmsis_gcc.h ****   #define __NO_RETURN                            __attribute__((__noreturn__))
  54:./lib/chibios/os/common/ext/ARM/CMSIS/Core/Include/cmsis_gcc.h **** #endif
  55:./lib/chibios/os/common/ext/ARM/CMSIS/Core/Include/cmsis_gcc.h **** #ifndef   __USED
  56:./lib/chibios/os/common/ext/ARM/CMSIS/Core/Include/cmsis_gcc.h ****   #define __USED                                 __attribute__((used))
  57:./lib/chibios/os/common/ext/ARM/CMSIS/Core/Include/cmsis_gcc.h **** #endif
  58:./lib/chibios/os/common/ext/ARM/CMSIS/Core/Include/cmsis_gcc.h **** #ifndef   __WEAK
  59:./lib/chibios/os/common/ext/ARM/CMSIS/Core/Include/cmsis_gcc.h ****   #define __WEAK                                 __attribute__((weak))
  60:./lib/chibios/os/common/ext/ARM/CMSIS/Core/Include/cmsis_gcc.h **** #endif
  61:./lib/chibios/os/common/ext/ARM/CMSIS/Core/Include/cmsis_gcc.h **** #ifndef   __PACKED
  62:./lib/chibios/os/common/ext/ARM/CMSIS/Core/Include/cmsis_gcc.h ****   #define __PACKED                               __attribute__((packed, aligned(1)))
  63:./lib/chibios/os/common/ext/ARM/CMSIS/Core/Include/cmsis_gcc.h **** #endif
  64:./lib/chibios/os/common/ext/ARM/CMSIS/Core/Include/cmsis_gcc.h **** #ifndef   __PACKED_STRUCT
  65:./lib/chibios/os/common/ext/ARM/CMSIS/Core/Include/cmsis_gcc.h ****   #define __PACKED_STRUCT                        struct __attribute__((packed, aligned(1)))
  66:./lib/chibios/os/common/ext/ARM/CMSIS/Core/Include/cmsis_gcc.h **** #endif
  67:./lib/chibios/os/common/ext/ARM/CMSIS/Core/Include/cmsis_gcc.h **** #ifndef   __PACKED_UNION
  68:./lib/chibios/os/common/ext/ARM/CMSIS/Core/Include/cmsis_gcc.h ****   #define __PACKED_UNION                         union __attribute__((packed, aligned(1)))
  69:./lib/chibios/os/common/ext/ARM/CMSIS/Core/Include/cmsis_gcc.h **** #endif
  70:./lib/chibios/os/common/ext/ARM/CMSIS/Core/Include/cmsis_gcc.h **** #ifndef   __UNALIGNED_UINT32        /* deprecated */
  71:./lib/chibios/os/common/ext/ARM/CMSIS/Core/Include/cmsis_gcc.h ****   #pragma GCC diagnostic push
  72:./lib/chibios/os/common/ext/ARM/CMSIS/Core/Include/cmsis_gcc.h ****   #pragma GCC diagnostic ignored "-Wpacked"
  73:./lib/chibios/os/common/ext/ARM/CMSIS/Core/Include/cmsis_gcc.h ****   #pragma GCC diagnostic ignored "-Wattributes"
  74:./lib/chibios/os/common/ext/ARM/CMSIS/Core/Include/cmsis_gcc.h ****   struct __attribute__((packed)) T_UINT32 { uint32_t v; };
  75:./lib/chibios/os/common/ext/ARM/CMSIS/Core/Include/cmsis_gcc.h ****   #pragma GCC diagnostic pop
  76:./lib/chibios/os/common/ext/ARM/CMSIS/Core/Include/cmsis_gcc.h ****   #define __UNALIGNED_UINT32(x)                  (((struct T_UINT32 *)(x))->v)
  77:./lib/chibios/os/common/ext/ARM/CMSIS/Core/Include/cmsis_gcc.h **** #endif
  78:./lib/chibios/os/common/ext/ARM/CMSIS/Core/Include/cmsis_gcc.h **** #ifndef   __UNALIGNED_UINT16_WRITE
  79:./lib/chibios/os/common/ext/ARM/CMSIS/Core/Include/cmsis_gcc.h ****   #pragma GCC diagnostic push
  80:./lib/chibios/os/common/ext/ARM/CMSIS/Core/Include/cmsis_gcc.h ****   #pragma GCC diagnostic ignored "-Wpacked"
  81:./lib/chibios/os/common/ext/ARM/CMSIS/Core/Include/cmsis_gcc.h ****   #pragma GCC diagnostic ignored "-Wattributes"
  82:./lib/chibios/os/common/ext/ARM/CMSIS/Core/Include/cmsis_gcc.h ****   __PACKED_STRUCT T_UINT16_WRITE { uint16_t v; };
  83:./lib/chibios/os/common/ext/ARM/CMSIS/Core/Include/cmsis_gcc.h ****   #pragma GCC diagnostic pop
  84:./lib/chibios/os/common/ext/ARM/CMSIS/Core/Include/cmsis_gcc.h ****   #define __UNALIGNED_UINT16_WRITE(addr, val)    (void)((((struct T_UINT16_WRITE *)(void *)(addr))-
  85:./lib/chibios/os/common/ext/ARM/CMSIS/Core/Include/cmsis_gcc.h **** #endif
  86:./lib/chibios/os/common/ext/ARM/CMSIS/Core/Include/cmsis_gcc.h **** #ifndef   __UNALIGNED_UINT16_READ
  87:./lib/chibios/os/common/ext/ARM/CMSIS/Core/Include/cmsis_gcc.h ****   #pragma GCC diagnostic push
  88:./lib/chibios/os/common/ext/ARM/CMSIS/Core/Include/cmsis_gcc.h ****   #pragma GCC diagnostic ignored "-Wpacked"
  89:./lib/chibios/os/common/ext/ARM/CMSIS/Core/Include/cmsis_gcc.h ****   #pragma GCC diagnostic ignored "-Wattributes"
  90:./lib/chibios/os/common/ext/ARM/CMSIS/Core/Include/cmsis_gcc.h ****   __PACKED_STRUCT T_UINT16_READ { uint16_t v; };
  91:./lib/chibios/os/common/ext/ARM/CMSIS/Core/Include/cmsis_gcc.h ****   #pragma GCC diagnostic pop
  92:./lib/chibios/os/common/ext/ARM/CMSIS/Core/Include/cmsis_gcc.h ****   #define __UNALIGNED_UINT16_READ(addr)          (((const struct T_UINT16_READ *)(const void *)(add
  93:./lib/chibios/os/common/ext/ARM/CMSIS/Core/Include/cmsis_gcc.h **** #endif
  94:./lib/chibios/os/common/ext/ARM/CMSIS/Core/Include/cmsis_gcc.h **** #ifndef   __UNALIGNED_UINT32_WRITE
  95:./lib/chibios/os/common/ext/ARM/CMSIS/Core/Include/cmsis_gcc.h ****   #pragma GCC diagnostic push
  96:./lib/chibios/os/common/ext/ARM/CMSIS/Core/Include/cmsis_gcc.h ****   #pragma GCC diagnostic ignored "-Wpacked"
  97:./lib/chibios/os/common/ext/ARM/CMSIS/Core/Include/cmsis_gcc.h ****   #pragma GCC diagnostic ignored "-Wattributes"
  98:./lib/chibios/os/common/ext/ARM/CMSIS/Core/Include/cmsis_gcc.h ****   __PACKED_STRUCT T_UINT32_WRITE { uint32_t v; };
  99:./lib/chibios/os/common/ext/ARM/CMSIS/Core/Include/cmsis_gcc.h ****   #pragma GCC diagnostic pop
 100:./lib/chibios/os/common/ext/ARM/CMSIS/Core/Include/cmsis_gcc.h ****   #define __UNALIGNED_UINT32_WRITE(addr, val)    (void)((((struct T_UINT32_WRITE *)(void *)(addr))-
 101:./lib/chibios/os/common/ext/ARM/CMSIS/Core/Include/cmsis_gcc.h **** #endif
 102:./lib/chibios/os/common/ext/ARM/CMSIS/Core/Include/cmsis_gcc.h **** #ifndef   __UNALIGNED_UINT32_READ
 103:./lib/chibios/os/common/ext/ARM/CMSIS/Core/Include/cmsis_gcc.h ****   #pragma GCC diagnostic push
 104:./lib/chibios/os/common/ext/ARM/CMSIS/Core/Include/cmsis_gcc.h ****   #pragma GCC diagnostic ignored "-Wpacked"
 105:./lib/chibios/os/common/ext/ARM/CMSIS/Core/Include/cmsis_gcc.h ****   #pragma GCC diagnostic ignored "-Wattributes"
 106:./lib/chibios/os/common/ext/ARM/CMSIS/Core/Include/cmsis_gcc.h ****   __PACKED_STRUCT T_UINT32_READ { uint32_t v; };
 107:./lib/chibios/os/common/ext/ARM/CMSIS/Core/Include/cmsis_gcc.h ****   #pragma GCC diagnostic pop
 108:./lib/chibios/os/common/ext/ARM/CMSIS/Core/Include/cmsis_gcc.h ****   #define __UNALIGNED_UINT32_READ(addr)          (((const struct T_UINT32_READ *)(const void *)(add
 109:./lib/chibios/os/common/ext/ARM/CMSIS/Core/Include/cmsis_gcc.h **** #endif
 110:./lib/chibios/os/common/ext/ARM/CMSIS/Core/Include/cmsis_gcc.h **** #ifndef   __ALIGNED
 111:./lib/chibios/os/common/ext/ARM/CMSIS/Core/Include/cmsis_gcc.h ****   #define __ALIGNED(x)                           __attribute__((aligned(x)))
 112:./lib/chibios/os/common/ext/ARM/CMSIS/Core/Include/cmsis_gcc.h **** #endif
 113:./lib/chibios/os/common/ext/ARM/CMSIS/Core/Include/cmsis_gcc.h **** #ifndef   __RESTRICT
 114:./lib/chibios/os/common/ext/ARM/CMSIS/Core/Include/cmsis_gcc.h ****   #define __RESTRICT                             __restrict
 115:./lib/chibios/os/common/ext/ARM/CMSIS/Core/Include/cmsis_gcc.h **** #endif
 116:./lib/chibios/os/common/ext/ARM/CMSIS/Core/Include/cmsis_gcc.h **** 
 117:./lib/chibios/os/common/ext/ARM/CMSIS/Core/Include/cmsis_gcc.h **** 
 118:./lib/chibios/os/common/ext/ARM/CMSIS/Core/Include/cmsis_gcc.h **** /* ###########################  Core Function Access  ########################### */
 119:./lib/chibios/os/common/ext/ARM/CMSIS/Core/Include/cmsis_gcc.h **** /** \ingroup  CMSIS_Core_FunctionInterface
 120:./lib/chibios/os/common/ext/ARM/CMSIS/Core/Include/cmsis_gcc.h ****     \defgroup CMSIS_Core_RegAccFunctions CMSIS Core Register Access Functions
 121:./lib/chibios/os/common/ext/ARM/CMSIS/Core/Include/cmsis_gcc.h ****   @{
 122:./lib/chibios/os/common/ext/ARM/CMSIS/Core/Include/cmsis_gcc.h ****  */
 123:./lib/chibios/os/common/ext/ARM/CMSIS/Core/Include/cmsis_gcc.h **** 
 124:./lib/chibios/os/common/ext/ARM/CMSIS/Core/Include/cmsis_gcc.h **** /**
 125:./lib/chibios/os/common/ext/ARM/CMSIS/Core/Include/cmsis_gcc.h ****   \brief   Enable IRQ Interrupts
 126:./lib/chibios/os/common/ext/ARM/CMSIS/Core/Include/cmsis_gcc.h ****   \details Enables IRQ interrupts by clearing the I-bit in the CPSR.
 127:./lib/chibios/os/common/ext/ARM/CMSIS/Core/Include/cmsis_gcc.h ****            Can only be executed in Privileged modes.
 128:./lib/chibios/os/common/ext/ARM/CMSIS/Core/Include/cmsis_gcc.h ****  */
 129:./lib/chibios/os/common/ext/ARM/CMSIS/Core/Include/cmsis_gcc.h **** __STATIC_FORCEINLINE void __enable_irq(void)
 130:./lib/chibios/os/common/ext/ARM/CMSIS/Core/Include/cmsis_gcc.h **** {
 131:./lib/chibios/os/common/ext/ARM/CMSIS/Core/Include/cmsis_gcc.h ****   __ASM volatile ("cpsie i" : : : "memory");
 132:./lib/chibios/os/common/ext/ARM/CMSIS/Core/Include/cmsis_gcc.h **** }
 133:./lib/chibios/os/common/ext/ARM/CMSIS/Core/Include/cmsis_gcc.h **** 
 134:./lib/chibios/os/common/ext/ARM/CMSIS/Core/Include/cmsis_gcc.h **** 
 135:./lib/chibios/os/common/ext/ARM/CMSIS/Core/Include/cmsis_gcc.h **** /**
 136:./lib/chibios/os/common/ext/ARM/CMSIS/Core/Include/cmsis_gcc.h ****   \brief   Disable IRQ Interrupts
 137:./lib/chibios/os/common/ext/ARM/CMSIS/Core/Include/cmsis_gcc.h ****   \details Disables IRQ interrupts by setting the I-bit in the CPSR.
 138:./lib/chibios/os/common/ext/ARM/CMSIS/Core/Include/cmsis_gcc.h ****            Can only be executed in Privileged modes.
 139:./lib/chibios/os/common/ext/ARM/CMSIS/Core/Include/cmsis_gcc.h ****  */
 140:./lib/chibios/os/common/ext/ARM/CMSIS/Core/Include/cmsis_gcc.h **** __STATIC_FORCEINLINE void __disable_irq(void)
 141:./lib/chibios/os/common/ext/ARM/CMSIS/Core/Include/cmsis_gcc.h **** {
 142:./lib/chibios/os/common/ext/ARM/CMSIS/Core/Include/cmsis_gcc.h ****   __ASM volatile ("cpsid i" : : : "memory");
 143:./lib/chibios/os/common/ext/ARM/CMSIS/Core/Include/cmsis_gcc.h **** }
 144:./lib/chibios/os/common/ext/ARM/CMSIS/Core/Include/cmsis_gcc.h **** 
 145:./lib/chibios/os/common/ext/ARM/CMSIS/Core/Include/cmsis_gcc.h **** 
 146:./lib/chibios/os/common/ext/ARM/CMSIS/Core/Include/cmsis_gcc.h **** /**
 147:./lib/chibios/os/common/ext/ARM/CMSIS/Core/Include/cmsis_gcc.h ****   \brief   Get Control Register
 148:./lib/chibios/os/common/ext/ARM/CMSIS/Core/Include/cmsis_gcc.h ****   \details Returns the content of the Control Register.
 149:./lib/chibios/os/common/ext/ARM/CMSIS/Core/Include/cmsis_gcc.h ****   \return               Control Register value
 150:./lib/chibios/os/common/ext/ARM/CMSIS/Core/Include/cmsis_gcc.h ****  */
 151:./lib/chibios/os/common/ext/ARM/CMSIS/Core/Include/cmsis_gcc.h **** __STATIC_FORCEINLINE uint32_t __get_CONTROL(void)
 152:./lib/chibios/os/common/ext/ARM/CMSIS/Core/Include/cmsis_gcc.h **** {
 153:./lib/chibios/os/common/ext/ARM/CMSIS/Core/Include/cmsis_gcc.h ****   uint32_t result;
 154:./lib/chibios/os/common/ext/ARM/CMSIS/Core/Include/cmsis_gcc.h **** 
 155:./lib/chibios/os/common/ext/ARM/CMSIS/Core/Include/cmsis_gcc.h ****   __ASM volatile ("MRS %0, control" : "=r" (result) );
 156:./lib/chibios/os/common/ext/ARM/CMSIS/Core/Include/cmsis_gcc.h ****   return(result);
 157:./lib/chibios/os/common/ext/ARM/CMSIS/Core/Include/cmsis_gcc.h **** }
 158:./lib/chibios/os/common/ext/ARM/CMSIS/Core/Include/cmsis_gcc.h **** 
 159:./lib/chibios/os/common/ext/ARM/CMSIS/Core/Include/cmsis_gcc.h **** 
 160:./lib/chibios/os/common/ext/ARM/CMSIS/Core/Include/cmsis_gcc.h **** #if (defined (__ARM_FEATURE_CMSE ) && (__ARM_FEATURE_CMSE == 3))
 161:./lib/chibios/os/common/ext/ARM/CMSIS/Core/Include/cmsis_gcc.h **** /**
 162:./lib/chibios/os/common/ext/ARM/CMSIS/Core/Include/cmsis_gcc.h ****   \brief   Get Control Register (non-secure)
 163:./lib/chibios/os/common/ext/ARM/CMSIS/Core/Include/cmsis_gcc.h ****   \details Returns the content of the non-secure Control Register when in secure mode.
 164:./lib/chibios/os/common/ext/ARM/CMSIS/Core/Include/cmsis_gcc.h ****   \return               non-secure Control Register value
 165:./lib/chibios/os/common/ext/ARM/CMSIS/Core/Include/cmsis_gcc.h ****  */
 166:./lib/chibios/os/common/ext/ARM/CMSIS/Core/Include/cmsis_gcc.h **** __STATIC_FORCEINLINE uint32_t __TZ_get_CONTROL_NS(void)
 167:./lib/chibios/os/common/ext/ARM/CMSIS/Core/Include/cmsis_gcc.h **** {
 168:./lib/chibios/os/common/ext/ARM/CMSIS/Core/Include/cmsis_gcc.h ****   uint32_t result;
 169:./lib/chibios/os/common/ext/ARM/CMSIS/Core/Include/cmsis_gcc.h **** 
 170:./lib/chibios/os/common/ext/ARM/CMSIS/Core/Include/cmsis_gcc.h ****   __ASM volatile ("MRS %0, control_ns" : "=r" (result) );
 171:./lib/chibios/os/common/ext/ARM/CMSIS/Core/Include/cmsis_gcc.h ****   return(result);
 172:./lib/chibios/os/common/ext/ARM/CMSIS/Core/Include/cmsis_gcc.h **** }
 173:./lib/chibios/os/common/ext/ARM/CMSIS/Core/Include/cmsis_gcc.h **** #endif
 174:./lib/chibios/os/common/ext/ARM/CMSIS/Core/Include/cmsis_gcc.h **** 
 175:./lib/chibios/os/common/ext/ARM/CMSIS/Core/Include/cmsis_gcc.h **** 
 176:./lib/chibios/os/common/ext/ARM/CMSIS/Core/Include/cmsis_gcc.h **** /**
 177:./lib/chibios/os/common/ext/ARM/CMSIS/Core/Include/cmsis_gcc.h ****   \brief   Set Control Register
 178:./lib/chibios/os/common/ext/ARM/CMSIS/Core/Include/cmsis_gcc.h ****   \details Writes the given value to the Control Register.
 179:./lib/chibios/os/common/ext/ARM/CMSIS/Core/Include/cmsis_gcc.h ****   \param [in]    control  Control Register value to set
 180:./lib/chibios/os/common/ext/ARM/CMSIS/Core/Include/cmsis_gcc.h ****  */
 181:./lib/chibios/os/common/ext/ARM/CMSIS/Core/Include/cmsis_gcc.h **** __STATIC_FORCEINLINE void __set_CONTROL(uint32_t control)
 182:./lib/chibios/os/common/ext/ARM/CMSIS/Core/Include/cmsis_gcc.h **** {
 183:./lib/chibios/os/common/ext/ARM/CMSIS/Core/Include/cmsis_gcc.h ****   __ASM volatile ("MSR control, %0" : : "r" (control) : "memory");
 184:./lib/chibios/os/common/ext/ARM/CMSIS/Core/Include/cmsis_gcc.h **** }
 185:./lib/chibios/os/common/ext/ARM/CMSIS/Core/Include/cmsis_gcc.h **** 
 186:./lib/chibios/os/common/ext/ARM/CMSIS/Core/Include/cmsis_gcc.h **** 
 187:./lib/chibios/os/common/ext/ARM/CMSIS/Core/Include/cmsis_gcc.h **** #if (defined (__ARM_FEATURE_CMSE ) && (__ARM_FEATURE_CMSE == 3))
 188:./lib/chibios/os/common/ext/ARM/CMSIS/Core/Include/cmsis_gcc.h **** /**
 189:./lib/chibios/os/common/ext/ARM/CMSIS/Core/Include/cmsis_gcc.h ****   \brief   Set Control Register (non-secure)
 190:./lib/chibios/os/common/ext/ARM/CMSIS/Core/Include/cmsis_gcc.h ****   \details Writes the given value to the non-secure Control Register when in secure state.
 191:./lib/chibios/os/common/ext/ARM/CMSIS/Core/Include/cmsis_gcc.h ****   \param [in]    control  Control Register value to set
 192:./lib/chibios/os/common/ext/ARM/CMSIS/Core/Include/cmsis_gcc.h ****  */
 193:./lib/chibios/os/common/ext/ARM/CMSIS/Core/Include/cmsis_gcc.h **** __STATIC_FORCEINLINE void __TZ_set_CONTROL_NS(uint32_t control)
 194:./lib/chibios/os/common/ext/ARM/CMSIS/Core/Include/cmsis_gcc.h **** {
 195:./lib/chibios/os/common/ext/ARM/CMSIS/Core/Include/cmsis_gcc.h ****   __ASM volatile ("MSR control_ns, %0" : : "r" (control) : "memory");
 196:./lib/chibios/os/common/ext/ARM/CMSIS/Core/Include/cmsis_gcc.h **** }
 197:./lib/chibios/os/common/ext/ARM/CMSIS/Core/Include/cmsis_gcc.h **** #endif
 198:./lib/chibios/os/common/ext/ARM/CMSIS/Core/Include/cmsis_gcc.h **** 
 199:./lib/chibios/os/common/ext/ARM/CMSIS/Core/Include/cmsis_gcc.h **** 
